
/home/oleg/scr1/build/verilator_wf_AHB_IMC/compliance_lh.elf:     формат файла elf32-littleriscv
/home/oleg/scr1/build/verilator_wf_AHB_IMC/compliance_lh.elf
архитектура: riscv:rv32, флаги 0x00000112:
EXEC_P, HAS_SYMS, D_PAGED
начальный адрес 0x00000200

Заголовок программы:
    LOAD off    0x00001000 vaddr 0x00000000 paddr 0x00000000 align 2**12
         filesz 0x00000788 memsz 0x000007a0 flags rwx
    LOAD off    0x00001c00 vaddr 0x0000fc00 paddr 0x0000fc00 align 2**12
         filesz 0x00000000 memsz 0x00000400 flags rw-

Разделы:
Idx Name          Size      VMA       LMA       File off  Algn  Флаги
  0 .text.init    00000284  00000000  00000000  00001000  2**6  CONTENTS, ALLOC, LOAD, READONLY, CODE
  1 .text         000003c0  000002a0  000002a0  000012a0  2**5  CONTENTS, ALLOC, LOAD, READONLY, CODE
  2 .data         000000e0  00000660  00000660  00001660  2**4  CONTENTS, ALLOC, LOAD, DATA
  3 .tohost       00000048  00000740  00000740  00001740  2**6  CONTENTS, ALLOC, LOAD, DATA
  4 .sdata        00000018  00000788  00000788  00001788  2**0  ALLOC
  5 .tdata        00000000  000007a0  000007a0  00001788  2**0  CONTENTS, ALLOC, LOAD, DATA, THREAD_LOCAL
  6 .tbss         00000000  000007a0  000007a0  00000000  2**0  ALLOC, THREAD_LOCAL
  7 .bss          00000000  000007a0  000007a0  00001788  2**0  ALLOC
  8 .stack        00000400  0000fc00  0000fc00  00001c00  2**0  ALLOC
SYMBOL TABLE:
00000000 l    d  .text.init	00000000 .text.init
000002a0 l    d  .text	00000000 .text
00000660 l    d  .data	00000000 .data
00000740 l    d  .tohost	00000000 .tohost
00000788 l    d  .sdata	00000000 .sdata
000007a0 l    d  .tdata	00000000 .tdata
000007a0 l    d  .tbss	00000000 .tbss
000007a0 l    d  .bss	00000000 .bss
0000fc00 l    d  .stack	00000000 .stack
00000000 l    df *ABS*	00000000 /home/oleg/scr1/build/verilator_wf_AHB_IMC/riscv_compliance/riscv_compliance_objs/lh.o
00000620 l       .text	00000000 sc_exit
000001c0 l       .text.init	00000000 trap_vector
000001fc l       .text.init	00000000 _report
000001f8 l       .text.init	00000000 handle_exception
000001f8 l       .text.init	00000000 other_exception
000002a0 l       .text	00000000 _run_test
000002a0 l       .text	00000000 test_2
00000660 l       .data	00000000 tdat
00000690 l       .data	00000000 test_res
000005e4 l       .text	00000000 fail
000002c4 l       .text	00000000 test_3
000002e8 l       .text	00000000 test_4
00000310 l       .text	00000000 test_5
00000338 l       .text	00000000 test_6
00000666 l       .data	00000000 tdat4
0000035c l       .text	00000000 test_7
00000380 l       .text	00000000 test_8
000003a8 l       .text	00000000 test_9
000003d0 l       .text	00000000 test_10
000003f8 l       .text	00000000 test_11
00000420 l       .text	00000000 test_12
00000662 l       .data	00000000 tdat2
0000045c l       .text	00000000 test_13
00000664 l       .data	00000000 tdat3
0000049c l       .text	00000000 test_14
00000660 l       .data	00000000 tdat1
000004dc l       .text	00000000 test_15
00000514 l       .text	00000000 test_16
00000550 l       .text	00000000 test_17
0000058c l       .text	00000000 test_18
000005b4 l       .text	00000000 test_19
000005f4 l       .text	00000000 pass
00000604 l       .text	00000000 ecall
00000400 g       *ABS*	00000000 STACK_SIZE
00000f88 g       .sdata	00000000 __global_pointer$
00000730 g       .data	00000000 end_signature
00000670 g       .data	00000000 begin_regstate
00000690 g       .data	00000000 begin_signature
00000200 g       .text.init	00000000 _start
00000020 g       *ABS*	00000000 CL_SIZE
000000f8 g       .text.init	00000000 SIM_STOP
000007a0 g       .bss	00000000 _end
00000780 g       .tohost	00000000 fromhost
00000740 g       .tohost	00000000 tohost
000000f4 g       .text.init	00000000 SIM_EXIT



Дизассемблирование раздела .text.init:

00000000 <SIM_EXIT-0xf4>:
	...

000000f4 <SIM_EXIT>:
  f4:	00000013          	nop

000000f8 <SIM_STOP>:
  f8:	0000006f          	j	f8 <SIM_STOP>
  fc:	ffff                	0xffff
  fe:	ffff                	0xffff
	...

000001c0 <trap_vector>:
 1c0:	34202773          	csrr	a4,mcause
 1c4:	00800793          	li	a5,8
 1c8:	02f70a63          	beq	a4,a5,1fc <_report>
 1cc:	00900793          	li	a5,9
 1d0:	02f70663          	beq	a4,a5,1fc <_report>
 1d4:	00b00793          	li	a5,11
 1d8:	02f70263          	beq	a4,a5,1fc <_report>
 1dc:	00000717          	auipc	a4,0x0
 1e0:	e2470713          	addi	a4,a4,-476 # 0 <CL_SIZE-0x20>
 1e4:	00070463          	beqz	a4,1ec <trap_vector+0x2c>
 1e8:	00070067          	jr	a4
 1ec:	34202773          	csrr	a4,mcause
 1f0:	00075463          	bgez	a4,1f8 <handle_exception>
 1f4:	0040006f          	j	1f8 <handle_exception>

000001f8 <handle_exception>:
 1f8:	00100513          	li	a0,1

000001fc <_report>:
 1fc:	4240006f          	j	620 <sc_exit>

00000200 <_start>:
 200:	f1402573          	csrr	a0,mhartid
 204:	00051063          	bnez	a0,204 <_start+0x4>
 208:	00000193          	li	gp,0
 20c:	00000297          	auipc	t0,0x0
 210:	fb428293          	addi	t0,t0,-76 # 1c0 <trap_vector>
 214:	30529073          	csrw	mtvec,t0
 218:	00100513          	li	a0,1
 21c:	01f51513          	slli	a0,a0,0x1f
 220:	00054a63          	bltz	a0,234 <_start+0x34>
 224:	0ff0000f          	fence
 228:	00018593          	mv	a1,gp
 22c:	00000513          	li	a0,0
 230:	00000073          	ecall
 234:	01f55513          	srli	a0,a0,0x1f
 238:	00000297          	auipc	t0,0x0
 23c:	45828293          	addi	t0,t0,1112 # 690 <begin_signature>
 240:	00a2a023          	sw	a0,0(t0)
 244:	00000297          	auipc	t0,0x0
 248:	dbc28293          	addi	t0,t0,-580 # 0 <CL_SIZE-0x20>
 24c:	00028e63          	beqz	t0,268 <_start+0x68>
 250:	10529073          	csrw	stvec,t0
 254:	0000b2b7          	lui	t0,0xb
 258:	10928293          	addi	t0,t0,265 # b109 <__global_pointer$+0xa181>
 25c:	30229073          	csrw	medeleg,t0
 260:	30202373          	csrr	t1,medeleg
 264:	f8629ae3          	bne	t0,t1,1f8 <handle_exception>
 268:	30005073          	csrwi	mstatus,0
 26c:	00000297          	auipc	t0,0x0
 270:	03428293          	addi	t0,t0,52 # 2a0 <_run_test>
 274:	34129073          	csrw	mepc,t0
 278:	f1402573          	csrr	a0,mhartid
 27c:	30200073          	mret
 280:	0000                	unimp
	...

Дизассемблирование раздела .text:

000002a0 <_run_test>:
 2a0:	00000097          	auipc	ra,0x0
 2a4:	3c008093          	addi	ra,ra,960 # 660 <tdat>
 2a8:	00009f03          	lh	t5,0(ra)
 2ac:	0ff00e93          	li	t4,255
 2b0:	00200193          	li	gp,2
 2b4:	00000e17          	auipc	t3,0x0
 2b8:	3dce0e13          	addi	t3,t3,988 # 690 <begin_signature>
 2bc:	01ee2423          	sw	t5,8(t3)
 2c0:	33df1263          	bne	t5,t4,5e4 <fail>

000002c4 <test_3>:
 2c4:	00000097          	auipc	ra,0x0
 2c8:	39c08093          	addi	ra,ra,924 # 660 <tdat>
 2cc:	00209f03          	lh	t5,2(ra)
 2d0:	f0000e93          	li	t4,-256
 2d4:	00300193          	li	gp,3
 2d8:	00000e17          	auipc	t3,0x0
 2dc:	3b8e0e13          	addi	t3,t3,952 # 690 <begin_signature>
 2e0:	01ee2623          	sw	t5,12(t3)
 2e4:	31df1063          	bne	t5,t4,5e4 <fail>

000002e8 <test_4>:
 2e8:	00000097          	auipc	ra,0x0
 2ec:	37808093          	addi	ra,ra,888 # 660 <tdat>
 2f0:	00409f03          	lh	t5,4(ra)
 2f4:	00001eb7          	lui	t4,0x1
 2f8:	ff0e8e93          	addi	t4,t4,-16 # ff0 <__global_pointer$+0x68>
 2fc:	00400193          	li	gp,4
 300:	00000e17          	auipc	t3,0x0
 304:	390e0e13          	addi	t3,t3,912 # 690 <begin_signature>
 308:	01ee2823          	sw	t5,16(t3)
 30c:	2ddf1c63          	bne	t5,t4,5e4 <fail>

00000310 <test_5>:
 310:	00000097          	auipc	ra,0x0
 314:	35008093          	addi	ra,ra,848 # 660 <tdat>
 318:	00609f03          	lh	t5,6(ra)
 31c:	fffffeb7          	lui	t4,0xfffff
 320:	00fe8e93          	addi	t4,t4,15 # fffff00f <__global_pointer$+0xffffe087>
 324:	00500193          	li	gp,5
 328:	00000e17          	auipc	t3,0x0
 32c:	368e0e13          	addi	t3,t3,872 # 690 <begin_signature>
 330:	01ee2a23          	sw	t5,20(t3)
 334:	2bdf1863          	bne	t5,t4,5e4 <fail>

00000338 <test_6>:
 338:	00000097          	auipc	ra,0x0
 33c:	32e08093          	addi	ra,ra,814 # 666 <tdat4>
 340:	ffa09f03          	lh	t5,-6(ra)
 344:	0ff00e93          	li	t4,255
 348:	00600193          	li	gp,6
 34c:	00000e17          	auipc	t3,0x0
 350:	344e0e13          	addi	t3,t3,836 # 690 <begin_signature>
 354:	01ee2c23          	sw	t5,24(t3)
 358:	29df1663          	bne	t5,t4,5e4 <fail>

0000035c <test_7>:
 35c:	00000097          	auipc	ra,0x0
 360:	30a08093          	addi	ra,ra,778 # 666 <tdat4>
 364:	ffc09f03          	lh	t5,-4(ra)
 368:	f0000e93          	li	t4,-256
 36c:	00700193          	li	gp,7
 370:	00000e17          	auipc	t3,0x0
 374:	320e0e13          	addi	t3,t3,800 # 690 <begin_signature>
 378:	01ee2e23          	sw	t5,28(t3)
 37c:	27df1463          	bne	t5,t4,5e4 <fail>

00000380 <test_8>:
 380:	00000097          	auipc	ra,0x0
 384:	2e608093          	addi	ra,ra,742 # 666 <tdat4>
 388:	ffe09f03          	lh	t5,-2(ra)
 38c:	00001eb7          	lui	t4,0x1
 390:	ff0e8e93          	addi	t4,t4,-16 # ff0 <__global_pointer$+0x68>
 394:	00800193          	li	gp,8
 398:	00000e17          	auipc	t3,0x0
 39c:	2f8e0e13          	addi	t3,t3,760 # 690 <begin_signature>
 3a0:	03ee2023          	sw	t5,32(t3)
 3a4:	25df1063          	bne	t5,t4,5e4 <fail>

000003a8 <test_9>:
 3a8:	00000097          	auipc	ra,0x0
 3ac:	2be08093          	addi	ra,ra,702 # 666 <tdat4>
 3b0:	00009f03          	lh	t5,0(ra)
 3b4:	fffffeb7          	lui	t4,0xfffff
 3b8:	00fe8e93          	addi	t4,t4,15 # fffff00f <__global_pointer$+0xffffe087>
 3bc:	00900193          	li	gp,9
 3c0:	00000e17          	auipc	t3,0x0
 3c4:	2d0e0e13          	addi	t3,t3,720 # 690 <begin_signature>
 3c8:	03ee2223          	sw	t5,36(t3)
 3cc:	21df1c63          	bne	t5,t4,5e4 <fail>

000003d0 <test_10>:
 3d0:	00000097          	auipc	ra,0x0
 3d4:	29008093          	addi	ra,ra,656 # 660 <tdat>
 3d8:	fe008093          	addi	ra,ra,-32
 3dc:	02009283          	lh	t0,32(ra)
 3e0:	0ff00e93          	li	t4,255
 3e4:	00a00193          	li	gp,10
 3e8:	00000e17          	auipc	t3,0x0
 3ec:	2a8e0e13          	addi	t3,t3,680 # 690 <begin_signature>
 3f0:	025e2423          	sw	t0,40(t3)
 3f4:	1fd29863          	bne	t0,t4,5e4 <fail>

000003f8 <test_11>:
 3f8:	00000097          	auipc	ra,0x0
 3fc:	26808093          	addi	ra,ra,616 # 660 <tdat>
 400:	ffb08093          	addi	ra,ra,-5
 404:	00709283          	lh	t0,7(ra)
 408:	f0000e93          	li	t4,-256
 40c:	00b00193          	li	gp,11
 410:	00000e17          	auipc	t3,0x0
 414:	280e0e13          	addi	t3,t3,640 # 690 <begin_signature>
 418:	025e2623          	sw	t0,44(t3)
 41c:	1dd29463          	bne	t0,t4,5e4 <fail>

00000420 <test_12>:
 420:	00c00193          	li	gp,12
 424:	00000e17          	auipc	t3,0x0
 428:	26ce0e13          	addi	t3,t3,620 # 690 <begin_signature>
 42c:	023e2823          	sw	gp,48(t3)
 430:	00000213          	li	tp,0
 434:	00000097          	auipc	ra,0x0
 438:	22e08093          	addi	ra,ra,558 # 662 <tdat2>
 43c:	00209f03          	lh	t5,2(ra)
 440:	000f0313          	mv	t1,t5
 444:	00001eb7          	lui	t4,0x1
 448:	ff0e8e93          	addi	t4,t4,-16 # ff0 <__global_pointer$+0x68>
 44c:	19d31c63          	bne	t1,t4,5e4 <fail>
 450:	00120213          	addi	tp,tp,1 # 1 <CL_SIZE-0x1f>
 454:	00200293          	li	t0,2
 458:	fc521ee3          	bne	tp,t0,434 <test_12+0x14>

0000045c <test_13>:
 45c:	00d00193          	li	gp,13
 460:	00000e17          	auipc	t3,0x0
 464:	230e0e13          	addi	t3,t3,560 # 690 <begin_signature>
 468:	023e2a23          	sw	gp,52(t3)
 46c:	00000213          	li	tp,0
 470:	00000097          	auipc	ra,0x0
 474:	1f408093          	addi	ra,ra,500 # 664 <tdat3>
 478:	00209f03          	lh	t5,2(ra)
 47c:	00000013          	nop
 480:	000f0313          	mv	t1,t5
 484:	fffffeb7          	lui	t4,0xfffff
 488:	00fe8e93          	addi	t4,t4,15 # fffff00f <__global_pointer$+0xffffe087>
 48c:	15d31c63          	bne	t1,t4,5e4 <fail>
 490:	00120213          	addi	tp,tp,1 # 1 <CL_SIZE-0x1f>
 494:	00200293          	li	t0,2
 498:	fc521ce3          	bne	tp,t0,470 <test_13+0x14>

0000049c <test_14>:
 49c:	00e00193          	li	gp,14
 4a0:	00000e17          	auipc	t3,0x0
 4a4:	1f0e0e13          	addi	t3,t3,496 # 690 <begin_signature>
 4a8:	023e2c23          	sw	gp,56(t3)
 4ac:	00000213          	li	tp,0
 4b0:	00000097          	auipc	ra,0x0
 4b4:	1b008093          	addi	ra,ra,432 # 660 <tdat>
 4b8:	00209f03          	lh	t5,2(ra)
 4bc:	00000013          	nop
 4c0:	00000013          	nop
 4c4:	000f0313          	mv	t1,t5
 4c8:	f0000e93          	li	t4,-256
 4cc:	11d31c63          	bne	t1,t4,5e4 <fail>
 4d0:	00120213          	addi	tp,tp,1 # 1 <CL_SIZE-0x1f>
 4d4:	00200293          	li	t0,2
 4d8:	fc521ce3          	bne	tp,t0,4b0 <test_14+0x14>

000004dc <test_15>:
 4dc:	00f00193          	li	gp,15
 4e0:	00000e17          	auipc	t3,0x0
 4e4:	1b0e0e13          	addi	t3,t3,432 # 690 <begin_signature>
 4e8:	023e2e23          	sw	gp,60(t3)
 4ec:	00000213          	li	tp,0
 4f0:	00000097          	auipc	ra,0x0
 4f4:	17208093          	addi	ra,ra,370 # 662 <tdat2>
 4f8:	00209f03          	lh	t5,2(ra)
 4fc:	00001eb7          	lui	t4,0x1
 500:	ff0e8e93          	addi	t4,t4,-16 # ff0 <__global_pointer$+0x68>
 504:	0fdf1063          	bne	t5,t4,5e4 <fail>
 508:	00120213          	addi	tp,tp,1 # 1 <CL_SIZE-0x1f>
 50c:	00200293          	li	t0,2
 510:	fe5210e3          	bne	tp,t0,4f0 <test_15+0x14>

00000514 <test_16>:
 514:	01000193          	li	gp,16
 518:	00000e17          	auipc	t3,0x0
 51c:	178e0e13          	addi	t3,t3,376 # 690 <begin_signature>
 520:	043e2023          	sw	gp,64(t3)
 524:	00000213          	li	tp,0
 528:	00000097          	auipc	ra,0x0
 52c:	13c08093          	addi	ra,ra,316 # 664 <tdat3>
 530:	00000013          	nop
 534:	00209f03          	lh	t5,2(ra)
 538:	fffffeb7          	lui	t4,0xfffff
 53c:	00fe8e93          	addi	t4,t4,15 # fffff00f <__global_pointer$+0xffffe087>
 540:	0bdf1263          	bne	t5,t4,5e4 <fail>
 544:	00120213          	addi	tp,tp,1 # 1 <CL_SIZE-0x1f>
 548:	00200293          	li	t0,2
 54c:	fc521ee3          	bne	tp,t0,528 <test_16+0x14>

00000550 <test_17>:
 550:	01100193          	li	gp,17
 554:	00000e17          	auipc	t3,0x0
 558:	13ce0e13          	addi	t3,t3,316 # 690 <begin_signature>
 55c:	043e2223          	sw	gp,68(t3)
 560:	00000213          	li	tp,0
 564:	00000097          	auipc	ra,0x0
 568:	0fc08093          	addi	ra,ra,252 # 660 <tdat>
 56c:	00000013          	nop
 570:	00000013          	nop
 574:	00209f03          	lh	t5,2(ra)
 578:	f0000e93          	li	t4,-256
 57c:	07df1463          	bne	t5,t4,5e4 <fail>
 580:	00120213          	addi	tp,tp,1 # 1 <CL_SIZE-0x1f>
 584:	00200293          	li	t0,2
 588:	fc521ee3          	bne	tp,t0,564 <test_17+0x14>

0000058c <test_18>:
 58c:	00000297          	auipc	t0,0x0
 590:	0d428293          	addi	t0,t0,212 # 660 <tdat>
 594:	00029103          	lh	sp,0(t0)
 598:	00200113          	li	sp,2
 59c:	00200e93          	li	t4,2
 5a0:	01200193          	li	gp,18
 5a4:	00000e17          	auipc	t3,0x0
 5a8:	0ece0e13          	addi	t3,t3,236 # 690 <begin_signature>
 5ac:	042e2423          	sw	sp,72(t3)
 5b0:	03d11a63          	bne	sp,t4,5e4 <fail>

000005b4 <test_19>:
 5b4:	00000297          	auipc	t0,0x0
 5b8:	0ac28293          	addi	t0,t0,172 # 660 <tdat>
 5bc:	00029103          	lh	sp,0(t0)
 5c0:	00000013          	nop
 5c4:	00200113          	li	sp,2
 5c8:	00200e93          	li	t4,2
 5cc:	01300193          	li	gp,19
 5d0:	00000e17          	auipc	t3,0x0
 5d4:	0c0e0e13          	addi	t3,t3,192 # 690 <begin_signature>
 5d8:	042e2623          	sw	sp,76(t3)
 5dc:	01d11463          	bne	sp,t4,5e4 <fail>
 5e0:	00301a63          	bne	zero,gp,5f4 <pass>

000005e4 <fail>:
 5e4:	0ff0000f          	fence
 5e8:	00018593          	mv	a1,gp
 5ec:	00100513          	li	a0,1
 5f0:	00000073          	ecall

000005f4 <pass>:
 5f4:	0ff0000f          	fence
 5f8:	00018593          	mv	a1,gp
 5fc:	00000513          	li	a0,0
 600:	00000073          	ecall

00000604 <ecall>:
 604:	00000073          	ecall
	...

00000620 <sc_exit>:
 620:	ad5ff06f          	j	f4 <SIM_EXIT>
 624:	00000013          	nop
 628:	00000013          	nop
 62c:	00000013          	nop
 630:	00000013          	nop
 634:	00000013          	nop
 638:	00000013          	nop
 63c:	00000013          	nop
	...

Дизассемблирование раздела .data:

00000660 <tdat>:
 660:	00ff                	0xff

00000662 <tdat2>:
 662:	ff00                	fsw	fs0,56(a4)

00000664 <tdat3>:
 664:	0ff0                	addi	a2,sp,988

00000666 <tdat4>:
 666:	0000f00f          	0xf00f
 66a:	0000                	unimp
 66c:	0000                	unimp
	...

00000670 <begin_regstate>:
	...

00000690 <begin_signature>:
 690:	ffff                	0xffff
 692:	ffff                	0xffff
 694:	ffff                	0xffff
 696:	ffff                	0xffff
 698:	ffff                	0xffff
 69a:	ffff                	0xffff
 69c:	ffff                	0xffff
 69e:	ffff                	0xffff
 6a0:	ffff                	0xffff
 6a2:	ffff                	0xffff
 6a4:	ffff                	0xffff
 6a6:	ffff                	0xffff
 6a8:	ffff                	0xffff
 6aa:	ffff                	0xffff
 6ac:	ffff                	0xffff
 6ae:	ffff                	0xffff
 6b0:	ffff                	0xffff
 6b2:	ffff                	0xffff
 6b4:	ffff                	0xffff
 6b6:	ffff                	0xffff
 6b8:	ffff                	0xffff
 6ba:	ffff                	0xffff
 6bc:	ffff                	0xffff
 6be:	ffff                	0xffff
 6c0:	ffff                	0xffff
 6c2:	ffff                	0xffff
 6c4:	ffff                	0xffff
 6c6:	ffff                	0xffff
 6c8:	ffff                	0xffff
 6ca:	ffff                	0xffff
 6cc:	ffff                	0xffff
 6ce:	ffff                	0xffff
 6d0:	ffff                	0xffff
 6d2:	ffff                	0xffff
 6d4:	ffff                	0xffff
 6d6:	ffff                	0xffff
 6d8:	ffff                	0xffff
 6da:	ffff                	0xffff
 6dc:	ffff                	0xffff
 6de:	ffff                	0xffff
 6e0:	ffff                	0xffff
 6e2:	ffff                	0xffff
 6e4:	ffff                	0xffff
 6e6:	ffff                	0xffff
 6e8:	ffff                	0xffff
 6ea:	ffff                	0xffff
 6ec:	ffff                	0xffff
 6ee:	ffff                	0xffff
 6f0:	ffff                	0xffff
 6f2:	ffff                	0xffff
 6f4:	ffff                	0xffff
 6f6:	ffff                	0xffff
 6f8:	ffff                	0xffff
 6fa:	ffff                	0xffff
 6fc:	ffff                	0xffff
 6fe:	ffff                	0xffff
 700:	ffff                	0xffff
 702:	ffff                	0xffff
 704:	ffff                	0xffff
 706:	ffff                	0xffff
 708:	ffff                	0xffff
 70a:	ffff                	0xffff
 70c:	ffff                	0xffff
 70e:	ffff                	0xffff
 710:	ffff                	0xffff
 712:	ffff                	0xffff
 714:	ffff                	0xffff
 716:	ffff                	0xffff
 718:	ffff                	0xffff
 71a:	ffff                	0xffff
 71c:	ffff                	0xffff
 71e:	ffff                	0xffff
 720:	ffff                	0xffff
 722:	ffff                	0xffff
 724:	ffff                	0xffff
 726:	ffff                	0xffff
 728:	ffff                	0xffff
 72a:	ffff                	0xffff
 72c:	ffff                	0xffff
 72e:	ffff                	0xffff

00000730 <end_signature>:
	...

Дизассемблирование раздела .tohost:

00000740 <tohost>:
	...

00000780 <fromhost>:
	...

Дизассемблирование раздела .sdata:

00000788 <__global_pointer$-0x800>:
	...

Дизассемблирование раздела .stack:

0000fc00 <.stack>:
	...
