
/home/oleg/scr1/build/verilator_wf_AHB_IMC/compliance_I-LW-01.elf:     формат файла elf32-littleriscv
/home/oleg/scr1/build/verilator_wf_AHB_IMC/compliance_I-LW-01.elf
архитектура: riscv:rv32, флаги 0x00000112:
EXEC_P, HAS_SYMS, D_PAGED
начальный адрес 0x00000200

Заголовок программы:
    LOAD off    0x00001000 vaddr 0x00000000 paddr 0x00000000 align 2**12
         filesz 0x00000e08 memsz 0x00000e20 flags rwx
    LOAD off    0x00002c00 vaddr 0x0000fc00 paddr 0x0000fc00 align 2**12
         filesz 0x00000000 memsz 0x00000400 flags rw-

Разделы:
Idx Name          Size      VMA       LMA       File off  Algn  Флаги
  0 .text.init    00000284  00000000  00000000  00001000  2**6  CONTENTS, ALLOC, LOAD, READONLY, CODE
  1 .text         00000780  000002a0  000002a0  000012a0  2**5  CONTENTS, ALLOC, LOAD, READONLY, CODE
  2 .data         000003a0  00000a20  00000a20  00001a20  2**4  CONTENTS, ALLOC, LOAD, DATA
  3 .tohost       00000048  00000dc0  00000dc0  00001dc0  2**6  CONTENTS, ALLOC, LOAD, DATA
  4 .sdata        00000018  00000e08  00000e08  00001e08  2**0  ALLOC
  5 .tdata        00000000  00000e20  00000e20  00001e08  2**0  CONTENTS, ALLOC, LOAD, DATA, THREAD_LOCAL
  6 .tbss         00000000  00000e20  00000e20  00000000  2**0  ALLOC, THREAD_LOCAL
  7 .bss          00000000  00000e20  00000e20  00001e08  2**0  ALLOC
  8 .stack        00000400  0000fc00  0000fc00  00002c00  2**0  ALLOC
SYMBOL TABLE:
00000000 l    d  .text.init	00000000 .text.init
000002a0 l    d  .text	00000000 .text
00000a20 l    d  .data	00000000 .data
00000dc0 l    d  .tohost	00000000 .tohost
00000e08 l    d  .sdata	00000000 .sdata
00000e20 l    d  .tdata	00000000 .tdata
00000e20 l    d  .tbss	00000000 .tbss
00000e20 l    d  .bss	00000000 .bss
0000fc00 l    d  .stack	00000000 .stack
00000000 l    df *ABS*	00000000 /home/oleg/scr1/build/verilator_wf_AHB_IMC/riscv_compliance/riscv_compliance_objs/I-LW-01.o
000009e0 l       .text	00000000 sc_exit
000001c0 l       .text.init	00000000 trap_vector
000001fc l       .text.init	00000000 _report
000001f8 l       .text.init	00000000 handle_exception
000001f8 l       .text.init	00000000 other_exception
000002a0 l       .text	00000000 _run_test
00000a20 l       .data	00000000 test_A1_data
00000a80 l       .data	00000000 test_A1_res
00000a24 l       .data	00000000 test_A2_data
00000a84 l       .data	00000000 test_A2_res
00000a28 l       .data	00000000 test_A3_data
00000a88 l       .data	00000000 test_A3_res
00000a2c l       .data	00000000 test_A4_data
00000a8c l       .data	00000000 test_A4_res
00000a30 l       .data	00000000 test_A5_data
00000a90 l       .data	00000000 test_A5_res
00000a38 l       .data	00000000 test_B_data
00000a94 l       .data	00000000 test_B_res
00000a40 l       .data	00000000 test_C_data
00000aa0 l       .data	00000000 test_C_res
00000a44 l       .data	00000000 test_D_data
00000aa4 l       .data	00000000 test_D_res
00000a4c l       .data	00000000 test_E1_data
00000aa8 l       .data	00000000 test_E1_res
00000a50 l       .data	00000000 test_E2_data
00000aac l       .data	00000000 test_E2_res
000009d8 l       .text	00000000 ecall
00000a48 l       .data	00000000 test_D_data2_label
00000400 g       *ABS*	00000000 STACK_SIZE
00001608 g       .sdata	00000000 __global_pointer$
00000ab0 g       .data	00000000 end_signature
00000a60 g       .data	00000000 begin_regstate
00000a80 g       .data	00000000 begin_signature
00000200 g       .text.init	00000000 _start
00000020 g       *ABS*	00000000 CL_SIZE
000000f8 g       .text.init	00000000 SIM_STOP
00000e20 g       .bss	00000000 _end
00000e00 g       .tohost	00000000 fromhost
00000dc0 g       .tohost	00000000 tohost
000000f4 g       .text.init	00000000 SIM_EXIT



Дизассемблирование раздела .text.init:

00000000 <SIM_EXIT-0xf4>:
	...

000000f4 <SIM_EXIT>:
  f4:	00000013          	nop

000000f8 <SIM_STOP>:
  f8:	0000006f          	j	f8 <SIM_STOP>
  fc:	ffff                	0xffff
  fe:	ffff                	0xffff
	...

000001c0 <trap_vector>:
 1c0:	34202773          	csrr	a4,mcause
 1c4:	00800793          	li	a5,8
 1c8:	02f70a63          	beq	a4,a5,1fc <_report>
 1cc:	00900793          	li	a5,9
 1d0:	02f70663          	beq	a4,a5,1fc <_report>
 1d4:	00b00793          	li	a5,11
 1d8:	02f70263          	beq	a4,a5,1fc <_report>
 1dc:	00000717          	auipc	a4,0x0
 1e0:	e2470713          	addi	a4,a4,-476 # 0 <CL_SIZE-0x20>
 1e4:	00070463          	beqz	a4,1ec <trap_vector+0x2c>
 1e8:	00070067          	jr	a4
 1ec:	34202773          	csrr	a4,mcause
 1f0:	00075463          	bgez	a4,1f8 <handle_exception>
 1f4:	0040006f          	j	1f8 <handle_exception>

000001f8 <handle_exception>:
 1f8:	00100513          	li	a0,1

000001fc <_report>:
 1fc:	7e40006f          	j	9e0 <sc_exit>

00000200 <_start>:
 200:	f1402573          	csrr	a0,mhartid
 204:	00051063          	bnez	a0,204 <_start+0x4>
 208:	00000e13          	li	t3,0
 20c:	00000297          	auipc	t0,0x0
 210:	fb428293          	addi	t0,t0,-76 # 1c0 <trap_vector>
 214:	30529073          	csrw	mtvec,t0
 218:	00100513          	li	a0,1
 21c:	01f51513          	slli	a0,a0,0x1f
 220:	00054a63          	bltz	a0,234 <_start+0x34>
 224:	0ff0000f          	fence
 228:	000e0593          	mv	a1,t3
 22c:	00000513          	li	a0,0
 230:	00000073          	ecall
 234:	00000297          	auipc	t0,0x0
 238:	dcc28293          	addi	t0,t0,-564 # 0 <CL_SIZE-0x20>
 23c:	00028e63          	beqz	t0,258 <_start+0x58>
 240:	10529073          	csrw	stvec,t0
 244:	0000b2b7          	lui	t0,0xb
 248:	10928293          	addi	t0,t0,265 # b109 <__global_pointer$+0x9b01>
 24c:	30229073          	csrw	medeleg,t0
 250:	30202373          	csrr	t1,medeleg
 254:	fa6292e3          	bne	t0,t1,1f8 <handle_exception>
 258:	30005073          	csrwi	mstatus,0
 25c:	00002537          	lui	a0,0x2
 260:	80050513          	addi	a0,a0,-2048 # 1800 <__global_pointer$+0x1f8>
 264:	30052073          	csrs	mstatus,a0
 268:	00000297          	auipc	t0,0x0
 26c:	03828293          	addi	t0,t0,56 # 2a0 <_run_test>
 270:	34129073          	csrw	mepc,t0
 274:	f1402573          	csrr	a0,mhartid
 278:	30200073          	mret
	...

Дизассемблирование раздела .text:

000002a0 <_run_test>:
 2a0:	00000f97          	auipc	t6,0x0
 2a4:	7c0f8f93          	addi	t6,t6,1984 # a60 <begin_regstate>
 2a8:	003fa023          	sw	gp,0(t6)
 2ac:	004fa223          	sw	tp,4(t6)
 2b0:	005fa423          	sw	t0,8(t6)
 2b4:	f00001b7          	lui	gp,0xf0000
 2b8:	00000217          	auipc	tp,0x0
 2bc:	7f820213          	addi	tp,tp,2040 # ab0 <end_signature>
 2c0:	00020283          	lb	t0,0(tp) # 0 <CL_SIZE-0x20>
 2c4:	00518023          	sb	t0,0(gp) # f0000000 <__global_pointer$+0xefffe9f8>
 2c8:	00028663          	beqz	t0,2d4 <_run_test+0x34>
 2cc:	00120213          	addi	tp,tp,1 # 1 <CL_SIZE-0x1f>
 2d0:	ff1ff06f          	j	2c0 <_run_test+0x20>
 2d4:	00000f97          	auipc	t6,0x0
 2d8:	78cf8f93          	addi	t6,t6,1932 # a60 <begin_regstate>
 2dc:	000fa183          	lw	gp,0(t6)
 2e0:	004fa203          	lw	tp,4(t6)
 2e4:	008fa283          	lw	t0,8(t6)
 2e8:	00000f97          	auipc	t6,0x0
 2ec:	778f8f93          	addi	t6,t6,1912 # a60 <begin_regstate>
 2f0:	003fa023          	sw	gp,0(t6)
 2f4:	004fa223          	sw	tp,4(t6)
 2f8:	005fa423          	sw	t0,8(t6)
 2fc:	f00001b7          	lui	gp,0xf0000
 300:	00000217          	auipc	tp,0x0
 304:	7be20213          	addi	tp,tp,1982 # abe <end_signature+0xe>
 308:	00020283          	lb	t0,0(tp) # 0 <CL_SIZE-0x20>
 30c:	00518023          	sb	t0,0(gp) # f0000000 <__global_pointer$+0xefffe9f8>
 310:	00028663          	beqz	t0,31c <_run_test+0x7c>
 314:	00120213          	addi	tp,tp,1 # 1 <CL_SIZE-0x1f>
 318:	ff1ff06f          	j	308 <_run_test+0x68>
 31c:	00000f97          	auipc	t6,0x0
 320:	744f8f93          	addi	t6,t6,1860 # a60 <begin_regstate>
 324:	000fa183          	lw	gp,0(t6)
 328:	004fa203          	lw	tp,4(t6)
 32c:	008fa283          	lw	t0,8(t6)
 330:	00000f97          	auipc	t6,0x0
 334:	6f0f8f93          	addi	t6,t6,1776 # a20 <test_A1_data>
 338:	00000117          	auipc	sp,0x0
 33c:	74810113          	addi	sp,sp,1864 # a80 <begin_signature>
 340:	000fa183          	lw	gp,0(t6)
 344:	00312023          	sw	gp,0(sp)
 348:	00000f97          	auipc	t6,0x0
 34c:	718f8f93          	addi	t6,t6,1816 # a60 <begin_regstate>
 350:	003fa023          	sw	gp,0(t6)
 354:	004fa223          	sw	tp,4(t6)
 358:	005fa423          	sw	t0,8(t6)
 35c:	f00001b7          	lui	gp,0xf0000
 360:	00000217          	auipc	tp,0x0
 364:	78620213          	addi	tp,tp,1926 # ae6 <end_signature+0x36>
 368:	00020283          	lb	t0,0(tp) # 0 <CL_SIZE-0x20>
 36c:	00518023          	sb	t0,0(gp) # f0000000 <__global_pointer$+0xefffe9f8>
 370:	00028663          	beqz	t0,37c <_run_test+0xdc>
 374:	00120213          	addi	tp,tp,1 # 1 <CL_SIZE-0x1f>
 378:	ff1ff06f          	j	368 <_run_test+0xc8>
 37c:	00000f97          	auipc	t6,0x0
 380:	6e4f8f93          	addi	t6,t6,1764 # a60 <begin_regstate>
 384:	000fa183          	lw	gp,0(t6)
 388:	004fa203          	lw	tp,4(t6)
 38c:	008fa283          	lw	t0,8(t6)
 390:	00000f97          	auipc	t6,0x0
 394:	6d0f8f93          	addi	t6,t6,1744 # a60 <begin_regstate>
 398:	003fa023          	sw	gp,0(t6)
 39c:	004fa223          	sw	tp,4(t6)
 3a0:	005fa423          	sw	t0,8(t6)
 3a4:	f00001b7          	lui	gp,0xf0000
 3a8:	00000217          	auipc	tp,0x0
 3ac:	75a20213          	addi	tp,tp,1882 # b02 <end_signature+0x52>
 3b0:	00020283          	lb	t0,0(tp) # 0 <CL_SIZE-0x20>
 3b4:	00518023          	sb	t0,0(gp) # f0000000 <__global_pointer$+0xefffe9f8>
 3b8:	00028663          	beqz	t0,3c4 <_run_test+0x124>
 3bc:	00120213          	addi	tp,tp,1 # 1 <CL_SIZE-0x1f>
 3c0:	ff1ff06f          	j	3b0 <_run_test+0x110>
 3c4:	00000f97          	auipc	t6,0x0
 3c8:	69cf8f93          	addi	t6,t6,1692 # a60 <begin_regstate>
 3cc:	000fa183          	lw	gp,0(t6)
 3d0:	004fa203          	lw	tp,4(t6)
 3d4:	008fa283          	lw	t0,8(t6)
 3d8:	00000c17          	auipc	s8,0x0
 3dc:	64dc0c13          	addi	s8,s8,1613 # a25 <test_A2_data+0x1>
 3e0:	00000297          	auipc	t0,0x0
 3e4:	6a428293          	addi	t0,t0,1700 # a84 <test_A2_res>
 3e8:	fffc2c83          	lw	s9,-1(s8)
 3ec:	0192a023          	sw	s9,0(t0)
 3f0:	00000f97          	auipc	t6,0x0
 3f4:	670f8f93          	addi	t6,t6,1648 # a60 <begin_regstate>
 3f8:	003fa023          	sw	gp,0(t6)
 3fc:	004fa223          	sw	tp,4(t6)
 400:	005fa423          	sw	t0,8(t6)
 404:	f00001b7          	lui	gp,0xf0000
 408:	00000217          	auipc	tp,0x0
 40c:	72220213          	addi	tp,tp,1826 # b2a <end_signature+0x7a>
 410:	00020283          	lb	t0,0(tp) # 0 <CL_SIZE-0x20>
 414:	00518023          	sb	t0,0(gp) # f0000000 <__global_pointer$+0xefffe9f8>
 418:	00028663          	beqz	t0,424 <STACK_SIZE+0x24>
 41c:	00120213          	addi	tp,tp,1 # 1 <CL_SIZE-0x1f>
 420:	ff1ff06f          	j	410 <STACK_SIZE+0x10>
 424:	00000f97          	auipc	t6,0x0
 428:	63cf8f93          	addi	t6,t6,1596 # a60 <begin_regstate>
 42c:	000fa183          	lw	gp,0(t6)
 430:	004fa203          	lw	tp,4(t6)
 434:	008fa283          	lw	t0,8(t6)
 438:	00000f97          	auipc	t6,0x0
 43c:	628f8f93          	addi	t6,t6,1576 # a60 <begin_regstate>
 440:	003fa023          	sw	gp,0(t6)
 444:	004fa223          	sw	tp,4(t6)
 448:	005fa423          	sw	t0,8(t6)
 44c:	f00001b7          	lui	gp,0xf0000
 450:	00000217          	auipc	tp,0x0
 454:	6f620213          	addi	tp,tp,1782 # b46 <end_signature+0x96>
 458:	00020283          	lb	t0,0(tp) # 0 <CL_SIZE-0x20>
 45c:	00518023          	sb	t0,0(gp) # f0000000 <__global_pointer$+0xefffe9f8>
 460:	00028663          	beqz	t0,46c <STACK_SIZE+0x6c>
 464:	00120213          	addi	tp,tp,1 # 1 <CL_SIZE-0x1f>
 468:	ff1ff06f          	j	458 <STACK_SIZE+0x58>
 46c:	00000f97          	auipc	t6,0x0
 470:	5f4f8f93          	addi	t6,t6,1524 # a60 <begin_regstate>
 474:	000fa183          	lw	gp,0(t6)
 478:	004fa203          	lw	tp,4(t6)
 47c:	008fa283          	lw	t0,8(t6)
 480:	00000397          	auipc	t2,0x0
 484:	5a738393          	addi	t2,t2,1447 # a27 <test_A2_data+0x3>
 488:	00000417          	auipc	s0,0x0
 48c:	60040413          	addi	s0,s0,1536 # a88 <test_A3_res>
 490:	0013af83          	lw	t6,1(t2)
 494:	01f42023          	sw	t6,0(s0)
 498:	00000f97          	auipc	t6,0x0
 49c:	5c8f8f93          	addi	t6,t6,1480 # a60 <begin_regstate>
 4a0:	003fa023          	sw	gp,0(t6)
 4a4:	004fa223          	sw	tp,4(t6)
 4a8:	005fa423          	sw	t0,8(t6)
 4ac:	f00001b7          	lui	gp,0xf0000
 4b0:	00000217          	auipc	tp,0x0
 4b4:	6be20213          	addi	tp,tp,1726 # b6e <end_signature+0xbe>
 4b8:	00020283          	lb	t0,0(tp) # 0 <CL_SIZE-0x20>
 4bc:	00518023          	sb	t0,0(gp) # f0000000 <__global_pointer$+0xefffe9f8>
 4c0:	00028663          	beqz	t0,4cc <STACK_SIZE+0xcc>
 4c4:	00120213          	addi	tp,tp,1 # 1 <CL_SIZE-0x1f>
 4c8:	ff1ff06f          	j	4b8 <STACK_SIZE+0xb8>
 4cc:	00000f97          	auipc	t6,0x0
 4d0:	594f8f93          	addi	t6,t6,1428 # a60 <begin_regstate>
 4d4:	000fa183          	lw	gp,0(t6)
 4d8:	004fa203          	lw	tp,4(t6)
 4dc:	008fa283          	lw	t0,8(t6)
 4e0:	00000f97          	auipc	t6,0x0
 4e4:	580f8f93          	addi	t6,t6,1408 # a60 <begin_regstate>
 4e8:	003fa023          	sw	gp,0(t6)
 4ec:	004fa223          	sw	tp,4(t6)
 4f0:	005fa423          	sw	t0,8(t6)
 4f4:	f00001b7          	lui	gp,0xf0000
 4f8:	00000217          	auipc	tp,0x0
 4fc:	69220213          	addi	tp,tp,1682 # b8a <end_signature+0xda>
 500:	00020283          	lb	t0,0(tp) # 0 <CL_SIZE-0x20>
 504:	00518023          	sb	t0,0(gp) # f0000000 <__global_pointer$+0xefffe9f8>
 508:	00028663          	beqz	t0,514 <STACK_SIZE+0x114>
 50c:	00120213          	addi	tp,tp,1 # 1 <CL_SIZE-0x1f>
 510:	ff1ff06f          	j	500 <STACK_SIZE+0x100>
 514:	00000f97          	auipc	t6,0x0
 518:	54cf8f93          	addi	t6,t6,1356 # a60 <begin_regstate>
 51c:	000fa183          	lw	gp,0(t6)
 520:	004fa203          	lw	tp,4(t6)
 524:	008fa283          	lw	t0,8(t6)
 528:	00001517          	auipc	a0,0x1
 52c:	d0450513          	addi	a0,a0,-764 # 122c <_end+0x40c>
 530:	00000597          	auipc	a1,0x0
 534:	55c58593          	addi	a1,a1,1372 # a8c <test_A4_res>
 538:	80052603          	lw	a2,-2048(a0)
 53c:	00c5a023          	sw	a2,0(a1)
 540:	00000f97          	auipc	t6,0x0
 544:	520f8f93          	addi	t6,t6,1312 # a60 <begin_regstate>
 548:	003fa023          	sw	gp,0(t6)
 54c:	004fa223          	sw	tp,4(t6)
 550:	005fa423          	sw	t0,8(t6)
 554:	f00001b7          	lui	gp,0xf0000
 558:	00000217          	auipc	tp,0x0
 55c:	65d20213          	addi	tp,tp,1629 # bb5 <end_signature+0x105>
 560:	00020283          	lb	t0,0(tp) # 0 <CL_SIZE-0x20>
 564:	00518023          	sb	t0,0(gp) # f0000000 <__global_pointer$+0xefffe9f8>
 568:	00028663          	beqz	t0,574 <STACK_SIZE+0x174>
 56c:	00120213          	addi	tp,tp,1 # 1 <CL_SIZE-0x1f>
 570:	ff1ff06f          	j	560 <STACK_SIZE+0x160>
 574:	00000f97          	auipc	t6,0x0
 578:	4ecf8f93          	addi	t6,t6,1260 # a60 <begin_regstate>
 57c:	000fa183          	lw	gp,0(t6)
 580:	004fa203          	lw	tp,4(t6)
 584:	008fa283          	lw	t0,8(t6)
 588:	00000f97          	auipc	t6,0x0
 58c:	4d8f8f93          	addi	t6,t6,1240 # a60 <begin_regstate>
 590:	003fa023          	sw	gp,0(t6)
 594:	004fa223          	sw	tp,4(t6)
 598:	005fa423          	sw	t0,8(t6)
 59c:	f00001b7          	lui	gp,0xf0000
 5a0:	00000217          	auipc	tp,0x0
 5a4:	63120213          	addi	tp,tp,1585 # bd1 <end_signature+0x121>
 5a8:	00020283          	lb	t0,0(tp) # 0 <CL_SIZE-0x20>
 5ac:	00518023          	sb	t0,0(gp) # f0000000 <__global_pointer$+0xefffe9f8>
 5b0:	00028663          	beqz	t0,5bc <STACK_SIZE+0x1bc>
 5b4:	00120213          	addi	tp,tp,1 # 1 <CL_SIZE-0x1f>
 5b8:	ff1ff06f          	j	5a8 <STACK_SIZE+0x1a8>
 5bc:	00000f97          	auipc	t6,0x0
 5c0:	4a4f8f93          	addi	t6,t6,1188 # a60 <begin_regstate>
 5c4:	000fa183          	lw	gp,0(t6)
 5c8:	004fa203          	lw	tp,4(t6)
 5cc:	008fa283          	lw	t0,8(t6)
 5d0:	00000697          	auipc	a3,0x0
 5d4:	c6168693          	addi	a3,a3,-927 # 231 <_start+0x31>
 5d8:	00000717          	auipc	a4,0x0
 5dc:	4b870713          	addi	a4,a4,1208 # a90 <test_A5_res>
 5e0:	7ff6a783          	lw	a5,2047(a3)
 5e4:	00f72023          	sw	a5,0(a4)
 5e8:	00000f97          	auipc	t6,0x0
 5ec:	478f8f93          	addi	t6,t6,1144 # a60 <begin_regstate>
 5f0:	003fa023          	sw	gp,0(t6)
 5f4:	004fa223          	sw	tp,4(t6)
 5f8:	005fa423          	sw	t0,8(t6)
 5fc:	f00001b7          	lui	gp,0xf0000
 600:	00000217          	auipc	tp,0x0
 604:	5fc20213          	addi	tp,tp,1532 # bfc <end_signature+0x14c>
 608:	00020283          	lb	t0,0(tp) # 0 <CL_SIZE-0x20>
 60c:	00518023          	sb	t0,0(gp) # f0000000 <__global_pointer$+0xefffe9f8>
 610:	00028663          	beqz	t0,61c <STACK_SIZE+0x21c>
 614:	00120213          	addi	tp,tp,1 # 1 <CL_SIZE-0x1f>
 618:	ff1ff06f          	j	608 <STACK_SIZE+0x208>
 61c:	00000f97          	auipc	t6,0x0
 620:	444f8f93          	addi	t6,t6,1092 # a60 <begin_regstate>
 624:	000fa183          	lw	gp,0(t6)
 628:	004fa203          	lw	tp,4(t6)
 62c:	008fa283          	lw	t0,8(t6)
 630:	00000f97          	auipc	t6,0x0
 634:	430f8f93          	addi	t6,t6,1072 # a60 <begin_regstate>
 638:	003fa023          	sw	gp,0(t6)
 63c:	004fa223          	sw	tp,4(t6)
 640:	005fa423          	sw	t0,8(t6)
 644:	f00001b7          	lui	gp,0xf0000
 648:	00000217          	auipc	tp,0x0
 64c:	5d020213          	addi	tp,tp,1488 # c18 <end_signature+0x168>
 650:	00020283          	lb	t0,0(tp) # 0 <CL_SIZE-0x20>
 654:	00518023          	sb	t0,0(gp) # f0000000 <__global_pointer$+0xefffe9f8>
 658:	00028663          	beqz	t0,664 <STACK_SIZE+0x264>
 65c:	00120213          	addi	tp,tp,1 # 1 <CL_SIZE-0x1f>
 660:	ff1ff06f          	j	650 <STACK_SIZE+0x250>
 664:	00000f97          	auipc	t6,0x0
 668:	3fcf8f93          	addi	t6,t6,1020 # a60 <begin_regstate>
 66c:	000fa183          	lw	gp,0(t6)
 670:	004fa203          	lw	tp,4(t6)
 674:	008fa283          	lw	t0,8(t6)
 678:	00000817          	auipc	a6,0x0
 67c:	3c080813          	addi	a6,a6,960 # a38 <test_B_data>
 680:	00000897          	auipc	a7,0x0
 684:	41488893          	addi	a7,a7,1044 # a94 <test_B_res>
 688:	ffc82903          	lw	s2,-4(a6)
 68c:	00082983          	lw	s3,0(a6)
 690:	00482a03          	lw	s4,4(a6)
 694:	0128a023          	sw	s2,0(a7)
 698:	0138a223          	sw	s3,4(a7)
 69c:	0148a423          	sw	s4,8(a7)
 6a0:	00000f97          	auipc	t6,0x0
 6a4:	3c0f8f93          	addi	t6,t6,960 # a60 <begin_regstate>
 6a8:	003fa023          	sw	gp,0(t6)
 6ac:	004fa223          	sw	tp,4(t6)
 6b0:	005fa423          	sw	t0,8(t6)
 6b4:	f00001b7          	lui	gp,0xf0000
 6b8:	00000217          	auipc	tp,0x0
 6bc:	58e20213          	addi	tp,tp,1422 # c46 <end_signature+0x196>
 6c0:	00020283          	lb	t0,0(tp) # 0 <CL_SIZE-0x20>
 6c4:	00518023          	sb	t0,0(gp) # f0000000 <__global_pointer$+0xefffe9f8>
 6c8:	00028663          	beqz	t0,6d4 <STACK_SIZE+0x2d4>
 6cc:	00120213          	addi	tp,tp,1 # 1 <CL_SIZE-0x1f>
 6d0:	ff1ff06f          	j	6c0 <STACK_SIZE+0x2c0>
 6d4:	00000f97          	auipc	t6,0x0
 6d8:	38cf8f93          	addi	t6,t6,908 # a60 <begin_regstate>
 6dc:	000fa183          	lw	gp,0(t6)
 6e0:	004fa203          	lw	tp,4(t6)
 6e4:	008fa283          	lw	t0,8(t6)
 6e8:	00000f97          	auipc	t6,0x0
 6ec:	378f8f93          	addi	t6,t6,888 # a60 <begin_regstate>
 6f0:	003fa023          	sw	gp,0(t6)
 6f4:	004fa223          	sw	tp,4(t6)
 6f8:	005fa423          	sw	t0,8(t6)
 6fc:	f00001b7          	lui	gp,0xf0000
 700:	00000217          	auipc	tp,0x0
 704:	56120213          	addi	tp,tp,1377 # c61 <end_signature+0x1b1>
 708:	00020283          	lb	t0,0(tp) # 0 <CL_SIZE-0x20>
 70c:	00518023          	sb	t0,0(gp) # f0000000 <__global_pointer$+0xefffe9f8>
 710:	00028663          	beqz	t0,71c <STACK_SIZE+0x31c>
 714:	00120213          	addi	tp,tp,1 # 1 <CL_SIZE-0x1f>
 718:	ff1ff06f          	j	708 <STACK_SIZE+0x308>
 71c:	00000f97          	auipc	t6,0x0
 720:	344f8f93          	addi	t6,t6,836 # a60 <begin_regstate>
 724:	000fa183          	lw	gp,0(t6)
 728:	004fa203          	lw	tp,4(t6)
 72c:	008fa283          	lw	t0,8(t6)
 730:	00000a97          	auipc	s5,0x0
 734:	310a8a93          	addi	s5,s5,784 # a40 <test_C_data>
 738:	00000b17          	auipc	s6,0x0
 73c:	368b0b13          	addi	s6,s6,872 # aa0 <test_C_res>
 740:	000aa003          	lw	zero,0(s5)
 744:	000b2023          	sw	zero,0(s6)
 748:	00000f97          	auipc	t6,0x0
 74c:	318f8f93          	addi	t6,t6,792 # a60 <begin_regstate>
 750:	003fa023          	sw	gp,0(t6)
 754:	004fa223          	sw	tp,4(t6)
 758:	005fa423          	sw	t0,8(t6)
 75c:	f00001b7          	lui	gp,0xf0000
 760:	00000217          	auipc	tp,0x0
 764:	52220213          	addi	tp,tp,1314 # c82 <end_signature+0x1d2>
 768:	00020283          	lb	t0,0(tp) # 0 <CL_SIZE-0x20>
 76c:	00518023          	sb	t0,0(gp) # f0000000 <__global_pointer$+0xefffe9f8>
 770:	00028663          	beqz	t0,77c <STACK_SIZE+0x37c>
 774:	00120213          	addi	tp,tp,1 # 1 <CL_SIZE-0x1f>
 778:	ff1ff06f          	j	768 <STACK_SIZE+0x368>
 77c:	00000f97          	auipc	t6,0x0
 780:	2e4f8f93          	addi	t6,t6,740 # a60 <begin_regstate>
 784:	000fa183          	lw	gp,0(t6)
 788:	004fa203          	lw	tp,4(t6)
 78c:	008fa283          	lw	t0,8(t6)
 790:	00000f97          	auipc	t6,0x0
 794:	2d0f8f93          	addi	t6,t6,720 # a60 <begin_regstate>
 798:	003fa023          	sw	gp,0(t6)
 79c:	004fa223          	sw	tp,4(t6)
 7a0:	005fa423          	sw	t0,8(t6)
 7a4:	f00001b7          	lui	gp,0xf0000
 7a8:	00000217          	auipc	tp,0x0
 7ac:	4f520213          	addi	tp,tp,1269 # c9d <end_signature+0x1ed>
 7b0:	00020283          	lb	t0,0(tp) # 0 <CL_SIZE-0x20>
 7b4:	00518023          	sb	t0,0(gp) # f0000000 <__global_pointer$+0xefffe9f8>
 7b8:	00028663          	beqz	t0,7c4 <STACK_SIZE+0x3c4>
 7bc:	00120213          	addi	tp,tp,1 # 1 <CL_SIZE-0x1f>
 7c0:	ff1ff06f          	j	7b0 <STACK_SIZE+0x3b0>
 7c4:	00000f97          	auipc	t6,0x0
 7c8:	29cf8f93          	addi	t6,t6,668 # a60 <begin_regstate>
 7cc:	000fa183          	lw	gp,0(t6)
 7d0:	004fa203          	lw	tp,4(t6)
 7d4:	008fa283          	lw	t0,8(t6)
 7d8:	00000a97          	auipc	s5,0x0
 7dc:	26ca8a93          	addi	s5,s5,620 # a44 <test_D_data>
 7e0:	00000b17          	auipc	s6,0x0
 7e4:	2c4b0b13          	addi	s6,s6,708 # aa4 <test_D_res>
 7e8:	000aab83          	lw	s7,0(s5)
 7ec:	000bac03          	lw	s8,0(s7)
 7f0:	000c0c93          	mv	s9,s8
 7f4:	019b2023          	sw	s9,0(s6)
 7f8:	00000f97          	auipc	t6,0x0
 7fc:	268f8f93          	addi	t6,t6,616 # a60 <begin_regstate>
 800:	003fa023          	sw	gp,0(t6)
 804:	004fa223          	sw	tp,4(t6)
 808:	005fa423          	sw	t0,8(t6)
 80c:	f00001b7          	lui	gp,0xf0000
 810:	00000217          	auipc	tp,0x0
 814:	4b220213          	addi	tp,tp,1202 # cc2 <end_signature+0x212>
 818:	00020283          	lb	t0,0(tp) # 0 <CL_SIZE-0x20>
 81c:	00518023          	sb	t0,0(gp) # f0000000 <__global_pointer$+0xefffe9f8>
 820:	00028663          	beqz	t0,82c <STACK_SIZE+0x42c>
 824:	00120213          	addi	tp,tp,1 # 1 <CL_SIZE-0x1f>
 828:	ff1ff06f          	j	818 <STACK_SIZE+0x418>
 82c:	00000f97          	auipc	t6,0x0
 830:	234f8f93          	addi	t6,t6,564 # a60 <begin_regstate>
 834:	000fa183          	lw	gp,0(t6)
 838:	004fa203          	lw	tp,4(t6)
 83c:	008fa283          	lw	t0,8(t6)
 840:	00000f97          	auipc	t6,0x0
 844:	220f8f93          	addi	t6,t6,544 # a60 <begin_regstate>
 848:	003fa023          	sw	gp,0(t6)
 84c:	004fa223          	sw	tp,4(t6)
 850:	005fa423          	sw	t0,8(t6)
 854:	f00001b7          	lui	gp,0xf0000
 858:	00000217          	auipc	tp,0x0
 85c:	48520213          	addi	tp,tp,1157 # cdd <end_signature+0x22d>
 860:	00020283          	lb	t0,0(tp) # 0 <CL_SIZE-0x20>
 864:	00518023          	sb	t0,0(gp) # f0000000 <__global_pointer$+0xefffe9f8>
 868:	00028663          	beqz	t0,874 <STACK_SIZE+0x474>
 86c:	00120213          	addi	tp,tp,1 # 1 <CL_SIZE-0x1f>
 870:	ff1ff06f          	j	860 <STACK_SIZE+0x460>
 874:	00000f97          	auipc	t6,0x0
 878:	1ecf8f93          	addi	t6,t6,492 # a60 <begin_regstate>
 87c:	000fa183          	lw	gp,0(t6)
 880:	004fa203          	lw	tp,4(t6)
 884:	008fa283          	lw	t0,8(t6)
 888:	00000c97          	auipc	s9,0x0
 88c:	1c4c8c93          	addi	s9,s9,452 # a4c <test_E1_data>
 890:	00000d17          	auipc	s10,0x0
 894:	218d0d13          	addi	s10,s10,536 # aa8 <test_E1_res>
 898:	000cac83          	lw	s9,0(s9)
 89c:	019d2023          	sw	s9,0(s10)
 8a0:	00000f97          	auipc	t6,0x0
 8a4:	1c0f8f93          	addi	t6,t6,448 # a60 <begin_regstate>
 8a8:	003fa023          	sw	gp,0(t6)
 8ac:	004fa223          	sw	tp,4(t6)
 8b0:	005fa423          	sw	t0,8(t6)
 8b4:	f00001b7          	lui	gp,0xf0000
 8b8:	00000217          	auipc	tp,0x0
 8bc:	46920213          	addi	tp,tp,1129 # d21 <end_signature+0x271>
 8c0:	00020283          	lb	t0,0(tp) # 0 <CL_SIZE-0x20>
 8c4:	00518023          	sb	t0,0(gp) # f0000000 <__global_pointer$+0xefffe9f8>
 8c8:	00028663          	beqz	t0,8d4 <STACK_SIZE+0x4d4>
 8cc:	00120213          	addi	tp,tp,1 # 1 <CL_SIZE-0x1f>
 8d0:	ff1ff06f          	j	8c0 <STACK_SIZE+0x4c0>
 8d4:	00000f97          	auipc	t6,0x0
 8d8:	18cf8f93          	addi	t6,t6,396 # a60 <begin_regstate>
 8dc:	000fa183          	lw	gp,0(t6)
 8e0:	004fa203          	lw	tp,4(t6)
 8e4:	008fa283          	lw	t0,8(t6)
 8e8:	00000f97          	auipc	t6,0x0
 8ec:	178f8f93          	addi	t6,t6,376 # a60 <begin_regstate>
 8f0:	003fa023          	sw	gp,0(t6)
 8f4:	004fa223          	sw	tp,4(t6)
 8f8:	005fa423          	sw	t0,8(t6)
 8fc:	f00001b7          	lui	gp,0xf0000
 900:	00000217          	auipc	tp,0x0
 904:	43c20213          	addi	tp,tp,1084 # d3c <end_signature+0x28c>
 908:	00020283          	lb	t0,0(tp) # 0 <CL_SIZE-0x20>
 90c:	00518023          	sb	t0,0(gp) # f0000000 <__global_pointer$+0xefffe9f8>
 910:	00028663          	beqz	t0,91c <STACK_SIZE+0x51c>
 914:	00120213          	addi	tp,tp,1 # 1 <CL_SIZE-0x1f>
 918:	ff1ff06f          	j	908 <STACK_SIZE+0x508>
 91c:	00000f97          	auipc	t6,0x0
 920:	144f8f93          	addi	t6,t6,324 # a60 <begin_regstate>
 924:	000fa183          	lw	gp,0(t6)
 928:	004fa203          	lw	tp,4(t6)
 92c:	008fa283          	lw	t0,8(t6)
 930:	00000d97          	auipc	s11,0x0
 934:	121d8d93          	addi	s11,s11,289 # a51 <test_E2_data+0x1>
 938:	00000e17          	auipc	t3,0x0
 93c:	174e0e13          	addi	t3,t3,372 # aac <test_E2_res>
 940:	fffdad83          	lw	s11,-1(s11)
 944:	01be2023          	sw	s11,0(t3)
 948:	00000f97          	auipc	t6,0x0
 94c:	118f8f93          	addi	t6,t6,280 # a60 <begin_regstate>
 950:	003fa023          	sw	gp,0(t6)
 954:	004fa223          	sw	tp,4(t6)
 958:	005fa423          	sw	t0,8(t6)
 95c:	f00001b7          	lui	gp,0xf0000
 960:	00000217          	auipc	tp,0x0
 964:	43220213          	addi	tp,tp,1074 # d92 <end_signature+0x2e2>
 968:	00020283          	lb	t0,0(tp) # 0 <CL_SIZE-0x20>
 96c:	00518023          	sb	t0,0(gp) # f0000000 <__global_pointer$+0xefffe9f8>
 970:	00028663          	beqz	t0,97c <STACK_SIZE+0x57c>
 974:	00120213          	addi	tp,tp,1 # 1 <CL_SIZE-0x1f>
 978:	ff1ff06f          	j	968 <STACK_SIZE+0x568>
 97c:	00000f97          	auipc	t6,0x0
 980:	0e4f8f93          	addi	t6,t6,228 # a60 <begin_regstate>
 984:	000fa183          	lw	gp,0(t6)
 988:	004fa203          	lw	tp,4(t6)
 98c:	008fa283          	lw	t0,8(t6)
 990:	00000f97          	auipc	t6,0x0
 994:	0d0f8f93          	addi	t6,t6,208 # a60 <begin_regstate>
 998:	003fa023          	sw	gp,0(t6)
 99c:	004fa223          	sw	tp,4(t6)
 9a0:	005fa423          	sw	t0,8(t6)
 9a4:	f00001b7          	lui	gp,0xf0000
 9a8:	00000217          	auipc	tp,0x0
 9ac:	40620213          	addi	tp,tp,1030 # dae <end_signature+0x2fe>
 9b0:	00020283          	lb	t0,0(tp) # 0 <CL_SIZE-0x20>
 9b4:	00518023          	sb	t0,0(gp) # f0000000 <__global_pointer$+0xefffe9f8>
 9b8:	00028663          	beqz	t0,9c4 <STACK_SIZE+0x5c4>
 9bc:	00120213          	addi	tp,tp,1 # 1 <CL_SIZE-0x1f>
 9c0:	ff1ff06f          	j	9b0 <STACK_SIZE+0x5b0>
 9c4:	00000f97          	auipc	t6,0x0
 9c8:	09cf8f93          	addi	t6,t6,156 # a60 <begin_regstate>
 9cc:	000fa183          	lw	gp,0(t6)
 9d0:	004fa203          	lw	tp,4(t6)
 9d4:	008fa283          	lw	t0,8(t6)

000009d8 <ecall>:
 9d8:	00000073          	ecall
 9dc:	0000                	unimp
	...

000009e0 <sc_exit>:
 9e0:	f14ff06f          	j	f4 <SIM_EXIT>
 9e4:	00000013          	nop
 9e8:	00000013          	nop
 9ec:	00000013          	nop
 9f0:	00000013          	nop
 9f4:	00000013          	nop
 9f8:	00000013          	nop
 9fc:	00000013          	nop
	...

Дизассемблирование раздела .data:

00000a20 <test_A1_data>:
 a20:	f222                	fsw	fs0,36(sp)
 a22:	11f1                	addi	gp,gp,-4

00000a24 <test_A2_data>:
 a24:	44f4                	lw	a3,76(s1)
 a26:	          	0xf666f333

00000a28 <test_A3_data>:
 a28:	f666                	fsw	fs9,44(sp)
 a2a:	55f5                	li	a1,-3

00000a2c <test_A4_data>:
 a2c:	88f8                	0x88f8
 a2e:	          	0xaaaf777

00000a30 <test_A5_data>:
 a30:	0aaa                	slli	s5,s5,0xa
 a32:	9909                	andi	a0,a0,-30
 a34:	cc0c                	sw	a1,24(s0)
 a36:	          	0xeee0bbb

00000a38 <test_B_data>:
 a38:	0eee                	slli	t4,t4,0x1b
 a3a:	dd0d                	beqz	a0,974 <STACK_SIZE+0x574>
 a3c:	00f0                	addi	a2,sp,76
 a3e:	0fff                	0xfff

00000a40 <test_C_data>:
 a40:	5678                	lw	a4,108(a2)
 a42:	1234                	addi	a3,sp,296

00000a44 <test_D_data>:
 a44:	0a48                	addi	a0,sp,276
	...

00000a48 <test_D_data2_label>:
 a48:	def0                	sw	a2,124(a3)
 a4a:	9abc                	0x9abc

00000a4c <test_E1_data>:
 a4c:	3210                	fld	fa2,32(a2)
 a4e:	7654                	flw	fa3,44(a2)

00000a50 <test_E2_data>:
 a50:	ba98                	fsd	fa4,48(a3)
 a52:	fedc                	fsw	fa5,60(a3)
	...

00000a60 <begin_regstate>:
	...

00000a80 <begin_signature>:
 a80:	ffff                	0xffff
 a82:	ffff                	0xffff

00000a84 <test_A2_res>:
 a84:	ffff                	0xffff
 a86:	ffff                	0xffff

00000a88 <test_A3_res>:
 a88:	ffff                	0xffff
 a8a:	ffff                	0xffff

00000a8c <test_A4_res>:
 a8c:	ffff                	0xffff
 a8e:	ffff                	0xffff

00000a90 <test_A5_res>:
 a90:	ffff                	0xffff
 a92:	ffff                	0xffff

00000a94 <test_B_res>:
 a94:	ffff                	0xffff
 a96:	ffff                	0xffff
 a98:	ffff                	0xffff
 a9a:	ffff                	0xffff
 a9c:	ffff                	0xffff
 a9e:	ffff                	0xffff

00000aa0 <test_C_res>:
 aa0:	ffff                	0xffff
 aa2:	ffff                	0xffff

00000aa4 <test_D_res>:
 aa4:	ffff                	0xffff
 aa6:	ffff                	0xffff

00000aa8 <test_E1_res>:
 aa8:	ffff                	0xffff
 aaa:	ffff                	0xffff

00000aac <test_E2_res>:
 aac:	ffff                	0xffff
 aae:	ffff                	0xffff

00000ab0 <end_signature>:
 ab0:	65542023          	sw	s5,1600(s0)
 ab4:	42207473          	csrrci	s0,0x422,0
 ab8:	6765                	lui	a4,0x19
 aba:	6e69                	lui	t3,0x1a
 abc:	000a                	0xa
 abe:	65542023          	sw	s5,1600(s0)
 ac2:	70207473          	csrrci	s0,0x702,0
 ac6:	7261                	lui	tp,0xffff8
 ac8:	2074                	fld	fa3,192(s0)
 aca:	3141                	jal	74a <STACK_SIZE+0x34a>
 acc:	2d20                	fld	fs0,88(a0)
 ace:	7420                	flw	fs0,104(s0)
 ad0:	7365                	lui	t1,0xffff9
 ad2:	2074                	fld	fa3,192(s0)
 ad4:	6162                	flw	ft2,24(sp)
 ad6:	61206573          	csrrsi	a0,0x612,0
 ada:	6464                	flw	fs1,76(s0)
 adc:	6572                	flw	fa0,28(sp)
 ade:	2b207373          	csrrci	t1,0x2b2,0
 ae2:	3020                	fld	fs0,96(s0)
 ae4:	000a                	0xa
 ae6:	65542023          	sw	s5,1600(s0)
 aea:	70207473          	csrrci	s0,0x702,0
 aee:	7261                	lui	tp,0xffff8
 af0:	2074                	fld	fa3,192(s0)
 af2:	3141                	jal	772 <STACK_SIZE+0x372>
 af4:	2020                	fld	fs0,64(s0)
 af6:	202d                	jal	b20 <end_signature+0x70>
 af8:	706d6f43          	fmadd.s	ft10,fs10,ft6,fa4,unknown
 afc:	656c                	flw	fa1,76(a0)
 afe:	6574                	flw	fa3,76(a0)
 b00:	000a                	0xa
 b02:	65542023          	sw	s5,1600(s0)
 b06:	70207473          	csrrci	s0,0x702,0
 b0a:	7261                	lui	tp,0xffff8
 b0c:	2074                	fld	fa3,192(s0)
 b0e:	3241                	jal	48e <STACK_SIZE+0x8e>
 b10:	2d20                	fld	fs0,88(a0)
 b12:	7420                	flw	fs0,104(s0)
 b14:	7365                	lui	t1,0xffff9
 b16:	2074                	fld	fa3,192(s0)
 b18:	6162                	flw	ft2,24(sp)
 b1a:	61206573          	csrrsi	a0,0x612,0
 b1e:	6464                	flw	fs1,76(s0)
 b20:	6572                	flw	fa0,28(sp)
 b22:	2d207373          	csrrci	t1,0x2d2,0
 b26:	3120                	fld	fs0,96(a0)
 b28:	000a                	0xa
 b2a:	65542023          	sw	s5,1600(s0)
 b2e:	70207473          	csrrci	s0,0x702,0
 b32:	7261                	lui	tp,0xffff8
 b34:	2074                	fld	fa3,192(s0)
 b36:	3241                	jal	4b6 <STACK_SIZE+0xb6>
 b38:	2020                	fld	fs0,64(s0)
 b3a:	202d                	jal	b64 <end_signature+0xb4>
 b3c:	706d6f43          	fmadd.s	ft10,fs10,ft6,fa4,unknown
 b40:	656c                	flw	fa1,76(a0)
 b42:	6574                	flw	fa3,76(a0)
 b44:	000a                	0xa
 b46:	65542023          	sw	s5,1600(s0)
 b4a:	70207473          	csrrci	s0,0x702,0
 b4e:	7261                	lui	tp,0xffff8
 b50:	2074                	fld	fa3,192(s0)
 b52:	3341                	jal	8d2 <STACK_SIZE+0x4d2>
 b54:	2d20                	fld	fs0,88(a0)
 b56:	7420                	flw	fs0,104(s0)
 b58:	7365                	lui	t1,0xffff9
 b5a:	2074                	fld	fa3,192(s0)
 b5c:	6162                	flw	ft2,24(sp)
 b5e:	61206573          	csrrsi	a0,0x612,0
 b62:	6464                	flw	fs1,76(s0)
 b64:	6572                	flw	fa0,28(sp)
 b66:	2b207373          	csrrci	t1,0x2b2,0
 b6a:	3120                	fld	fs0,96(a0)
 b6c:	000a                	0xa
 b6e:	65542023          	sw	s5,1600(s0)
 b72:	70207473          	csrrci	s0,0x702,0
 b76:	7261                	lui	tp,0xffff8
 b78:	2074                	fld	fa3,192(s0)
 b7a:	3341                	jal	8fa <STACK_SIZE+0x4fa>
 b7c:	2020                	fld	fs0,64(s0)
 b7e:	202d                	jal	ba8 <end_signature+0xf8>
 b80:	706d6f43          	fmadd.s	ft10,fs10,ft6,fa4,unknown
 b84:	656c                	flw	fa1,76(a0)
 b86:	6574                	flw	fa3,76(a0)
 b88:	000a                	0xa
 b8a:	65542023          	sw	s5,1600(s0)
 b8e:	70207473          	csrrci	s0,0x702,0
 b92:	7261                	lui	tp,0xffff8
 b94:	2074                	fld	fa3,192(s0)
 b96:	3441                	jal	616 <STACK_SIZE+0x216>
 b98:	2d20                	fld	fs0,88(a0)
 b9a:	7420                	flw	fs0,104(s0)
 b9c:	7365                	lui	t1,0xffff9
 b9e:	2074                	fld	fa3,192(s0)
 ba0:	6162                	flw	ft2,24(sp)
 ba2:	61206573          	csrrsi	a0,0x612,0
 ba6:	6464                	flw	fs1,76(s0)
 ba8:	6572                	flw	fa0,28(sp)
 baa:	2d207373          	csrrci	t1,0x2d2,0
 bae:	3220                	fld	fs0,96(a2)
 bb0:	3430                	fld	fa2,104(s0)
 bb2:	0a38                	addi	a4,sp,280
 bb4:	2300                	fld	fs0,0(a4)
 bb6:	5420                	lw	s0,104(s0)
 bb8:	7365                	lui	t1,0xffff9
 bba:	2074                	fld	fa3,192(s0)
 bbc:	6170                	flw	fa2,68(a0)
 bbe:	7472                	flw	fs0,60(sp)
 bc0:	4120                	lw	s0,64(a0)
 bc2:	2034                	fld	fa3,64(s0)
 bc4:	2d20                	fld	fs0,88(a0)
 bc6:	4320                	lw	s0,64(a4)
 bc8:	6c706d6f          	jal	s10,7a8e <__global_pointer$+0x6486>
 bcc:	7465                	lui	s0,0xffff9
 bce:	0a65                	addi	s4,s4,25
 bd0:	2300                	fld	fs0,0(a4)
 bd2:	5420                	lw	s0,104(s0)
 bd4:	7365                	lui	t1,0xffff9
 bd6:	2074                	fld	fa3,192(s0)
 bd8:	6170                	flw	fa2,68(a0)
 bda:	7472                	flw	fs0,60(sp)
 bdc:	4120                	lw	s0,64(a0)
 bde:	2035                	jal	c0a <end_signature+0x15a>
 be0:	202d                	jal	c0a <end_signature+0x15a>
 be2:	6574                	flw	fa3,76(a0)
 be4:	62207473          	csrrci	s0,0x622,0
 be8:	7361                	lui	t1,0xffff8
 bea:	2065                	jal	c92 <end_signature+0x1e2>
 bec:	6461                	lui	s0,0x18
 bee:	7264                	flw	fs1,100(a2)
 bf0:	7365                	lui	t1,0xffff9
 bf2:	202b2073          	csrs	0x202,s6
 bf6:	3032                	fld	ft0,296(sp)
 bf8:	3734                	fld	fa3,104(a4)
 bfa:	000a                	0xa
 bfc:	65542023          	sw	s5,1600(s0) # 18640 <__global_pointer$+0x17038>
 c00:	70207473          	csrrci	s0,0x702,0
 c04:	7261                	lui	tp,0xffff8
 c06:	2074                	fld	fa3,192(s0)
 c08:	3541                	jal	a88 <test_A3_res>
 c0a:	2020                	fld	fs0,64(s0)
 c0c:	202d                	jal	c36 <end_signature+0x186>
 c0e:	706d6f43          	fmadd.s	ft10,fs10,ft6,fa4,unknown
 c12:	656c                	flw	fa1,76(a0)
 c14:	6574                	flw	fa3,76(a0)
 c16:	000a                	0xa
 c18:	65542023          	sw	s5,1600(s0)
 c1c:	70207473          	csrrci	s0,0x702,0
 c20:	7261                	lui	tp,0xffff8
 c22:	2074                	fld	fa3,192(s0)
 c24:	2042                	fld	ft0,16(sp)
 c26:	202d                	jal	c50 <end_signature+0x1a0>
 c28:	6574                	flw	fa3,76(a0)
 c2a:	62207473          	csrrci	s0,0x622,0
 c2e:	7361                	lui	t1,0xffff8
 c30:	2065                	jal	cd8 <end_signature+0x228>
 c32:	6461                	lui	s0,0x18
 c34:	7264                	flw	fs1,100(a2)
 c36:	7365                	lui	t1,0xffff9
 c38:	202b2073          	csrs	0x202,s6
 c3c:	342d                	jal	666 <STACK_SIZE+0x266>
 c3e:	202c                	fld	fa1,64(s0)
 c40:	2c30                	fld	fa2,88(s0)
 c42:	3420                	fld	fs0,104(s0)
 c44:	000a                	0xa
 c46:	65542023          	sw	s5,1600(s0) # 18640 <__global_pointer$+0x17038>
 c4a:	70207473          	csrrci	s0,0x702,0
 c4e:	7261                	lui	tp,0xffff8
 c50:	2074                	fld	fa3,192(s0)
 c52:	2042                	fld	ft0,16(sp)
 c54:	2d20                	fld	fs0,88(a0)
 c56:	4320                	lw	s0,64(a4)
 c58:	6c706d6f          	jal	s10,7b1e <__global_pointer$+0x6516>
 c5c:	7465                	lui	s0,0xffff9
 c5e:	0a65                	addi	s4,s4,25
 c60:	2300                	fld	fs0,0(a4)
 c62:	5420                	lw	s0,104(s0)
 c64:	7365                	lui	t1,0xffff9
 c66:	2074                	fld	fa3,192(s0)
 c68:	6170                	flw	fa2,68(a0)
 c6a:	7472                	flw	fs0,60(sp)
 c6c:	4320                	lw	s0,64(a4)
 c6e:	2d20                	fld	fs0,88(a0)
 c70:	7420                	flw	fs0,104(s0)
 c72:	7365                	lui	t1,0xffff9
 c74:	2074                	fld	fa3,192(s0)
 c76:	6f6c                	flw	fa1,92(a4)
 c78:	6461                	lui	s0,0x18
 c7a:	7420                	flw	fs0,104(s0)
 c7c:	3078206f          	j	83782 <__global_pointer$+0x8217a>
 c80:	000a                	0xa
 c82:	65542023          	sw	s5,1600(s0) # 18640 <__global_pointer$+0x17038>
 c86:	70207473          	csrrci	s0,0x702,0
 c8a:	7261                	lui	tp,0xffff8
 c8c:	2074                	fld	fa3,192(s0)
 c8e:	2d202043          	0x2d202043
 c92:	4320                	lw	s0,64(a4)
 c94:	6c706d6f          	jal	s10,7b5a <__global_pointer$+0x6552>
 c98:	7465                	lui	s0,0xffff9
 c9a:	0a65                	addi	s4,s4,25
 c9c:	2300                	fld	fs0,0(a4)
 c9e:	5420                	lw	s0,104(s0)
 ca0:	7365                	lui	t1,0xffff9
 ca2:	2074                	fld	fa3,192(s0)
 ca4:	6170                	flw	fa2,68(a0)
 ca6:	7472                	flw	fs0,60(sp)
 ca8:	4420                	lw	s0,72(s0)
 caa:	2d20                	fld	fs0,88(a0)
 cac:	7420                	flw	fs0,104(s0)
 cae:	7365                	lui	t1,0xffff9
 cb0:	2074                	fld	fa3,192(s0)
 cb2:	6f66                	flw	ft10,88(sp)
 cb4:	2072                	fld	ft0,280(sp)
 cb6:	6f66                	flw	ft10,88(sp)
 cb8:	7772                	flw	fa4,60(sp)
 cba:	7261                	lui	tp,0xffff8
 cbc:	6964                	flw	fs1,84(a0)
 cbe:	676e                	flw	fa4,216(sp)
 cc0:	000a                	0xa
 cc2:	65542023          	sw	s5,1600(s0) # ffff9640 <__global_pointer$+0xffff8038>
 cc6:	70207473          	csrrci	s0,0x702,0
 cca:	7261                	lui	tp,0xffff8
 ccc:	2074                	fld	fa3,192(s0)
 cce:	2044                	fld	fs1,128(s0)
 cd0:	2d20                	fld	fs0,88(a0)
 cd2:	4320                	lw	s0,64(a4)
 cd4:	6c706d6f          	jal	s10,7b9a <__global_pointer$+0x6592>
 cd8:	7465                	lui	s0,0xffff9
 cda:	0a65                	addi	s4,s4,25
 cdc:	2300                	fld	fs0,0(a4)
 cde:	5420                	lw	s0,104(s0)
 ce0:	7365                	lui	t1,0xffff9
 ce2:	2074                	fld	fa3,192(s0)
 ce4:	6170                	flw	fa2,68(a0)
 ce6:	7472                	flw	fs0,60(sp)
 ce8:	4520                	lw	s0,72(a0)
 cea:	2031                	jal	cf6 <end_signature+0x246>
 cec:	202d                	jal	d16 <end_signature+0x266>
 cee:	6574                	flw	fa3,76(a0)
 cf0:	73207473          	csrrci	s0,0x732,0
 cf4:	6f74                	flw	fa3,92(a4)
 cf6:	6572                	flw	fa0,28(sp)
 cf8:	7720                	flw	fs0,104(a4)
 cfa:	7469                	lui	s0,0xffffa
 cfc:	2068                	fld	fa0,192(s0)
 cfe:	656d6173          	csrrsi	sp,0x656,26
 d02:	6220                	flw	fs0,64(a2)
 d04:	7361                	lui	t1,0xffff8
 d06:	2065                	jal	dae <end_signature+0x2fe>
 d08:	6e61                	lui	t3,0x18
 d0a:	2064                	fld	fs1,192(s0)
 d0c:	6564                	flw	fs1,76(a0)
 d0e:	6e697473          	csrrci	s0,0x6e6,18
 d12:	7461                	lui	s0,0xffff8
 d14:	6f69                	lui	t5,0x1a
 d16:	206e                	fld	ft0,216(sp)
 d18:	6461                	lui	s0,0x18
 d1a:	7264                	flw	fs1,100(a2)
 d1c:	7365                	lui	t1,0xffff9
 d1e:	23000a73          	0x23000a73
 d22:	5420                	lw	s0,104(s0)
 d24:	7365                	lui	t1,0xffff9
 d26:	2074                	fld	fa3,192(s0)
 d28:	6170                	flw	fa2,68(a0)
 d2a:	7472                	flw	fs0,60(sp)
 d2c:	4520                	lw	s0,72(a0)
 d2e:	2020                	fld	fs0,64(s0)
 d30:	202d                	jal	d5a <end_signature+0x2aa>
 d32:	706d6f43          	fmadd.s	ft10,fs10,ft6,fa4,unknown
 d36:	656c                	flw	fa1,76(a0)
 d38:	6574                	flw	fa3,76(a0)
 d3a:	000a                	0xa
 d3c:	65542023          	sw	s5,1600(s0) # 18640 <__global_pointer$+0x17038>
 d40:	70207473          	csrrci	s0,0x702,0
 d44:	7261                	lui	tp,0xffff8
 d46:	2074                	fld	fa3,192(s0)
 d48:	3245                	jal	6e8 <STACK_SIZE+0x2e8>
 d4a:	2d20                	fld	fs0,88(a0)
 d4c:	7420                	flw	fs0,104(s0)
 d4e:	7365                	lui	t1,0xffff9
 d50:	2074                	fld	fa3,192(s0)
 d52:	726f7473          	csrrci	s0,0x726,30
 d56:	2065                	jal	dfe <tohost+0x3e>
 d58:	68746977          	0x68746977
 d5c:	7320                	flw	fs0,96(a4)
 d5e:	6d61                	lui	s10,0x18
 d60:	2065                	jal	e08 <fromhost+0x8>
 d62:	6162                	flw	ft2,24(sp)
 d64:	61206573          	csrrsi	a0,0x612,0
 d68:	646e                	flw	fs0,216(sp)
 d6a:	6420                	flw	fs0,72(s0)
 d6c:	7365                	lui	t1,0xffff9
 d6e:	6974                	flw	fa3,84(a0)
 d70:	616e                	flw	ft2,216(sp)
 d72:	6974                	flw	fa3,84(a0)
 d74:	61206e6f          	jal	t3,7386 <__global_pointer$+0x5d7e>
 d78:	6464                	flw	fs1,76(s0)
 d7a:	6572                	flw	fa0,28(sp)
 d7c:	202c7373          	csrrci	t1,0x202,24
 d80:	6162                	flw	ft2,24(sp)
 d82:	77206573          	csrrsi	a0,0x772,0
 d86:	7469                	lui	s0,0xffffa
 d88:	2068                	fld	fa0,192(s0)
 d8a:	7366666f          	jal	a2,674c0 <__global_pointer$+0x65eb8>
 d8e:	7465                	lui	s0,0xffff9
 d90:	000a                	0xa
 d92:	65542023          	sw	s5,1600(s0) # ffff9640 <__global_pointer$+0xffff8038>
 d96:	70207473          	csrrci	s0,0x702,0
 d9a:	7261                	lui	tp,0xffff8
 d9c:	2074                	fld	fa3,192(s0)
 d9e:	3141                	jal	a1e <sc_exit+0x3e>
 da0:	2020                	fld	fs0,64(s0)
 da2:	202d                	jal	dcc <tohost+0xc>
 da4:	706d6f43          	fmadd.s	ft10,fs10,ft6,fa4,unknown
 da8:	656c                	flw	fa1,76(a0)
 daa:	6574                	flw	fa3,76(a0)
 dac:	000a                	0xa
 dae:	65542023          	sw	s5,1600(s0)
 db2:	45207473          	csrrci	s0,0x452,0
 db6:	646e                	flw	fs0,216(sp)
 db8:	000a                	0xa
 dba:	0000                	unimp
 dbc:	0000                	unimp
	...

Дизассемблирование раздела .tohost:

00000dc0 <tohost>:
	...

00000e00 <fromhost>:
	...

Дизассемблирование раздела .sdata:

00000e08 <__global_pointer$-0x800>:
	...

Дизассемблирование раздела .stack:

0000fc00 <.stack>:
	...
