
/home/oleg/scr1/build/verilator_wf_AHB_IMC/compliance_bgeu.elf:     формат файла elf32-littleriscv
/home/oleg/scr1/build/verilator_wf_AHB_IMC/compliance_bgeu.elf
архитектура: riscv:rv32, флаги 0x00000112:
EXEC_P, HAS_SYMS, D_PAGED
начальный адрес 0x00000200

Заголовок программы:
    LOAD off    0x00001000 vaddr 0x00000000 paddr 0x00000000 align 2**12
         filesz 0x00000888 memsz 0x000008a0 flags rwx
    LOAD off    0x00001c00 vaddr 0x0000fc00 paddr 0x0000fc00 align 2**12
         filesz 0x00000000 memsz 0x00000400 flags rw-

Разделы:
Idx Name          Size      VMA       LMA       File off  Algn  Флаги
  0 .text.init    00000284  00000000  00000000  00001000  2**6  CONTENTS, ALLOC, LOAD, READONLY, CODE
  1 .text         000004e0  000002a0  000002a0  000012a0  2**5  CONTENTS, ALLOC, LOAD, READONLY, CODE
  2 .data         000000a0  00000780  00000780  00001780  2**4  CONTENTS, ALLOC, LOAD, DATA
  3 .tohost       00000048  00000840  00000840  00001840  2**6  CONTENTS, ALLOC, LOAD, DATA
  4 .sdata        00000018  00000888  00000888  00001888  2**0  ALLOC
  5 .tdata        00000000  000008a0  000008a0  00001888  2**0  CONTENTS, ALLOC, LOAD, DATA, THREAD_LOCAL
  6 .tbss         00000000  000008a0  000008a0  00000000  2**0  ALLOC, THREAD_LOCAL
  7 .bss          00000000  000008a0  000008a0  00001888  2**0  ALLOC
  8 .stack        00000400  0000fc00  0000fc00  00001c00  2**0  ALLOC
SYMBOL TABLE:
00000000 l    d  .text.init	00000000 .text.init
000002a0 l    d  .text	00000000 .text
00000780 l    d  .data	00000000 .data
00000840 l    d  .tohost	00000000 .tohost
00000888 l    d  .sdata	00000000 .sdata
000008a0 l    d  .tdata	00000000 .tdata
000008a0 l    d  .tbss	00000000 .tbss
000008a0 l    d  .bss	00000000 .bss
0000fc00 l    d  .stack	00000000 .stack
00000000 l    df *ABS*	00000000 /home/oleg/scr1/build/verilator_wf_AHB_IMC/riscv_compliance/riscv_compliance_objs/bgeu.o
00000740 l       .text	00000000 sc_exit
000001c0 l       .text.init	00000000 trap_vector
000001fc l       .text.init	00000000 _report
000001f8 l       .text.init	00000000 handle_exception
000001f8 l       .text.init	00000000 other_exception
000002a0 l       .text	00000000 _run_test
000002a0 l       .text	00000000 test_2
000007a0 l       .data	00000000 test_res
00000708 l       .text	00000000 fail
000002cc l       .text	00000000 test_3
000002f8 l       .text	00000000 test_4
00000324 l       .text	00000000 test_5
00000350 l       .text	00000000 test_6
0000037c l       .text	00000000 test_7
000003a8 l       .text	00000000 test_8
000003d0 l       .text	00000000 test_9
000003f8 l       .text	00000000 test_10
00000420 l       .text	00000000 test_11
0000044c l       .text	00000000 test_12
0000047c l       .text	00000000 test_13
000004b0 l       .text	00000000 test_14
000004e8 l       .text	00000000 test_15
0000051c l       .text	00000000 test_16
00000554 l       .text	00000000 test_17
0000058c l       .text	00000000 test_18
000005bc l       .text	00000000 test_19
000005f0 l       .text	00000000 test_20
00000628 l       .text	00000000 test_21
0000065c l       .text	00000000 test_22
00000694 l       .text	00000000 test_23
000006cc l       .text	00000000 test_24
00000718 l       .text	00000000 pass
00000728 l       .text	00000000 ecall
00000400 g       *ABS*	00000000 STACK_SIZE
00001088 g       .sdata	00000000 __global_pointer$
00000820 g       .data	00000000 end_signature
00000780 g       .data	00000000 begin_regstate
000007a0 g       .data	00000000 begin_signature
00000200 g       .text.init	00000000 _start
00000020 g       *ABS*	00000000 CL_SIZE
000000f8 g       .text.init	00000000 SIM_STOP
000008a0 g       .bss	00000000 _end
00000880 g       .tohost	00000000 fromhost
00000840 g       .tohost	00000000 tohost
000000f4 g       .text.init	00000000 SIM_EXIT



Дизассемблирование раздела .text.init:

00000000 <SIM_EXIT-0xf4>:
	...

000000f4 <SIM_EXIT>:
  f4:	00000013          	nop

000000f8 <SIM_STOP>:
  f8:	0000006f          	j	f8 <SIM_STOP>
  fc:	ffff                	0xffff
  fe:	ffff                	0xffff
	...

000001c0 <trap_vector>:
 1c0:	34202773          	csrr	a4,mcause
 1c4:	00800793          	li	a5,8
 1c8:	02f70a63          	beq	a4,a5,1fc <_report>
 1cc:	00900793          	li	a5,9
 1d0:	02f70663          	beq	a4,a5,1fc <_report>
 1d4:	00b00793          	li	a5,11
 1d8:	02f70263          	beq	a4,a5,1fc <_report>
 1dc:	00000717          	auipc	a4,0x0
 1e0:	e2470713          	addi	a4,a4,-476 # 0 <CL_SIZE-0x20>
 1e4:	00070463          	beqz	a4,1ec <trap_vector+0x2c>
 1e8:	00070067          	jr	a4
 1ec:	34202773          	csrr	a4,mcause
 1f0:	00075463          	bgez	a4,1f8 <handle_exception>
 1f4:	0040006f          	j	1f8 <handle_exception>

000001f8 <handle_exception>:
 1f8:	00100513          	li	a0,1

000001fc <_report>:
 1fc:	5440006f          	j	740 <sc_exit>

00000200 <_start>:
 200:	f1402573          	csrr	a0,mhartid
 204:	00051063          	bnez	a0,204 <_start+0x4>
 208:	00000193          	li	gp,0
 20c:	00000297          	auipc	t0,0x0
 210:	fb428293          	addi	t0,t0,-76 # 1c0 <trap_vector>
 214:	30529073          	csrw	mtvec,t0
 218:	00100513          	li	a0,1
 21c:	01f51513          	slli	a0,a0,0x1f
 220:	00054a63          	bltz	a0,234 <_start+0x34>
 224:	0ff0000f          	fence
 228:	00018593          	mv	a1,gp
 22c:	00000513          	li	a0,0
 230:	00000073          	ecall
 234:	01f55513          	srli	a0,a0,0x1f
 238:	00000297          	auipc	t0,0x0
 23c:	56828293          	addi	t0,t0,1384 # 7a0 <begin_signature>
 240:	00a2a023          	sw	a0,0(t0)
 244:	00000297          	auipc	t0,0x0
 248:	dbc28293          	addi	t0,t0,-580 # 0 <CL_SIZE-0x20>
 24c:	00028e63          	beqz	t0,268 <_start+0x68>
 250:	10529073          	csrw	stvec,t0
 254:	0000b2b7          	lui	t0,0xb
 258:	10928293          	addi	t0,t0,265 # b109 <__global_pointer$+0xa081>
 25c:	30229073          	csrw	medeleg,t0
 260:	30202373          	csrr	t1,medeleg
 264:	f8629ae3          	bne	t0,t1,1f8 <handle_exception>
 268:	30005073          	csrwi	mstatus,0
 26c:	00000297          	auipc	t0,0x0
 270:	03428293          	addi	t0,t0,52 # 2a0 <_run_test>
 274:	34129073          	csrw	mepc,t0
 278:	f1402573          	csrr	a0,mhartid
 27c:	30200073          	mret
 280:	0000                	unimp
	...

Дизассемблирование раздела .text:

000002a0 <_run_test>:
 2a0:	00200193          	li	gp,2
 2a4:	00000e17          	auipc	t3,0x0
 2a8:	4fce0e13          	addi	t3,t3,1276 # 7a0 <begin_signature>
 2ac:	003e2423          	sw	gp,8(t3)
 2b0:	00000093          	li	ra,0
 2b4:	00000113          	li	sp,0
 2b8:	0020f663          	bleu	sp,ra,2c4 <_run_test+0x24>
 2bc:	44301663          	bne	zero,gp,708 <fail>
 2c0:	00301663          	bne	zero,gp,2cc <test_3>
 2c4:	fe20fee3          	bleu	sp,ra,2c0 <_run_test+0x20>
 2c8:	44301063          	bne	zero,gp,708 <fail>

000002cc <test_3>:
 2cc:	00300193          	li	gp,3
 2d0:	00000e17          	auipc	t3,0x0
 2d4:	4d0e0e13          	addi	t3,t3,1232 # 7a0 <begin_signature>
 2d8:	003e2623          	sw	gp,12(t3)
 2dc:	00100093          	li	ra,1
 2e0:	00100113          	li	sp,1
 2e4:	0020f663          	bleu	sp,ra,2f0 <test_3+0x24>
 2e8:	42301063          	bne	zero,gp,708 <fail>
 2ec:	00301663          	bne	zero,gp,2f8 <test_4>
 2f0:	fe20fee3          	bleu	sp,ra,2ec <test_3+0x20>
 2f4:	40301a63          	bne	zero,gp,708 <fail>

000002f8 <test_4>:
 2f8:	00400193          	li	gp,4
 2fc:	00000e17          	auipc	t3,0x0
 300:	4a4e0e13          	addi	t3,t3,1188 # 7a0 <begin_signature>
 304:	003e2823          	sw	gp,16(t3)
 308:	fff00093          	li	ra,-1
 30c:	fff00113          	li	sp,-1
 310:	0020f663          	bleu	sp,ra,31c <test_4+0x24>
 314:	3e301a63          	bne	zero,gp,708 <fail>
 318:	00301663          	bne	zero,gp,324 <test_5>
 31c:	fe20fee3          	bleu	sp,ra,318 <test_4+0x20>
 320:	3e301463          	bne	zero,gp,708 <fail>

00000324 <test_5>:
 324:	00500193          	li	gp,5
 328:	00000e17          	auipc	t3,0x0
 32c:	478e0e13          	addi	t3,t3,1144 # 7a0 <begin_signature>
 330:	003e2a23          	sw	gp,20(t3)
 334:	00100093          	li	ra,1
 338:	00000113          	li	sp,0
 33c:	0020f663          	bleu	sp,ra,348 <test_5+0x24>
 340:	3c301463          	bne	zero,gp,708 <fail>
 344:	00301663          	bne	zero,gp,350 <test_6>
 348:	fe20fee3          	bleu	sp,ra,344 <test_5+0x20>
 34c:	3a301e63          	bne	zero,gp,708 <fail>

00000350 <test_6>:
 350:	00600193          	li	gp,6
 354:	00000e17          	auipc	t3,0x0
 358:	44ce0e13          	addi	t3,t3,1100 # 7a0 <begin_signature>
 35c:	003e2c23          	sw	gp,24(t3)
 360:	fff00093          	li	ra,-1
 364:	ffe00113          	li	sp,-2
 368:	0020f663          	bleu	sp,ra,374 <test_6+0x24>
 36c:	38301e63          	bne	zero,gp,708 <fail>
 370:	00301663          	bne	zero,gp,37c <test_7>
 374:	fe20fee3          	bleu	sp,ra,370 <test_6+0x20>
 378:	38301863          	bne	zero,gp,708 <fail>

0000037c <test_7>:
 37c:	00700193          	li	gp,7
 380:	00000e17          	auipc	t3,0x0
 384:	420e0e13          	addi	t3,t3,1056 # 7a0 <begin_signature>
 388:	003e2e23          	sw	gp,28(t3)
 38c:	fff00093          	li	ra,-1
 390:	00000113          	li	sp,0
 394:	0020f663          	bleu	sp,ra,3a0 <test_7+0x24>
 398:	36301863          	bne	zero,gp,708 <fail>
 39c:	00301663          	bne	zero,gp,3a8 <test_8>
 3a0:	fe20fee3          	bleu	sp,ra,39c <test_7+0x20>
 3a4:	36301263          	bne	zero,gp,708 <fail>

000003a8 <test_8>:
 3a8:	00800193          	li	gp,8
 3ac:	00000e17          	auipc	t3,0x0
 3b0:	3f4e0e13          	addi	t3,t3,1012 # 7a0 <begin_signature>
 3b4:	023e2023          	sw	gp,32(t3)
 3b8:	00000093          	li	ra,0
 3bc:	00100113          	li	sp,1
 3c0:	0020f463          	bleu	sp,ra,3c8 <test_8+0x20>
 3c4:	00301463          	bne	zero,gp,3cc <test_8+0x24>
 3c8:	34301063          	bne	zero,gp,708 <fail>
 3cc:	fe20fee3          	bleu	sp,ra,3c8 <test_8+0x20>

000003d0 <test_9>:
 3d0:	00900193          	li	gp,9
 3d4:	00000e17          	auipc	t3,0x0
 3d8:	3cce0e13          	addi	t3,t3,972 # 7a0 <begin_signature>
 3dc:	023e2223          	sw	gp,36(t3)
 3e0:	ffe00093          	li	ra,-2
 3e4:	fff00113          	li	sp,-1
 3e8:	0020f463          	bleu	sp,ra,3f0 <test_9+0x20>
 3ec:	00301463          	bne	zero,gp,3f4 <test_9+0x24>
 3f0:	30301c63          	bne	zero,gp,708 <fail>
 3f4:	fe20fee3          	bleu	sp,ra,3f0 <test_9+0x20>

000003f8 <test_10>:
 3f8:	00a00193          	li	gp,10
 3fc:	00000e17          	auipc	t3,0x0
 400:	3a4e0e13          	addi	t3,t3,932 # 7a0 <begin_signature>
 404:	023e2423          	sw	gp,40(t3)
 408:	00000093          	li	ra,0
 40c:	fff00113          	li	sp,-1
 410:	0020f463          	bleu	sp,ra,418 <STACK_SIZE+0x18>
 414:	00301463          	bne	zero,gp,41c <STACK_SIZE+0x1c>
 418:	2e301863          	bne	zero,gp,708 <fail>
 41c:	fe20fee3          	bleu	sp,ra,418 <STACK_SIZE+0x18>

00000420 <test_11>:
 420:	00b00193          	li	gp,11
 424:	00000e17          	auipc	t3,0x0
 428:	37ce0e13          	addi	t3,t3,892 # 7a0 <begin_signature>
 42c:	023e2623          	sw	gp,44(t3)
 430:	800000b7          	lui	ra,0x80000
 434:	fff08093          	addi	ra,ra,-1 # 7fffffff <__global_pointer$+0x7fffef77>
 438:	80000137          	lui	sp,0x80000
 43c:	0020f463          	bleu	sp,ra,444 <test_11+0x24>
 440:	00301463          	bne	zero,gp,448 <test_11+0x28>
 444:	2c301263          	bne	zero,gp,708 <fail>
 448:	fe20fee3          	bleu	sp,ra,444 <test_11+0x24>

0000044c <test_12>:
 44c:	00c00193          	li	gp,12
 450:	00000e17          	auipc	t3,0x0
 454:	350e0e13          	addi	t3,t3,848 # 7a0 <begin_signature>
 458:	023e2823          	sw	gp,48(t3)
 45c:	00000213          	li	tp,0
 460:	f00000b7          	lui	ra,0xf0000
 464:	fff08093          	addi	ra,ra,-1 # efffffff <__global_pointer$+0xefffef77>
 468:	f0000137          	lui	sp,0xf0000
 46c:	2820fe63          	bleu	sp,ra,708 <fail>
 470:	00120213          	addi	tp,tp,1 # 1 <CL_SIZE-0x1f>
 474:	00200293          	li	t0,2
 478:	fe5214e3          	bne	tp,t0,460 <test_12+0x14>

0000047c <test_13>:
 47c:	00d00193          	li	gp,13
 480:	00000e17          	auipc	t3,0x0
 484:	320e0e13          	addi	t3,t3,800 # 7a0 <begin_signature>
 488:	023e2a23          	sw	gp,52(t3)
 48c:	00000213          	li	tp,0
 490:	f00000b7          	lui	ra,0xf0000
 494:	fff08093          	addi	ra,ra,-1 # efffffff <__global_pointer$+0xefffef77>
 498:	f0000137          	lui	sp,0xf0000
 49c:	00000013          	nop
 4a0:	2620f463          	bleu	sp,ra,708 <fail>
 4a4:	00120213          	addi	tp,tp,1 # 1 <CL_SIZE-0x1f>
 4a8:	00200293          	li	t0,2
 4ac:	fe5212e3          	bne	tp,t0,490 <test_13+0x14>

000004b0 <test_14>:
 4b0:	00e00193          	li	gp,14
 4b4:	00000e17          	auipc	t3,0x0
 4b8:	2ece0e13          	addi	t3,t3,748 # 7a0 <begin_signature>
 4bc:	023e2c23          	sw	gp,56(t3)
 4c0:	00000213          	li	tp,0
 4c4:	f00000b7          	lui	ra,0xf0000
 4c8:	fff08093          	addi	ra,ra,-1 # efffffff <__global_pointer$+0xefffef77>
 4cc:	f0000137          	lui	sp,0xf0000
 4d0:	00000013          	nop
 4d4:	00000013          	nop
 4d8:	2220f863          	bleu	sp,ra,708 <fail>
 4dc:	00120213          	addi	tp,tp,1 # 1 <CL_SIZE-0x1f>
 4e0:	00200293          	li	t0,2
 4e4:	fe5210e3          	bne	tp,t0,4c4 <test_14+0x14>

000004e8 <test_15>:
 4e8:	00f00193          	li	gp,15
 4ec:	00000e17          	auipc	t3,0x0
 4f0:	2b4e0e13          	addi	t3,t3,692 # 7a0 <begin_signature>
 4f4:	023e2e23          	sw	gp,60(t3)
 4f8:	00000213          	li	tp,0
 4fc:	f00000b7          	lui	ra,0xf0000
 500:	fff08093          	addi	ra,ra,-1 # efffffff <__global_pointer$+0xefffef77>
 504:	00000013          	nop
 508:	f0000137          	lui	sp,0xf0000
 50c:	1e20fe63          	bleu	sp,ra,708 <fail>
 510:	00120213          	addi	tp,tp,1 # 1 <CL_SIZE-0x1f>
 514:	00200293          	li	t0,2
 518:	fe5212e3          	bne	tp,t0,4fc <test_15+0x14>

0000051c <test_16>:
 51c:	01000193          	li	gp,16
 520:	00000e17          	auipc	t3,0x0
 524:	280e0e13          	addi	t3,t3,640 # 7a0 <begin_signature>
 528:	043e2023          	sw	gp,64(t3)
 52c:	00000213          	li	tp,0
 530:	f00000b7          	lui	ra,0xf0000
 534:	fff08093          	addi	ra,ra,-1 # efffffff <__global_pointer$+0xefffef77>
 538:	00000013          	nop
 53c:	f0000137          	lui	sp,0xf0000
 540:	00000013          	nop
 544:	1c20f263          	bleu	sp,ra,708 <fail>
 548:	00120213          	addi	tp,tp,1 # 1 <CL_SIZE-0x1f>
 54c:	00200293          	li	t0,2
 550:	fe5210e3          	bne	tp,t0,530 <test_16+0x14>

00000554 <test_17>:
 554:	01100193          	li	gp,17
 558:	00000e17          	auipc	t3,0x0
 55c:	248e0e13          	addi	t3,t3,584 # 7a0 <begin_signature>
 560:	043e2223          	sw	gp,68(t3)
 564:	00000213          	li	tp,0
 568:	f00000b7          	lui	ra,0xf0000
 56c:	fff08093          	addi	ra,ra,-1 # efffffff <__global_pointer$+0xefffef77>
 570:	00000013          	nop
 574:	00000013          	nop
 578:	f0000137          	lui	sp,0xf0000
 57c:	1820f663          	bleu	sp,ra,708 <fail>
 580:	00120213          	addi	tp,tp,1 # 1 <CL_SIZE-0x1f>
 584:	00200293          	li	t0,2
 588:	fe5210e3          	bne	tp,t0,568 <test_17+0x14>

0000058c <test_18>:
 58c:	01200193          	li	gp,18
 590:	00000e17          	auipc	t3,0x0
 594:	210e0e13          	addi	t3,t3,528 # 7a0 <begin_signature>
 598:	043e2423          	sw	gp,72(t3)
 59c:	00000213          	li	tp,0
 5a0:	f00000b7          	lui	ra,0xf0000
 5a4:	fff08093          	addi	ra,ra,-1 # efffffff <__global_pointer$+0xefffef77>
 5a8:	f0000137          	lui	sp,0xf0000
 5ac:	1420fe63          	bleu	sp,ra,708 <fail>
 5b0:	00120213          	addi	tp,tp,1 # 1 <CL_SIZE-0x1f>
 5b4:	00200293          	li	t0,2
 5b8:	fe5214e3          	bne	tp,t0,5a0 <test_18+0x14>

000005bc <test_19>:
 5bc:	01300193          	li	gp,19
 5c0:	00000e17          	auipc	t3,0x0
 5c4:	1e0e0e13          	addi	t3,t3,480 # 7a0 <begin_signature>
 5c8:	043e2623          	sw	gp,76(t3)
 5cc:	00000213          	li	tp,0
 5d0:	f00000b7          	lui	ra,0xf0000
 5d4:	fff08093          	addi	ra,ra,-1 # efffffff <__global_pointer$+0xefffef77>
 5d8:	f0000137          	lui	sp,0xf0000
 5dc:	00000013          	nop
 5e0:	1220f463          	bleu	sp,ra,708 <fail>
 5e4:	00120213          	addi	tp,tp,1 # 1 <CL_SIZE-0x1f>
 5e8:	00200293          	li	t0,2
 5ec:	fe5212e3          	bne	tp,t0,5d0 <test_19+0x14>

000005f0 <test_20>:
 5f0:	01400193          	li	gp,20
 5f4:	00000e17          	auipc	t3,0x0
 5f8:	1ace0e13          	addi	t3,t3,428 # 7a0 <begin_signature>
 5fc:	043e2823          	sw	gp,80(t3)
 600:	00000213          	li	tp,0
 604:	f00000b7          	lui	ra,0xf0000
 608:	fff08093          	addi	ra,ra,-1 # efffffff <__global_pointer$+0xefffef77>
 60c:	f0000137          	lui	sp,0xf0000
 610:	00000013          	nop
 614:	00000013          	nop
 618:	0e20f863          	bleu	sp,ra,708 <fail>
 61c:	00120213          	addi	tp,tp,1 # 1 <CL_SIZE-0x1f>
 620:	00200293          	li	t0,2
 624:	fe5210e3          	bne	tp,t0,604 <test_20+0x14>

00000628 <test_21>:
 628:	01500193          	li	gp,21
 62c:	00000e17          	auipc	t3,0x0
 630:	174e0e13          	addi	t3,t3,372 # 7a0 <begin_signature>
 634:	043e2a23          	sw	gp,84(t3)
 638:	00000213          	li	tp,0
 63c:	f00000b7          	lui	ra,0xf0000
 640:	fff08093          	addi	ra,ra,-1 # efffffff <__global_pointer$+0xefffef77>
 644:	00000013          	nop
 648:	f0000137          	lui	sp,0xf0000
 64c:	0a20fe63          	bleu	sp,ra,708 <fail>
 650:	00120213          	addi	tp,tp,1 # 1 <CL_SIZE-0x1f>
 654:	00200293          	li	t0,2
 658:	fe5212e3          	bne	tp,t0,63c <test_21+0x14>

0000065c <test_22>:
 65c:	01600193          	li	gp,22
 660:	00000e17          	auipc	t3,0x0
 664:	140e0e13          	addi	t3,t3,320 # 7a0 <begin_signature>
 668:	043e2c23          	sw	gp,88(t3)
 66c:	00000213          	li	tp,0
 670:	f00000b7          	lui	ra,0xf0000
 674:	fff08093          	addi	ra,ra,-1 # efffffff <__global_pointer$+0xefffef77>
 678:	00000013          	nop
 67c:	f0000137          	lui	sp,0xf0000
 680:	00000013          	nop
 684:	0820f263          	bleu	sp,ra,708 <fail>
 688:	00120213          	addi	tp,tp,1 # 1 <CL_SIZE-0x1f>
 68c:	00200293          	li	t0,2
 690:	fe5210e3          	bne	tp,t0,670 <test_22+0x14>

00000694 <test_23>:
 694:	01700193          	li	gp,23
 698:	00000e17          	auipc	t3,0x0
 69c:	108e0e13          	addi	t3,t3,264 # 7a0 <begin_signature>
 6a0:	043e2e23          	sw	gp,92(t3)
 6a4:	00000213          	li	tp,0
 6a8:	f00000b7          	lui	ra,0xf0000
 6ac:	fff08093          	addi	ra,ra,-1 # efffffff <__global_pointer$+0xefffef77>
 6b0:	00000013          	nop
 6b4:	00000013          	nop
 6b8:	f0000137          	lui	sp,0xf0000
 6bc:	0420f663          	bleu	sp,ra,708 <fail>
 6c0:	00120213          	addi	tp,tp,1 # 1 <CL_SIZE-0x1f>
 6c4:	00200293          	li	t0,2
 6c8:	fe5210e3          	bne	tp,t0,6a8 <test_23+0x14>

000006cc <test_24>:
 6cc:	00100093          	li	ra,1
 6d0:	0000fa63          	bleu	zero,ra,6e4 <test_24+0x18>
 6d4:	00108093          	addi	ra,ra,1
 6d8:	00108093          	addi	ra,ra,1
 6dc:	00108093          	addi	ra,ra,1
 6e0:	00108093          	addi	ra,ra,1
 6e4:	00108093          	addi	ra,ra,1
 6e8:	00108093          	addi	ra,ra,1
 6ec:	00300e93          	li	t4,3
 6f0:	01800193          	li	gp,24
 6f4:	00000e17          	auipc	t3,0x0
 6f8:	0ace0e13          	addi	t3,t3,172 # 7a0 <begin_signature>
 6fc:	061e2023          	sw	ra,96(t3)
 700:	01d09463          	bne	ra,t4,708 <fail>
 704:	00301a63          	bne	zero,gp,718 <pass>

00000708 <fail>:
 708:	0ff0000f          	fence
 70c:	00018593          	mv	a1,gp
 710:	00100513          	li	a0,1
 714:	00000073          	ecall

00000718 <pass>:
 718:	0ff0000f          	fence
 71c:	00018593          	mv	a1,gp
 720:	00000513          	li	a0,0
 724:	00000073          	ecall

00000728 <ecall>:
 728:	00000073          	ecall
	...

00000740 <sc_exit>:
 740:	9b5ff06f          	j	f4 <SIM_EXIT>
 744:	00000013          	nop
 748:	00000013          	nop
 74c:	00000013          	nop
 750:	00000013          	nop
 754:	00000013          	nop
 758:	00000013          	nop
 75c:	00000013          	nop
	...

Дизассемблирование раздела .data:

00000780 <begin_regstate>:
	...

000007a0 <begin_signature>:
 7a0:	ffff                	0xffff
 7a2:	ffff                	0xffff
 7a4:	ffff                	0xffff
 7a6:	ffff                	0xffff
 7a8:	ffff                	0xffff
 7aa:	ffff                	0xffff
 7ac:	ffff                	0xffff
 7ae:	ffff                	0xffff
 7b0:	ffff                	0xffff
 7b2:	ffff                	0xffff
 7b4:	ffff                	0xffff
 7b6:	ffff                	0xffff
 7b8:	ffff                	0xffff
 7ba:	ffff                	0xffff
 7bc:	ffff                	0xffff
 7be:	ffff                	0xffff
 7c0:	ffff                	0xffff
 7c2:	ffff                	0xffff
 7c4:	ffff                	0xffff
 7c6:	ffff                	0xffff
 7c8:	ffff                	0xffff
 7ca:	ffff                	0xffff
 7cc:	ffff                	0xffff
 7ce:	ffff                	0xffff
 7d0:	ffff                	0xffff
 7d2:	ffff                	0xffff
 7d4:	ffff                	0xffff
 7d6:	ffff                	0xffff
 7d8:	ffff                	0xffff
 7da:	ffff                	0xffff
 7dc:	ffff                	0xffff
 7de:	ffff                	0xffff
 7e0:	ffff                	0xffff
 7e2:	ffff                	0xffff
 7e4:	ffff                	0xffff
 7e6:	ffff                	0xffff
 7e8:	ffff                	0xffff
 7ea:	ffff                	0xffff
 7ec:	ffff                	0xffff
 7ee:	ffff                	0xffff
 7f0:	ffff                	0xffff
 7f2:	ffff                	0xffff
 7f4:	ffff                	0xffff
 7f6:	ffff                	0xffff
 7f8:	ffff                	0xffff
 7fa:	ffff                	0xffff
 7fc:	ffff                	0xffff
 7fe:	ffff                	0xffff
 800:	ffff                	0xffff
 802:	ffff                	0xffff
 804:	ffff                	0xffff
 806:	ffff                	0xffff
 808:	ffff                	0xffff
 80a:	ffff                	0xffff
 80c:	ffff                	0xffff
 80e:	ffff                	0xffff
 810:	ffff                	0xffff
 812:	ffff                	0xffff
 814:	ffff                	0xffff
 816:	ffff                	0xffff
	...

Дизассемблирование раздела .tohost:

00000840 <tohost>:
	...

00000880 <fromhost>:
	...

Дизассемблирование раздела .sdata:

00000888 <__global_pointer$-0x800>:
	...

Дизассемблирование раздела .stack:

0000fc00 <.stack>:
	...
