
/home/oleg/scr1/build/verilator_wf_AHB_IMC/compliance_I-CSRRW-01.elf:     формат файла elf32-littleriscv
/home/oleg/scr1/build/verilator_wf_AHB_IMC/compliance_I-CSRRW-01.elf
архитектура: riscv:rv32, флаги 0x00000112:
EXEC_P, HAS_SYMS, D_PAGED
начальный адрес 0x00000200

Заголовок программы:
    LOAD off    0x00001000 vaddr 0x00000000 paddr 0x00000000 align 2**12
         filesz 0x000009c8 memsz 0x000009e0 flags rwx
    LOAD off    0x00001c00 vaddr 0x0000fc00 paddr 0x0000fc00 align 2**12
         filesz 0x00000000 memsz 0x00000400 flags rw-

Разделы:
Idx Name          Size      VMA       LMA       File off  Algn  Флаги
  0 .text.init    00000284  00000000  00000000  00001000  2**6  CONTENTS, ALLOC, LOAD, READONLY, CODE
  1 .text         000004c0  000002a0  000002a0  000012a0  2**5  CONTENTS, ALLOC, LOAD, READONLY, CODE
  2 .data         00000200  00000760  00000760  00001760  2**4  CONTENTS, ALLOC, LOAD, DATA
  3 .tohost       00000048  00000980  00000980  00001980  2**6  CONTENTS, ALLOC, LOAD, DATA
  4 .sdata        00000018  000009c8  000009c8  000019c8  2**0  ALLOC
  5 .tdata        00000000  000009e0  000009e0  000019c8  2**0  CONTENTS, ALLOC, LOAD, DATA, THREAD_LOCAL
  6 .tbss         00000000  000009e0  000009e0  00000000  2**0  ALLOC, THREAD_LOCAL
  7 .bss          00000000  000009e0  000009e0  000019c8  2**0  ALLOC
  8 .stack        00000400  0000fc00  0000fc00  00001c00  2**0  ALLOC
SYMBOL TABLE:
00000000 l    d  .text.init	00000000 .text.init
000002a0 l    d  .text	00000000 .text
00000760 l    d  .data	00000000 .data
00000980 l    d  .tohost	00000000 .tohost
000009c8 l    d  .sdata	00000000 .sdata
000009e0 l    d  .tdata	00000000 .tdata
000009e0 l    d  .tbss	00000000 .tbss
000009e0 l    d  .bss	00000000 .bss
0000fc00 l    d  .stack	00000000 .stack
00000000 l    df *ABS*	00000000 /home/oleg/scr1/build/verilator_wf_AHB_IMC/riscv_compliance/riscv_compliance_objs/I-CSRRW-01.o
00000720 l       .text	00000000 sc_exit
000001c0 l       .text.init	00000000 trap_vector
000001fc l       .text.init	00000000 _report
000001f8 l       .text.init	00000000 handle_exception
000001f8 l       .text.init	00000000 other_exception
000002a0 l       .text	00000000 _run_test
00000780 l       .data	00000000 test_A_res
00000798 l       .data	00000000 test_B_res
000007a8 l       .data	00000000 test_C_res
000007ac l       .data	00000000 test_D_res
000007b4 l       .data	00000000 test_E_res
00000710 l       .text	00000000 ecall
00000400 g       *ABS*	00000000 STACK_SIZE
000011c8 g       .sdata	00000000 __global_pointer$
000007c0 g       .data	00000000 end_signature
00000760 g       .data	00000000 begin_regstate
00000780 g       .data	00000000 begin_signature
00000200 g       .text.init	00000000 _start
00000020 g       *ABS*	00000000 CL_SIZE
000000f8 g       .text.init	00000000 SIM_STOP
000009e0 g       .bss	00000000 _end
000009c0 g       .tohost	00000000 fromhost
00000980 g       .tohost	00000000 tohost
000000f4 g       .text.init	00000000 SIM_EXIT



Дизассемблирование раздела .text.init:

00000000 <SIM_EXIT-0xf4>:
	...

000000f4 <SIM_EXIT>:
  f4:	00000013          	nop

000000f8 <SIM_STOP>:
  f8:	0000006f          	j	f8 <SIM_STOP>
  fc:	ffff                	0xffff
  fe:	ffff                	0xffff
	...

000001c0 <trap_vector>:
 1c0:	34202773          	csrr	a4,mcause
 1c4:	00800793          	li	a5,8
 1c8:	02f70a63          	beq	a4,a5,1fc <_report>
 1cc:	00900793          	li	a5,9
 1d0:	02f70663          	beq	a4,a5,1fc <_report>
 1d4:	00b00793          	li	a5,11
 1d8:	02f70263          	beq	a4,a5,1fc <_report>
 1dc:	00000717          	auipc	a4,0x0
 1e0:	e2470713          	addi	a4,a4,-476 # 0 <CL_SIZE-0x20>
 1e4:	00070463          	beqz	a4,1ec <trap_vector+0x2c>
 1e8:	00070067          	jr	a4
 1ec:	34202773          	csrr	a4,mcause
 1f0:	00075463          	bgez	a4,1f8 <handle_exception>
 1f4:	0040006f          	j	1f8 <handle_exception>

000001f8 <handle_exception>:
 1f8:	00100513          	li	a0,1

000001fc <_report>:
 1fc:	5240006f          	j	720 <sc_exit>

00000200 <_start>:
 200:	f1402573          	csrr	a0,mhartid
 204:	00051063          	bnez	a0,204 <_start+0x4>
 208:	00000e13          	li	t3,0
 20c:	00000297          	auipc	t0,0x0
 210:	fb428293          	addi	t0,t0,-76 # 1c0 <trap_vector>
 214:	30529073          	csrw	mtvec,t0
 218:	00100513          	li	a0,1
 21c:	01f51513          	slli	a0,a0,0x1f
 220:	00054a63          	bltz	a0,234 <_start+0x34>
 224:	0ff0000f          	fence
 228:	000e0593          	mv	a1,t3
 22c:	00000513          	li	a0,0
 230:	00000073          	ecall
 234:	00000297          	auipc	t0,0x0
 238:	dcc28293          	addi	t0,t0,-564 # 0 <CL_SIZE-0x20>
 23c:	00028e63          	beqz	t0,258 <_start+0x58>
 240:	10529073          	csrw	stvec,t0
 244:	0000b2b7          	lui	t0,0xb
 248:	10928293          	addi	t0,t0,265 # b109 <__global_pointer$+0x9f41>
 24c:	30229073          	csrw	medeleg,t0
 250:	30202373          	csrr	t1,medeleg
 254:	fa6292e3          	bne	t0,t1,1f8 <handle_exception>
 258:	30005073          	csrwi	mstatus,0
 25c:	00002537          	lui	a0,0x2
 260:	80050513          	addi	a0,a0,-2048 # 1800 <__global_pointer$+0x638>
 264:	30052073          	csrs	mstatus,a0
 268:	00000297          	auipc	t0,0x0
 26c:	03828293          	addi	t0,t0,56 # 2a0 <_run_test>
 270:	34129073          	csrw	mepc,t0
 274:	f1402573          	csrr	a0,mhartid
 278:	30200073          	mret
	...

Дизассемблирование раздела .text:

000002a0 <_run_test>:
 2a0:	00000f97          	auipc	t6,0x0
 2a4:	4c0f8f93          	addi	t6,t6,1216 # 760 <begin_regstate>
 2a8:	003fa023          	sw	gp,0(t6)
 2ac:	004fa223          	sw	tp,4(t6)
 2b0:	005fa423          	sw	t0,8(t6)
 2b4:	f00001b7          	lui	gp,0xf0000
 2b8:	00000217          	auipc	tp,0x0
 2bc:	50820213          	addi	tp,tp,1288 # 7c0 <end_signature>
 2c0:	00020283          	lb	t0,0(tp) # 0 <CL_SIZE-0x20>
 2c4:	00518023          	sb	t0,0(gp) # f0000000 <__global_pointer$+0xefffee38>
 2c8:	00028663          	beqz	t0,2d4 <_run_test+0x34>
 2cc:	00120213          	addi	tp,tp,1 # 1 <CL_SIZE-0x1f>
 2d0:	ff1ff06f          	j	2c0 <_run_test+0x20>
 2d4:	00000f97          	auipc	t6,0x0
 2d8:	48cf8f93          	addi	t6,t6,1164 # 760 <begin_regstate>
 2dc:	000fa183          	lw	gp,0(t6)
 2e0:	004fa203          	lw	tp,4(t6)
 2e4:	008fa283          	lw	t0,8(t6)
 2e8:	00000f97          	auipc	t6,0x0
 2ec:	478f8f93          	addi	t6,t6,1144 # 760 <begin_regstate>
 2f0:	003fa023          	sw	gp,0(t6)
 2f4:	004fa223          	sw	tp,4(t6)
 2f8:	005fa423          	sw	t0,8(t6)
 2fc:	f00001b7          	lui	gp,0xf0000
 300:	00000217          	auipc	tp,0x0
 304:	4ce20213          	addi	tp,tp,1230 # 7ce <end_signature+0xe>
 308:	00020283          	lb	t0,0(tp) # 0 <CL_SIZE-0x20>
 30c:	00518023          	sb	t0,0(gp) # f0000000 <__global_pointer$+0xefffee38>
 310:	00028663          	beqz	t0,31c <_run_test+0x7c>
 314:	00120213          	addi	tp,tp,1 # 1 <CL_SIZE-0x1f>
 318:	ff1ff06f          	j	308 <_run_test+0x68>
 31c:	00000f97          	auipc	t6,0x0
 320:	444f8f93          	addi	t6,t6,1092 # 760 <begin_regstate>
 324:	000fa183          	lw	gp,0(t6)
 328:	004fa203          	lw	tp,4(t6)
 32c:	008fa283          	lw	t0,8(t6)
 330:	00000797          	auipc	a5,0x0
 334:	45078793          	addi	a5,a5,1104 # 780 <begin_signature>
 338:	00100093          	li	ra,1
 33c:	00000193          	li	gp,0
 340:	fff00293          	li	t0,-1
 344:	80000db7          	lui	s11,0x80000
 348:	fffd8d93          	addi	s11,s11,-1 # 7fffffff <__global_pointer$+0x7fffee37>
 34c:	80000eb7          	lui	t4,0x80000
 350:	34001073          	csrw	mscratch,zero
 354:	34009173          	csrrw	sp,mscratch,ra
 358:	34019273          	csrrw	tp,mscratch,gp
 35c:	34029373          	csrrw	t1,mscratch,t0
 360:	340d9e73          	csrrw	t3,mscratch,s11
 364:	340e9f73          	csrrw	t5,mscratch,t4
 368:	34001ff3          	csrrw	t6,mscratch,zero
 36c:	0027a023          	sw	sp,0(a5)
 370:	0047a223          	sw	tp,4(a5)
 374:	0067a423          	sw	t1,8(a5)
 378:	01c7a623          	sw	t3,12(a5)
 37c:	01e7a823          	sw	t5,16(a5)
 380:	01f7aa23          	sw	t6,20(a5)
 384:	00000f97          	auipc	t6,0x0
 388:	3dcf8f93          	addi	t6,t6,988 # 760 <begin_regstate>
 38c:	003fa023          	sw	gp,0(t6)
 390:	004fa223          	sw	tp,4(t6)
 394:	005fa423          	sw	t0,8(t6)
 398:	f00001b7          	lui	gp,0xf0000
 39c:	00000217          	auipc	tp,0x0
 3a0:	45920213          	addi	tp,tp,1113 # 7f5 <end_signature+0x35>
 3a4:	00020283          	lb	t0,0(tp) # 0 <CL_SIZE-0x20>
 3a8:	00518023          	sb	t0,0(gp) # f0000000 <__global_pointer$+0xefffee38>
 3ac:	00028663          	beqz	t0,3b8 <_run_test+0x118>
 3b0:	00120213          	addi	tp,tp,1 # 1 <CL_SIZE-0x1f>
 3b4:	ff1ff06f          	j	3a4 <_run_test+0x104>
 3b8:	00000f97          	auipc	t6,0x0
 3bc:	3a8f8f93          	addi	t6,t6,936 # 760 <begin_regstate>
 3c0:	000fa183          	lw	gp,0(t6)
 3c4:	004fa203          	lw	tp,4(t6)
 3c8:	008fa283          	lw	t0,8(t6)
 3cc:	00000f97          	auipc	t6,0x0
 3d0:	394f8f93          	addi	t6,t6,916 # 760 <begin_regstate>
 3d4:	003fa023          	sw	gp,0(t6)
 3d8:	004fa223          	sw	tp,4(t6)
 3dc:	005fa423          	sw	t0,8(t6)
 3e0:	f00001b7          	lui	gp,0xf0000
 3e4:	00000217          	auipc	tp,0x0
 3e8:	42d20213          	addi	tp,tp,1069 # 811 <end_signature+0x51>
 3ec:	00020283          	lb	t0,0(tp) # 0 <CL_SIZE-0x20>
 3f0:	00518023          	sb	t0,0(gp) # f0000000 <__global_pointer$+0xefffee38>
 3f4:	00028663          	beqz	t0,400 <STACK_SIZE>
 3f8:	00120213          	addi	tp,tp,1 # 1 <CL_SIZE-0x1f>
 3fc:	ff1ff06f          	j	3ec <_run_test+0x14c>
 400:	00000f97          	auipc	t6,0x0
 404:	360f8f93          	addi	t6,t6,864 # 760 <begin_regstate>
 408:	000fa183          	lw	gp,0(t6)
 40c:	004fa203          	lw	tp,4(t6)
 410:	008fa283          	lw	t0,8(t6)
 414:	00000d17          	auipc	s10,0x0
 418:	384d0d13          	addi	s10,s10,900 # 798 <test_B_res>
 41c:	123450b7          	lui	ra,0x12345
 420:	67808093          	addi	ra,ra,1656 # 12345678 <__global_pointer$+0x123444b0>
 424:	9abce137          	lui	sp,0x9abce
 428:	ef010113          	addi	sp,sp,-272 # 9abcdef0 <__global_pointer$+0x9abccd28>
 42c:	34009073          	csrw	mscratch,ra
 430:	340111f3          	csrrw	gp,mscratch,sp
 434:	34019273          	csrrw	tp,mscratch,gp
 438:	340212f3          	csrrw	t0,mscratch,tp
 43c:	34001373          	csrrw	t1,mscratch,zero
 440:	003d2023          	sw	gp,0(s10)
 444:	004d2223          	sw	tp,4(s10)
 448:	005d2423          	sw	t0,8(s10)
 44c:	006d2623          	sw	t1,12(s10)
 450:	00000f97          	auipc	t6,0x0
 454:	310f8f93          	addi	t6,t6,784 # 760 <begin_regstate>
 458:	003fa023          	sw	gp,0(t6)
 45c:	004fa223          	sw	tp,4(t6)
 460:	005fa423          	sw	t0,8(t6)
 464:	f00001b7          	lui	gp,0xf0000
 468:	00000217          	auipc	tp,0x0
 46c:	3e220213          	addi	tp,tp,994 # 84a <end_signature+0x8a>
 470:	00020283          	lb	t0,0(tp) # 0 <CL_SIZE-0x20>
 474:	00518023          	sb	t0,0(gp) # f0000000 <__global_pointer$+0xefffee38>
 478:	00028663          	beqz	t0,484 <STACK_SIZE+0x84>
 47c:	00120213          	addi	tp,tp,1 # 1 <CL_SIZE-0x1f>
 480:	ff1ff06f          	j	470 <STACK_SIZE+0x70>
 484:	00000f97          	auipc	t6,0x0
 488:	2dcf8f93          	addi	t6,t6,732 # 760 <begin_regstate>
 48c:	000fa183          	lw	gp,0(t6)
 490:	004fa203          	lw	tp,4(t6)
 494:	008fa283          	lw	t0,8(t6)
 498:	00000f97          	auipc	t6,0x0
 49c:	2c8f8f93          	addi	t6,t6,712 # 760 <begin_regstate>
 4a0:	003fa023          	sw	gp,0(t6)
 4a4:	004fa223          	sw	tp,4(t6)
 4a8:	005fa423          	sw	t0,8(t6)
 4ac:	f00001b7          	lui	gp,0xf0000
 4b0:	00000217          	auipc	tp,0x0
 4b4:	3b620213          	addi	tp,tp,950 # 866 <end_signature+0xa6>
 4b8:	00020283          	lb	t0,0(tp) # 0 <CL_SIZE-0x20>
 4bc:	00518023          	sb	t0,0(gp) # f0000000 <__global_pointer$+0xefffee38>
 4c0:	00028663          	beqz	t0,4cc <STACK_SIZE+0xcc>
 4c4:	00120213          	addi	tp,tp,1 # 1 <CL_SIZE-0x1f>
 4c8:	ff1ff06f          	j	4b8 <STACK_SIZE+0xb8>
 4cc:	00000f97          	auipc	t6,0x0
 4d0:	294f8f93          	addi	t6,t6,660 # 760 <begin_regstate>
 4d4:	000fa183          	lw	gp,0(t6)
 4d8:	004fa203          	lw	tp,4(t6)
 4dc:	008fa283          	lw	t0,8(t6)
 4e0:	00000097          	auipc	ra,0x0
 4e4:	2c808093          	addi	ra,ra,712 # 7a8 <test_C_res>
 4e8:	42727137          	lui	sp,0x42727
 4ec:	e6f10113          	addi	sp,sp,-401 # 42726e6f <__global_pointer$+0x42725ca7>
 4f0:	34011073          	csrw	mscratch,sp
 4f4:	34001073          	csrw	mscratch,zero
 4f8:	0000a023          	sw	zero,0(ra)
 4fc:	00000f97          	auipc	t6,0x0
 500:	264f8f93          	addi	t6,t6,612 # 760 <begin_regstate>
 504:	003fa023          	sw	gp,0(t6)
 508:	004fa223          	sw	tp,4(t6)
 50c:	005fa423          	sw	t0,8(t6)
 510:	f00001b7          	lui	gp,0xf0000
 514:	00000217          	auipc	tp,0x0
 518:	37920213          	addi	tp,tp,889 # 88d <end_signature+0xcd>
 51c:	00020283          	lb	t0,0(tp) # 0 <CL_SIZE-0x20>
 520:	00518023          	sb	t0,0(gp) # f0000000 <__global_pointer$+0xefffee38>
 524:	00028663          	beqz	t0,530 <STACK_SIZE+0x130>
 528:	00120213          	addi	tp,tp,1 # 1 <CL_SIZE-0x1f>
 52c:	ff1ff06f          	j	51c <STACK_SIZE+0x11c>
 530:	00000f97          	auipc	t6,0x0
 534:	230f8f93          	addi	t6,t6,560 # 760 <begin_regstate>
 538:	000fa183          	lw	gp,0(t6)
 53c:	004fa203          	lw	tp,4(t6)
 540:	008fa283          	lw	t0,8(t6)
 544:	00000f97          	auipc	t6,0x0
 548:	21cf8f93          	addi	t6,t6,540 # 760 <begin_regstate>
 54c:	003fa023          	sw	gp,0(t6)
 550:	004fa223          	sw	tp,4(t6)
 554:	005fa423          	sw	t0,8(t6)
 558:	f00001b7          	lui	gp,0xf0000
 55c:	00000217          	auipc	tp,0x0
 560:	34d20213          	addi	tp,tp,845 # 8a9 <end_signature+0xe9>
 564:	00020283          	lb	t0,0(tp) # 0 <CL_SIZE-0x20>
 568:	00518023          	sb	t0,0(gp) # f0000000 <__global_pointer$+0xefffee38>
 56c:	00028663          	beqz	t0,578 <STACK_SIZE+0x178>
 570:	00120213          	addi	tp,tp,1 # 1 <CL_SIZE-0x1f>
 574:	ff1ff06f          	j	564 <STACK_SIZE+0x164>
 578:	00000f97          	auipc	t6,0x0
 57c:	1e8f8f93          	addi	t6,t6,488 # 760 <begin_regstate>
 580:	000fa183          	lw	gp,0(t6)
 584:	004fa203          	lw	tp,4(t6)
 588:	008fa283          	lw	t0,8(t6)
 58c:	00000117          	auipc	sp,0x0
 590:	22010113          	addi	sp,sp,544 # 7ac <test_D_res>
 594:	f7ff9db7          	lui	s11,0xf7ff9
 598:	818d8d93          	addi	s11,s11,-2024 # f7ff8818 <__global_pointer$+0xf7ff7650>
 59c:	340d9073          	csrw	mscratch,s11
 5a0:	34001073          	csrw	mscratch,zero
 5a4:	34001073          	csrw	mscratch,zero
 5a8:	340012f3          	csrrw	t0,mscratch,zero
 5ac:	00012023          	sw	zero,0(sp)
 5b0:	00512223          	sw	t0,4(sp)
 5b4:	00000f97          	auipc	t6,0x0
 5b8:	1acf8f93          	addi	t6,t6,428 # 760 <begin_regstate>
 5bc:	003fa023          	sw	gp,0(t6)
 5c0:	004fa223          	sw	tp,4(t6)
 5c4:	005fa423          	sw	t0,8(t6)
 5c8:	f00001b7          	lui	gp,0xf0000
 5cc:	00000217          	auipc	tp,0x0
 5d0:	30d20213          	addi	tp,tp,781 # 8d9 <end_signature+0x119>
 5d4:	00020283          	lb	t0,0(tp) # 0 <CL_SIZE-0x20>
 5d8:	00518023          	sb	t0,0(gp) # f0000000 <__global_pointer$+0xefffee38>
 5dc:	00028663          	beqz	t0,5e8 <STACK_SIZE+0x1e8>
 5e0:	00120213          	addi	tp,tp,1 # 1 <CL_SIZE-0x1f>
 5e4:	ff1ff06f          	j	5d4 <STACK_SIZE+0x1d4>
 5e8:	00000f97          	auipc	t6,0x0
 5ec:	178f8f93          	addi	t6,t6,376 # 760 <begin_regstate>
 5f0:	000fa183          	lw	gp,0(t6)
 5f4:	004fa203          	lw	tp,4(t6)
 5f8:	008fa283          	lw	t0,8(t6)
 5fc:	00000f97          	auipc	t6,0x0
 600:	164f8f93          	addi	t6,t6,356 # 760 <begin_regstate>
 604:	003fa023          	sw	gp,0(t6)
 608:	004fa223          	sw	tp,4(t6)
 60c:	005fa423          	sw	t0,8(t6)
 610:	f00001b7          	lui	gp,0xf0000
 614:	00000217          	auipc	tp,0x0
 618:	2e120213          	addi	tp,tp,737 # 8f5 <end_signature+0x135>
 61c:	00020283          	lb	t0,0(tp) # 0 <CL_SIZE-0x20>
 620:	00518023          	sb	t0,0(gp) # f0000000 <__global_pointer$+0xefffee38>
 624:	00028663          	beqz	t0,630 <STACK_SIZE+0x230>
 628:	00120213          	addi	tp,tp,1 # 1 <CL_SIZE-0x1f>
 62c:	ff1ff06f          	j	61c <STACK_SIZE+0x21c>
 630:	00000f97          	auipc	t6,0x0
 634:	130f8f93          	addi	t6,t6,304 # 760 <begin_regstate>
 638:	000fa183          	lw	gp,0(t6)
 63c:	004fa203          	lw	tp,4(t6)
 640:	008fa283          	lw	t0,8(t6)
 644:	00000117          	auipc	sp,0x0
 648:	17010113          	addi	sp,sp,368 # 7b4 <test_E_res>
 64c:	321653b7          	lui	t2,0x32165
 650:	49838393          	addi	t2,t2,1176 # 32165498 <__global_pointer$+0x321642d0>
 654:	14726337          	lui	t1,0x14726
 658:	83630313          	addi	t1,t1,-1994 # 14725836 <__global_pointer$+0x1472466e>
 65c:	963852b7          	lui	t0,0x96385
 660:	27428293          	addi	t0,t0,628 # 96385274 <__global_pointer$+0x963840ac>
 664:	34031073          	csrw	mscratch,t1
 668:	340292f3          	csrrw	t0,mscratch,t0
 66c:	340393f3          	csrrw	t2,mscratch,t2
 670:	34001473          	csrrw	s0,mscratch,zero
 674:	00512023          	sw	t0,0(sp)
 678:	00712223          	sw	t2,4(sp)
 67c:	00812423          	sw	s0,8(sp)
 680:	00000f97          	auipc	t6,0x0
 684:	0e0f8f93          	addi	t6,t6,224 # 760 <begin_regstate>
 688:	003fa023          	sw	gp,0(t6)
 68c:	004fa223          	sw	tp,4(t6)
 690:	005fa423          	sw	t0,8(t6)
 694:	f00001b7          	lui	gp,0xf0000
 698:	00000217          	auipc	tp,0x0
 69c:	29c20213          	addi	tp,tp,668 # 934 <end_signature+0x174>
 6a0:	00020283          	lb	t0,0(tp) # 0 <CL_SIZE-0x20>
 6a4:	00518023          	sb	t0,0(gp) # f0000000 <__global_pointer$+0xefffee38>
 6a8:	00028663          	beqz	t0,6b4 <STACK_SIZE+0x2b4>
 6ac:	00120213          	addi	tp,tp,1 # 1 <CL_SIZE-0x1f>
 6b0:	ff1ff06f          	j	6a0 <STACK_SIZE+0x2a0>
 6b4:	00000f97          	auipc	t6,0x0
 6b8:	0acf8f93          	addi	t6,t6,172 # 760 <begin_regstate>
 6bc:	000fa183          	lw	gp,0(t6)
 6c0:	004fa203          	lw	tp,4(t6)
 6c4:	008fa283          	lw	t0,8(t6)
 6c8:	00000f97          	auipc	t6,0x0
 6cc:	098f8f93          	addi	t6,t6,152 # 760 <begin_regstate>
 6d0:	003fa023          	sw	gp,0(t6)
 6d4:	004fa223          	sw	tp,4(t6)
 6d8:	005fa423          	sw	t0,8(t6)
 6dc:	f00001b7          	lui	gp,0xf0000
 6e0:	00000217          	auipc	tp,0x0
 6e4:	27020213          	addi	tp,tp,624 # 950 <end_signature+0x190>
 6e8:	00020283          	lb	t0,0(tp) # 0 <CL_SIZE-0x20>
 6ec:	00518023          	sb	t0,0(gp) # f0000000 <__global_pointer$+0xefffee38>
 6f0:	00028663          	beqz	t0,6fc <STACK_SIZE+0x2fc>
 6f4:	00120213          	addi	tp,tp,1 # 1 <CL_SIZE-0x1f>
 6f8:	ff1ff06f          	j	6e8 <STACK_SIZE+0x2e8>
 6fc:	00000f97          	auipc	t6,0x0
 700:	064f8f93          	addi	t6,t6,100 # 760 <begin_regstate>
 704:	000fa183          	lw	gp,0(t6)
 708:	004fa203          	lw	tp,4(t6)
 70c:	008fa283          	lw	t0,8(t6)

00000710 <ecall>:
 710:	00000073          	ecall
	...

00000720 <sc_exit>:
 720:	9d5ff06f          	j	f4 <SIM_EXIT>
 724:	00000013          	nop
 728:	00000013          	nop
 72c:	00000013          	nop
 730:	00000013          	nop
 734:	00000013          	nop
 738:	00000013          	nop
 73c:	00000013          	nop
	...

Дизассемблирование раздела .data:

00000760 <begin_regstate>:
	...

00000780 <begin_signature>:
 780:	ffff                	0xffff
 782:	ffff                	0xffff
 784:	ffff                	0xffff
 786:	ffff                	0xffff
 788:	ffff                	0xffff
 78a:	ffff                	0xffff
 78c:	ffff                	0xffff
 78e:	ffff                	0xffff
 790:	ffff                	0xffff
 792:	ffff                	0xffff
 794:	ffff                	0xffff
 796:	ffff                	0xffff

00000798 <test_B_res>:
 798:	ffff                	0xffff
 79a:	ffff                	0xffff
 79c:	ffff                	0xffff
 79e:	ffff                	0xffff
 7a0:	ffff                	0xffff
 7a2:	ffff                	0xffff
 7a4:	ffff                	0xffff
 7a6:	ffff                	0xffff

000007a8 <test_C_res>:
 7a8:	ffff                	0xffff
 7aa:	ffff                	0xffff

000007ac <test_D_res>:
 7ac:	ffff                	0xffff
 7ae:	ffff                	0xffff
 7b0:	ffff                	0xffff
 7b2:	ffff                	0xffff

000007b4 <test_E_res>:
 7b4:	ffff                	0xffff
 7b6:	ffff                	0xffff
 7b8:	ffff                	0xffff
 7ba:	ffff                	0xffff
 7bc:	ffff                	0xffff
 7be:	ffff                	0xffff

000007c0 <end_signature>:
 7c0:	65542023          	sw	s5,1600(s0)
 7c4:	42207473          	csrrci	s0,0x422,0
 7c8:	6765                	lui	a4,0x19
 7ca:	6e69                	lui	t3,0x1a
 7cc:	000a                	0xa
 7ce:	65542023          	sw	s5,1600(s0)
 7d2:	70207473          	csrrci	s0,0x702,0
 7d6:	7261                	lui	tp,0xffff8
 7d8:	2074                	fld	fa3,192(s0)
 7da:	2041                	jal	85a <end_signature+0x9a>
 7dc:	202d                	jal	806 <end_signature+0x46>
 7de:	656e6567          	0x656e6567
 7e2:	6172                	flw	ft2,28(sp)
 7e4:	206c                	fld	fa1,192(s0)
 7e6:	6574                	flw	fa3,76(a0)
 7e8:	6f207473          	csrrci	s0,0x6f2,0
 7ec:	2066                	fld	ft0,88(sp)
 7ee:	52525343          	fmadd.d	ft6,ft4,ft5,fa0,unknown
 7f2:	23000a57          	0x23000a57
 7f6:	5420                	lw	s0,104(s0)
 7f8:	7365                	lui	t1,0xffff9
 7fa:	2074                	fld	fa3,192(s0)
 7fc:	6170                	flw	fa2,68(a0)
 7fe:	7472                	flw	fs0,60(sp)
 800:	4120                	lw	s0,64(a0)
 802:	2031                	jal	80e <end_signature+0x4e>
 804:	2d20                	fld	fs0,88(a0)
 806:	4320                	lw	s0,64(a4)
 808:	6c706d6f          	jal	s10,76ce <__global_pointer$+0x6506>
 80c:	7465                	lui	s0,0xffff9
 80e:	0a65                	addi	s4,s4,25
 810:	2300                	fld	fs0,0(a4)
 812:	5420                	lw	s0,104(s0)
 814:	7365                	lui	t1,0xffff9
 816:	2074                	fld	fa3,192(s0)
 818:	6170                	flw	fa2,68(a0)
 81a:	7472                	flw	fs0,60(sp)
 81c:	4220                	lw	s0,64(a2)
 81e:	2d20                	fld	fs0,88(a0)
 820:	7420                	flw	fs0,104(s0)
 822:	7365                	lui	t1,0xffff9
 824:	6974                	flw	fa3,84(a0)
 826:	676e                	flw	fa4,216(sp)
 828:	6620                	flw	fs0,72(a2)
 82a:	6177726f          	jal	tp,78640 <__global_pointer$+0x77478>
 82e:	6472                	flw	fs0,28(sp)
 830:	6e69                	lui	t3,0x1a
 832:	65622067          	0x65622067
 836:	7774                	flw	fa3,108(a4)
 838:	6565                	lui	a0,0x19
 83a:	206e                	fld	ft0,216(sp)
 83c:	6e69                	lui	t3,0x1a
 83e:	75727473          	csrrci	s0,0x757,4
 842:	6f697463          	bleu	s6,s2,f2a <_end+0x54a>
 846:	736e                	flw	ft6,248(sp)
 848:	000a                	0xa
 84a:	65542023          	sw	s5,1600(s0) # ffff9640 <__global_pointer$+0xffff8478>
 84e:	70207473          	csrrci	s0,0x702,0
 852:	7261                	lui	tp,0xffff8
 854:	2074                	fld	fa3,192(s0)
 856:	3241                	jal	1d6 <trap_vector+0x16>
 858:	2020                	fld	fs0,64(s0)
 85a:	202d                	jal	884 <end_signature+0xc4>
 85c:	706d6f43          	fmadd.s	ft10,fs10,ft6,fa4,unknown
 860:	656c                	flw	fa1,76(a0)
 862:	6574                	flw	fa3,76(a0)
 864:	000a                	0xa
 866:	65542023          	sw	s5,1600(s0)
 86a:	70207473          	csrrci	s0,0x702,0
 86e:	7261                	lui	tp,0xffff8
 870:	2074                	fld	fa3,192(s0)
 872:	202d2043          	fmadd.s	ft0,fs10,ft2,ft4,rdn
 876:	6574                	flw	fa3,76(a0)
 878:	6e697473          	csrrci	s0,0x6e6,18
 87c:	72772067          	0x72772067
 880:	7469                	lui	s0,0xffffa
 882:	6e69                	lui	t3,0x1a
 884:	6f742067          	0x6f742067
 888:	7820                	flw	fs0,112(s0)
 88a:	0a30                	addi	a2,sp,280
 88c:	2300                	fld	fs0,0(a4)
 88e:	5420                	lw	s0,104(s0)
 890:	7365                	lui	t1,0xffff9
 892:	2074                	fld	fa3,192(s0)
 894:	6170                	flw	fa2,68(a0)
 896:	7472                	flw	fs0,60(sp)
 898:	4120                	lw	s0,64(a0)
 89a:	2d202033          	0x2d202033
 89e:	4320                	lw	s0,64(a4)
 8a0:	6c706d6f          	jal	s10,7766 <__global_pointer$+0x659e>
 8a4:	7465                	lui	s0,0xffff9
 8a6:	0a65                	addi	s4,s4,25
 8a8:	2300                	fld	fs0,0(a4)
 8aa:	5420                	lw	s0,104(s0)
 8ac:	7365                	lui	t1,0xffff9
 8ae:	2074                	fld	fa3,192(s0)
 8b0:	6170                	flw	fa2,68(a0)
 8b2:	7472                	flw	fs0,60(sp)
 8b4:	4420                	lw	s0,72(s0)
 8b6:	2d20                	fld	fs0,88(a0)
 8b8:	7420                	flw	fs0,104(s0)
 8ba:	7365                	lui	t1,0xffff9
 8bc:	6974                	flw	fa3,84(a0)
 8be:	676e                	flw	fa4,216(sp)
 8c0:	6620                	flw	fs0,72(a2)
 8c2:	6177726f          	jal	tp,786d8 <__global_pointer$+0x77510>
 8c6:	6472                	flw	fs0,28(sp)
 8c8:	6e69                	lui	t3,0x1a
 8ca:	68742067          	0x68742067
 8ce:	6f72                	flw	ft10,28(sp)
 8d0:	6775                	lui	a4,0x1d
 8d2:	7468                	flw	fa0,108(s0)
 8d4:	7820                	flw	fs0,112(s0)
 8d6:	0a30                	addi	a2,sp,280
 8d8:	2300                	fld	fs0,0(a4)
 8da:	5420                	lw	s0,104(s0)
 8dc:	7365                	lui	t1,0xffff9
 8de:	2074                	fld	fa3,192(s0)
 8e0:	6170                	flw	fa2,68(a0)
 8e2:	7472                	flw	fs0,60(sp)
 8e4:	4120                	lw	s0,64(a0)
 8e6:	2034                	fld	fa3,64(s0)
 8e8:	2d20                	fld	fs0,88(a0)
 8ea:	4320                	lw	s0,64(a4)
 8ec:	6c706d6f          	jal	s10,77b2 <__global_pointer$+0x65ea>
 8f0:	7465                	lui	s0,0xffff9
 8f2:	0a65                	addi	s4,s4,25
 8f4:	2300                	fld	fs0,0(a4)
 8f6:	5420                	lw	s0,104(s0)
 8f8:	7365                	lui	t1,0xffff9
 8fa:	2074                	fld	fa3,192(s0)
 8fc:	6170                	flw	fa2,68(a0)
 8fe:	7472                	flw	fs0,60(sp)
 900:	4520                	lw	s0,72(a0)
 902:	2d20                	fld	fs0,88(a0)
 904:	7420                	flw	fs0,104(s0)
 906:	7365                	lui	t1,0xffff9
 908:	6974                	flw	fa3,84(a0)
 90a:	676e                	flw	fa4,216(sp)
 90c:	6320                	flw	fs0,64(a4)
 90e:	77727273          	csrrci	tp,0x777,4
 912:	7720                	flw	fs0,104(a4)
 914:	7469                	lui	s0,0xffffa
 916:	2068                	fld	fa0,192(s0)
 918:	656d6173          	csrrsi	sp,0x656,26
 91c:	6420                	flw	fs0,72(s0)
 91e:	61207473          	csrrci	s0,0x612,0
 922:	646e                	flw	fs0,216(sp)
 924:	7320                	flw	fs0,96(a4)
 926:	6372                	flw	ft6,28(sp)
 928:	7220                	flw	fs0,96(a2)
 92a:	6765                	lui	a4,0x19
 92c:	7369                	lui	t1,0xffffa
 92e:	6574                	flw	fa3,76(a0)
 930:	7372                	flw	ft6,60(sp)
 932:	000a                	0xa
 934:	65542023          	sw	s5,1600(s0) # ffffa640 <__global_pointer$+0xffff9478>
 938:	70207473          	csrrci	s0,0x702,0
 93c:	7261                	lui	tp,0xffff8
 93e:	2074                	fld	fa3,192(s0)
 940:	3541                	jal	7c0 <end_signature>
 942:	2020                	fld	fs0,64(s0)
 944:	202d                	jal	96e <end_signature+0x1ae>
 946:	706d6f43          	fmadd.s	ft10,fs10,ft6,fa4,unknown
 94a:	656c                	flw	fa1,76(a0)
 94c:	6574                	flw	fa3,76(a0)
 94e:	000a                	0xa
 950:	65542023          	sw	s5,1600(s0)
 954:	45207473          	csrrci	s0,0x452,0
 958:	646e                	flw	fs0,216(sp)
 95a:	000a                	0xa
 95c:	0000                	unimp
	...

Дизассемблирование раздела .tohost:

00000980 <tohost>:
	...

000009c0 <fromhost>:
	...

Дизассемблирование раздела .sdata:

000009c8 <__global_pointer$-0x800>:
	...

Дизассемблирование раздела .stack:

0000fc00 <.stack>:
	...
