
/home/oleg/scr1/build/verilator_wf_AHB_IMC/compliance_I-LH-01.elf:     формат файла elf32-littleriscv
/home/oleg/scr1/build/verilator_wf_AHB_IMC/compliance_I-LH-01.elf
архитектура: riscv:rv32, флаги 0x00000112:
EXEC_P, HAS_SYMS, D_PAGED
начальный адрес 0x00000200

Заголовок программы:
    LOAD off    0x00001000 vaddr 0x00000000 paddr 0x00000000 align 2**12
         filesz 0x00000e88 memsz 0x00000ea0 flags rwx
    LOAD off    0x00002c00 vaddr 0x0000fc00 paddr 0x0000fc00 align 2**12
         filesz 0x00000000 memsz 0x00000400 flags rw-

Разделы:
Idx Name          Size      VMA       LMA       File off  Algn  Флаги
  0 .text.init    00000284  00000000  00000000  00001000  2**6  CONTENTS, ALLOC, LOAD, READONLY, CODE
  1 .text         000007c0  000002a0  000002a0  000012a0  2**5  CONTENTS, ALLOC, LOAD, READONLY, CODE
  2 .data         000003e0  00000a60  00000a60  00001a60  2**4  CONTENTS, ALLOC, LOAD, DATA
  3 .tohost       00000048  00000e40  00000e40  00001e40  2**6  CONTENTS, ALLOC, LOAD, DATA
  4 .sdata        00000018  00000e88  00000e88  00001e88  2**0  ALLOC
  5 .tdata        00000000  00000ea0  00000ea0  00001e88  2**0  CONTENTS, ALLOC, LOAD, DATA, THREAD_LOCAL
  6 .tbss         00000000  00000ea0  00000ea0  00000000  2**0  ALLOC, THREAD_LOCAL
  7 .bss          00000000  00000ea0  00000ea0  00001e88  2**0  ALLOC
  8 .stack        00000400  0000fc00  0000fc00  00002c00  2**0  ALLOC
SYMBOL TABLE:
00000000 l    d  .text.init	00000000 .text.init
000002a0 l    d  .text	00000000 .text
00000a60 l    d  .data	00000000 .data
00000e40 l    d  .tohost	00000000 .tohost
00000e88 l    d  .sdata	00000000 .sdata
00000ea0 l    d  .tdata	00000000 .tdata
00000ea0 l    d  .tbss	00000000 .tbss
00000ea0 l    d  .bss	00000000 .bss
0000fc00 l    d  .stack	00000000 .stack
00000000 l    df *ABS*	00000000 /home/oleg/scr1/build/verilator_wf_AHB_IMC/riscv_compliance/riscv_compliance_objs/I-LH-01.o
00000a20 l       .text	00000000 sc_exit
000001c0 l       .text.init	00000000 trap_vector
000001fc l       .text.init	00000000 _report
000001f8 l       .text.init	00000000 handle_exception
000001f8 l       .text.init	00000000 other_exception
000002a0 l       .text	00000000 _run_test
00000a60 l       .data	00000000 test_A1_data
00000ac0 l       .data	00000000 test_A1_res
00000a64 l       .data	00000000 test_A2_data
00000ac8 l       .data	00000000 test_A2_res
00000a68 l       .data	00000000 test_A3_data
00000ad0 l       .data	00000000 test_A3_res
00000a6c l       .data	00000000 test_A4_data
00000ad8 l       .data	00000000 test_A4_res
00000a70 l       .data	00000000 test_A5_data
00000ae0 l       .data	00000000 test_A5_res
00000a78 l       .data	00000000 test_B_data
00000ae8 l       .data	00000000 test_B_res
00000a80 l       .data	00000000 test_C_data
00000b00 l       .data	00000000 test_C_res
00000a84 l       .data	00000000 test_D_data
00000b04 l       .data	00000000 test_D_res
00000a8c l       .data	00000000 test_E1_data
00000b08 l       .data	00000000 test_E1_res
00000a90 l       .data	00000000 test_E2_data
00000b0c l       .data	00000000 test_E2_res
00000a18 l       .text	00000000 ecall
00000a88 l       .data	00000000 test_D_data2_label
00000400 g       *ABS*	00000000 STACK_SIZE
00001688 g       .sdata	00000000 __global_pointer$
00000b10 g       .data	00000000 end_signature
00000aa0 g       .data	00000000 begin_regstate
00000ac0 g       .data	00000000 begin_signature
00000200 g       .text.init	00000000 _start
00000020 g       *ABS*	00000000 CL_SIZE
000000f8 g       .text.init	00000000 SIM_STOP
00000ea0 g       .bss	00000000 _end
00000e80 g       .tohost	00000000 fromhost
00000e40 g       .tohost	00000000 tohost
000000f4 g       .text.init	00000000 SIM_EXIT



Дизассемблирование раздела .text.init:

00000000 <SIM_EXIT-0xf4>:
	...

000000f4 <SIM_EXIT>:
  f4:	00000013          	nop

000000f8 <SIM_STOP>:
  f8:	0000006f          	j	f8 <SIM_STOP>
  fc:	ffff                	0xffff
  fe:	ffff                	0xffff
	...

000001c0 <trap_vector>:
 1c0:	34202773          	csrr	a4,mcause
 1c4:	00800793          	li	a5,8
 1c8:	02f70a63          	beq	a4,a5,1fc <_report>
 1cc:	00900793          	li	a5,9
 1d0:	02f70663          	beq	a4,a5,1fc <_report>
 1d4:	00b00793          	li	a5,11
 1d8:	02f70263          	beq	a4,a5,1fc <_report>
 1dc:	00000717          	auipc	a4,0x0
 1e0:	e2470713          	addi	a4,a4,-476 # 0 <CL_SIZE-0x20>
 1e4:	00070463          	beqz	a4,1ec <trap_vector+0x2c>
 1e8:	00070067          	jr	a4
 1ec:	34202773          	csrr	a4,mcause
 1f0:	00075463          	bgez	a4,1f8 <handle_exception>
 1f4:	0040006f          	j	1f8 <handle_exception>

000001f8 <handle_exception>:
 1f8:	00100513          	li	a0,1

000001fc <_report>:
 1fc:	0250006f          	j	a20 <sc_exit>

00000200 <_start>:
 200:	f1402573          	csrr	a0,mhartid
 204:	00051063          	bnez	a0,204 <_start+0x4>
 208:	00000e13          	li	t3,0
 20c:	00000297          	auipc	t0,0x0
 210:	fb428293          	addi	t0,t0,-76 # 1c0 <trap_vector>
 214:	30529073          	csrw	mtvec,t0
 218:	00100513          	li	a0,1
 21c:	01f51513          	slli	a0,a0,0x1f
 220:	00054a63          	bltz	a0,234 <_start+0x34>
 224:	0ff0000f          	fence
 228:	000e0593          	mv	a1,t3
 22c:	00000513          	li	a0,0
 230:	00000073          	ecall
 234:	00000297          	auipc	t0,0x0
 238:	dcc28293          	addi	t0,t0,-564 # 0 <CL_SIZE-0x20>
 23c:	00028e63          	beqz	t0,258 <_start+0x58>
 240:	10529073          	csrw	stvec,t0
 244:	0000b2b7          	lui	t0,0xb
 248:	10928293          	addi	t0,t0,265 # b109 <__global_pointer$+0x9a81>
 24c:	30229073          	csrw	medeleg,t0
 250:	30202373          	csrr	t1,medeleg
 254:	fa6292e3          	bne	t0,t1,1f8 <handle_exception>
 258:	30005073          	csrwi	mstatus,0
 25c:	00002537          	lui	a0,0x2
 260:	80050513          	addi	a0,a0,-2048 # 1800 <__global_pointer$+0x178>
 264:	30052073          	csrs	mstatus,a0
 268:	00000297          	auipc	t0,0x0
 26c:	03828293          	addi	t0,t0,56 # 2a0 <_run_test>
 270:	34129073          	csrw	mepc,t0
 274:	f1402573          	csrr	a0,mhartid
 278:	30200073          	mret
	...

Дизассемблирование раздела .text:

000002a0 <_run_test>:
 2a0:	00001f97          	auipc	t6,0x1
 2a4:	800f8f93          	addi	t6,t6,-2048 # aa0 <begin_regstate>
 2a8:	003fa023          	sw	gp,0(t6)
 2ac:	004fa223          	sw	tp,4(t6)
 2b0:	005fa423          	sw	t0,8(t6)
 2b4:	f00001b7          	lui	gp,0xf0000
 2b8:	00001217          	auipc	tp,0x1
 2bc:	85820213          	addi	tp,tp,-1960 # b10 <end_signature>
 2c0:	00020283          	lb	t0,0(tp) # 0 <CL_SIZE-0x20>
 2c4:	00518023          	sb	t0,0(gp) # f0000000 <__global_pointer$+0xefffe978>
 2c8:	00028663          	beqz	t0,2d4 <_run_test+0x34>
 2cc:	00120213          	addi	tp,tp,1 # 1 <CL_SIZE-0x1f>
 2d0:	ff1ff06f          	j	2c0 <_run_test+0x20>
 2d4:	00000f97          	auipc	t6,0x0
 2d8:	7ccf8f93          	addi	t6,t6,1996 # aa0 <begin_regstate>
 2dc:	000fa183          	lw	gp,0(t6)
 2e0:	004fa203          	lw	tp,4(t6)
 2e4:	008fa283          	lw	t0,8(t6)
 2e8:	00000f97          	auipc	t6,0x0
 2ec:	7b8f8f93          	addi	t6,t6,1976 # aa0 <begin_regstate>
 2f0:	003fa023          	sw	gp,0(t6)
 2f4:	004fa223          	sw	tp,4(t6)
 2f8:	005fa423          	sw	t0,8(t6)
 2fc:	f00001b7          	lui	gp,0xf0000
 300:	00001217          	auipc	tp,0x1
 304:	81e20213          	addi	tp,tp,-2018 # b1e <end_signature+0xe>
 308:	00020283          	lb	t0,0(tp) # 0 <CL_SIZE-0x20>
 30c:	00518023          	sb	t0,0(gp) # f0000000 <__global_pointer$+0xefffe978>
 310:	00028663          	beqz	t0,31c <_run_test+0x7c>
 314:	00120213          	addi	tp,tp,1 # 1 <CL_SIZE-0x1f>
 318:	ff1ff06f          	j	308 <_run_test+0x68>
 31c:	00000f97          	auipc	t6,0x0
 320:	784f8f93          	addi	t6,t6,1924 # aa0 <begin_regstate>
 324:	000fa183          	lw	gp,0(t6)
 328:	004fa203          	lw	tp,4(t6)
 32c:	008fa283          	lw	t0,8(t6)
 330:	00000f97          	auipc	t6,0x0
 334:	730f8f93          	addi	t6,t6,1840 # a60 <test_A1_data>
 338:	00000117          	auipc	sp,0x0
 33c:	78810113          	addi	sp,sp,1928 # ac0 <begin_signature>
 340:	000f9183          	lh	gp,0(t6)
 344:	002f9203          	lh	tp,2(t6)
 348:	00312023          	sw	gp,0(sp)
 34c:	00412223          	sw	tp,4(sp)
 350:	00000f97          	auipc	t6,0x0
 354:	750f8f93          	addi	t6,t6,1872 # aa0 <begin_regstate>
 358:	003fa023          	sw	gp,0(t6)
 35c:	004fa223          	sw	tp,4(t6)
 360:	005fa423          	sw	t0,8(t6)
 364:	f00001b7          	lui	gp,0xf0000
 368:	00000217          	auipc	tp,0x0
 36c:	7de20213          	addi	tp,tp,2014 # b46 <end_signature+0x36>
 370:	00020283          	lb	t0,0(tp) # 0 <CL_SIZE-0x20>
 374:	00518023          	sb	t0,0(gp) # f0000000 <__global_pointer$+0xefffe978>
 378:	00028663          	beqz	t0,384 <_run_test+0xe4>
 37c:	00120213          	addi	tp,tp,1 # 1 <CL_SIZE-0x1f>
 380:	ff1ff06f          	j	370 <_run_test+0xd0>
 384:	00000f97          	auipc	t6,0x0
 388:	71cf8f93          	addi	t6,t6,1820 # aa0 <begin_regstate>
 38c:	000fa183          	lw	gp,0(t6)
 390:	004fa203          	lw	tp,4(t6)
 394:	008fa283          	lw	t0,8(t6)
 398:	00000f97          	auipc	t6,0x0
 39c:	708f8f93          	addi	t6,t6,1800 # aa0 <begin_regstate>
 3a0:	003fa023          	sw	gp,0(t6)
 3a4:	004fa223          	sw	tp,4(t6)
 3a8:	005fa423          	sw	t0,8(t6)
 3ac:	f00001b7          	lui	gp,0xf0000
 3b0:	00000217          	auipc	tp,0x0
 3b4:	7b220213          	addi	tp,tp,1970 # b62 <end_signature+0x52>
 3b8:	00020283          	lb	t0,0(tp) # 0 <CL_SIZE-0x20>
 3bc:	00518023          	sb	t0,0(gp) # f0000000 <__global_pointer$+0xefffe978>
 3c0:	00028663          	beqz	t0,3cc <_run_test+0x12c>
 3c4:	00120213          	addi	tp,tp,1 # 1 <CL_SIZE-0x1f>
 3c8:	ff1ff06f          	j	3b8 <_run_test+0x118>
 3cc:	00000f97          	auipc	t6,0x0
 3d0:	6d4f8f93          	addi	t6,t6,1748 # aa0 <begin_regstate>
 3d4:	000fa183          	lw	gp,0(t6)
 3d8:	004fa203          	lw	tp,4(t6)
 3dc:	008fa283          	lw	t0,8(t6)
 3e0:	00000c17          	auipc	s8,0x0
 3e4:	685c0c13          	addi	s8,s8,1669 # a65 <test_A2_data+0x1>
 3e8:	00000297          	auipc	t0,0x0
 3ec:	6e028293          	addi	t0,t0,1760 # ac8 <test_A2_res>
 3f0:	fffc1c83          	lh	s9,-1(s8)
 3f4:	001c1d03          	lh	s10,1(s8)
 3f8:	0192a023          	sw	s9,0(t0)
 3fc:	01a2a223          	sw	s10,4(t0)
 400:	00000f97          	auipc	t6,0x0
 404:	6a0f8f93          	addi	t6,t6,1696 # aa0 <begin_regstate>
 408:	003fa023          	sw	gp,0(t6)
 40c:	004fa223          	sw	tp,4(t6)
 410:	005fa423          	sw	t0,8(t6)
 414:	f00001b7          	lui	gp,0xf0000
 418:	00000217          	auipc	tp,0x0
 41c:	77220213          	addi	tp,tp,1906 # b8a <end_signature+0x7a>
 420:	00020283          	lb	t0,0(tp) # 0 <CL_SIZE-0x20>
 424:	00518023          	sb	t0,0(gp) # f0000000 <__global_pointer$+0xefffe978>
 428:	00028663          	beqz	t0,434 <STACK_SIZE+0x34>
 42c:	00120213          	addi	tp,tp,1 # 1 <CL_SIZE-0x1f>
 430:	ff1ff06f          	j	420 <STACK_SIZE+0x20>
 434:	00000f97          	auipc	t6,0x0
 438:	66cf8f93          	addi	t6,t6,1644 # aa0 <begin_regstate>
 43c:	000fa183          	lw	gp,0(t6)
 440:	004fa203          	lw	tp,4(t6)
 444:	008fa283          	lw	t0,8(t6)
 448:	00000f97          	auipc	t6,0x0
 44c:	658f8f93          	addi	t6,t6,1624 # aa0 <begin_regstate>
 450:	003fa023          	sw	gp,0(t6)
 454:	004fa223          	sw	tp,4(t6)
 458:	005fa423          	sw	t0,8(t6)
 45c:	f00001b7          	lui	gp,0xf0000
 460:	00000217          	auipc	tp,0x0
 464:	74620213          	addi	tp,tp,1862 # ba6 <end_signature+0x96>
 468:	00020283          	lb	t0,0(tp) # 0 <CL_SIZE-0x20>
 46c:	00518023          	sb	t0,0(gp) # f0000000 <__global_pointer$+0xefffe978>
 470:	00028663          	beqz	t0,47c <STACK_SIZE+0x7c>
 474:	00120213          	addi	tp,tp,1 # 1 <CL_SIZE-0x1f>
 478:	ff1ff06f          	j	468 <STACK_SIZE+0x68>
 47c:	00000f97          	auipc	t6,0x0
 480:	624f8f93          	addi	t6,t6,1572 # aa0 <begin_regstate>
 484:	000fa183          	lw	gp,0(t6)
 488:	004fa203          	lw	tp,4(t6)
 48c:	008fa283          	lw	t0,8(t6)
 490:	00000397          	auipc	t2,0x0
 494:	5d738393          	addi	t2,t2,1495 # a67 <test_A2_data+0x3>
 498:	00000417          	auipc	s0,0x0
 49c:	63840413          	addi	s0,s0,1592 # ad0 <test_A3_res>
 4a0:	00139f03          	lh	t5,1(t2)
 4a4:	00339f83          	lh	t6,3(t2)
 4a8:	01e42023          	sw	t5,0(s0)
 4ac:	01f42223          	sw	t6,4(s0)
 4b0:	00000f97          	auipc	t6,0x0
 4b4:	5f0f8f93          	addi	t6,t6,1520 # aa0 <begin_regstate>
 4b8:	003fa023          	sw	gp,0(t6)
 4bc:	004fa223          	sw	tp,4(t6)
 4c0:	005fa423          	sw	t0,8(t6)
 4c4:	f00001b7          	lui	gp,0xf0000
 4c8:	00000217          	auipc	tp,0x0
 4cc:	70620213          	addi	tp,tp,1798 # bce <end_signature+0xbe>
 4d0:	00020283          	lb	t0,0(tp) # 0 <CL_SIZE-0x20>
 4d4:	00518023          	sb	t0,0(gp) # f0000000 <__global_pointer$+0xefffe978>
 4d8:	00028663          	beqz	t0,4e4 <STACK_SIZE+0xe4>
 4dc:	00120213          	addi	tp,tp,1 # 1 <CL_SIZE-0x1f>
 4e0:	ff1ff06f          	j	4d0 <STACK_SIZE+0xd0>
 4e4:	00000f97          	auipc	t6,0x0
 4e8:	5bcf8f93          	addi	t6,t6,1468 # aa0 <begin_regstate>
 4ec:	000fa183          	lw	gp,0(t6)
 4f0:	004fa203          	lw	tp,4(t6)
 4f4:	008fa283          	lw	t0,8(t6)
 4f8:	00000f97          	auipc	t6,0x0
 4fc:	5a8f8f93          	addi	t6,t6,1448 # aa0 <begin_regstate>
 500:	003fa023          	sw	gp,0(t6)
 504:	004fa223          	sw	tp,4(t6)
 508:	005fa423          	sw	t0,8(t6)
 50c:	f00001b7          	lui	gp,0xf0000
 510:	00000217          	auipc	tp,0x0
 514:	6da20213          	addi	tp,tp,1754 # bea <end_signature+0xda>
 518:	00020283          	lb	t0,0(tp) # 0 <CL_SIZE-0x20>
 51c:	00518023          	sb	t0,0(gp) # f0000000 <__global_pointer$+0xefffe978>
 520:	00028663          	beqz	t0,52c <STACK_SIZE+0x12c>
 524:	00120213          	addi	tp,tp,1 # 1 <CL_SIZE-0x1f>
 528:	ff1ff06f          	j	518 <STACK_SIZE+0x118>
 52c:	00000f97          	auipc	t6,0x0
 530:	574f8f93          	addi	t6,t6,1396 # aa0 <begin_regstate>
 534:	000fa183          	lw	gp,0(t6)
 538:	004fa203          	lw	tp,4(t6)
 53c:	008fa283          	lw	t0,8(t6)
 540:	00001517          	auipc	a0,0x1
 544:	d2c50513          	addi	a0,a0,-724 # 126c <_end+0x3cc>
 548:	00000597          	auipc	a1,0x0
 54c:	59058593          	addi	a1,a1,1424 # ad8 <test_A4_res>
 550:	80051603          	lh	a2,-2048(a0)
 554:	80251683          	lh	a3,-2046(a0)
 558:	00c5a023          	sw	a2,0(a1)
 55c:	00d5a223          	sw	a3,4(a1)
 560:	00000f97          	auipc	t6,0x0
 564:	540f8f93          	addi	t6,t6,1344 # aa0 <begin_regstate>
 568:	003fa023          	sw	gp,0(t6)
 56c:	004fa223          	sw	tp,4(t6)
 570:	005fa423          	sw	t0,8(t6)
 574:	f00001b7          	lui	gp,0xf0000
 578:	00000217          	auipc	tp,0x0
 57c:	69d20213          	addi	tp,tp,1693 # c15 <end_signature+0x105>
 580:	00020283          	lb	t0,0(tp) # 0 <CL_SIZE-0x20>
 584:	00518023          	sb	t0,0(gp) # f0000000 <__global_pointer$+0xefffe978>
 588:	00028663          	beqz	t0,594 <STACK_SIZE+0x194>
 58c:	00120213          	addi	tp,tp,1 # 1 <CL_SIZE-0x1f>
 590:	ff1ff06f          	j	580 <STACK_SIZE+0x180>
 594:	00000f97          	auipc	t6,0x0
 598:	50cf8f93          	addi	t6,t6,1292 # aa0 <begin_regstate>
 59c:	000fa183          	lw	gp,0(t6)
 5a0:	004fa203          	lw	tp,4(t6)
 5a4:	008fa283          	lw	t0,8(t6)
 5a8:	00000f97          	auipc	t6,0x0
 5ac:	4f8f8f93          	addi	t6,t6,1272 # aa0 <begin_regstate>
 5b0:	003fa023          	sw	gp,0(t6)
 5b4:	004fa223          	sw	tp,4(t6)
 5b8:	005fa423          	sw	t0,8(t6)
 5bc:	f00001b7          	lui	gp,0xf0000
 5c0:	00000217          	auipc	tp,0x0
 5c4:	67120213          	addi	tp,tp,1649 # c31 <end_signature+0x121>
 5c8:	00020283          	lb	t0,0(tp) # 0 <CL_SIZE-0x20>
 5cc:	00518023          	sb	t0,0(gp) # f0000000 <__global_pointer$+0xefffe978>
 5d0:	00028663          	beqz	t0,5dc <STACK_SIZE+0x1dc>
 5d4:	00120213          	addi	tp,tp,1 # 1 <CL_SIZE-0x1f>
 5d8:	ff1ff06f          	j	5c8 <STACK_SIZE+0x1c8>
 5dc:	00000f97          	auipc	t6,0x0
 5e0:	4c4f8f93          	addi	t6,t6,1220 # aa0 <begin_regstate>
 5e4:	000fa183          	lw	gp,0(t6)
 5e8:	004fa203          	lw	tp,4(t6)
 5ec:	008fa283          	lw	t0,8(t6)
 5f0:	00000697          	auipc	a3,0x0
 5f4:	c8368693          	addi	a3,a3,-893 # 273 <_start+0x73>
 5f8:	00000717          	auipc	a4,0x0
 5fc:	4e870713          	addi	a4,a4,1256 # ae0 <test_A5_res>
 600:	7fd69783          	lh	a5,2045(a3)
 604:	7ff69803          	lh	a6,2047(a3)
 608:	00f72023          	sw	a5,0(a4)
 60c:	01072223          	sw	a6,4(a4)
 610:	00000f97          	auipc	t6,0x0
 614:	490f8f93          	addi	t6,t6,1168 # aa0 <begin_regstate>
 618:	003fa023          	sw	gp,0(t6)
 61c:	004fa223          	sw	tp,4(t6)
 620:	005fa423          	sw	t0,8(t6)
 624:	f00001b7          	lui	gp,0xf0000
 628:	00000217          	auipc	tp,0x0
 62c:	63420213          	addi	tp,tp,1588 # c5c <end_signature+0x14c>
 630:	00020283          	lb	t0,0(tp) # 0 <CL_SIZE-0x20>
 634:	00518023          	sb	t0,0(gp) # f0000000 <__global_pointer$+0xefffe978>
 638:	00028663          	beqz	t0,644 <STACK_SIZE+0x244>
 63c:	00120213          	addi	tp,tp,1 # 1 <CL_SIZE-0x1f>
 640:	ff1ff06f          	j	630 <STACK_SIZE+0x230>
 644:	00000f97          	auipc	t6,0x0
 648:	45cf8f93          	addi	t6,t6,1116 # aa0 <begin_regstate>
 64c:	000fa183          	lw	gp,0(t6)
 650:	004fa203          	lw	tp,4(t6)
 654:	008fa283          	lw	t0,8(t6)
 658:	00000f97          	auipc	t6,0x0
 65c:	448f8f93          	addi	t6,t6,1096 # aa0 <begin_regstate>
 660:	003fa023          	sw	gp,0(t6)
 664:	004fa223          	sw	tp,4(t6)
 668:	005fa423          	sw	t0,8(t6)
 66c:	f00001b7          	lui	gp,0xf0000
 670:	00000217          	auipc	tp,0x0
 674:	60820213          	addi	tp,tp,1544 # c78 <end_signature+0x168>
 678:	00020283          	lb	t0,0(tp) # 0 <CL_SIZE-0x20>
 67c:	00518023          	sb	t0,0(gp) # f0000000 <__global_pointer$+0xefffe978>
 680:	00028663          	beqz	t0,68c <STACK_SIZE+0x28c>
 684:	00120213          	addi	tp,tp,1 # 1 <CL_SIZE-0x1f>
 688:	ff1ff06f          	j	678 <STACK_SIZE+0x278>
 68c:	00000f97          	auipc	t6,0x0
 690:	414f8f93          	addi	t6,t6,1044 # aa0 <begin_regstate>
 694:	000fa183          	lw	gp,0(t6)
 698:	004fa203          	lw	tp,4(t6)
 69c:	008fa283          	lw	t0,8(t6)
 6a0:	00000817          	auipc	a6,0x0
 6a4:	3d880813          	addi	a6,a6,984 # a78 <test_B_data>
 6a8:	00000897          	auipc	a7,0x0
 6ac:	44088893          	addi	a7,a7,1088 # ae8 <test_B_res>
 6b0:	ffc81903          	lh	s2,-4(a6)
 6b4:	ffe81983          	lh	s3,-2(a6)
 6b8:	00081a03          	lh	s4,0(a6)
 6bc:	00281a83          	lh	s5,2(a6)
 6c0:	00481b03          	lh	s6,4(a6)
 6c4:	00681b83          	lh	s7,6(a6)
 6c8:	0128a023          	sw	s2,0(a7)
 6cc:	0138a223          	sw	s3,4(a7)
 6d0:	0148a423          	sw	s4,8(a7)
 6d4:	0158a623          	sw	s5,12(a7)
 6d8:	0168a823          	sw	s6,16(a7)
 6dc:	0178aa23          	sw	s7,20(a7)
 6e0:	00000f97          	auipc	t6,0x0
 6e4:	3c0f8f93          	addi	t6,t6,960 # aa0 <begin_regstate>
 6e8:	003fa023          	sw	gp,0(t6)
 6ec:	004fa223          	sw	tp,4(t6)
 6f0:	005fa423          	sw	t0,8(t6)
 6f4:	f00001b7          	lui	gp,0xf0000
 6f8:	00000217          	auipc	tp,0x0
 6fc:	5b720213          	addi	tp,tp,1463 # caf <end_signature+0x19f>
 700:	00020283          	lb	t0,0(tp) # 0 <CL_SIZE-0x20>
 704:	00518023          	sb	t0,0(gp) # f0000000 <__global_pointer$+0xefffe978>
 708:	00028663          	beqz	t0,714 <STACK_SIZE+0x314>
 70c:	00120213          	addi	tp,tp,1 # 1 <CL_SIZE-0x1f>
 710:	ff1ff06f          	j	700 <STACK_SIZE+0x300>
 714:	00000f97          	auipc	t6,0x0
 718:	38cf8f93          	addi	t6,t6,908 # aa0 <begin_regstate>
 71c:	000fa183          	lw	gp,0(t6)
 720:	004fa203          	lw	tp,4(t6)
 724:	008fa283          	lw	t0,8(t6)
 728:	00000f97          	auipc	t6,0x0
 72c:	378f8f93          	addi	t6,t6,888 # aa0 <begin_regstate>
 730:	003fa023          	sw	gp,0(t6)
 734:	004fa223          	sw	tp,4(t6)
 738:	005fa423          	sw	t0,8(t6)
 73c:	f00001b7          	lui	gp,0xf0000
 740:	00000217          	auipc	tp,0x0
 744:	58a20213          	addi	tp,tp,1418 # cca <end_signature+0x1ba>
 748:	00020283          	lb	t0,0(tp) # 0 <CL_SIZE-0x20>
 74c:	00518023          	sb	t0,0(gp) # f0000000 <__global_pointer$+0xefffe978>
 750:	00028663          	beqz	t0,75c <STACK_SIZE+0x35c>
 754:	00120213          	addi	tp,tp,1 # 1 <CL_SIZE-0x1f>
 758:	ff1ff06f          	j	748 <STACK_SIZE+0x348>
 75c:	00000f97          	auipc	t6,0x0
 760:	344f8f93          	addi	t6,t6,836 # aa0 <begin_regstate>
 764:	000fa183          	lw	gp,0(t6)
 768:	004fa203          	lw	tp,4(t6)
 76c:	008fa283          	lw	t0,8(t6)
 770:	00000a97          	auipc	s5,0x0
 774:	310a8a93          	addi	s5,s5,784 # a80 <test_C_data>
 778:	00000b17          	auipc	s6,0x0
 77c:	388b0b13          	addi	s6,s6,904 # b00 <test_C_res>
 780:	000a9003          	lh	zero,0(s5)
 784:	000b2023          	sw	zero,0(s6)
 788:	00000f97          	auipc	t6,0x0
 78c:	318f8f93          	addi	t6,t6,792 # aa0 <begin_regstate>
 790:	003fa023          	sw	gp,0(t6)
 794:	004fa223          	sw	tp,4(t6)
 798:	005fa423          	sw	t0,8(t6)
 79c:	f00001b7          	lui	gp,0xf0000
 7a0:	00000217          	auipc	tp,0x0
 7a4:	54b20213          	addi	tp,tp,1355 # ceb <end_signature+0x1db>
 7a8:	00020283          	lb	t0,0(tp) # 0 <CL_SIZE-0x20>
 7ac:	00518023          	sb	t0,0(gp) # f0000000 <__global_pointer$+0xefffe978>
 7b0:	00028663          	beqz	t0,7bc <STACK_SIZE+0x3bc>
 7b4:	00120213          	addi	tp,tp,1 # 1 <CL_SIZE-0x1f>
 7b8:	ff1ff06f          	j	7a8 <STACK_SIZE+0x3a8>
 7bc:	00000f97          	auipc	t6,0x0
 7c0:	2e4f8f93          	addi	t6,t6,740 # aa0 <begin_regstate>
 7c4:	000fa183          	lw	gp,0(t6)
 7c8:	004fa203          	lw	tp,4(t6)
 7cc:	008fa283          	lw	t0,8(t6)
 7d0:	00000f97          	auipc	t6,0x0
 7d4:	2d0f8f93          	addi	t6,t6,720 # aa0 <begin_regstate>
 7d8:	003fa023          	sw	gp,0(t6)
 7dc:	004fa223          	sw	tp,4(t6)
 7e0:	005fa423          	sw	t0,8(t6)
 7e4:	f00001b7          	lui	gp,0xf0000
 7e8:	00000217          	auipc	tp,0x0
 7ec:	51e20213          	addi	tp,tp,1310 # d06 <end_signature+0x1f6>
 7f0:	00020283          	lb	t0,0(tp) # 0 <CL_SIZE-0x20>
 7f4:	00518023          	sb	t0,0(gp) # f0000000 <__global_pointer$+0xefffe978>
 7f8:	00028663          	beqz	t0,804 <STACK_SIZE+0x404>
 7fc:	00120213          	addi	tp,tp,1 # 1 <CL_SIZE-0x1f>
 800:	ff1ff06f          	j	7f0 <STACK_SIZE+0x3f0>
 804:	00000f97          	auipc	t6,0x0
 808:	29cf8f93          	addi	t6,t6,668 # aa0 <begin_regstate>
 80c:	000fa183          	lw	gp,0(t6)
 810:	004fa203          	lw	tp,4(t6)
 814:	008fa283          	lw	t0,8(t6)
 818:	00000a97          	auipc	s5,0x0
 81c:	26ca8a93          	addi	s5,s5,620 # a84 <test_D_data>
 820:	00000b17          	auipc	s6,0x0
 824:	2e4b0b13          	addi	s6,s6,740 # b04 <test_D_res>
 828:	000aab83          	lw	s7,0(s5)
 82c:	000b9c03          	lh	s8,0(s7)
 830:	000c0c93          	mv	s9,s8
 834:	019b2023          	sw	s9,0(s6)
 838:	00000f97          	auipc	t6,0x0
 83c:	268f8f93          	addi	t6,t6,616 # aa0 <begin_regstate>
 840:	003fa023          	sw	gp,0(t6)
 844:	004fa223          	sw	tp,4(t6)
 848:	005fa423          	sw	t0,8(t6)
 84c:	f00001b7          	lui	gp,0xf0000
 850:	00000217          	auipc	tp,0x0
 854:	4db20213          	addi	tp,tp,1243 # d2b <end_signature+0x21b>
 858:	00020283          	lb	t0,0(tp) # 0 <CL_SIZE-0x20>
 85c:	00518023          	sb	t0,0(gp) # f0000000 <__global_pointer$+0xefffe978>
 860:	00028663          	beqz	t0,86c <STACK_SIZE+0x46c>
 864:	00120213          	addi	tp,tp,1 # 1 <CL_SIZE-0x1f>
 868:	ff1ff06f          	j	858 <STACK_SIZE+0x458>
 86c:	00000f97          	auipc	t6,0x0
 870:	234f8f93          	addi	t6,t6,564 # aa0 <begin_regstate>
 874:	000fa183          	lw	gp,0(t6)
 878:	004fa203          	lw	tp,4(t6)
 87c:	008fa283          	lw	t0,8(t6)
 880:	00000f97          	auipc	t6,0x0
 884:	220f8f93          	addi	t6,t6,544 # aa0 <begin_regstate>
 888:	003fa023          	sw	gp,0(t6)
 88c:	004fa223          	sw	tp,4(t6)
 890:	005fa423          	sw	t0,8(t6)
 894:	f00001b7          	lui	gp,0xf0000
 898:	00000217          	auipc	tp,0x0
 89c:	4ae20213          	addi	tp,tp,1198 # d46 <end_signature+0x236>
 8a0:	00020283          	lb	t0,0(tp) # 0 <CL_SIZE-0x20>
 8a4:	00518023          	sb	t0,0(gp) # f0000000 <__global_pointer$+0xefffe978>
 8a8:	00028663          	beqz	t0,8b4 <STACK_SIZE+0x4b4>
 8ac:	00120213          	addi	tp,tp,1 # 1 <CL_SIZE-0x1f>
 8b0:	ff1ff06f          	j	8a0 <STACK_SIZE+0x4a0>
 8b4:	00000f97          	auipc	t6,0x0
 8b8:	1ecf8f93          	addi	t6,t6,492 # aa0 <begin_regstate>
 8bc:	000fa183          	lw	gp,0(t6)
 8c0:	004fa203          	lw	tp,4(t6)
 8c4:	008fa283          	lw	t0,8(t6)
 8c8:	00000c97          	auipc	s9,0x0
 8cc:	1c4c8c93          	addi	s9,s9,452 # a8c <test_E1_data>
 8d0:	00000d17          	auipc	s10,0x0
 8d4:	238d0d13          	addi	s10,s10,568 # b08 <test_E1_res>
 8d8:	000c9c83          	lh	s9,0(s9)
 8dc:	019d2023          	sw	s9,0(s10)
 8e0:	00000f97          	auipc	t6,0x0
 8e4:	1c0f8f93          	addi	t6,t6,448 # aa0 <begin_regstate>
 8e8:	003fa023          	sw	gp,0(t6)
 8ec:	004fa223          	sw	tp,4(t6)
 8f0:	005fa423          	sw	t0,8(t6)
 8f4:	f00001b7          	lui	gp,0xf0000
 8f8:	00000217          	auipc	tp,0x0
 8fc:	49220213          	addi	tp,tp,1170 # d8a <end_signature+0x27a>
 900:	00020283          	lb	t0,0(tp) # 0 <CL_SIZE-0x20>
 904:	00518023          	sb	t0,0(gp) # f0000000 <__global_pointer$+0xefffe978>
 908:	00028663          	beqz	t0,914 <STACK_SIZE+0x514>
 90c:	00120213          	addi	tp,tp,1 # 1 <CL_SIZE-0x1f>
 910:	ff1ff06f          	j	900 <STACK_SIZE+0x500>
 914:	00000f97          	auipc	t6,0x0
 918:	18cf8f93          	addi	t6,t6,396 # aa0 <begin_regstate>
 91c:	000fa183          	lw	gp,0(t6)
 920:	004fa203          	lw	tp,4(t6)
 924:	008fa283          	lw	t0,8(t6)
 928:	00000f97          	auipc	t6,0x0
 92c:	178f8f93          	addi	t6,t6,376 # aa0 <begin_regstate>
 930:	003fa023          	sw	gp,0(t6)
 934:	004fa223          	sw	tp,4(t6)
 938:	005fa423          	sw	t0,8(t6)
 93c:	f00001b7          	lui	gp,0xf0000
 940:	00000217          	auipc	tp,0x0
 944:	46520213          	addi	tp,tp,1125 # da5 <end_signature+0x295>
 948:	00020283          	lb	t0,0(tp) # 0 <CL_SIZE-0x20>
 94c:	00518023          	sb	t0,0(gp) # f0000000 <__global_pointer$+0xefffe978>
 950:	00028663          	beqz	t0,95c <STACK_SIZE+0x55c>
 954:	00120213          	addi	tp,tp,1 # 1 <CL_SIZE-0x1f>
 958:	ff1ff06f          	j	948 <STACK_SIZE+0x548>
 95c:	00000f97          	auipc	t6,0x0
 960:	144f8f93          	addi	t6,t6,324 # aa0 <begin_regstate>
 964:	000fa183          	lw	gp,0(t6)
 968:	004fa203          	lw	tp,4(t6)
 96c:	008fa283          	lw	t0,8(t6)
 970:	00000d97          	auipc	s11,0x0
 974:	121d8d93          	addi	s11,s11,289 # a91 <test_E2_data+0x1>
 978:	00000e17          	auipc	t3,0x0
 97c:	194e0e13          	addi	t3,t3,404 # b0c <test_E2_res>
 980:	fffd9d83          	lh	s11,-1(s11)
 984:	01be2023          	sw	s11,0(t3)
 988:	00000f97          	auipc	t6,0x0
 98c:	118f8f93          	addi	t6,t6,280 # aa0 <begin_regstate>
 990:	003fa023          	sw	gp,0(t6)
 994:	004fa223          	sw	tp,4(t6)
 998:	005fa423          	sw	t0,8(t6)
 99c:	f00001b7          	lui	gp,0xf0000
 9a0:	00000217          	auipc	tp,0x0
 9a4:	45b20213          	addi	tp,tp,1115 # dfb <end_signature+0x2eb>
 9a8:	00020283          	lb	t0,0(tp) # 0 <CL_SIZE-0x20>
 9ac:	00518023          	sb	t0,0(gp) # f0000000 <__global_pointer$+0xefffe978>
 9b0:	00028663          	beqz	t0,9bc <STACK_SIZE+0x5bc>
 9b4:	00120213          	addi	tp,tp,1 # 1 <CL_SIZE-0x1f>
 9b8:	ff1ff06f          	j	9a8 <STACK_SIZE+0x5a8>
 9bc:	00000f97          	auipc	t6,0x0
 9c0:	0e4f8f93          	addi	t6,t6,228 # aa0 <begin_regstate>
 9c4:	000fa183          	lw	gp,0(t6)
 9c8:	004fa203          	lw	tp,4(t6)
 9cc:	008fa283          	lw	t0,8(t6)
 9d0:	00000f97          	auipc	t6,0x0
 9d4:	0d0f8f93          	addi	t6,t6,208 # aa0 <begin_regstate>
 9d8:	003fa023          	sw	gp,0(t6)
 9dc:	004fa223          	sw	tp,4(t6)
 9e0:	005fa423          	sw	t0,8(t6)
 9e4:	f00001b7          	lui	gp,0xf0000
 9e8:	00000217          	auipc	tp,0x0
 9ec:	42f20213          	addi	tp,tp,1071 # e17 <end_signature+0x307>
 9f0:	00020283          	lb	t0,0(tp) # 0 <CL_SIZE-0x20>
 9f4:	00518023          	sb	t0,0(gp) # f0000000 <__global_pointer$+0xefffe978>
 9f8:	00028663          	beqz	t0,a04 <STACK_SIZE+0x604>
 9fc:	00120213          	addi	tp,tp,1 # 1 <CL_SIZE-0x1f>
 a00:	ff1ff06f          	j	9f0 <STACK_SIZE+0x5f0>
 a04:	00000f97          	auipc	t6,0x0
 a08:	09cf8f93          	addi	t6,t6,156 # aa0 <begin_regstate>
 a0c:	000fa183          	lw	gp,0(t6)
 a10:	004fa203          	lw	tp,4(t6)
 a14:	008fa283          	lw	t0,8(t6)

00000a18 <ecall>:
 a18:	00000073          	ecall
 a1c:	0000                	unimp
	...

00000a20 <sc_exit>:
 a20:	ed4ff06f          	j	f4 <SIM_EXIT>
 a24:	00000013          	nop
 a28:	00000013          	nop
 a2c:	00000013          	nop
 a30:	00000013          	nop
 a34:	00000013          	nop
 a38:	00000013          	nop
 a3c:	00000013          	nop
	...

Дизассемблирование раздела .data:

00000a60 <test_A1_data>:
 a60:	f222                	fsw	fs0,36(sp)
 a62:	11f1                	addi	gp,gp,-4

00000a64 <test_A2_data>:
 a64:	44f4                	lw	a3,76(s1)
 a66:	          	0xf666f333

00000a68 <test_A3_data>:
 a68:	f666                	fsw	fs9,44(sp)
 a6a:	55f5                	li	a1,-3

00000a6c <test_A4_data>:
 a6c:	88f8                	0x88f8
 a6e:	          	0xaaaf777

00000a70 <test_A5_data>:
 a70:	0aaa                	slli	s5,s5,0xa
 a72:	9909                	andi	a0,a0,-30
 a74:	cc0c                	sw	a1,24(s0)
 a76:	          	0xeee0bbb

00000a78 <test_B_data>:
 a78:	0eee                	slli	t4,t4,0x1b
 a7a:	dd0d                	beqz	a0,9b4 <STACK_SIZE+0x5b4>
 a7c:	00f0                	addi	a2,sp,76
 a7e:	0fff                	0xfff

00000a80 <test_C_data>:
 a80:	5678                	lw	a4,108(a2)
 a82:	1234                	addi	a3,sp,296

00000a84 <test_D_data>:
 a84:	0a88                	addi	a0,sp,336
	...

00000a88 <test_D_data2_label>:
 a88:	def0                	sw	a2,124(a3)
 a8a:	9abc                	0x9abc

00000a8c <test_E1_data>:
 a8c:	3210                	fld	fa2,32(a2)
 a8e:	7654                	flw	fa3,44(a2)

00000a90 <test_E2_data>:
 a90:	ba98                	fsd	fa4,48(a3)
 a92:	fedc                	fsw	fa5,60(a3)
	...

00000aa0 <begin_regstate>:
	...

00000ac0 <begin_signature>:
 ac0:	ffff                	0xffff
 ac2:	ffff                	0xffff
 ac4:	ffff                	0xffff
 ac6:	ffff                	0xffff

00000ac8 <test_A2_res>:
 ac8:	ffff                	0xffff
 aca:	ffff                	0xffff
 acc:	ffff                	0xffff
 ace:	ffff                	0xffff

00000ad0 <test_A3_res>:
 ad0:	ffff                	0xffff
 ad2:	ffff                	0xffff
 ad4:	ffff                	0xffff
 ad6:	ffff                	0xffff

00000ad8 <test_A4_res>:
 ad8:	ffff                	0xffff
 ada:	ffff                	0xffff
 adc:	ffff                	0xffff
 ade:	ffff                	0xffff

00000ae0 <test_A5_res>:
 ae0:	ffff                	0xffff
 ae2:	ffff                	0xffff
 ae4:	ffff                	0xffff
 ae6:	ffff                	0xffff

00000ae8 <test_B_res>:
 ae8:	ffff                	0xffff
 aea:	ffff                	0xffff
 aec:	ffff                	0xffff
 aee:	ffff                	0xffff
 af0:	ffff                	0xffff
 af2:	ffff                	0xffff
 af4:	ffff                	0xffff
 af6:	ffff                	0xffff
 af8:	ffff                	0xffff
 afa:	ffff                	0xffff
 afc:	ffff                	0xffff
 afe:	ffff                	0xffff

00000b00 <test_C_res>:
 b00:	ffff                	0xffff
 b02:	ffff                	0xffff

00000b04 <test_D_res>:
 b04:	ffff                	0xffff
 b06:	ffff                	0xffff

00000b08 <test_E1_res>:
 b08:	ffff                	0xffff
 b0a:	ffff                	0xffff

00000b0c <test_E2_res>:
 b0c:	ffff                	0xffff
 b0e:	ffff                	0xffff

00000b10 <end_signature>:
 b10:	65542023          	sw	s5,1600(s0)
 b14:	42207473          	csrrci	s0,0x422,0
 b18:	6765                	lui	a4,0x19
 b1a:	6e69                	lui	t3,0x1a
 b1c:	000a                	0xa
 b1e:	65542023          	sw	s5,1600(s0)
 b22:	70207473          	csrrci	s0,0x702,0
 b26:	7261                	lui	tp,0xffff8
 b28:	2074                	fld	fa3,192(s0)
 b2a:	3141                	jal	7aa <STACK_SIZE+0x3aa>
 b2c:	2d20                	fld	fs0,88(a0)
 b2e:	7420                	flw	fs0,104(s0)
 b30:	7365                	lui	t1,0xffff9
 b32:	2074                	fld	fa3,192(s0)
 b34:	6162                	flw	ft2,24(sp)
 b36:	61206573          	csrrsi	a0,0x612,0
 b3a:	6464                	flw	fs1,76(s0)
 b3c:	6572                	flw	fa0,28(sp)
 b3e:	2b207373          	csrrci	t1,0x2b2,0
 b42:	3020                	fld	fs0,96(s0)
 b44:	000a                	0xa
 b46:	65542023          	sw	s5,1600(s0)
 b4a:	70207473          	csrrci	s0,0x702,0
 b4e:	7261                	lui	tp,0xffff8
 b50:	2074                	fld	fa3,192(s0)
 b52:	3141                	jal	7d2 <STACK_SIZE+0x3d2>
 b54:	2020                	fld	fs0,64(s0)
 b56:	202d                	jal	b80 <end_signature+0x70>
 b58:	706d6f43          	fmadd.s	ft10,fs10,ft6,fa4,unknown
 b5c:	656c                	flw	fa1,76(a0)
 b5e:	6574                	flw	fa3,76(a0)
 b60:	000a                	0xa
 b62:	65542023          	sw	s5,1600(s0)
 b66:	70207473          	csrrci	s0,0x702,0
 b6a:	7261                	lui	tp,0xffff8
 b6c:	2074                	fld	fa3,192(s0)
 b6e:	3241                	jal	4ee <STACK_SIZE+0xee>
 b70:	2d20                	fld	fs0,88(a0)
 b72:	7420                	flw	fs0,104(s0)
 b74:	7365                	lui	t1,0xffff9
 b76:	2074                	fld	fa3,192(s0)
 b78:	6162                	flw	ft2,24(sp)
 b7a:	61206573          	csrrsi	a0,0x612,0
 b7e:	6464                	flw	fs1,76(s0)
 b80:	6572                	flw	fa0,28(sp)
 b82:	2d207373          	csrrci	t1,0x2d2,0
 b86:	3120                	fld	fs0,96(a0)
 b88:	000a                	0xa
 b8a:	65542023          	sw	s5,1600(s0)
 b8e:	70207473          	csrrci	s0,0x702,0
 b92:	7261                	lui	tp,0xffff8
 b94:	2074                	fld	fa3,192(s0)
 b96:	3241                	jal	516 <STACK_SIZE+0x116>
 b98:	2020                	fld	fs0,64(s0)
 b9a:	202d                	jal	bc4 <end_signature+0xb4>
 b9c:	706d6f43          	fmadd.s	ft10,fs10,ft6,fa4,unknown
 ba0:	656c                	flw	fa1,76(a0)
 ba2:	6574                	flw	fa3,76(a0)
 ba4:	000a                	0xa
 ba6:	65542023          	sw	s5,1600(s0)
 baa:	70207473          	csrrci	s0,0x702,0
 bae:	7261                	lui	tp,0xffff8
 bb0:	2074                	fld	fa3,192(s0)
 bb2:	3341                	jal	932 <STACK_SIZE+0x532>
 bb4:	2d20                	fld	fs0,88(a0)
 bb6:	7420                	flw	fs0,104(s0)
 bb8:	7365                	lui	t1,0xffff9
 bba:	2074                	fld	fa3,192(s0)
 bbc:	6162                	flw	ft2,24(sp)
 bbe:	61206573          	csrrsi	a0,0x612,0
 bc2:	6464                	flw	fs1,76(s0)
 bc4:	6572                	flw	fa0,28(sp)
 bc6:	2b207373          	csrrci	t1,0x2b2,0
 bca:	3120                	fld	fs0,96(a0)
 bcc:	000a                	0xa
 bce:	65542023          	sw	s5,1600(s0)
 bd2:	70207473          	csrrci	s0,0x702,0
 bd6:	7261                	lui	tp,0xffff8
 bd8:	2074                	fld	fa3,192(s0)
 bda:	3341                	jal	95a <STACK_SIZE+0x55a>
 bdc:	2020                	fld	fs0,64(s0)
 bde:	202d                	jal	c08 <end_signature+0xf8>
 be0:	706d6f43          	fmadd.s	ft10,fs10,ft6,fa4,unknown
 be4:	656c                	flw	fa1,76(a0)
 be6:	6574                	flw	fa3,76(a0)
 be8:	000a                	0xa
 bea:	65542023          	sw	s5,1600(s0)
 bee:	70207473          	csrrci	s0,0x702,0
 bf2:	7261                	lui	tp,0xffff8
 bf4:	2074                	fld	fa3,192(s0)
 bf6:	3441                	jal	676 <STACK_SIZE+0x276>
 bf8:	2d20                	fld	fs0,88(a0)
 bfa:	7420                	flw	fs0,104(s0)
 bfc:	7365                	lui	t1,0xffff9
 bfe:	2074                	fld	fa3,192(s0)
 c00:	6162                	flw	ft2,24(sp)
 c02:	61206573          	csrrsi	a0,0x612,0
 c06:	6464                	flw	fs1,76(s0)
 c08:	6572                	flw	fa0,28(sp)
 c0a:	2d207373          	csrrci	t1,0x2d2,0
 c0e:	3220                	fld	fs0,96(a2)
 c10:	3430                	fld	fa2,104(s0)
 c12:	0a38                	addi	a4,sp,280
 c14:	2300                	fld	fs0,0(a4)
 c16:	5420                	lw	s0,104(s0)
 c18:	7365                	lui	t1,0xffff9
 c1a:	2074                	fld	fa3,192(s0)
 c1c:	6170                	flw	fa2,68(a0)
 c1e:	7472                	flw	fs0,60(sp)
 c20:	4120                	lw	s0,64(a0)
 c22:	2034                	fld	fa3,64(s0)
 c24:	2d20                	fld	fs0,88(a0)
 c26:	4320                	lw	s0,64(a4)
 c28:	6c706d6f          	jal	s10,7aee <__global_pointer$+0x6466>
 c2c:	7465                	lui	s0,0xffff9
 c2e:	0a65                	addi	s4,s4,25
 c30:	2300                	fld	fs0,0(a4)
 c32:	5420                	lw	s0,104(s0)
 c34:	7365                	lui	t1,0xffff9
 c36:	2074                	fld	fa3,192(s0)
 c38:	6170                	flw	fa2,68(a0)
 c3a:	7472                	flw	fs0,60(sp)
 c3c:	4120                	lw	s0,64(a0)
 c3e:	2035                	jal	c6a <end_signature+0x15a>
 c40:	202d                	jal	c6a <end_signature+0x15a>
 c42:	6574                	flw	fa3,76(a0)
 c44:	62207473          	csrrci	s0,0x622,0
 c48:	7361                	lui	t1,0xffff8
 c4a:	2065                	jal	cf2 <end_signature+0x1e2>
 c4c:	6461                	lui	s0,0x18
 c4e:	7264                	flw	fs1,100(a2)
 c50:	7365                	lui	t1,0xffff9
 c52:	202b2073          	csrs	0x202,s6
 c56:	3032                	fld	ft0,296(sp)
 c58:	3734                	fld	fa3,104(a4)
 c5a:	000a                	0xa
 c5c:	65542023          	sw	s5,1600(s0) # 18640 <__global_pointer$+0x16fb8>
 c60:	70207473          	csrrci	s0,0x702,0
 c64:	7261                	lui	tp,0xffff8
 c66:	2074                	fld	fa3,192(s0)
 c68:	3541                	jal	ae8 <test_B_res>
 c6a:	2020                	fld	fs0,64(s0)
 c6c:	202d                	jal	c96 <end_signature+0x186>
 c6e:	706d6f43          	fmadd.s	ft10,fs10,ft6,fa4,unknown
 c72:	656c                	flw	fa1,76(a0)
 c74:	6574                	flw	fa3,76(a0)
 c76:	000a                	0xa
 c78:	65542023          	sw	s5,1600(s0)
 c7c:	70207473          	csrrci	s0,0x702,0
 c80:	7261                	lui	tp,0xffff8
 c82:	2074                	fld	fa3,192(s0)
 c84:	2042                	fld	ft0,16(sp)
 c86:	202d                	jal	cb0 <end_signature+0x1a0>
 c88:	6574                	flw	fa3,76(a0)
 c8a:	62207473          	csrrci	s0,0x622,0
 c8e:	7361                	lui	t1,0xffff8
 c90:	2065                	jal	d38 <end_signature+0x228>
 c92:	6461                	lui	s0,0x18
 c94:	7264                	flw	fs1,100(a2)
 c96:	7365                	lui	t1,0xffff9
 c98:	202b2073          	csrs	0x202,s6
 c9c:	342d                	jal	6c6 <STACK_SIZE+0x2c6>
 c9e:	2d2c                	fld	fa1,88(a0)
 ca0:	2c32                	fld	fs8,264(sp)
 ca2:	3020                	fld	fs0,96(s0)
 ca4:	202c                	fld	fa1,64(s0)
 ca6:	2c32                	fld	fs8,264(sp)
 ca8:	3420                	fld	fs0,104(s0)
 caa:	202c                	fld	fa1,64(s0)
 cac:	0a36                	slli	s4,s4,0xd
 cae:	2300                	fld	fs0,0(a4)
 cb0:	5420                	lw	s0,104(s0)
 cb2:	7365                	lui	t1,0xffff9
 cb4:	2074                	fld	fa3,192(s0)
 cb6:	6170                	flw	fa2,68(a0)
 cb8:	7472                	flw	fs0,60(sp)
 cba:	4220                	lw	s0,64(a2)
 cbc:	2020                	fld	fs0,64(s0)
 cbe:	202d                	jal	ce8 <end_signature+0x1d8>
 cc0:	706d6f43          	fmadd.s	ft10,fs10,ft6,fa4,unknown
 cc4:	656c                	flw	fa1,76(a0)
 cc6:	6574                	flw	fa3,76(a0)
 cc8:	000a                	0xa
 cca:	65542023          	sw	s5,1600(s0) # 18640 <__global_pointer$+0x16fb8>
 cce:	70207473          	csrrci	s0,0x702,0
 cd2:	7261                	lui	tp,0xffff8
 cd4:	2074                	fld	fa3,192(s0)
 cd6:	202d2043          	fmadd.s	ft0,fs10,ft2,ft4,rdn
 cda:	6574                	flw	fa3,76(a0)
 cdc:	6c207473          	csrrci	s0,0x6c2,0
 ce0:	2064616f          	jal	sp,46ee6 <__global_pointer$+0x4585e>
 ce4:	6f74                	flw	fa3,92(a4)
 ce6:	7820                	flw	fs0,112(s0)
 ce8:	0a30                	addi	a2,sp,280
 cea:	2300                	fld	fs0,0(a4)
 cec:	5420                	lw	s0,104(s0)
 cee:	7365                	lui	t1,0xffff9
 cf0:	2074                	fld	fa3,192(s0)
 cf2:	6170                	flw	fa2,68(a0)
 cf4:	7472                	flw	fs0,60(sp)
 cf6:	4320                	lw	s0,64(a4)
 cf8:	2020                	fld	fs0,64(s0)
 cfa:	202d                	jal	d24 <end_signature+0x214>
 cfc:	706d6f43          	fmadd.s	ft10,fs10,ft6,fa4,unknown
 d00:	656c                	flw	fa1,76(a0)
 d02:	6574                	flw	fa3,76(a0)
 d04:	000a                	0xa
 d06:	65542023          	sw	s5,1600(s0)
 d0a:	70207473          	csrrci	s0,0x702,0
 d0e:	7261                	lui	tp,0xffff8
 d10:	2074                	fld	fa3,192(s0)
 d12:	2044                	fld	fs1,128(s0)
 d14:	202d                	jal	d3e <end_signature+0x22e>
 d16:	6574                	flw	fa3,76(a0)
 d18:	66207473          	csrrci	s0,0x662,0
 d1c:	6620726f          	jal	tp,837e <__global_pointer$+0x6cf6>
 d20:	6177726f          	jal	tp,78b36 <__global_pointer$+0x774ae>
 d24:	6472                	flw	fs0,28(sp)
 d26:	6e69                	lui	t3,0x1a
 d28:	23000a67          	jalr	s4,560(zero) # 230 <_start+0x30>
 d2c:	5420                	lw	s0,104(s0)
 d2e:	7365                	lui	t1,0xffff9
 d30:	2074                	fld	fa3,192(s0)
 d32:	6170                	flw	fa2,68(a0)
 d34:	7472                	flw	fs0,60(sp)
 d36:	4420                	lw	s0,72(s0)
 d38:	2020                	fld	fs0,64(s0)
 d3a:	202d                	jal	d64 <end_signature+0x254>
 d3c:	706d6f43          	fmadd.s	ft10,fs10,ft6,fa4,unknown
 d40:	656c                	flw	fa1,76(a0)
 d42:	6574                	flw	fa3,76(a0)
 d44:	000a                	0xa
 d46:	65542023          	sw	s5,1600(s0)
 d4a:	70207473          	csrrci	s0,0x702,0
 d4e:	7261                	lui	tp,0xffff8
 d50:	2074                	fld	fa3,192(s0)
 d52:	3145                	jal	9f2 <STACK_SIZE+0x5f2>
 d54:	2d20                	fld	fs0,88(a0)
 d56:	7420                	flw	fs0,104(s0)
 d58:	7365                	lui	t1,0xffff9
 d5a:	2074                	fld	fa3,192(s0)
 d5c:	726f7473          	csrrci	s0,0x726,30
 d60:	2065                	jal	e08 <end_signature+0x2f8>
 d62:	68746977          	0x68746977
 d66:	7320                	flw	fs0,96(a4)
 d68:	6d61                	lui	s10,0x18
 d6a:	2065                	jal	e12 <end_signature+0x302>
 d6c:	6162                	flw	ft2,24(sp)
 d6e:	61206573          	csrrsi	a0,0x612,0
 d72:	646e                	flw	fs0,216(sp)
 d74:	6420                	flw	fs0,72(s0)
 d76:	7365                	lui	t1,0xffff9
 d78:	6974                	flw	fa3,84(a0)
 d7a:	616e                	flw	ft2,216(sp)
 d7c:	6974                	flw	fa3,84(a0)
 d7e:	61206e6f          	jal	t3,7390 <__global_pointer$+0x5d08>
 d82:	6464                	flw	fs1,76(s0)
 d84:	6572                	flw	fa0,28(sp)
 d86:	000a7373          	csrrci	t1,0x0,20
 d8a:	65542023          	sw	s5,1600(s0)
 d8e:	70207473          	csrrci	s0,0x702,0
 d92:	7261                	lui	tp,0xffff8
 d94:	2074                	fld	fa3,192(s0)
 d96:	2045                	jal	e36 <end_signature+0x326>
 d98:	2d20                	fld	fs0,88(a0)
 d9a:	4320                	lw	s0,64(a4)
 d9c:	6c706d6f          	jal	s10,7c62 <__global_pointer$+0x65da>
 da0:	7465                	lui	s0,0xffff9
 da2:	0a65                	addi	s4,s4,25
 da4:	2300                	fld	fs0,0(a4)
 da6:	5420                	lw	s0,104(s0)
 da8:	7365                	lui	t1,0xffff9
 daa:	2074                	fld	fa3,192(s0)
 dac:	6170                	flw	fa2,68(a0)
 dae:	7472                	flw	fs0,60(sp)
 db0:	4520                	lw	s0,72(a0)
 db2:	2032                	fld	ft0,264(sp)
 db4:	202d                	jal	dde <end_signature+0x2ce>
 db6:	6574                	flw	fa3,76(a0)
 db8:	73207473          	csrrci	s0,0x732,0
 dbc:	6f74                	flw	fa3,92(a4)
 dbe:	6572                	flw	fa0,28(sp)
 dc0:	7720                	flw	fs0,104(a4)
 dc2:	7469                	lui	s0,0xffffa
 dc4:	2068                	fld	fa0,192(s0)
 dc6:	656d6173          	csrrsi	sp,0x656,26
 dca:	6220                	flw	fs0,64(a2)
 dcc:	7361                	lui	t1,0xffff8
 dce:	2065                	jal	e76 <tohost+0x36>
 dd0:	6e61                	lui	t3,0x18
 dd2:	2064                	fld	fs1,192(s0)
 dd4:	6564                	flw	fs1,76(a0)
 dd6:	6e697473          	csrrci	s0,0x6e6,18
 dda:	7461                	lui	s0,0xffff8
 ddc:	6f69                	lui	t5,0x1a
 dde:	206e                	fld	ft0,216(sp)
 de0:	6461                	lui	s0,0x18
 de2:	7264                	flw	fs1,100(a2)
 de4:	7365                	lui	t1,0xffff9
 de6:	62202c73          	csrr	s8,0x622
 dea:	7361                	lui	t1,0xffff8
 dec:	2065                	jal	e94 <fromhost+0x14>
 dee:	68746977          	0x68746977
 df2:	6f20                	flw	fs0,88(a4)
 df4:	6666                	flw	fa2,88(sp)
 df6:	0a746573          	csrrsi	a0,0xa7,8
 dfa:	2300                	fld	fs0,0(a4)
 dfc:	5420                	lw	s0,104(s0)
 dfe:	7365                	lui	t1,0xffff9
 e00:	2074                	fld	fa3,192(s0)
 e02:	6170                	flw	fa2,68(a0)
 e04:	7472                	flw	fs0,60(sp)
 e06:	4120                	lw	s0,64(a0)
 e08:	2031                	jal	e14 <end_signature+0x304>
 e0a:	2d20                	fld	fs0,88(a0)
 e0c:	4320                	lw	s0,64(a4)
 e0e:	6c706d6f          	jal	s10,7cd4 <__global_pointer$+0x664c>
 e12:	7465                	lui	s0,0xffff9
 e14:	0a65                	addi	s4,s4,25
 e16:	2300                	fld	fs0,0(a4)
 e18:	5420                	lw	s0,104(s0)
 e1a:	7365                	lui	t1,0xffff9
 e1c:	2074                	fld	fa3,192(s0)
 e1e:	6e45                	lui	t3,0x11
 e20:	0a64                	addi	s1,sp,284
	...

Дизассемблирование раздела .tohost:

00000e40 <tohost>:
	...

00000e80 <fromhost>:
	...

Дизассемблирование раздела .sdata:

00000e88 <__global_pointer$-0x800>:
	...

Дизассемблирование раздела .stack:

0000fc00 <.stack>:
	...
