
/home/oleg/scr1/build/verilator_wf_AHB_IMC/compliance_sb.elf:     формат файла elf32-littleriscv
/home/oleg/scr1/build/verilator_wf_AHB_IMC/compliance_sb.elf
архитектура: riscv:rv32, флаги 0x00000112:
EXEC_P, HAS_SYMS, D_PAGED
начальный адрес 0x00000200

Заголовок программы:
    LOAD off    0x00001000 vaddr 0x00000000 paddr 0x00000000 align 2**12
         filesz 0x00000948 memsz 0x00000960 flags rwx
    LOAD off    0x00001c00 vaddr 0x0000fc00 paddr 0x0000fc00 align 2**12
         filesz 0x00000000 memsz 0x00000400 flags rw-

Разделы:
Idx Name          Size      VMA       LMA       File off  Algn  Флаги
  0 .text.init    00000284  00000000  00000000  00001000  2**6  CONTENTS, ALLOC, LOAD, READONLY, CODE
  1 .text         00000560  000002a0  000002a0  000012a0  2**5  CONTENTS, ALLOC, LOAD, READONLY, CODE
  2 .data         000000e0  00000800  00000800  00001800  2**4  CONTENTS, ALLOC, LOAD, DATA
  3 .tohost       00000048  00000900  00000900  00001900  2**6  CONTENTS, ALLOC, LOAD, DATA
  4 .sdata        00000018  00000948  00000948  00001948  2**0  ALLOC
  5 .tdata        00000000  00000960  00000960  00001948  2**0  CONTENTS, ALLOC, LOAD, DATA, THREAD_LOCAL
  6 .tbss         00000000  00000960  00000960  00000000  2**0  ALLOC, THREAD_LOCAL
  7 .bss          00000000  00000960  00000960  00001948  2**0  ALLOC
  8 .stack        00000400  0000fc00  0000fc00  00001c00  2**0  ALLOC
SYMBOL TABLE:
00000000 l    d  .text.init	00000000 .text.init
000002a0 l    d  .text	00000000 .text
00000800 l    d  .data	00000000 .data
00000900 l    d  .tohost	00000000 .tohost
00000948 l    d  .sdata	00000000 .sdata
00000960 l    d  .tdata	00000000 .tdata
00000960 l    d  .tbss	00000000 .tbss
00000960 l    d  .bss	00000000 .bss
0000fc00 l    d  .stack	00000000 .stack
00000000 l    df *ABS*	00000000 /home/oleg/scr1/build/verilator_wf_AHB_IMC/riscv_compliance/riscv_compliance_objs/sb.o
000007c0 l       .text	00000000 sc_exit
000001c0 l       .text.init	00000000 trap_vector
000001fc l       .text.init	00000000 _report
000001f8 l       .text.init	00000000 handle_exception
000001f8 l       .text.init	00000000 other_exception
000002a0 l       .text	00000000 _run_test
000002a0 l       .text	00000000 test_2
00000800 l       .data	00000000 tdat
00000830 l       .data	00000000 test_res
0000079c l       .text	00000000 fail
000002cc l       .text	00000000 test_3
000002f8 l       .text	00000000 test_4
0000032c l       .text	00000000 test_5
00000358 l       .text	00000000 test_6
00000807 l       .data	00000000 tdat8
00000384 l       .text	00000000 test_7
000003b0 l       .text	00000000 test_8
000003dc l       .text	00000000 test_9
00000408 l       .text	00000000 test_10
00000808 l       .data	00000000 tdat9
0000043c l       .text	00000000 test_11
00000809 l       .data	00000000 tdat10
00000478 l       .text	00000000 test_12
000004b4 l       .text	00000000 test_13
000004f4 l       .text	00000000 test_14
00000538 l       .text	00000000 test_15
00000578 l       .text	00000000 test_16
000005bc l       .text	00000000 test_17
00000600 l       .text	00000000 test_18
0000063c l       .text	00000000 test_19
0000067c l       .text	00000000 test_20
000006c0 l       .text	00000000 test_21
00000700 l       .text	00000000 test_22
00000744 l       .text	00000000 test_23
000007ac l       .text	00000000 pass
000007bc l       .text	00000000 ecall
00000800 l       .data	00000000 tdat1
00000801 l       .data	00000000 tdat2
00000802 l       .data	00000000 tdat3
00000803 l       .data	00000000 tdat4
00000804 l       .data	00000000 tdat5
00000805 l       .data	00000000 tdat6
00000806 l       .data	00000000 tdat7
00000400 g       *ABS*	00000000 STACK_SIZE
00001148 g       .sdata	00000000 __global_pointer$
000008d0 g       .data	00000000 end_signature
00000810 g       .data	00000000 begin_regstate
00000830 g       .data	00000000 begin_signature
00000200 g       .text.init	00000000 _start
00000020 g       *ABS*	00000000 CL_SIZE
000000f8 g       .text.init	00000000 SIM_STOP
00000960 g       .bss	00000000 _end
00000940 g       .tohost	00000000 fromhost
00000900 g       .tohost	00000000 tohost
000000f4 g       .text.init	00000000 SIM_EXIT



Дизассемблирование раздела .text.init:

00000000 <SIM_EXIT-0xf4>:
	...

000000f4 <SIM_EXIT>:
  f4:	00000013          	nop

000000f8 <SIM_STOP>:
  f8:	0000006f          	j	f8 <SIM_STOP>
  fc:	ffff                	0xffff
  fe:	ffff                	0xffff
	...

000001c0 <trap_vector>:
 1c0:	34202773          	csrr	a4,mcause
 1c4:	00800793          	li	a5,8
 1c8:	02f70a63          	beq	a4,a5,1fc <_report>
 1cc:	00900793          	li	a5,9
 1d0:	02f70663          	beq	a4,a5,1fc <_report>
 1d4:	00b00793          	li	a5,11
 1d8:	02f70263          	beq	a4,a5,1fc <_report>
 1dc:	00000717          	auipc	a4,0x0
 1e0:	e2470713          	addi	a4,a4,-476 # 0 <CL_SIZE-0x20>
 1e4:	00070463          	beqz	a4,1ec <trap_vector+0x2c>
 1e8:	00070067          	jr	a4
 1ec:	34202773          	csrr	a4,mcause
 1f0:	00075463          	bgez	a4,1f8 <handle_exception>
 1f4:	0040006f          	j	1f8 <handle_exception>

000001f8 <handle_exception>:
 1f8:	00100513          	li	a0,1

000001fc <_report>:
 1fc:	5c40006f          	j	7c0 <sc_exit>

00000200 <_start>:
 200:	f1402573          	csrr	a0,mhartid
 204:	00051063          	bnez	a0,204 <_start+0x4>
 208:	00000193          	li	gp,0
 20c:	00000297          	auipc	t0,0x0
 210:	fb428293          	addi	t0,t0,-76 # 1c0 <trap_vector>
 214:	30529073          	csrw	mtvec,t0
 218:	00100513          	li	a0,1
 21c:	01f51513          	slli	a0,a0,0x1f
 220:	00054a63          	bltz	a0,234 <_start+0x34>
 224:	0ff0000f          	fence
 228:	00018593          	mv	a1,gp
 22c:	00000513          	li	a0,0
 230:	00000073          	ecall
 234:	01f55513          	srli	a0,a0,0x1f
 238:	00000297          	auipc	t0,0x0
 23c:	5f828293          	addi	t0,t0,1528 # 830 <begin_signature>
 240:	00a2a023          	sw	a0,0(t0)
 244:	00000297          	auipc	t0,0x0
 248:	dbc28293          	addi	t0,t0,-580 # 0 <CL_SIZE-0x20>
 24c:	00028e63          	beqz	t0,268 <_start+0x68>
 250:	10529073          	csrw	stvec,t0
 254:	0000b2b7          	lui	t0,0xb
 258:	10928293          	addi	t0,t0,265 # b109 <__global_pointer$+0x9fc1>
 25c:	30229073          	csrw	medeleg,t0
 260:	30202373          	csrr	t1,medeleg
 264:	f8629ae3          	bne	t0,t1,1f8 <handle_exception>
 268:	30005073          	csrwi	mstatus,0
 26c:	00000297          	auipc	t0,0x0
 270:	03428293          	addi	t0,t0,52 # 2a0 <_run_test>
 274:	34129073          	csrw	mepc,t0
 278:	f1402573          	csrr	a0,mhartid
 27c:	30200073          	mret
 280:	0000                	unimp
	...

Дизассемблирование раздела .text:

000002a0 <_run_test>:
 2a0:	00000097          	auipc	ra,0x0
 2a4:	56008093          	addi	ra,ra,1376 # 800 <tdat>
 2a8:	faa00113          	li	sp,-86
 2ac:	00208023          	sb	sp,0(ra)
 2b0:	00008f03          	lb	t5,0(ra)
 2b4:	faa00e93          	li	t4,-86
 2b8:	00200193          	li	gp,2
 2bc:	00000e17          	auipc	t3,0x0
 2c0:	574e0e13          	addi	t3,t3,1396 # 830 <begin_signature>
 2c4:	01ee2423          	sw	t5,8(t3)
 2c8:	4ddf1a63          	bne	t5,t4,79c <fail>

000002cc <test_3>:
 2cc:	00000097          	auipc	ra,0x0
 2d0:	53408093          	addi	ra,ra,1332 # 800 <tdat>
 2d4:	00000113          	li	sp,0
 2d8:	002080a3          	sb	sp,1(ra)
 2dc:	00108f03          	lb	t5,1(ra)
 2e0:	00000e93          	li	t4,0
 2e4:	00300193          	li	gp,3
 2e8:	00000e17          	auipc	t3,0x0
 2ec:	548e0e13          	addi	t3,t3,1352 # 830 <begin_signature>
 2f0:	01ee2623          	sw	t5,12(t3)
 2f4:	4bdf1463          	bne	t5,t4,79c <fail>

000002f8 <test_4>:
 2f8:	00000097          	auipc	ra,0x0
 2fc:	50808093          	addi	ra,ra,1288 # 800 <tdat>
 300:	fffff137          	lui	sp,0xfffff
 304:	fa010113          	addi	sp,sp,-96 # ffffefa0 <__global_pointer$+0xffffde58>
 308:	00208123          	sb	sp,2(ra)
 30c:	00209f03          	lh	t5,2(ra)
 310:	fffffeb7          	lui	t4,0xfffff
 314:	fa0e8e93          	addi	t4,t4,-96 # ffffefa0 <__global_pointer$+0xffffde58>
 318:	00400193          	li	gp,4
 31c:	00000e17          	auipc	t3,0x0
 320:	514e0e13          	addi	t3,t3,1300 # 830 <begin_signature>
 324:	01ee2823          	sw	t5,16(t3)
 328:	47df1a63          	bne	t5,t4,79c <fail>

0000032c <test_5>:
 32c:	00000097          	auipc	ra,0x0
 330:	4d408093          	addi	ra,ra,1236 # 800 <tdat>
 334:	00a00113          	li	sp,10
 338:	002081a3          	sb	sp,3(ra)
 33c:	00308f03          	lb	t5,3(ra)
 340:	00a00e93          	li	t4,10
 344:	00500193          	li	gp,5
 348:	00000e17          	auipc	t3,0x0
 34c:	4e8e0e13          	addi	t3,t3,1256 # 830 <begin_signature>
 350:	01ee2a23          	sw	t5,20(t3)
 354:	45df1463          	bne	t5,t4,79c <fail>

00000358 <test_6>:
 358:	00000097          	auipc	ra,0x0
 35c:	4af08093          	addi	ra,ra,1199 # 807 <tdat8>
 360:	faa00113          	li	sp,-86
 364:	fe208ea3          	sb	sp,-3(ra)
 368:	ffd08f03          	lb	t5,-3(ra)
 36c:	faa00e93          	li	t4,-86
 370:	00600193          	li	gp,6
 374:	00000e17          	auipc	t3,0x0
 378:	4bce0e13          	addi	t3,t3,1212 # 830 <begin_signature>
 37c:	01ee2c23          	sw	t5,24(t3)
 380:	41df1e63          	bne	t5,t4,79c <fail>

00000384 <test_7>:
 384:	00000097          	auipc	ra,0x0
 388:	48308093          	addi	ra,ra,1155 # 807 <tdat8>
 38c:	00000113          	li	sp,0
 390:	fe208f23          	sb	sp,-2(ra)
 394:	ffe08f03          	lb	t5,-2(ra)
 398:	00000e93          	li	t4,0
 39c:	00700193          	li	gp,7
 3a0:	00000e17          	auipc	t3,0x0
 3a4:	490e0e13          	addi	t3,t3,1168 # 830 <begin_signature>
 3a8:	01ee2e23          	sw	t5,28(t3)
 3ac:	3fdf1863          	bne	t5,t4,79c <fail>

000003b0 <test_8>:
 3b0:	00000097          	auipc	ra,0x0
 3b4:	45708093          	addi	ra,ra,1111 # 807 <tdat8>
 3b8:	fa000113          	li	sp,-96
 3bc:	fe208fa3          	sb	sp,-1(ra)
 3c0:	fff08f03          	lb	t5,-1(ra)
 3c4:	fa000e93          	li	t4,-96
 3c8:	00800193          	li	gp,8
 3cc:	00000e17          	auipc	t3,0x0
 3d0:	464e0e13          	addi	t3,t3,1124 # 830 <begin_signature>
 3d4:	03ee2023          	sw	t5,32(t3)
 3d8:	3ddf1263          	bne	t5,t4,79c <fail>

000003dc <test_9>:
 3dc:	00000097          	auipc	ra,0x0
 3e0:	42b08093          	addi	ra,ra,1067 # 807 <tdat8>
 3e4:	00a00113          	li	sp,10
 3e8:	00208023          	sb	sp,0(ra)
 3ec:	00008f03          	lb	t5,0(ra)
 3f0:	00a00e93          	li	t4,10
 3f4:	00900193          	li	gp,9
 3f8:	00000e17          	auipc	t3,0x0
 3fc:	438e0e13          	addi	t3,t3,1080 # 830 <begin_signature>
 400:	03ee2223          	sw	t5,36(t3)
 404:	39df1c63          	bne	t5,t4,79c <fail>

00000408 <test_10>:
 408:	00000097          	auipc	ra,0x0
 40c:	40008093          	addi	ra,ra,1024 # 808 <tdat9>
 410:	12345137          	lui	sp,0x12345
 414:	67810113          	addi	sp,sp,1656 # 12345678 <__global_pointer$+0x12344530>
 418:	fe008213          	addi	tp,ra,-32
 41c:	02220023          	sb	sp,32(tp) # 20 <CL_SIZE>
 420:	00008283          	lb	t0,0(ra)
 424:	07800e93          	li	t4,120
 428:	00a00193          	li	gp,10
 42c:	00000e17          	auipc	t3,0x0
 430:	404e0e13          	addi	t3,t3,1028 # 830 <begin_signature>
 434:	025e2423          	sw	t0,40(t3)
 438:	37d29263          	bne	t0,t4,79c <fail>

0000043c <test_11>:
 43c:	00000097          	auipc	ra,0x0
 440:	3cc08093          	addi	ra,ra,972 # 808 <tdat9>
 444:	00003137          	lui	sp,0x3
 448:	09810113          	addi	sp,sp,152 # 3098 <__global_pointer$+0x1f50>
 44c:	ffa08093          	addi	ra,ra,-6
 450:	002083a3          	sb	sp,7(ra)
 454:	00000217          	auipc	tp,0x0
 458:	3b520213          	addi	tp,tp,949 # 809 <tdat10>
 45c:	00020283          	lb	t0,0(tp) # 0 <CL_SIZE-0x20>
 460:	f9800e93          	li	t4,-104
 464:	00b00193          	li	gp,11
 468:	00000e17          	auipc	t3,0x0
 46c:	3c8e0e13          	addi	t3,t3,968 # 830 <begin_signature>
 470:	025e2623          	sw	t0,44(t3)
 474:	33d29463          	bne	t0,t4,79c <fail>

00000478 <test_12>:
 478:	00c00193          	li	gp,12
 47c:	00000e17          	auipc	t3,0x0
 480:	3b4e0e13          	addi	t3,t3,948 # 830 <begin_signature>
 484:	023e2823          	sw	gp,48(t3)
 488:	00000213          	li	tp,0
 48c:	fdd00093          	li	ra,-35
 490:	00000117          	auipc	sp,0x0
 494:	37010113          	addi	sp,sp,880 # 800 <tdat>
 498:	00110023          	sb	ra,0(sp)
 49c:	00010f03          	lb	t5,0(sp)
 4a0:	fdd00e93          	li	t4,-35
 4a4:	2fdf1c63          	bne	t5,t4,79c <fail>
 4a8:	00120213          	addi	tp,tp,1 # 1 <CL_SIZE-0x1f>
 4ac:	00200293          	li	t0,2
 4b0:	fc521ee3          	bne	tp,t0,48c <test_12+0x14>

000004b4 <test_13>:
 4b4:	00d00193          	li	gp,13
 4b8:	00000e17          	auipc	t3,0x0
 4bc:	378e0e13          	addi	t3,t3,888 # 830 <begin_signature>
 4c0:	023e2a23          	sw	gp,52(t3)
 4c4:	00000213          	li	tp,0
 4c8:	fcd00093          	li	ra,-51
 4cc:	00000117          	auipc	sp,0x0
 4d0:	33410113          	addi	sp,sp,820 # 800 <tdat>
 4d4:	00000013          	nop
 4d8:	001100a3          	sb	ra,1(sp)
 4dc:	00110f03          	lb	t5,1(sp)
 4e0:	fcd00e93          	li	t4,-51
 4e4:	2bdf1c63          	bne	t5,t4,79c <fail>
 4e8:	00120213          	addi	tp,tp,1 # 1 <CL_SIZE-0x1f>
 4ec:	00200293          	li	t0,2
 4f0:	fc521ce3          	bne	tp,t0,4c8 <test_13+0x14>

000004f4 <test_14>:
 4f4:	00e00193          	li	gp,14
 4f8:	00000e17          	auipc	t3,0x0
 4fc:	338e0e13          	addi	t3,t3,824 # 830 <begin_signature>
 500:	023e2c23          	sw	gp,56(t3)
 504:	00000213          	li	tp,0
 508:	fcc00093          	li	ra,-52
 50c:	00000117          	auipc	sp,0x0
 510:	2f410113          	addi	sp,sp,756 # 800 <tdat>
 514:	00000013          	nop
 518:	00000013          	nop
 51c:	00110123          	sb	ra,2(sp)
 520:	00210f03          	lb	t5,2(sp)
 524:	fcc00e93          	li	t4,-52
 528:	27df1a63          	bne	t5,t4,79c <fail>
 52c:	00120213          	addi	tp,tp,1 # 1 <CL_SIZE-0x1f>
 530:	00200293          	li	t0,2
 534:	fc521ae3          	bne	tp,t0,508 <test_14+0x14>

00000538 <test_15>:
 538:	00f00193          	li	gp,15
 53c:	00000e17          	auipc	t3,0x0
 540:	2f4e0e13          	addi	t3,t3,756 # 830 <begin_signature>
 544:	023e2e23          	sw	gp,60(t3)
 548:	00000213          	li	tp,0
 54c:	fbc00093          	li	ra,-68
 550:	00000013          	nop
 554:	00000117          	auipc	sp,0x0
 558:	2ac10113          	addi	sp,sp,684 # 800 <tdat>
 55c:	001101a3          	sb	ra,3(sp)
 560:	00310f03          	lb	t5,3(sp)
 564:	fbc00e93          	li	t4,-68
 568:	23df1a63          	bne	t5,t4,79c <fail>
 56c:	00120213          	addi	tp,tp,1 # 1 <CL_SIZE-0x1f>
 570:	00200293          	li	t0,2
 574:	fc521ce3          	bne	tp,t0,54c <test_15+0x14>

00000578 <test_16>:
 578:	01000193          	li	gp,16
 57c:	00000e17          	auipc	t3,0x0
 580:	2b4e0e13          	addi	t3,t3,692 # 830 <begin_signature>
 584:	043e2023          	sw	gp,64(t3)
 588:	00000213          	li	tp,0
 58c:	fbb00093          	li	ra,-69
 590:	00000013          	nop
 594:	00000117          	auipc	sp,0x0
 598:	26c10113          	addi	sp,sp,620 # 800 <tdat>
 59c:	00000013          	nop
 5a0:	00110223          	sb	ra,4(sp)
 5a4:	00410f03          	lb	t5,4(sp)
 5a8:	fbb00e93          	li	t4,-69
 5ac:	1fdf1863          	bne	t5,t4,79c <fail>
 5b0:	00120213          	addi	tp,tp,1 # 1 <CL_SIZE-0x1f>
 5b4:	00200293          	li	t0,2
 5b8:	fc521ae3          	bne	tp,t0,58c <test_16+0x14>

000005bc <test_17>:
 5bc:	01100193          	li	gp,17
 5c0:	00000e17          	auipc	t3,0x0
 5c4:	270e0e13          	addi	t3,t3,624 # 830 <begin_signature>
 5c8:	043e2223          	sw	gp,68(t3)
 5cc:	00000213          	li	tp,0
 5d0:	fab00093          	li	ra,-85
 5d4:	00000013          	nop
 5d8:	00000013          	nop
 5dc:	00000117          	auipc	sp,0x0
 5e0:	22410113          	addi	sp,sp,548 # 800 <tdat>
 5e4:	001102a3          	sb	ra,5(sp)
 5e8:	00510f03          	lb	t5,5(sp)
 5ec:	fab00e93          	li	t4,-85
 5f0:	1bdf1663          	bne	t5,t4,79c <fail>
 5f4:	00120213          	addi	tp,tp,1 # 1 <CL_SIZE-0x1f>
 5f8:	00200293          	li	t0,2
 5fc:	fc521ae3          	bne	tp,t0,5d0 <test_17+0x14>

00000600 <test_18>:
 600:	01200193          	li	gp,18
 604:	00000e17          	auipc	t3,0x0
 608:	22ce0e13          	addi	t3,t3,556 # 830 <begin_signature>
 60c:	043e2423          	sw	gp,72(t3)
 610:	00000213          	li	tp,0
 614:	00000117          	auipc	sp,0x0
 618:	1ec10113          	addi	sp,sp,492 # 800 <tdat>
 61c:	03300093          	li	ra,51
 620:	00110023          	sb	ra,0(sp)
 624:	00010f03          	lb	t5,0(sp)
 628:	03300e93          	li	t4,51
 62c:	17df1863          	bne	t5,t4,79c <fail>
 630:	00120213          	addi	tp,tp,1 # 1 <CL_SIZE-0x1f>
 634:	00200293          	li	t0,2
 638:	fc521ee3          	bne	tp,t0,614 <test_18+0x14>

0000063c <test_19>:
 63c:	01300193          	li	gp,19
 640:	00000e17          	auipc	t3,0x0
 644:	1f0e0e13          	addi	t3,t3,496 # 830 <begin_signature>
 648:	043e2623          	sw	gp,76(t3)
 64c:	00000213          	li	tp,0
 650:	00000117          	auipc	sp,0x0
 654:	1b010113          	addi	sp,sp,432 # 800 <tdat>
 658:	02300093          	li	ra,35
 65c:	00000013          	nop
 660:	001100a3          	sb	ra,1(sp)
 664:	00110f03          	lb	t5,1(sp)
 668:	02300e93          	li	t4,35
 66c:	13df1863          	bne	t5,t4,79c <fail>
 670:	00120213          	addi	tp,tp,1 # 1 <CL_SIZE-0x1f>
 674:	00200293          	li	t0,2
 678:	fc521ce3          	bne	tp,t0,650 <test_19+0x14>

0000067c <test_20>:
 67c:	01400193          	li	gp,20
 680:	00000e17          	auipc	t3,0x0
 684:	1b0e0e13          	addi	t3,t3,432 # 830 <begin_signature>
 688:	043e2823          	sw	gp,80(t3)
 68c:	00000213          	li	tp,0
 690:	00000117          	auipc	sp,0x0
 694:	17010113          	addi	sp,sp,368 # 800 <tdat>
 698:	02200093          	li	ra,34
 69c:	00000013          	nop
 6a0:	00000013          	nop
 6a4:	00110123          	sb	ra,2(sp)
 6a8:	00210f03          	lb	t5,2(sp)
 6ac:	02200e93          	li	t4,34
 6b0:	0fdf1663          	bne	t5,t4,79c <fail>
 6b4:	00120213          	addi	tp,tp,1 # 1 <CL_SIZE-0x1f>
 6b8:	00200293          	li	t0,2
 6bc:	fc521ae3          	bne	tp,t0,690 <test_20+0x14>

000006c0 <test_21>:
 6c0:	01500193          	li	gp,21
 6c4:	00000e17          	auipc	t3,0x0
 6c8:	16ce0e13          	addi	t3,t3,364 # 830 <begin_signature>
 6cc:	043e2a23          	sw	gp,84(t3)
 6d0:	00000213          	li	tp,0
 6d4:	00000117          	auipc	sp,0x0
 6d8:	12c10113          	addi	sp,sp,300 # 800 <tdat>
 6dc:	00000013          	nop
 6e0:	01200093          	li	ra,18
 6e4:	001101a3          	sb	ra,3(sp)
 6e8:	00310f03          	lb	t5,3(sp)
 6ec:	01200e93          	li	t4,18
 6f0:	0bdf1663          	bne	t5,t4,79c <fail>
 6f4:	00120213          	addi	tp,tp,1 # 1 <CL_SIZE-0x1f>
 6f8:	00200293          	li	t0,2
 6fc:	fc521ce3          	bne	tp,t0,6d4 <test_21+0x14>

00000700 <test_22>:
 700:	01600193          	li	gp,22
 704:	00000e17          	auipc	t3,0x0
 708:	12ce0e13          	addi	t3,t3,300 # 830 <begin_signature>
 70c:	043e2c23          	sw	gp,88(t3)
 710:	00000213          	li	tp,0
 714:	00000117          	auipc	sp,0x0
 718:	0ec10113          	addi	sp,sp,236 # 800 <tdat>
 71c:	00000013          	nop
 720:	01100093          	li	ra,17
 724:	00000013          	nop
 728:	00110223          	sb	ra,4(sp)
 72c:	00410f03          	lb	t5,4(sp)
 730:	01100e93          	li	t4,17
 734:	07df1463          	bne	t5,t4,79c <fail>
 738:	00120213          	addi	tp,tp,1 # 1 <CL_SIZE-0x1f>
 73c:	00200293          	li	t0,2
 740:	fc521ae3          	bne	tp,t0,714 <test_22+0x14>

00000744 <test_23>:
 744:	01700193          	li	gp,23
 748:	00000e17          	auipc	t3,0x0
 74c:	0e8e0e13          	addi	t3,t3,232 # 830 <begin_signature>
 750:	043e2e23          	sw	gp,92(t3)
 754:	00000213          	li	tp,0
 758:	00000117          	auipc	sp,0x0
 75c:	0a810113          	addi	sp,sp,168 # 800 <tdat>
 760:	00000013          	nop
 764:	00000013          	nop
 768:	00100093          	li	ra,1
 76c:	001102a3          	sb	ra,5(sp)
 770:	00510f03          	lb	t5,5(sp)
 774:	00100e93          	li	t4,1
 778:	03df1263          	bne	t5,t4,79c <fail>
 77c:	00120213          	addi	tp,tp,1 # 1 <CL_SIZE-0x1f>
 780:	00200293          	li	t0,2
 784:	fc521ae3          	bne	tp,t0,758 <test_23+0x14>
 788:	0ef00513          	li	a0,239
 78c:	00000597          	auipc	a1,0x0
 790:	07458593          	addi	a1,a1,116 # 800 <tdat>
 794:	00a581a3          	sb	a0,3(a1)
 798:	00301a63          	bne	zero,gp,7ac <pass>

0000079c <fail>:
 79c:	0ff0000f          	fence
 7a0:	00018593          	mv	a1,gp
 7a4:	00100513          	li	a0,1
 7a8:	00000073          	ecall

000007ac <pass>:
 7ac:	0ff0000f          	fence
 7b0:	00018593          	mv	a1,gp
 7b4:	00000513          	li	a0,0
 7b8:	00000073          	ecall

000007bc <ecall>:
 7bc:	00000073          	ecall

000007c0 <sc_exit>:
 7c0:	935ff06f          	j	f4 <SIM_EXIT>
 7c4:	00000013          	nop
 7c8:	00000013          	nop
 7cc:	00000013          	nop
 7d0:	00000013          	nop
 7d4:	00000013          	nop
 7d8:	00000013          	nop
 7dc:	00000013          	nop
	...

Дизассемблирование раздела .data:

00000800 <tdat>:
 800:	          	jal	t6,ffffeefe <__global_pointer$+0xffffddb6>

00000801 <tdat2>:
 801:	          	jal	t6,ffffeeff <__global_pointer$+0xffffddb7>

00000802 <tdat3>:
 802:	          	jal	t6,ffffef00 <__global_pointer$+0xffffddb8>

00000803 <tdat4>:
 803:	          	jal	t6,ffffef01 <__global_pointer$+0xffffddb9>

00000804 <tdat5>:
 804:	          	jal	t6,ffffef02 <__global_pointer$+0xffffddba>

00000805 <tdat6>:
 805:	          	jal	t6,ffffef03 <__global_pointer$+0xffffddbb>

00000806 <tdat7>:
 806:	          	jal	t6,ffffef04 <__global_pointer$+0xffffddbc>

00000807 <tdat8>:
 807:	          	jal	t6,fe815 <__global_pointer$+0xfd6cd>

00000808 <tdat9>:
 808:	          	jal	t6,e808 <__global_pointer$+0xd6c0>

00000809 <tdat10>:
 809:	000000ef          	jal	ra,809 <tdat10>
 80d:	0000                	unimp
	...

00000810 <begin_regstate>:
	...

00000830 <begin_signature>:
 830:	ffff                	0xffff
 832:	ffff                	0xffff
 834:	ffff                	0xffff
 836:	ffff                	0xffff
 838:	ffff                	0xffff
 83a:	ffff                	0xffff
 83c:	ffff                	0xffff
 83e:	ffff                	0xffff
 840:	ffff                	0xffff
 842:	ffff                	0xffff
 844:	ffff                	0xffff
 846:	ffff                	0xffff
 848:	ffff                	0xffff
 84a:	ffff                	0xffff
 84c:	ffff                	0xffff
 84e:	ffff                	0xffff
 850:	ffff                	0xffff
 852:	ffff                	0xffff
 854:	ffff                	0xffff
 856:	ffff                	0xffff
 858:	ffff                	0xffff
 85a:	ffff                	0xffff
 85c:	ffff                	0xffff
 85e:	ffff                	0xffff
 860:	ffff                	0xffff
 862:	ffff                	0xffff
 864:	ffff                	0xffff
 866:	ffff                	0xffff
 868:	ffff                	0xffff
 86a:	ffff                	0xffff
 86c:	ffff                	0xffff
 86e:	ffff                	0xffff
 870:	ffff                	0xffff
 872:	ffff                	0xffff
 874:	ffff                	0xffff
 876:	ffff                	0xffff
 878:	ffff                	0xffff
 87a:	ffff                	0xffff
 87c:	ffff                	0xffff
 87e:	ffff                	0xffff
 880:	ffff                	0xffff
 882:	ffff                	0xffff
 884:	ffff                	0xffff
 886:	ffff                	0xffff
 888:	ffff                	0xffff
 88a:	ffff                	0xffff
 88c:	ffff                	0xffff
 88e:	ffff                	0xffff
 890:	ffff                	0xffff
 892:	ffff                	0xffff
 894:	ffff                	0xffff
 896:	ffff                	0xffff
 898:	ffff                	0xffff
 89a:	ffff                	0xffff
 89c:	ffff                	0xffff
 89e:	ffff                	0xffff
 8a0:	ffff                	0xffff
 8a2:	ffff                	0xffff
 8a4:	ffff                	0xffff
 8a6:	ffff                	0xffff
 8a8:	ffff                	0xffff
 8aa:	ffff                	0xffff
 8ac:	ffff                	0xffff
 8ae:	ffff                	0xffff
 8b0:	ffff                	0xffff
 8b2:	ffff                	0xffff
 8b4:	ffff                	0xffff
 8b6:	ffff                	0xffff
 8b8:	ffff                	0xffff
 8ba:	ffff                	0xffff
 8bc:	ffff                	0xffff
 8be:	ffff                	0xffff
 8c0:	ffff                	0xffff
 8c2:	ffff                	0xffff
 8c4:	ffff                	0xffff
 8c6:	ffff                	0xffff
 8c8:	ffff                	0xffff
 8ca:	ffff                	0xffff
 8cc:	ffff                	0xffff
 8ce:	ffff                	0xffff

000008d0 <end_signature>:
	...

Дизассемблирование раздела .tohost:

00000900 <tohost>:
	...

00000940 <fromhost>:
	...

Дизассемблирование раздела .sdata:

00000948 <__global_pointer$-0x800>:
	...

Дизассемблирование раздела .stack:

0000fc00 <.stack>:
	...
