
/home/oleg/scr1/build/verilator_wf_AHB_IMC/compliance_C-AND.elf:     формат файла elf32-littleriscv
/home/oleg/scr1/build/verilator_wf_AHB_IMC/compliance_C-AND.elf
архитектура: riscv:rv32, флаги 0x00000112:
EXEC_P, HAS_SYMS, D_PAGED
начальный адрес 0x00000200

Заголовок программы:
    LOAD off    0x00001000 vaddr 0x00000000 paddr 0x00000000 align 2**12
         filesz 0x000007c8 memsz 0x000007e0 flags rwx
    LOAD off    0x00001c00 vaddr 0x0000fc00 paddr 0x0000fc00 align 2**12
         filesz 0x00000000 memsz 0x00000400 flags rw-

Разделы:
Idx Name          Size      VMA       LMA       File off  Algn  Флаги
  0 .text.init    00000292  00000000  00000000  00001000  2**6  CONTENTS, ALLOC, LOAD, READONLY, CODE
  1 .text         00000360  000002a0  000002a0  000012a0  2**5  CONTENTS, ALLOC, LOAD, READONLY, CODE
  2 .data         00000180  00000600  00000600  00001600  2**4  CONTENTS, ALLOC, LOAD, DATA
  3 .tohost       00000048  00000780  00000780  00001780  2**6  CONTENTS, ALLOC, LOAD, DATA
  4 .sdata        00000018  000007c8  000007c8  000017c8  2**0  ALLOC
  5 .tdata        00000000  000007e0  000007e0  000017c8  2**0  CONTENTS, ALLOC, LOAD, DATA, THREAD_LOCAL
  6 .tbss         00000000  000007e0  000007e0  00000000  2**0  ALLOC, THREAD_LOCAL
  7 .bss          00000000  000007e0  000007e0  000017c8  2**0  ALLOC
  8 .stack        00000400  0000fc00  0000fc00  00001c00  2**0  ALLOC
SYMBOL TABLE:
00000000 l    d  .text.init	00000000 .text.init
000002a0 l    d  .text	00000000 .text
00000600 l    d  .data	00000000 .data
00000780 l    d  .tohost	00000000 .tohost
000007c8 l    d  .sdata	00000000 .sdata
000007e0 l    d  .tdata	00000000 .tdata
000007e0 l    d  .tbss	00000000 .tbss
000007e0 l    d  .bss	00000000 .bss
0000fc00 l    d  .stack	00000000 .stack
00000000 l    df *ABS*	00000000 /home/oleg/scr1/build/verilator_wf_AHB_IMC/riscv_compliance/riscv_compliance_objs/C-AND.o
000005c0 l       .text	00000000 sc_exit
000001c0 l       .text.init	00000000 trap_vector
000001ee l       .text.init	00000000 _report
000001ec l       .text.init	00000000 handle_exception
000001ec l       .text.init	00000000 other_exception
000002a0 l       .text	00000000 _run_test
00000620 l       .data	00000000 test_1_res
00000634 l       .data	00000000 test_2_res
00000648 l       .data	00000000 test_3_res
0000065c l       .data	00000000 test_4_res
00000670 l       .data	00000000 test_5_res
000005bc l       .text	00000000 ecall
00000400 g       *ABS*	00000000 STACK_SIZE
00000fc8 g       .sdata	00000000 __global_pointer$
00000690 g       .data	00000000 end_signature
00000600 g       .data	00000000 begin_regstate
00000620 g       .data	00000000 begin_signature
00000200 g       .text.init	00000000 _start
00000020 g       *ABS*	00000000 CL_SIZE
000000f8 g       .text.init	00000000 SIM_STOP
000007e0 g       .bss	00000000 _end
000007c0 g       .tohost	00000000 fromhost
00000780 g       .tohost	00000000 tohost
000000f4 g       .text.init	00000000 SIM_EXIT



Дизассемблирование раздела .text.init:

00000000 <SIM_EXIT-0xf4>:
	...

000000f4 <SIM_EXIT>:
  f4:	00000013          	nop

000000f8 <SIM_STOP>:
  f8:	0000006f          	j	f8 <SIM_STOP>
  fc:	ffff                	0xffff
  fe:	ffff                	0xffff
	...

000001c0 <trap_vector>:
 1c0:	34202773          	csrr	a4,mcause
 1c4:	47a1                	li	a5,8
 1c6:	02f70463          	beq	a4,a5,1ee <_report>
 1ca:	47a5                	li	a5,9
 1cc:	02f70163          	beq	a4,a5,1ee <_report>
 1d0:	47ad                	li	a5,11
 1d2:	00f70e63          	beq	a4,a5,1ee <_report>
 1d6:	00000717          	auipc	a4,0x0
 1da:	e2a70713          	addi	a4,a4,-470 # 0 <CL_SIZE-0x20>
 1de:	c311                	beqz	a4,1e2 <trap_vector+0x22>
 1e0:	8702                	jr	a4
 1e2:	34202773          	csrr	a4,mcause
 1e6:	00075363          	bgez	a4,1ec <handle_exception>
 1ea:	a009                	j	1ec <handle_exception>

000001ec <handle_exception>:
 1ec:	4505                	li	a0,1

000001ee <_report>:
 1ee:	3d20006f          	j	5c0 <sc_exit>
 1f2:	00000013          	nop
 1f6:	00000013          	nop
 1fa:	00000013          	nop
 1fe:	0001                	nop

00000200 <_start>:
 200:	f1402573          	csrr	a0,mhartid
 204:	e101                	bnez	a0,204 <_start+0x4>
 206:	4e01                	li	t3,0
 208:	00000297          	auipc	t0,0x0
 20c:	fb828293          	addi	t0,t0,-72 # 1c0 <trap_vector>
 210:	30529073          	csrw	mtvec,t0
 214:	4505                	li	a0,1
 216:	057e                	slli	a0,a0,0x1f
 218:	00054863          	bltz	a0,228 <_start+0x28>
 21c:	0ff0000f          	fence
 220:	85f2                	mv	a1,t3
 222:	4501                	li	a0,0
 224:	00000073          	ecall
 228:	00000297          	auipc	t0,0x0
 22c:	dd828293          	addi	t0,t0,-552 # 0 <CL_SIZE-0x20>
 230:	00028e63          	beqz	t0,24c <_start+0x4c>
 234:	10529073          	csrw	stvec,t0
 238:	0000b2b7          	lui	t0,0xb
 23c:	10928293          	addi	t0,t0,265 # b109 <__global_pointer$+0xa141>
 240:	30229073          	csrw	medeleg,t0
 244:	30202373          	csrr	t1,medeleg
 248:	fa6292e3          	bne	t0,t1,1ec <handle_exception>
 24c:	30005073          	csrwi	mstatus,0
 250:	00002537          	lui	a0,0x2
 254:	80050513          	addi	a0,a0,-2048 # 1800 <__global_pointer$+0x838>
 258:	30052073          	csrs	mstatus,a0
 25c:	00000297          	auipc	t0,0x0
 260:	04428293          	addi	t0,t0,68 # 2a0 <_run_test>
 264:	34129073          	csrw	mepc,t0
 268:	f1402573          	csrr	a0,mhartid
 26c:	30200073          	mret
	...

Дизассемблирование раздела .text:

000002a0 <_run_test>:
 2a0:	00000f97          	auipc	t6,0x0
 2a4:	360f8f93          	addi	t6,t6,864 # 600 <begin_regstate>
 2a8:	003fa023          	sw	gp,0(t6)
 2ac:	004fa223          	sw	tp,4(t6)
 2b0:	005fa423          	sw	t0,8(t6)
 2b4:	f00001b7          	lui	gp,0xf0000
 2b8:	00000217          	auipc	tp,0x0
 2bc:	3d820213          	addi	tp,tp,984 # 690 <end_signature>
 2c0:	00020283          	lb	t0,0(tp) # 0 <CL_SIZE-0x20>
 2c4:	00518023          	sb	t0,0(gp) # f0000000 <__global_pointer$+0xeffff038>
 2c8:	00028463          	beqz	t0,2d0 <_run_test+0x30>
 2cc:	0205                	addi	tp,tp,1
 2ce:	bfcd                	j	2c0 <_run_test+0x20>
 2d0:	00000f97          	auipc	t6,0x0
 2d4:	330f8f93          	addi	t6,t6,816 # 600 <begin_regstate>
 2d8:	000fa183          	lw	gp,0(t6)
 2dc:	004fa203          	lw	tp,4(t6)
 2e0:	008fa283          	lw	t0,8(t6)
 2e4:	00000f97          	auipc	t6,0x0
 2e8:	31cf8f93          	addi	t6,t6,796 # 600 <begin_regstate>
 2ec:	003fa023          	sw	gp,0(t6)
 2f0:	004fa223          	sw	tp,4(t6)
 2f4:	005fa423          	sw	t0,8(t6)
 2f8:	f00001b7          	lui	gp,0xf0000
 2fc:	00000217          	auipc	tp,0x0
 300:	3c420213          	addi	tp,tp,964 # 6c0 <end_signature+0x30>
 304:	00020283          	lb	t0,0(tp) # 0 <CL_SIZE-0x20>
 308:	00518023          	sb	t0,0(gp) # f0000000 <__global_pointer$+0xeffff038>
 30c:	00028463          	beqz	t0,314 <_run_test+0x74>
 310:	0205                	addi	tp,tp,1
 312:	bfcd                	j	304 <_run_test+0x64>
 314:	00000f97          	auipc	t6,0x0
 318:	2ecf8f93          	addi	t6,t6,748 # 600 <begin_regstate>
 31c:	000fa183          	lw	gp,0(t6)
 320:	004fa203          	lw	tp,4(t6)
 324:	008fa283          	lw	t0,8(t6)
 328:	00000117          	auipc	sp,0x0
 32c:	2f810113          	addi	sp,sp,760 # 620 <begin_signature>
 330:	4581                	li	a1,0
 332:	4481                	li	s1,0
 334:	8ced                	and	s1,s1,a1
 336:	c026                	sw	s1,0(sp)
 338:	4681                	li	a3,0
 33a:	4605                	li	a2,1
 33c:	8e75                	and	a2,a2,a3
 33e:	c232                	sw	a2,4(sp)
 340:	4781                	li	a5,0
 342:	fff00713          	li	a4,-1
 346:	8f7d                	and	a4,a4,a5
 348:	c43a                	sw	a4,8(sp)
 34a:	4481                	li	s1,0
 34c:	00008437          	lui	s0,0x8
 350:	fff40413          	addi	s0,s0,-1 # 7fff <__global_pointer$+0x7037>
 354:	8c65                	and	s0,s0,s1
 356:	c622                	sw	s0,12(sp)
 358:	4601                	li	a2,0
 35a:	65a1                	lui	a1,0x8
 35c:	8df1                	and	a1,a1,a2
 35e:	c82e                	sw	a1,16(sp)
 360:	00000f97          	auipc	t6,0x0
 364:	2a0f8f93          	addi	t6,t6,672 # 600 <begin_regstate>
 368:	003fa023          	sw	gp,0(t6)
 36c:	004fa223          	sw	tp,4(t6)
 370:	005fa423          	sw	t0,8(t6)
 374:	f00001b7          	lui	gp,0xf0000
 378:	00000217          	auipc	tp,0x0
 37c:	36820213          	addi	tp,tp,872 # 6e0 <end_signature+0x50>
 380:	00020283          	lb	t0,0(tp) # 0 <CL_SIZE-0x20>
 384:	00518023          	sb	t0,0(gp) # f0000000 <__global_pointer$+0xeffff038>
 388:	00028463          	beqz	t0,390 <_run_test+0xf0>
 38c:	0205                	addi	tp,tp,1
 38e:	bfcd                	j	380 <_run_test+0xe0>
 390:	00000f97          	auipc	t6,0x0
 394:	270f8f93          	addi	t6,t6,624 # 600 <begin_regstate>
 398:	000fa183          	lw	gp,0(t6)
 39c:	004fa203          	lw	tp,4(t6)
 3a0:	008fa283          	lw	t0,8(t6)
 3a4:	00000117          	auipc	sp,0x0
 3a8:	29010113          	addi	sp,sp,656 # 634 <test_2_res>
 3ac:	4705                	li	a4,1
 3ae:	4681                	li	a3,0
 3b0:	8ef9                	and	a3,a3,a4
 3b2:	c036                	sw	a3,0(sp)
 3b4:	4405                	li	s0,1
 3b6:	4785                	li	a5,1
 3b8:	8fe1                	and	a5,a5,s0
 3ba:	c23e                	sw	a5,4(sp)
 3bc:	4585                	li	a1,1
 3be:	fff00493          	li	s1,-1
 3c2:	8ced                	and	s1,s1,a1
 3c4:	c426                	sw	s1,8(sp)
 3c6:	4685                	li	a3,1
 3c8:	00008637          	lui	a2,0x8
 3cc:	fff60613          	addi	a2,a2,-1 # 7fff <__global_pointer$+0x7037>
 3d0:	8e75                	and	a2,a2,a3
 3d2:	c632                	sw	a2,12(sp)
 3d4:	4785                	li	a5,1
 3d6:	6721                	lui	a4,0x8
 3d8:	8f7d                	and	a4,a4,a5
 3da:	c83a                	sw	a4,16(sp)
 3dc:	00000f97          	auipc	t6,0x0
 3e0:	224f8f93          	addi	t6,t6,548 # 600 <begin_regstate>
 3e4:	003fa023          	sw	gp,0(t6)
 3e8:	004fa223          	sw	tp,4(t6)
 3ec:	005fa423          	sw	t0,8(t6)
 3f0:	f00001b7          	lui	gp,0xf0000
 3f4:	00000217          	auipc	tp,0x0
 3f8:	30c20213          	addi	tp,tp,780 # 700 <end_signature+0x70>
 3fc:	00020283          	lb	t0,0(tp) # 0 <CL_SIZE-0x20>
 400:	00518023          	sb	t0,0(gp) # f0000000 <__global_pointer$+0xeffff038>
 404:	00028463          	beqz	t0,40c <STACK_SIZE+0xc>
 408:	0205                	addi	tp,tp,1
 40a:	bfcd                	j	3fc <_run_test+0x15c>
 40c:	00000f97          	auipc	t6,0x0
 410:	1f4f8f93          	addi	t6,t6,500 # 600 <begin_regstate>
 414:	000fa183          	lw	gp,0(t6)
 418:	004fa203          	lw	tp,4(t6)
 41c:	008fa283          	lw	t0,8(t6)
 420:	00000117          	auipc	sp,0x0
 424:	22810113          	addi	sp,sp,552 # 648 <test_3_res>
 428:	fff00493          	li	s1,-1
 42c:	4401                	li	s0,0
 42e:	8c65                	and	s0,s0,s1
 430:	c022                	sw	s0,0(sp)
 432:	fff00613          	li	a2,-1
 436:	4585                	li	a1,1
 438:	8df1                	and	a1,a1,a2
 43a:	c22e                	sw	a1,4(sp)
 43c:	fff00713          	li	a4,-1
 440:	fff00693          	li	a3,-1
 444:	8ef9                	and	a3,a3,a4
 446:	c436                	sw	a3,8(sp)
 448:	fff00413          	li	s0,-1
 44c:	000087b7          	lui	a5,0x8
 450:	fff78793          	addi	a5,a5,-1 # 7fff <__global_pointer$+0x7037>
 454:	8fe1                	and	a5,a5,s0
 456:	c63e                	sw	a5,12(sp)
 458:	fff00593          	li	a1,-1
 45c:	64a1                	lui	s1,0x8
 45e:	8ced                	and	s1,s1,a1
 460:	c826                	sw	s1,16(sp)
 462:	00000f97          	auipc	t6,0x0
 466:	19ef8f93          	addi	t6,t6,414 # 600 <begin_regstate>
 46a:	003fa023          	sw	gp,0(t6)
 46e:	004fa223          	sw	tp,4(t6)
 472:	005fa423          	sw	t0,8(t6)
 476:	f00001b7          	lui	gp,0xf0000
 47a:	00000217          	auipc	tp,0x0
 47e:	2a620213          	addi	tp,tp,678 # 720 <end_signature+0x90>
 482:	00020283          	lb	t0,0(tp) # 0 <CL_SIZE-0x20>
 486:	00518023          	sb	t0,0(gp) # f0000000 <__global_pointer$+0xeffff038>
 48a:	00028463          	beqz	t0,492 <STACK_SIZE+0x92>
 48e:	0205                	addi	tp,tp,1
 490:	bfcd                	j	482 <STACK_SIZE+0x82>
 492:	00000f97          	auipc	t6,0x0
 496:	16ef8f93          	addi	t6,t6,366 # 600 <begin_regstate>
 49a:	000fa183          	lw	gp,0(t6)
 49e:	004fa203          	lw	tp,4(t6)
 4a2:	008fa283          	lw	t0,8(t6)
 4a6:	00000117          	auipc	sp,0x0
 4aa:	1b610113          	addi	sp,sp,438 # 65c <test_4_res>
 4ae:	000086b7          	lui	a3,0x8
 4b2:	fff68693          	addi	a3,a3,-1 # 7fff <__global_pointer$+0x7037>
 4b6:	4601                	li	a2,0
 4b8:	8e75                	and	a2,a2,a3
 4ba:	c032                	sw	a2,0(sp)
 4bc:	000087b7          	lui	a5,0x8
 4c0:	fff78793          	addi	a5,a5,-1 # 7fff <__global_pointer$+0x7037>
 4c4:	4705                	li	a4,1
 4c6:	8f7d                	and	a4,a4,a5
 4c8:	c23a                	sw	a4,4(sp)
 4ca:	000084b7          	lui	s1,0x8
 4ce:	fff48493          	addi	s1,s1,-1 # 7fff <__global_pointer$+0x7037>
 4d2:	fff00413          	li	s0,-1
 4d6:	8c65                	and	s0,s0,s1
 4d8:	c422                	sw	s0,8(sp)
 4da:	00008637          	lui	a2,0x8
 4de:	fff60613          	addi	a2,a2,-1 # 7fff <__global_pointer$+0x7037>
 4e2:	000085b7          	lui	a1,0x8
 4e6:	fff58593          	addi	a1,a1,-1 # 7fff <__global_pointer$+0x7037>
 4ea:	8df1                	and	a1,a1,a2
 4ec:	c62e                	sw	a1,12(sp)
 4ee:	00008737          	lui	a4,0x8
 4f2:	fff70713          	addi	a4,a4,-1 # 7fff <__global_pointer$+0x7037>
 4f6:	66a1                	lui	a3,0x8
 4f8:	8ef9                	and	a3,a3,a4
 4fa:	c836                	sw	a3,16(sp)
 4fc:	00000f97          	auipc	t6,0x0
 500:	104f8f93          	addi	t6,t6,260 # 600 <begin_regstate>
 504:	003fa023          	sw	gp,0(t6)
 508:	004fa223          	sw	tp,4(t6)
 50c:	005fa423          	sw	t0,8(t6)
 510:	f00001b7          	lui	gp,0xf0000
 514:	00000217          	auipc	tp,0x0
 518:	22c20213          	addi	tp,tp,556 # 740 <end_signature+0xb0>
 51c:	00020283          	lb	t0,0(tp) # 0 <CL_SIZE-0x20>
 520:	00518023          	sb	t0,0(gp) # f0000000 <__global_pointer$+0xeffff038>
 524:	00028463          	beqz	t0,52c <STACK_SIZE+0x12c>
 528:	0205                	addi	tp,tp,1
 52a:	bfcd                	j	51c <STACK_SIZE+0x11c>
 52c:	00000f97          	auipc	t6,0x0
 530:	0d4f8f93          	addi	t6,t6,212 # 600 <begin_regstate>
 534:	000fa183          	lw	gp,0(t6)
 538:	004fa203          	lw	tp,4(t6)
 53c:	008fa283          	lw	t0,8(t6)
 540:	00000117          	auipc	sp,0x0
 544:	13010113          	addi	sp,sp,304 # 670 <test_5_res>
 548:	6421                	lui	s0,0x8
 54a:	4781                	li	a5,0
 54c:	8fe1                	and	a5,a5,s0
 54e:	c03e                	sw	a5,0(sp)
 550:	65a1                	lui	a1,0x8
 552:	4485                	li	s1,1
 554:	8ced                	and	s1,s1,a1
 556:	c226                	sw	s1,4(sp)
 558:	66a1                	lui	a3,0x8
 55a:	fff00613          	li	a2,-1
 55e:	8e75                	and	a2,a2,a3
 560:	c432                	sw	a2,8(sp)
 562:	67a1                	lui	a5,0x8
 564:	00008737          	lui	a4,0x8
 568:	fff70713          	addi	a4,a4,-1 # 7fff <__global_pointer$+0x7037>
 56c:	8f7d                	and	a4,a4,a5
 56e:	c63a                	sw	a4,12(sp)
 570:	64a1                	lui	s1,0x8
 572:	6421                	lui	s0,0x8
 574:	8c65                	and	s0,s0,s1
 576:	c822                	sw	s0,16(sp)
 578:	00000f97          	auipc	t6,0x0
 57c:	088f8f93          	addi	t6,t6,136 # 600 <begin_regstate>
 580:	003fa023          	sw	gp,0(t6)
 584:	004fa223          	sw	tp,4(t6)
 588:	005fa423          	sw	t0,8(t6)
 58c:	f00001b7          	lui	gp,0xf0000
 590:	00000217          	auipc	tp,0x0
 594:	1d020213          	addi	tp,tp,464 # 760 <end_signature+0xd0>
 598:	00020283          	lb	t0,0(tp) # 0 <CL_SIZE-0x20>
 59c:	00518023          	sb	t0,0(gp) # f0000000 <__global_pointer$+0xeffff038>
 5a0:	00028463          	beqz	t0,5a8 <STACK_SIZE+0x1a8>
 5a4:	0205                	addi	tp,tp,1
 5a6:	bfcd                	j	598 <STACK_SIZE+0x198>
 5a8:	00000f97          	auipc	t6,0x0
 5ac:	058f8f93          	addi	t6,t6,88 # 600 <begin_regstate>
 5b0:	000fa183          	lw	gp,0(t6)
 5b4:	004fa203          	lw	tp,4(t6)
 5b8:	008fa283          	lw	t0,8(t6)

000005bc <ecall>:
 5bc:	00000073          	ecall

000005c0 <sc_exit>:
 5c0:	b35ff06f          	j	f4 <SIM_EXIT>
 5c4:	00000013          	nop
 5c8:	00000013          	nop
 5cc:	00000013          	nop
 5d0:	00000013          	nop
 5d4:	00000013          	nop
 5d8:	00000013          	nop
 5dc:	00000013          	nop
	...

Дизассемблирование раздела .data:

00000600 <begin_regstate>:
	...

00000620 <begin_signature>:
 620:	ffff                	0xffff
 622:	ffff                	0xffff
 624:	ffff                	0xffff
 626:	ffff                	0xffff
 628:	ffff                	0xffff
 62a:	ffff                	0xffff
 62c:	ffff                	0xffff
 62e:	ffff                	0xffff
 630:	ffff                	0xffff
 632:	ffff                	0xffff

00000634 <test_2_res>:
 634:	ffff                	0xffff
 636:	ffff                	0xffff
 638:	ffff                	0xffff
 63a:	ffff                	0xffff
 63c:	ffff                	0xffff
 63e:	ffff                	0xffff
 640:	ffff                	0xffff
 642:	ffff                	0xffff
 644:	ffff                	0xffff
 646:	ffff                	0xffff

00000648 <test_3_res>:
 648:	ffff                	0xffff
 64a:	ffff                	0xffff
 64c:	ffff                	0xffff
 64e:	ffff                	0xffff
 650:	ffff                	0xffff
 652:	ffff                	0xffff
 654:	ffff                	0xffff
 656:	ffff                	0xffff
 658:	ffff                	0xffff
 65a:	ffff                	0xffff

0000065c <test_4_res>:
 65c:	ffff                	0xffff
 65e:	ffff                	0xffff
 660:	ffff                	0xffff
 662:	ffff                	0xffff
 664:	ffff                	0xffff
 666:	ffff                	0xffff
 668:	ffff                	0xffff
 66a:	ffff                	0xffff
 66c:	ffff                	0xffff
 66e:	ffff                	0xffff

00000670 <test_5_res>:
 670:	ffff                	0xffff
 672:	ffff                	0xffff
 674:	ffff                	0xffff
 676:	ffff                	0xffff
 678:	ffff                	0xffff
 67a:	ffff                	0xffff
 67c:	ffff                	0xffff
 67e:	ffff                	0xffff
 680:	ffff                	0xffff
 682:	ffff                	0xffff
	...

00000690 <end_signature>:
 690:	6554                	flw	fa3,12(a0)
 692:	42207473          	csrrci	s0,0x422,0
 696:	6765                	lui	a4,0x19
 698:	6e69                	lui	t3,0x1a
 69a:	5220                	lw	s0,96(a2)
 69c:	7365                	lui	t1,0xffff9
 69e:	7265                	lui	tp,0xffff9
 6a0:	6576                	flw	fa0,92(sp)
 6a2:	2064                	fld	fs1,192(s0)
 6a4:	6572                	flw	fa0,28(sp)
 6a6:	72207367          	0x72207367
 6aa:	2861                	jal	742 <end_signature+0xb2>
 6ac:	3178                	fld	fa4,224(a0)
 6ae:	2029                	jal	6b8 <end_signature+0x28>
 6b0:	3061                	jal	ffffff38 <__global_pointer$+0xffffef70>
 6b2:	7828                	flw	fa0,112(s0)
 6b4:	3031                	jal	fffffec0 <__global_pointer$+0xffffeef8>
 6b6:	2029                	jal	6c0 <end_signature+0x30>
 6b8:	3074                	fld	fa3,224(s0)
 6ba:	7828                	flw	fa0,112(s0)
 6bc:	2935                	jal	af8 <_end+0x318>
 6be:	000a                	0xa
 6c0:	65542023          	sw	s5,1600(s0) # 8640 <__global_pointer$+0x7678>
 6c4:	6e207473          	csrrci	s0,0x6e2,0
 6c8:	6d75                	lui	s10,0x1d
 6ca:	6562                	flw	fa0,24(sp)
 6cc:	2072                	fld	ft0,280(sp)
 6ce:	2031                	jal	6da <end_signature+0x4a>
 6d0:	202d                	jal	6fa <end_signature+0x6a>
 6d2:	6e726f63          	bltu	tp,t2,dd0 <_end+0x5f0>
 6d6:	7265                	lui	tp,0xffff9
 6d8:	6320                	flw	fs0,64(a4)
 6da:	7361                	lui	t1,0xffff8
 6dc:	7365                	lui	t1,0xffff9
 6de:	000a                	0xa
 6e0:	65542023          	sw	s5,1600(s0)
 6e4:	6e207473          	csrrci	s0,0x6e2,0
 6e8:	6d75                	lui	s10,0x1d
 6ea:	6562                	flw	fa0,24(sp)
 6ec:	2072                	fld	ft0,280(sp)
 6ee:	2032                	fld	ft0,264(sp)
 6f0:	202d                	jal	71a <end_signature+0x8a>
 6f2:	6e726f63          	bltu	tp,t2,df0 <_end+0x610>
 6f6:	7265                	lui	tp,0xffff9
 6f8:	6320                	flw	fs0,64(a4)
 6fa:	7361                	lui	t1,0xffff8
 6fc:	7365                	lui	t1,0xffff9
 6fe:	000a                	0xa
 700:	65542023          	sw	s5,1600(s0)
 704:	6e207473          	csrrci	s0,0x6e2,0
 708:	6d75                	lui	s10,0x1d
 70a:	6562                	flw	fa0,24(sp)
 70c:	2072                	fld	ft0,280(sp)
 70e:	202d2033          	0x202d2033
 712:	6e726f63          	bltu	tp,t2,e10 <_end+0x630>
 716:	7265                	lui	tp,0xffff9
 718:	6320                	flw	fs0,64(a4)
 71a:	7361                	lui	t1,0xffff8
 71c:	7365                	lui	t1,0xffff9
 71e:	000a                	0xa
 720:	65542023          	sw	s5,1600(s0)
 724:	6e207473          	csrrci	s0,0x6e2,0
 728:	6d75                	lui	s10,0x1d
 72a:	6562                	flw	fa0,24(sp)
 72c:	2072                	fld	ft0,280(sp)
 72e:	2034                	fld	fa3,64(s0)
 730:	202d                	jal	75a <end_signature+0xca>
 732:	6e726f63          	bltu	tp,t2,e30 <_end+0x650>
 736:	7265                	lui	tp,0xffff9
 738:	6320                	flw	fs0,64(a4)
 73a:	7361                	lui	t1,0xffff8
 73c:	7365                	lui	t1,0xffff9
 73e:	000a                	0xa
 740:	65542023          	sw	s5,1600(s0)
 744:	6e207473          	csrrci	s0,0x6e2,0
 748:	6d75                	lui	s10,0x1d
 74a:	6562                	flw	fa0,24(sp)
 74c:	2072                	fld	ft0,280(sp)
 74e:	2035                	jal	77a <end_signature+0xea>
 750:	202d                	jal	77a <end_signature+0xea>
 752:	6e726f63          	bltu	tp,t2,e50 <_end+0x670>
 756:	7265                	lui	tp,0xffff9
 758:	6320                	flw	fs0,64(a4)
 75a:	7361                	lui	t1,0xffff8
 75c:	7365                	lui	t1,0xffff9
 75e:	000a                	0xa
 760:	6554                	flw	fa3,12(a0)
 762:	45207473          	csrrci	s0,0x452,0
 766:	646e                	flw	fs0,216(sp)
 768:	000a                	0xa
	...

Дизассемблирование раздела .tohost:

00000780 <tohost>:
	...

000007c0 <fromhost>:
	...

Дизассемблирование раздела .sdata:

000007c8 <__global_pointer$-0x800>:
	...

Дизассемблирование раздела .stack:

0000fc00 <.stack>:
	...
