
/home/oleg/scr1/build/verilator_wf_AHB_IMC/compliance_I-JALR-01.elf:     формат файла elf32-littleriscv
/home/oleg/scr1/build/verilator_wf_AHB_IMC/compliance_I-JALR-01.elf
архитектура: riscv:rv32, флаги 0x00000112:
EXEC_P, HAS_SYMS, D_PAGED
начальный адрес 0x00000200

Заголовок программы:
    LOAD off    0x00001000 vaddr 0x00000000 paddr 0x00000000 align 2**12
         filesz 0x00000bc8 memsz 0x00000be0 flags rwx
    LOAD off    0x00001c00 vaddr 0x0000fc00 paddr 0x0000fc00 align 2**12
         filesz 0x00000000 memsz 0x00000400 flags rw-

Разделы:
Idx Name          Size      VMA       LMA       File off  Algn  Флаги
  0 .text.init    00000284  00000000  00000000  00001000  2**6  CONTENTS, ALLOC, LOAD, READONLY, CODE
  1 .text         00000680  000002a0  000002a0  000012a0  2**5  CONTENTS, ALLOC, LOAD, READONLY, CODE
  2 .data         00000240  00000920  00000920  00001920  2**4  CONTENTS, ALLOC, LOAD, DATA
  3 .tohost       00000048  00000b80  00000b80  00001b80  2**6  CONTENTS, ALLOC, LOAD, DATA
  4 .sdata        00000018  00000bc8  00000bc8  00001bc8  2**0  ALLOC
  5 .tdata        00000000  00000be0  00000be0  00001bc8  2**0  CONTENTS, ALLOC, LOAD, DATA, THREAD_LOCAL
  6 .tbss         00000000  00000be0  00000be0  00000000  2**0  ALLOC, THREAD_LOCAL
  7 .bss          00000000  00000be0  00000be0  00001bc8  2**0  ALLOC
  8 .stack        00000400  0000fc00  0000fc00  00001c00  2**0  ALLOC
SYMBOL TABLE:
00000000 l    d  .text.init	00000000 .text.init
000002a0 l    d  .text	00000000 .text
00000920 l    d  .data	00000000 .data
00000b80 l    d  .tohost	00000000 .tohost
00000bc8 l    d  .sdata	00000000 .sdata
00000be0 l    d  .tdata	00000000 .tdata
00000be0 l    d  .tbss	00000000 .tbss
00000be0 l    d  .bss	00000000 .bss
0000fc00 l    d  .stack	00000000 .stack
00000000 l    df *ABS*	00000000 /home/oleg/scr1/build/verilator_wf_AHB_IMC/riscv_compliance/riscv_compliance_objs/I-JALR-01.o
000008e0 l       .text	00000000 sc_exit
000001c0 l       .text.init	00000000 trap_vector
000001fc l       .text.init	00000000 _report
000001f8 l       .text.init	00000000 handle_exception
000001f8 l       .text.init	00000000 other_exception
000002a0 l       .text	00000000 _run_test
00000950 l       .data	00000000 test_A1_res
00000958 l       .data	00000000 test_A2_res
00000920 l       .data	00000000 test_B1_data
00000968 l       .data	00000000 test_B1_res
00000534 l       .text	00000000 B1a_link
00000548 l       .text	00000000 B1b_link
00000928 l       .data	00000000 test_B2_data
00000984 l       .data	00000000 test_B2_res
000006bc l       .text	00000000 B2b_link
000006d0 l       .text	00000000 B2c_link
000009a0 l       .data	00000000 test_C_res
000008c0 l       .text	00000000 ecall
00000400 g       *ABS*	00000000 STACK_SIZE
000013c8 g       .sdata	00000000 __global_pointer$
000009b0 g       .data	00000000 end_signature
00000930 g       .data	00000000 begin_regstate
00000950 g       .data	00000000 begin_signature
00000200 g       .text.init	00000000 _start
00000020 g       *ABS*	00000000 CL_SIZE
000000f8 g       .text.init	00000000 SIM_STOP
00000be0 g       .bss	00000000 _end
00000bc0 g       .tohost	00000000 fromhost
00000b80 g       .tohost	00000000 tohost
000000f4 g       .text.init	00000000 SIM_EXIT



Дизассемблирование раздела .text.init:

00000000 <SIM_EXIT-0xf4>:
	...

000000f4 <SIM_EXIT>:
  f4:	00000013          	nop

000000f8 <SIM_STOP>:
  f8:	0000006f          	j	f8 <SIM_STOP>
  fc:	ffff                	0xffff
  fe:	ffff                	0xffff
	...

000001c0 <trap_vector>:
 1c0:	34202773          	csrr	a4,mcause
 1c4:	00800793          	li	a5,8
 1c8:	02f70a63          	beq	a4,a5,1fc <_report>
 1cc:	00900793          	li	a5,9
 1d0:	02f70663          	beq	a4,a5,1fc <_report>
 1d4:	00b00793          	li	a5,11
 1d8:	02f70263          	beq	a4,a5,1fc <_report>
 1dc:	00000717          	auipc	a4,0x0
 1e0:	e2470713          	addi	a4,a4,-476 # 0 <CL_SIZE-0x20>
 1e4:	00070463          	beqz	a4,1ec <trap_vector+0x2c>
 1e8:	00070067          	jr	a4
 1ec:	34202773          	csrr	a4,mcause
 1f0:	00075463          	bgez	a4,1f8 <handle_exception>
 1f4:	0040006f          	j	1f8 <handle_exception>

000001f8 <handle_exception>:
 1f8:	00100513          	li	a0,1

000001fc <_report>:
 1fc:	6e40006f          	j	8e0 <sc_exit>

00000200 <_start>:
 200:	f1402573          	csrr	a0,mhartid
 204:	00051063          	bnez	a0,204 <_start+0x4>
 208:	00000e13          	li	t3,0
 20c:	00000297          	auipc	t0,0x0
 210:	fb428293          	addi	t0,t0,-76 # 1c0 <trap_vector>
 214:	30529073          	csrw	mtvec,t0
 218:	00100513          	li	a0,1
 21c:	01f51513          	slli	a0,a0,0x1f
 220:	00054a63          	bltz	a0,234 <_start+0x34>
 224:	0ff0000f          	fence
 228:	000e0593          	mv	a1,t3
 22c:	00000513          	li	a0,0
 230:	00000073          	ecall
 234:	00000297          	auipc	t0,0x0
 238:	dcc28293          	addi	t0,t0,-564 # 0 <CL_SIZE-0x20>
 23c:	00028e63          	beqz	t0,258 <_start+0x58>
 240:	10529073          	csrw	stvec,t0
 244:	0000b2b7          	lui	t0,0xb
 248:	10928293          	addi	t0,t0,265 # b109 <__global_pointer$+0x9d41>
 24c:	30229073          	csrw	medeleg,t0
 250:	30202373          	csrr	t1,medeleg
 254:	fa6292e3          	bne	t0,t1,1f8 <handle_exception>
 258:	30005073          	csrwi	mstatus,0
 25c:	00002537          	lui	a0,0x2
 260:	80050513          	addi	a0,a0,-2048 # 1800 <__global_pointer$+0x438>
 264:	30052073          	csrs	mstatus,a0
 268:	00000297          	auipc	t0,0x0
 26c:	03828293          	addi	t0,t0,56 # 2a0 <_run_test>
 270:	34129073          	csrw	mepc,t0
 274:	f1402573          	csrr	a0,mhartid
 278:	30200073          	mret
	...

Дизассемблирование раздела .text:

000002a0 <_run_test>:
 2a0:	00000f97          	auipc	t6,0x0
 2a4:	690f8f93          	addi	t6,t6,1680 # 930 <begin_regstate>
 2a8:	003fa023          	sw	gp,0(t6)
 2ac:	004fa223          	sw	tp,4(t6)
 2b0:	005fa423          	sw	t0,8(t6)
 2b4:	f00001b7          	lui	gp,0xf0000
 2b8:	00000217          	auipc	tp,0x0
 2bc:	6f820213          	addi	tp,tp,1784 # 9b0 <end_signature>
 2c0:	00020283          	lb	t0,0(tp) # 0 <CL_SIZE-0x20>
 2c4:	00518023          	sb	t0,0(gp) # f0000000 <__global_pointer$+0xefffec38>
 2c8:	00028663          	beqz	t0,2d4 <_run_test+0x34>
 2cc:	00120213          	addi	tp,tp,1 # 1 <CL_SIZE-0x1f>
 2d0:	ff1ff06f          	j	2c0 <_run_test+0x20>
 2d4:	00000f97          	auipc	t6,0x0
 2d8:	65cf8f93          	addi	t6,t6,1628 # 930 <begin_regstate>
 2dc:	000fa183          	lw	gp,0(t6)
 2e0:	004fa203          	lw	tp,4(t6)
 2e4:	008fa283          	lw	t0,8(t6)
 2e8:	00000f97          	auipc	t6,0x0
 2ec:	648f8f93          	addi	t6,t6,1608 # 930 <begin_regstate>
 2f0:	003fa023          	sw	gp,0(t6)
 2f4:	004fa223          	sw	tp,4(t6)
 2f8:	005fa423          	sw	t0,8(t6)
 2fc:	f00001b7          	lui	gp,0xf0000
 300:	00000217          	auipc	tp,0x0
 304:	6be20213          	addi	tp,tp,1726 # 9be <end_signature+0xe>
 308:	00020283          	lb	t0,0(tp) # 0 <CL_SIZE-0x20>
 30c:	00518023          	sb	t0,0(gp) # f0000000 <__global_pointer$+0xefffec38>
 310:	00028663          	beqz	t0,31c <_run_test+0x7c>
 314:	00120213          	addi	tp,tp,1 # 1 <CL_SIZE-0x1f>
 318:	ff1ff06f          	j	308 <_run_test+0x68>
 31c:	00000f97          	auipc	t6,0x0
 320:	614f8f93          	addi	t6,t6,1556 # 930 <begin_regstate>
 324:	000fa183          	lw	gp,0(t6)
 328:	004fa203          	lw	tp,4(t6)
 32c:	008fa283          	lw	t0,8(t6)
 330:	00000097          	auipc	ra,0x0
 334:	62008093          	addi	ra,ra,1568 # 950 <begin_signature>
 338:	12345137          	lui	sp,0x12345
 33c:	67810113          	addi	sp,sp,1656 # 12345678 <__global_pointer$+0x123442b0>
 340:	00000197          	auipc	gp,0x0
 344:	01018193          	addi	gp,gp,16 # 350 <_run_test+0xb0>
 348:	00018067          	jr	gp
 34c:	00000113          	li	sp,0
 350:	0000a023          	sw	zero,0(ra)
 354:	0020a223          	sw	sp,4(ra)
 358:	00000f97          	auipc	t6,0x0
 35c:	5d8f8f93          	addi	t6,t6,1496 # 930 <begin_regstate>
 360:	003fa023          	sw	gp,0(t6)
 364:	004fa223          	sw	tp,4(t6)
 368:	005fa423          	sw	t0,8(t6)
 36c:	f00001b7          	lui	gp,0xf0000
 370:	00000217          	auipc	tp,0x0
 374:	67520213          	addi	tp,tp,1653 # 9e5 <end_signature+0x35>
 378:	00020283          	lb	t0,0(tp) # 0 <CL_SIZE-0x20>
 37c:	00518023          	sb	t0,0(gp) # f0000000 <__global_pointer$+0xefffec38>
 380:	00028663          	beqz	t0,38c <_run_test+0xec>
 384:	00120213          	addi	tp,tp,1 # 1 <CL_SIZE-0x1f>
 388:	ff1ff06f          	j	378 <_run_test+0xd8>
 38c:	00000f97          	auipc	t6,0x0
 390:	5a4f8f93          	addi	t6,t6,1444 # 930 <begin_regstate>
 394:	000fa183          	lw	gp,0(t6)
 398:	004fa203          	lw	tp,4(t6)
 39c:	008fa283          	lw	t0,8(t6)
 3a0:	00000f97          	auipc	t6,0x0
 3a4:	590f8f93          	addi	t6,t6,1424 # 930 <begin_regstate>
 3a8:	003fa023          	sw	gp,0(t6)
 3ac:	004fa223          	sw	tp,4(t6)
 3b0:	005fa423          	sw	t0,8(t6)
 3b4:	f00001b7          	lui	gp,0xf0000
 3b8:	00000217          	auipc	tp,0x0
 3bc:	64920213          	addi	tp,tp,1609 # a01 <end_signature+0x51>
 3c0:	00020283          	lb	t0,0(tp) # 0 <CL_SIZE-0x20>
 3c4:	00518023          	sb	t0,0(gp) # f0000000 <__global_pointer$+0xefffec38>
 3c8:	00028663          	beqz	t0,3d4 <_run_test+0x134>
 3cc:	00120213          	addi	tp,tp,1 # 1 <CL_SIZE-0x1f>
 3d0:	ff1ff06f          	j	3c0 <_run_test+0x120>
 3d4:	00000f97          	auipc	t6,0x0
 3d8:	55cf8f93          	addi	t6,t6,1372 # 930 <begin_regstate>
 3dc:	000fa183          	lw	gp,0(t6)
 3e0:	004fa203          	lw	tp,4(t6)
 3e4:	008fa283          	lw	t0,8(t6)
 3e8:	00000097          	auipc	ra,0x0
 3ec:	57008093          	addi	ra,ra,1392 # 958 <test_A2_res>
 3f0:	fff00113          	li	sp,-1
 3f4:	fff00193          	li	gp,-1
 3f8:	0fedd237          	lui	tp,0xfedd
 3fc:	ba920213          	addi	tp,tp,-1111 # fedcba9 <__global_pointer$+0xfedb7e1>
 400:	00000f97          	auipc	t6,0x0
 404:	038f8f93          	addi	t6,t6,56 # 438 <STACK_SIZE+0x38>
 408:	000f8067          	jr	t6
 40c:	00000113          	li	sp,0
 410:	00000193          	li	gp,0
 414:	00000213          	li	tp,0
 418:	876541b7          	lui	gp,0x87654
 41c:	32118193          	addi	gp,gp,801 # 87654321 <__global_pointer$+0x87652f59>
 420:	00000297          	auipc	t0,0x0
 424:	03828293          	addi	t0,t0,56 # 458 <STACK_SIZE+0x58>
 428:	00028067          	jr	t0
 42c:	00000113          	li	sp,0
 430:	00000193          	li	gp,0
 434:	00000213          	li	tp,0
 438:	9abce137          	lui	sp,0x9abce
 43c:	ef010113          	addi	sp,sp,-272 # 9abcdef0 <__global_pointer$+0x9abccb28>
 440:	00000797          	auipc	a5,0x0
 444:	fd878793          	addi	a5,a5,-40 # 418 <STACK_SIZE+0x18>
 448:	00078067          	jr	a5
 44c:	00000113          	li	sp,0
 450:	00000193          	li	gp,0
 454:	00000213          	li	tp,0
 458:	0000a023          	sw	zero,0(ra)
 45c:	0020a223          	sw	sp,4(ra)
 460:	0030a423          	sw	gp,8(ra)
 464:	0040a623          	sw	tp,12(ra)
 468:	00000f97          	auipc	t6,0x0
 46c:	4c8f8f93          	addi	t6,t6,1224 # 930 <begin_regstate>
 470:	003fa023          	sw	gp,0(t6)
 474:	004fa223          	sw	tp,4(t6)
 478:	005fa423          	sw	t0,8(t6)
 47c:	f00001b7          	lui	gp,0xf0000
 480:	00000217          	auipc	tp,0x0
 484:	5ba20213          	addi	tp,tp,1466 # a3a <end_signature+0x8a>
 488:	00020283          	lb	t0,0(tp) # 0 <CL_SIZE-0x20>
 48c:	00518023          	sb	t0,0(gp) # f0000000 <__global_pointer$+0xefffec38>
 490:	00028663          	beqz	t0,49c <STACK_SIZE+0x9c>
 494:	00120213          	addi	tp,tp,1 # 1 <CL_SIZE-0x1f>
 498:	ff1ff06f          	j	488 <STACK_SIZE+0x88>
 49c:	00000f97          	auipc	t6,0x0
 4a0:	494f8f93          	addi	t6,t6,1172 # 930 <begin_regstate>
 4a4:	000fa183          	lw	gp,0(t6)
 4a8:	004fa203          	lw	tp,4(t6)
 4ac:	008fa283          	lw	t0,8(t6)
 4b0:	00000f97          	auipc	t6,0x0
 4b4:	480f8f93          	addi	t6,t6,1152 # 930 <begin_regstate>
 4b8:	003fa023          	sw	gp,0(t6)
 4bc:	004fa223          	sw	tp,4(t6)
 4c0:	005fa423          	sw	t0,8(t6)
 4c4:	f00001b7          	lui	gp,0xf0000
 4c8:	00000217          	auipc	tp,0x0
 4cc:	58e20213          	addi	tp,tp,1422 # a56 <end_signature+0xa6>
 4d0:	00020283          	lb	t0,0(tp) # 0 <CL_SIZE-0x20>
 4d4:	00518023          	sb	t0,0(gp) # f0000000 <__global_pointer$+0xefffec38>
 4d8:	00028663          	beqz	t0,4e4 <STACK_SIZE+0xe4>
 4dc:	00120213          	addi	tp,tp,1 # 1 <CL_SIZE-0x1f>
 4e0:	ff1ff06f          	j	4d0 <STACK_SIZE+0xd0>
 4e4:	00000f97          	auipc	t6,0x0
 4e8:	44cf8f93          	addi	t6,t6,1100 # 930 <begin_regstate>
 4ec:	000fa183          	lw	gp,0(t6)
 4f0:	004fa203          	lw	tp,4(t6)
 4f4:	008fa283          	lw	t0,8(t6)
 4f8:	00000497          	auipc	s1,0x0
 4fc:	42848493          	addi	s1,s1,1064 # 920 <test_B1_data>
 500:	00000517          	auipc	a0,0x0
 504:	46850513          	addi	a0,a0,1128 # 968 <test_B1_res>
 508:	fff00113          	li	sp,-1
 50c:	fff00193          	li	gp,-1
 510:	fff00213          	li	tp,-1
 514:	fff00293          	li	t0,-1
 518:	55555337          	lui	t1,0x55555
 51c:	55530313          	addi	t1,t1,1365 # 55555555 <__global_pointer$+0x5555418d>
 520:	0004ac83          	lw	s9,0(s1)
 524:	0044ac03          	lw	s8,4(s1)
 528:	00000397          	auipc	t2,0x0
 52c:	03438393          	addi	t2,t2,52 # 55c <B1b_link+0x14>
 530:	000380e7          	jalr	t2

00000534 <B1a_link>:
 534:	222221b7          	lui	gp,0x22222
 538:	22218193          	addi	gp,gp,546 # 22222222 <__global_pointer$+0x22220e5a>
 53c:	00000417          	auipc	s0,0x0
 540:	04040413          	addi	s0,s0,64 # 57c <B1b_link+0x34>
 544:	00040fe7          	jalr	t6,s0

00000548 <B1b_link>:
 548:	444442b7          	lui	t0,0x44444
 54c:	44428293          	addi	t0,t0,1092 # 44444444 <__global_pointer$+0x4444307c>
 550:	00000f17          	auipc	t5,0x0
 554:	04cf0f13          	addi	t5,t5,76 # 59c <B1b_link+0x54>
 558:	000f0067          	jr	t5
 55c:	11111137          	lui	sp,0x11111
 560:	11110113          	addi	sp,sp,273 # 11111111 <__global_pointer$+0x1110fd49>
 564:	00008067          	ret
 568:	00000113          	li	sp,0
 56c:	00000193          	li	gp,0
 570:	00000213          	li	tp,0
 574:	00000293          	li	t0,0
 578:	00000313          	li	t1,0
 57c:	33333237          	lui	tp,0x33333
 580:	33320213          	addi	tp,tp,819 # 33333333 <__global_pointer$+0x33331f6b>
 584:	000f8067          	jr	t6
 588:	00000113          	li	sp,0
 58c:	00000193          	li	gp,0
 590:	00000213          	li	tp,0
 594:	00000293          	li	t0,0
 598:	00000313          	li	t1,0
 59c:	0190c3b3          	xor	t2,ra,s9
 5a0:	018fc433          	xor	s0,t6,s8
 5a4:	00252023          	sw	sp,0(a0)
 5a8:	00352223          	sw	gp,4(a0)
 5ac:	00452423          	sw	tp,8(a0)
 5b0:	00552623          	sw	t0,12(a0)
 5b4:	00652823          	sw	t1,16(a0)
 5b8:	00752a23          	sw	t2,20(a0)
 5bc:	00852c23          	sw	s0,24(a0)
 5c0:	00000f97          	auipc	t6,0x0
 5c4:	370f8f93          	addi	t6,t6,880 # 930 <begin_regstate>
 5c8:	003fa023          	sw	gp,0(t6)
 5cc:	004fa223          	sw	tp,4(t6)
 5d0:	005fa423          	sw	t0,8(t6)
 5d4:	f00001b7          	lui	gp,0xf0000
 5d8:	00000217          	auipc	tp,0x0
 5dc:	4a720213          	addi	tp,tp,1191 # a7f <end_signature+0xcf>
 5e0:	00020283          	lb	t0,0(tp) # 0 <CL_SIZE-0x20>
 5e4:	00518023          	sb	t0,0(gp) # f0000000 <__global_pointer$+0xefffec38>
 5e8:	00028663          	beqz	t0,5f4 <B1b_link+0xac>
 5ec:	00120213          	addi	tp,tp,1 # 1 <CL_SIZE-0x1f>
 5f0:	ff1ff06f          	j	5e0 <B1b_link+0x98>
 5f4:	00000f97          	auipc	t6,0x0
 5f8:	33cf8f93          	addi	t6,t6,828 # 930 <begin_regstate>
 5fc:	000fa183          	lw	gp,0(t6)
 600:	004fa203          	lw	tp,4(t6)
 604:	008fa283          	lw	t0,8(t6)
 608:	00000f97          	auipc	t6,0x0
 60c:	328f8f93          	addi	t6,t6,808 # 930 <begin_regstate>
 610:	003fa023          	sw	gp,0(t6)
 614:	004fa223          	sw	tp,4(t6)
 618:	005fa423          	sw	t0,8(t6)
 61c:	f00001b7          	lui	gp,0xf0000
 620:	00000217          	auipc	tp,0x0
 624:	47b20213          	addi	tp,tp,1147 # a9b <end_signature+0xeb>
 628:	00020283          	lb	t0,0(tp) # 0 <CL_SIZE-0x20>
 62c:	00518023          	sb	t0,0(gp) # f0000000 <__global_pointer$+0xefffec38>
 630:	00028663          	beqz	t0,63c <B1b_link+0xf4>
 634:	00120213          	addi	tp,tp,1 # 1 <CL_SIZE-0x1f>
 638:	ff1ff06f          	j	628 <B1b_link+0xe0>
 63c:	00000f97          	auipc	t6,0x0
 640:	2f4f8f93          	addi	t6,t6,756 # 930 <begin_regstate>
 644:	000fa183          	lw	gp,0(t6)
 648:	004fa203          	lw	tp,4(t6)
 64c:	008fa283          	lw	t0,8(t6)
 650:	00000497          	auipc	s1,0x0
 654:	2d848493          	addi	s1,s1,728 # 928 <test_B2_data>
 658:	00000517          	auipc	a0,0x0
 65c:	32c50513          	addi	a0,a0,812 # 984 <test_B2_res>
 660:	fff00113          	li	sp,-1
 664:	fff00193          	li	gp,-1
 668:	fff00213          	li	tp,-1
 66c:	fff00293          	li	t0,-1
 670:	fff00313          	li	t1,-1
 674:	0004ac03          	lw	s8,0(s1)
 678:	0044ac83          	lw	s9,4(s1)
 67c:	00000797          	auipc	a5,0x0
 680:	02c78793          	addi	a5,a5,44 # 6a8 <B1b_link+0x160>
 684:	00078067          	jr	a5
 688:	777771b7          	lui	gp,0x77777
 68c:	77718193          	addi	gp,gp,1911 # 77777777 <__global_pointer$+0x777763af>
 690:	001f8067          	jr	1(t6)
 694:	00000113          	li	sp,0
 698:	00000193          	li	gp,0
 69c:	00000213          	li	tp,0
 6a0:	00000293          	li	t0,0
 6a4:	00000313          	li	t1,0
 6a8:	66666137          	lui	sp,0x66666
 6ac:	66610113          	addi	sp,sp,1638 # 66666666 <__global_pointer$+0x6666529e>
 6b0:	00000f97          	auipc	t6,0x0
 6b4:	fd9f8f93          	addi	t6,t6,-39 # 689 <B1b_link+0x141>
 6b8:	000f8fe7          	jalr	t6,t6

000006bc <B2b_link>:
 6bc:	88889237          	lui	tp,0x88889
 6c0:	88820213          	addi	tp,tp,-1912 # 88888888 <__global_pointer$+0x888874c0>
 6c4:	00000097          	auipc	ra,0x0
 6c8:	02108093          	addi	ra,ra,33 # 6e5 <B2c_link+0x15>
 6cc:	000080e7          	jalr	ra

000006d0 <B2c_link>:
 6d0:	aaaab337          	lui	t1,0xaaaab
 6d4:	aaa30313          	addi	t1,t1,-1366 # aaaaaaaa <__global_pointer$+0xaaaa96e2>
 6d8:	00000f17          	auipc	t5,0x0
 6dc:	02cf0f13          	addi	t5,t5,44 # 704 <B2c_link+0x34>
 6e0:	000f0067          	jr	t5
 6e4:	9999a2b7          	lui	t0,0x9999a
 6e8:	99928293          	addi	t0,t0,-1639 # 99999999 <__global_pointer$+0x999985d1>
 6ec:	00108067          	jr	1(ra)
 6f0:	00000113          	li	sp,0
 6f4:	00000193          	li	gp,0
 6f8:	00000213          	li	tp,0
 6fc:	00000293          	li	t0,0
 700:	00000313          	li	t1,0
 704:	018fc3b3          	xor	t2,t6,s8
 708:	0190c433          	xor	s0,ra,s9
 70c:	00252023          	sw	sp,0(a0)
 710:	00352223          	sw	gp,4(a0)
 714:	00452423          	sw	tp,8(a0)
 718:	00552623          	sw	t0,12(a0)
 71c:	00652823          	sw	t1,16(a0)
 720:	00752a23          	sw	t2,20(a0)
 724:	00852c23          	sw	s0,24(a0)
 728:	00000f97          	auipc	t6,0x0
 72c:	208f8f93          	addi	t6,t6,520 # 930 <begin_regstate>
 730:	003fa023          	sw	gp,0(t6)
 734:	004fa223          	sw	tp,4(t6)
 738:	005fa423          	sw	t0,8(t6)
 73c:	f00001b7          	lui	gp,0xf0000
 740:	00000217          	auipc	tp,0x0
 744:	3a320213          	addi	tp,tp,931 # ae3 <end_signature+0x133>
 748:	00020283          	lb	t0,0(tp) # 0 <CL_SIZE-0x20>
 74c:	00518023          	sb	t0,0(gp) # f0000000 <__global_pointer$+0xefffec38>
 750:	00028663          	beqz	t0,75c <B2c_link+0x8c>
 754:	00120213          	addi	tp,tp,1 # 1 <CL_SIZE-0x1f>
 758:	ff1ff06f          	j	748 <B2c_link+0x78>
 75c:	00000f97          	auipc	t6,0x0
 760:	1d4f8f93          	addi	t6,t6,468 # 930 <begin_regstate>
 764:	000fa183          	lw	gp,0(t6)
 768:	004fa203          	lw	tp,4(t6)
 76c:	008fa283          	lw	t0,8(t6)
 770:	00000f97          	auipc	t6,0x0
 774:	1c0f8f93          	addi	t6,t6,448 # 930 <begin_regstate>
 778:	003fa023          	sw	gp,0(t6)
 77c:	004fa223          	sw	tp,4(t6)
 780:	005fa423          	sw	t0,8(t6)
 784:	f00001b7          	lui	gp,0xf0000
 788:	00000217          	auipc	tp,0x0
 78c:	37720213          	addi	tp,tp,887 # aff <end_signature+0x14f>
 790:	00020283          	lb	t0,0(tp) # 0 <CL_SIZE-0x20>
 794:	00518023          	sb	t0,0(gp) # f0000000 <__global_pointer$+0xefffec38>
 798:	00028663          	beqz	t0,7a4 <B2c_link+0xd4>
 79c:	00120213          	addi	tp,tp,1 # 1 <CL_SIZE-0x1f>
 7a0:	ff1ff06f          	j	790 <B2c_link+0xc0>
 7a4:	00000f97          	auipc	t6,0x0
 7a8:	18cf8f93          	addi	t6,t6,396 # 930 <begin_regstate>
 7ac:	000fa183          	lw	gp,0(t6)
 7b0:	004fa203          	lw	tp,4(t6)
 7b4:	008fa283          	lw	t0,8(t6)
 7b8:	00000097          	auipc	ra,0x0
 7bc:	1e808093          	addi	ra,ra,488 # 9a0 <test_C_res>
 7c0:	11111237          	lui	tp,0x11111
 7c4:	11120213          	addi	tp,tp,273 # 11111111 <__global_pointer$+0x1110fd49>
 7c8:	00000197          	auipc	gp,0x0
 7cc:	00f18193          	addi	gp,gp,15 # 7d7 <B2c_link+0x107>
 7d0:	00118067          	jr	1(gp) # 13c9 <__global_pointer$+0x1>
 7d4:	00000213          	li	tp,0
 7d8:	222222b7          	lui	t0,0x22222
 7dc:	22228293          	addi	t0,t0,546 # 22222222 <__global_pointer$+0x22220e5a>
 7e0:	00000197          	auipc	gp,0x0
 7e4:	01118193          	addi	gp,gp,17 # 7f1 <B2c_link+0x121>
 7e8:	fff18067          	jr	-1(gp) # 13c7 <_end+0x7e7>
 7ec:	00000293          	li	t0,0
 7f0:	33333337          	lui	t1,0x33333
 7f4:	33330313          	addi	t1,t1,819 # 33333333 <__global_pointer$+0x33331f6b>
 7f8:	00000197          	auipc	gp,0x0
 7fc:	81118193          	addi	gp,gp,-2031 # 9 <CL_SIZE-0x17>
 800:	7ff18067          	jr	2047(gp) # 1bc7 <__global_pointer$+0x7ff>
 804:	00000313          	li	t1,0
 808:	444443b7          	lui	t2,0x44444
 80c:	44438393          	addi	t2,t2,1092 # 44444444 <__global_pointer$+0x4444307c>
 810:	00001197          	auipc	gp,0x1
 814:	81018193          	addi	gp,gp,-2032 # 1020 <_end+0x440>
 818:	80018067          	jr	-2048(gp) # bc8 <fromhost+0x8>
 81c:	00000393          	li	t2,0
 820:	0040a023          	sw	tp,0(ra)
 824:	0050a223          	sw	t0,4(ra)
 828:	0060a423          	sw	t1,8(ra)
 82c:	0070a623          	sw	t2,12(ra)
 830:	00000f97          	auipc	t6,0x0
 834:	100f8f93          	addi	t6,t6,256 # 930 <begin_regstate>
 838:	003fa023          	sw	gp,0(t6)
 83c:	004fa223          	sw	tp,4(t6)
 840:	005fa423          	sw	t0,8(t6)
 844:	f00001b7          	lui	gp,0xf0000
 848:	00000217          	auipc	tp,0x0
 84c:	2dd20213          	addi	tp,tp,733 # b25 <end_signature+0x175>
 850:	00020283          	lb	t0,0(tp) # 0 <CL_SIZE-0x20>
 854:	00518023          	sb	t0,0(gp) # f0000000 <__global_pointer$+0xefffec38>
 858:	00028663          	beqz	t0,864 <B2c_link+0x194>
 85c:	00120213          	addi	tp,tp,1 # 1 <CL_SIZE-0x1f>
 860:	ff1ff06f          	j	850 <B2c_link+0x180>
 864:	00000f97          	auipc	t6,0x0
 868:	0ccf8f93          	addi	t6,t6,204 # 930 <begin_regstate>
 86c:	000fa183          	lw	gp,0(t6)
 870:	004fa203          	lw	tp,4(t6)
 874:	008fa283          	lw	t0,8(t6)
 878:	00000f97          	auipc	t6,0x0
 87c:	0b8f8f93          	addi	t6,t6,184 # 930 <begin_regstate>
 880:	003fa023          	sw	gp,0(t6)
 884:	004fa223          	sw	tp,4(t6)
 888:	005fa423          	sw	t0,8(t6)
 88c:	f00001b7          	lui	gp,0xf0000
 890:	00000217          	auipc	tp,0x0
 894:	2b120213          	addi	tp,tp,689 # b41 <end_signature+0x191>
 898:	00020283          	lb	t0,0(tp) # 0 <CL_SIZE-0x20>
 89c:	00518023          	sb	t0,0(gp) # f0000000 <__global_pointer$+0xefffec38>
 8a0:	00028663          	beqz	t0,8ac <B2c_link+0x1dc>
 8a4:	00120213          	addi	tp,tp,1 # 1 <CL_SIZE-0x1f>
 8a8:	ff1ff06f          	j	898 <B2c_link+0x1c8>
 8ac:	00000f97          	auipc	t6,0x0
 8b0:	084f8f93          	addi	t6,t6,132 # 930 <begin_regstate>
 8b4:	000fa183          	lw	gp,0(t6)
 8b8:	004fa203          	lw	tp,4(t6)
 8bc:	008fa283          	lw	t0,8(t6)

000008c0 <ecall>:
 8c0:	00000073          	ecall
	...

000008e0 <sc_exit>:
 8e0:	815ff06f          	j	f4 <SIM_EXIT>
 8e4:	00000013          	nop
 8e8:	00000013          	nop
 8ec:	00000013          	nop
 8f0:	00000013          	nop
 8f4:	00000013          	nop
 8f8:	00000013          	nop
 8fc:	00000013          	nop
	...

Дизассемблирование раздела .data:

00000920 <test_B1_data>:
 920:	0534                	addi	a3,sp,648
 922:	0000                	unimp
 924:	0548                	addi	a0,sp,644
	...

00000928 <test_B2_data>:
 928:	06bc                	addi	a5,sp,840
 92a:	0000                	unimp
 92c:	06d0                	addi	a2,sp,836
	...

00000930 <begin_regstate>:
	...

00000950 <begin_signature>:
 950:	ffff                	0xffff
 952:	ffff                	0xffff
 954:	ffff                	0xffff
 956:	ffff                	0xffff

00000958 <test_A2_res>:
 958:	ffff                	0xffff
 95a:	ffff                	0xffff
 95c:	ffff                	0xffff
 95e:	ffff                	0xffff
 960:	ffff                	0xffff
 962:	ffff                	0xffff
 964:	ffff                	0xffff
 966:	ffff                	0xffff

00000968 <test_B1_res>:
 968:	ffff                	0xffff
 96a:	ffff                	0xffff
 96c:	ffff                	0xffff
 96e:	ffff                	0xffff
 970:	ffff                	0xffff
 972:	ffff                	0xffff
 974:	ffff                	0xffff
 976:	ffff                	0xffff
 978:	ffff                	0xffff
 97a:	ffff                	0xffff
 97c:	ffff                	0xffff
 97e:	ffff                	0xffff
 980:	ffff                	0xffff
 982:	ffff                	0xffff

00000984 <test_B2_res>:
 984:	ffff                	0xffff
 986:	ffff                	0xffff
 988:	ffff                	0xffff
 98a:	ffff                	0xffff
 98c:	ffff                	0xffff
 98e:	ffff                	0xffff
 990:	ffff                	0xffff
 992:	ffff                	0xffff
 994:	ffff                	0xffff
 996:	ffff                	0xffff
 998:	ffff                	0xffff
 99a:	ffff                	0xffff
 99c:	ffff                	0xffff
 99e:	ffff                	0xffff

000009a0 <test_C_res>:
 9a0:	ffff                	0xffff
 9a2:	ffff                	0xffff
 9a4:	ffff                	0xffff
 9a6:	ffff                	0xffff
 9a8:	ffff                	0xffff
 9aa:	ffff                	0xffff
 9ac:	ffff                	0xffff
 9ae:	ffff                	0xffff

000009b0 <end_signature>:
 9b0:	65542023          	sw	s5,1600(s0)
 9b4:	42207473          	csrrci	s0,0x422,0
 9b8:	6765                	lui	a4,0x19
 9ba:	6e69                	lui	t3,0x1a
 9bc:	000a                	0xa
 9be:	65542023          	sw	s5,1600(s0)
 9c2:	70207473          	csrrci	s0,0x702,0
 9c6:	7261                	lui	tp,0xffff8
 9c8:	2074                	fld	fa3,192(s0)
 9ca:	3141                	jal	64a <B1b_link+0x102>
 9cc:	2d20                	fld	fs0,88(a0)
 9ce:	6720                	flw	fs0,72(a4)
 9d0:	6e65                	lui	t3,0x19
 9d2:	7265                	lui	tp,0xffff9
 9d4:	6c61                	lui	s8,0x18
 9d6:	7420                	flw	fs0,104(s0)
 9d8:	7365                	lui	t1,0xffff9
 9da:	2074                	fld	fa3,192(s0)
 9dc:	4a20666f          	jal	a2,6e7e <__global_pointer$+0x5ab6>
 9e0:	4c41                	li	s8,16
 9e2:	0a52                	slli	s4,s4,0x14
 9e4:	2300                	fld	fs0,0(a4)
 9e6:	5420                	lw	s0,104(s0)
 9e8:	7365                	lui	t1,0xffff9
 9ea:	2074                	fld	fa3,192(s0)
 9ec:	6170                	flw	fa2,68(a0)
 9ee:	7472                	flw	fs0,60(sp)
 9f0:	4120                	lw	s0,64(a0)
 9f2:	2031                	jal	9fe <end_signature+0x4e>
 9f4:	2d20                	fld	fs0,88(a0)
 9f6:	4320                	lw	s0,64(a4)
 9f8:	6c706d6f          	jal	s10,78be <__global_pointer$+0x64f6>
 9fc:	7465                	lui	s0,0xffff9
 9fe:	0a65                	addi	s4,s4,25
 a00:	2300                	fld	fs0,0(a4)
 a02:	5420                	lw	s0,104(s0)
 a04:	7365                	lui	t1,0xffff9
 a06:	2074                	fld	fa3,192(s0)
 a08:	6170                	flw	fa2,68(a0)
 a0a:	7472                	flw	fs0,60(sp)
 a0c:	4120                	lw	s0,64(a0)
 a0e:	2032                	fld	ft0,264(sp)
 a10:	202d                	jal	a3a <end_signature+0x8a>
 a12:	6574                	flw	fa3,76(a0)
 a14:	6f207473          	csrrci	s0,0x6f2,0
 a18:	2066                	fld	ft0,88(sp)
 a1a:	414a                	lw	sp,144(sp)
 a1c:	524c                	lw	a1,36(a2)
 a1e:	2d20                	fld	fs0,88(a0)
 a20:	6a20                	flw	fs0,80(a2)
 a22:	6d75                	lui	s10,0x1d
 a24:	7370                	flw	fa2,100(a4)
 a26:	6620                	flw	fs0,72(a2)
 a28:	6177726f          	jal	tp,7883e <__global_pointer$+0x77476>
 a2c:	6472                	flw	fs0,28(sp)
 a2e:	202c                	fld	fa1,64(s0)
 a30:	6162                	flw	ft2,24(sp)
 a32:	61776b63          	bltu	a4,s7,1048 <_end+0x468>
 a36:	6472                	flw	fs0,28(sp)
 a38:	000a                	0xa
 a3a:	65542023          	sw	s5,1600(s0) # ffff9640 <__global_pointer$+0xffff8278>
 a3e:	70207473          	csrrci	s0,0x702,0
 a42:	7261                	lui	tp,0xffff8
 a44:	2074                	fld	fa3,192(s0)
 a46:	3241                	jal	3c6 <_run_test+0x126>
 a48:	2020                	fld	fs0,64(s0)
 a4a:	202d                	jal	a74 <end_signature+0xc4>
 a4c:	706d6f43          	fmadd.s	ft10,fs10,ft6,fa4,unknown
 a50:	656c                	flw	fa1,76(a0)
 a52:	6574                	flw	fa3,76(a0)
 a54:	000a                	0xa
 a56:	65542023          	sw	s5,1600(s0)
 a5a:	70207473          	csrrci	s0,0x702,0
 a5e:	7261                	lui	tp,0xffff8
 a60:	2074                	fld	fa3,192(s0)
 a62:	3142                	fld	ft2,48(sp)
 a64:	2d20                	fld	fs0,88(a0)
 a66:	7420                	flw	fs0,104(s0)
 a68:	7365                	lui	t1,0xffff9
 a6a:	2074                	fld	fa3,192(s0)
 a6c:	4a20666f          	jal	a2,6f0e <__global_pointer$+0x5b46>
 a70:	4c41                	li	s8,16
 a72:	2052                	fld	ft0,272(sp)
 a74:	202d                	jal	a9e <end_signature+0xee>
 a76:	696c                	flw	fa1,84(a0)
 a78:	6b6e                	flw	fs6,216(sp)
 a7a:	6e69                	lui	t3,0x1a
 a7c:	23000a67          	jalr	s4,560(zero) # 230 <_start+0x30>
 a80:	5420                	lw	s0,104(s0)
 a82:	7365                	lui	t1,0xffff9
 a84:	2074                	fld	fa3,192(s0)
 a86:	6170                	flw	fa2,68(a0)
 a88:	7472                	flw	fs0,60(sp)
 a8a:	4120                	lw	s0,64(a0)
 a8c:	2d202033          	0x2d202033
 a90:	4320                	lw	s0,64(a4)
 a92:	6c706d6f          	jal	s10,7958 <__global_pointer$+0x6590>
 a96:	7465                	lui	s0,0xffff9
 a98:	0a65                	addi	s4,s4,25
 a9a:	2300                	fld	fs0,0(a4)
 a9c:	5420                	lw	s0,104(s0)
 a9e:	7365                	lui	t1,0xffff9
 aa0:	2074                	fld	fa3,192(s0)
 aa2:	6170                	flw	fa2,68(a0)
 aa4:	7472                	flw	fs0,60(sp)
 aa6:	4220                	lw	s0,64(a2)
 aa8:	2032                	fld	ft0,264(sp)
 aaa:	202d                	jal	ad4 <end_signature+0x124>
 aac:	6574                	flw	fa3,76(a0)
 aae:	6f207473          	csrrci	s0,0x6f2,0
 ab2:	2066                	fld	ft0,88(sp)
 ab4:	414a                	lw	sp,144(sp)
 ab6:	524c                	lw	a1,36(a2)
 ab8:	2d20                	fld	fs0,88(a0)
 aba:	6c20                	flw	fs0,88(s0)
 abc:	6e69                	lui	t3,0x1a
 abe:	676e696b          	0x676e696b
 ac2:	202c                	fld	fa1,64(s0)
 ac4:	6f6c                	flw	fa1,92(a4)
 ac6:	69622077          	0x69622077
 aca:	2074                	fld	fa3,192(s0)
 acc:	6120666f          	jal	a2,70de <__global_pointer$+0x5d16>
 ad0:	6464                	flw	fs1,76(s0)
 ad2:	6572                	flw	fa0,28(sp)
 ad4:	69207373          	csrrci	t1,0x692,0
 ad8:	6c632073          	csrs	0x6c6,t1
 adc:	6165                	addi	sp,sp,112
 ade:	6572                	flw	fa0,28(sp)
 ae0:	0a64                	addi	s1,sp,284
 ae2:	2300                	fld	fs0,0(a4)
 ae4:	5420                	lw	s0,104(s0)
 ae6:	7365                	lui	t1,0xffff9
 ae8:	2074                	fld	fa3,192(s0)
 aea:	6170                	flw	fa2,68(a0)
 aec:	7472                	flw	fs0,60(sp)
 aee:	4120                	lw	s0,64(a0)
 af0:	2034                	fld	fa3,64(s0)
 af2:	2d20                	fld	fs0,88(a0)
 af4:	4320                	lw	s0,64(a4)
 af6:	6c706d6f          	jal	s10,79bc <__global_pointer$+0x65f4>
 afa:	7465                	lui	s0,0xffff9
 afc:	0a65                	addi	s4,s4,25
 afe:	2300                	fld	fs0,0(a4)
 b00:	5420                	lw	s0,104(s0)
 b02:	7365                	lui	t1,0xffff9
 b04:	2074                	fld	fa3,192(s0)
 b06:	6170                	flw	fa2,68(a0)
 b08:	7472                	flw	fs0,60(sp)
 b0a:	4320                	lw	s0,64(a4)
 b0c:	2d20                	fld	fs0,88(a0)
 b0e:	4a20                	lw	s0,80(a2)
 b10:	4c41                	li	s8,16
 b12:	2052                	fld	ft0,272(sp)
 b14:	7375                	lui	t1,0xffffd
 b16:	6e69                	lui	t3,0x1a
 b18:	6d692067          	0x6d692067
 b1c:	656d                	lui	a0,0x1b
 b1e:	6964                	flw	fs1,84(a0)
 b20:	7461                	lui	s0,0xffff8
 b22:	0a65                	addi	s4,s4,25
 b24:	2300                	fld	fs0,0(a4)
 b26:	5420                	lw	s0,104(s0)
 b28:	7365                	lui	t1,0xffff9
 b2a:	2074                	fld	fa3,192(s0)
 b2c:	6170                	flw	fa2,68(a0)
 b2e:	7472                	flw	fs0,60(sp)
 b30:	4120                	lw	s0,64(a0)
 b32:	2035                	jal	b5e <end_signature+0x1ae>
 b34:	2d20                	fld	fs0,88(a0)
 b36:	4320                	lw	s0,64(a4)
 b38:	6c706d6f          	jal	s10,79fe <__global_pointer$+0x6636>
 b3c:	7465                	lui	s0,0xffff9
 b3e:	0a65                	addi	s4,s4,25
 b40:	2300                	fld	fs0,0(a4)
 b42:	5420                	lw	s0,104(s0)
 b44:	7365                	lui	t1,0xffff9
 b46:	2074                	fld	fa3,192(s0)
 b48:	6e45                	lui	t3,0x11
 b4a:	0a64                	addi	s1,sp,284
	...

Дизассемблирование раздела .tohost:

00000b80 <tohost>:
	...

00000bc0 <fromhost>:
	...

Дизассемблирование раздела .sdata:

00000bc8 <__global_pointer$-0x800>:
	...

Дизассемблирование раздела .stack:

0000fc00 <.stack>:
	...
