
/home/oleg/scr1/build/verilator_wf_AHB_IMC/compliance_I-SLT-01.elf:     формат файла elf32-littleriscv
/home/oleg/scr1/build/verilator_wf_AHB_IMC/compliance_I-SLT-01.elf
архитектура: riscv:rv32, флаги 0x00000112:
EXEC_P, HAS_SYMS, D_PAGED
начальный адрес 0x00000200

Заголовок программы:
    LOAD off    0x00001000 vaddr 0x00000000 paddr 0x00000000 align 2**12
         filesz 0x00000f08 memsz 0x00000f20 flags rwx
    LOAD off    0x00002c00 vaddr 0x0000fc00 paddr 0x0000fc00 align 2**12
         filesz 0x00000000 memsz 0x00000400 flags rw-

Разделы:
Idx Name          Size      VMA       LMA       File off  Algn  Флаги
  0 .text.init    00000284  00000000  00000000  00001000  2**6  CONTENTS, ALLOC, LOAD, READONLY, CODE
  1 .text         000007e0  000002a0  000002a0  000012a0  2**5  CONTENTS, ALLOC, LOAD, READONLY, CODE
  2 .data         00000440  00000a80  00000a80  00001a80  2**4  CONTENTS, ALLOC, LOAD, DATA
  3 .tohost       00000048  00000ec0  00000ec0  00001ec0  2**6  CONTENTS, ALLOC, LOAD, DATA
  4 .sdata        00000018  00000f08  00000f08  00001f08  2**0  ALLOC
  5 .tdata        00000000  00000f20  00000f20  00001f08  2**0  CONTENTS, ALLOC, LOAD, DATA, THREAD_LOCAL
  6 .tbss         00000000  00000f20  00000f20  00000000  2**0  ALLOC, THREAD_LOCAL
  7 .bss          00000000  00000f20  00000f20  00001f08  2**0  ALLOC
  8 .stack        00000400  0000fc00  0000fc00  00002c00  2**0  ALLOC
SYMBOL TABLE:
00000000 l    d  .text.init	00000000 .text.init
000002a0 l    d  .text	00000000 .text
00000a80 l    d  .data	00000000 .data
00000ec0 l    d  .tohost	00000000 .tohost
00000f08 l    d  .sdata	00000000 .sdata
00000f20 l    d  .tdata	00000000 .tdata
00000f20 l    d  .tbss	00000000 .tbss
00000f20 l    d  .bss	00000000 .bss
0000fc00 l    d  .stack	00000000 .stack
00000000 l    df *ABS*	00000000 /home/oleg/scr1/build/verilator_wf_AHB_IMC/riscv_compliance/riscv_compliance_objs/I-SLT-01.o
00000a40 l       .text	00000000 sc_exit
000001c0 l       .text.init	00000000 trap_vector
000001fc l       .text.init	00000000 _report
000001f8 l       .text.init	00000000 handle_exception
000001f8 l       .text.init	00000000 other_exception
000002a0 l       .text	00000000 _run_test
00000a80 l       .data	00000000 test_A1_data
00000ac0 l       .data	00000000 test_A1_res
00000a84 l       .data	00000000 test_A2_data
00000ad8 l       .data	00000000 test_A2_res
00000a88 l       .data	00000000 test_A3_data
00000af0 l       .data	00000000 test_A3_res
00000a8c l       .data	00000000 test_A4_data
00000b08 l       .data	00000000 test_A4_res
00000a90 l       .data	00000000 test_A5_data
00000b20 l       .data	00000000 test_A5_res
00000a94 l       .data	00000000 test_B_data
00000b38 l       .data	00000000 test_B_res
00000b44 l       .data	00000000 test_C_res
00000b6c l       .data	00000000 test_D_res
00000a30 l       .text	00000000 ecall
00000400 g       *ABS*	00000000 STACK_SIZE
00001708 g       .sdata	00000000 __global_pointer$
00000b80 g       .data	00000000 end_signature
00000aa0 g       .data	00000000 begin_regstate
00000ac0 g       .data	00000000 begin_signature
00000200 g       .text.init	00000000 _start
00000020 g       *ABS*	00000000 CL_SIZE
000000f8 g       .text.init	00000000 SIM_STOP
00000f20 g       .bss	00000000 _end
00000f00 g       .tohost	00000000 fromhost
00000ec0 g       .tohost	00000000 tohost
000000f4 g       .text.init	00000000 SIM_EXIT



Дизассемблирование раздела .text.init:

00000000 <SIM_EXIT-0xf4>:
	...

000000f4 <SIM_EXIT>:
  f4:	00000013          	nop

000000f8 <SIM_STOP>:
  f8:	0000006f          	j	f8 <SIM_STOP>
  fc:	ffff                	0xffff
  fe:	ffff                	0xffff
	...

000001c0 <trap_vector>:
 1c0:	34202773          	csrr	a4,mcause
 1c4:	00800793          	li	a5,8
 1c8:	02f70a63          	beq	a4,a5,1fc <_report>
 1cc:	00900793          	li	a5,9
 1d0:	02f70663          	beq	a4,a5,1fc <_report>
 1d4:	00b00793          	li	a5,11
 1d8:	02f70263          	beq	a4,a5,1fc <_report>
 1dc:	00000717          	auipc	a4,0x0
 1e0:	e2470713          	addi	a4,a4,-476 # 0 <CL_SIZE-0x20>
 1e4:	00070463          	beqz	a4,1ec <trap_vector+0x2c>
 1e8:	00070067          	jr	a4
 1ec:	34202773          	csrr	a4,mcause
 1f0:	00075463          	bgez	a4,1f8 <handle_exception>
 1f4:	0040006f          	j	1f8 <handle_exception>

000001f8 <handle_exception>:
 1f8:	00100513          	li	a0,1

000001fc <_report>:
 1fc:	0450006f          	j	a40 <sc_exit>

00000200 <_start>:
 200:	f1402573          	csrr	a0,mhartid
 204:	00051063          	bnez	a0,204 <_start+0x4>
 208:	00000e13          	li	t3,0
 20c:	00000297          	auipc	t0,0x0
 210:	fb428293          	addi	t0,t0,-76 # 1c0 <trap_vector>
 214:	30529073          	csrw	mtvec,t0
 218:	00100513          	li	a0,1
 21c:	01f51513          	slli	a0,a0,0x1f
 220:	00054a63          	bltz	a0,234 <_start+0x34>
 224:	0ff0000f          	fence
 228:	000e0593          	mv	a1,t3
 22c:	00000513          	li	a0,0
 230:	00000073          	ecall
 234:	00000297          	auipc	t0,0x0
 238:	dcc28293          	addi	t0,t0,-564 # 0 <CL_SIZE-0x20>
 23c:	00028e63          	beqz	t0,258 <_start+0x58>
 240:	10529073          	csrw	stvec,t0
 244:	0000b2b7          	lui	t0,0xb
 248:	10928293          	addi	t0,t0,265 # b109 <__global_pointer$+0x9a01>
 24c:	30229073          	csrw	medeleg,t0
 250:	30202373          	csrr	t1,medeleg
 254:	fa6292e3          	bne	t0,t1,1f8 <handle_exception>
 258:	30005073          	csrwi	mstatus,0
 25c:	00002537          	lui	a0,0x2
 260:	80050513          	addi	a0,a0,-2048 # 1800 <__global_pointer$+0xf8>
 264:	30052073          	csrs	mstatus,a0
 268:	00000297          	auipc	t0,0x0
 26c:	03828293          	addi	t0,t0,56 # 2a0 <_run_test>
 270:	34129073          	csrw	mepc,t0
 274:	f1402573          	csrr	a0,mhartid
 278:	30200073          	mret
	...

Дизассемблирование раздела .text:

000002a0 <_run_test>:
 2a0:	00001f97          	auipc	t6,0x1
 2a4:	800f8f93          	addi	t6,t6,-2048 # aa0 <begin_regstate>
 2a8:	003fa023          	sw	gp,0(t6)
 2ac:	004fa223          	sw	tp,4(t6)
 2b0:	005fa423          	sw	t0,8(t6)
 2b4:	f00001b7          	lui	gp,0xf0000
 2b8:	00001217          	auipc	tp,0x1
 2bc:	8c820213          	addi	tp,tp,-1848 # b80 <end_signature>
 2c0:	00020283          	lb	t0,0(tp) # 0 <CL_SIZE-0x20>
 2c4:	00518023          	sb	t0,0(gp) # f0000000 <__global_pointer$+0xefffe8f8>
 2c8:	00028663          	beqz	t0,2d4 <_run_test+0x34>
 2cc:	00120213          	addi	tp,tp,1 # 1 <CL_SIZE-0x1f>
 2d0:	ff1ff06f          	j	2c0 <_run_test+0x20>
 2d4:	00000f97          	auipc	t6,0x0
 2d8:	7ccf8f93          	addi	t6,t6,1996 # aa0 <begin_regstate>
 2dc:	000fa183          	lw	gp,0(t6)
 2e0:	004fa203          	lw	tp,4(t6)
 2e4:	008fa283          	lw	t0,8(t6)
 2e8:	00000f97          	auipc	t6,0x0
 2ec:	7b8f8f93          	addi	t6,t6,1976 # aa0 <begin_regstate>
 2f0:	003fa023          	sw	gp,0(t6)
 2f4:	004fa223          	sw	tp,4(t6)
 2f8:	005fa423          	sw	t0,8(t6)
 2fc:	f00001b7          	lui	gp,0xf0000
 300:	00001217          	auipc	tp,0x1
 304:	88e20213          	addi	tp,tp,-1906 # b8e <end_signature+0xe>
 308:	00020283          	lb	t0,0(tp) # 0 <CL_SIZE-0x20>
 30c:	00518023          	sb	t0,0(gp) # f0000000 <__global_pointer$+0xefffe8f8>
 310:	00028663          	beqz	t0,31c <_run_test+0x7c>
 314:	00120213          	addi	tp,tp,1 # 1 <CL_SIZE-0x1f>
 318:	ff1ff06f          	j	308 <_run_test+0x68>
 31c:	00000f97          	auipc	t6,0x0
 320:	784f8f93          	addi	t6,t6,1924 # aa0 <begin_regstate>
 324:	000fa183          	lw	gp,0(t6)
 328:	004fa203          	lw	tp,4(t6)
 32c:	008fa283          	lw	t0,8(t6)
 330:	00000097          	auipc	ra,0x0
 334:	75008093          	addi	ra,ra,1872 # a80 <test_A1_data>
 338:	00000117          	auipc	sp,0x0
 33c:	78810113          	addi	sp,sp,1928 # ac0 <begin_signature>
 340:	0000a183          	lw	gp,0(ra)
 344:	00100213          	li	tp,1
 348:	800002b7          	lui	t0,0x80000
 34c:	fff28293          	addi	t0,t0,-1 # 7fffffff <__global_pointer$+0x7fffe8f7>
 350:	fff00313          	li	t1,-1
 354:	00000393          	li	t2,0
 358:	80000437          	lui	s0,0x80000
 35c:	0041a233          	slt	tp,gp,tp
 360:	0051a2b3          	slt	t0,gp,t0
 364:	0061a333          	slt	t1,gp,t1
 368:	0071a3b3          	slt	t2,gp,t2
 36c:	0081a433          	slt	s0,gp,s0
 370:	00312023          	sw	gp,0(sp)
 374:	00412223          	sw	tp,4(sp)
 378:	00512423          	sw	t0,8(sp)
 37c:	00612623          	sw	t1,12(sp)
 380:	00712823          	sw	t2,16(sp)
 384:	00812a23          	sw	s0,20(sp)
 388:	00000f97          	auipc	t6,0x0
 38c:	718f8f93          	addi	t6,t6,1816 # aa0 <begin_regstate>
 390:	003fa023          	sw	gp,0(t6)
 394:	004fa223          	sw	tp,4(t6)
 398:	005fa423          	sw	t0,8(t6)
 39c:	f00001b7          	lui	gp,0xf0000
 3a0:	00001217          	auipc	tp,0x1
 3a4:	84020213          	addi	tp,tp,-1984 # be0 <end_signature+0x60>
 3a8:	00020283          	lb	t0,0(tp) # 0 <CL_SIZE-0x20>
 3ac:	00518023          	sb	t0,0(gp) # f0000000 <__global_pointer$+0xefffe8f8>
 3b0:	00028663          	beqz	t0,3bc <_run_test+0x11c>
 3b4:	00120213          	addi	tp,tp,1 # 1 <CL_SIZE-0x1f>
 3b8:	ff1ff06f          	j	3a8 <_run_test+0x108>
 3bc:	00000f97          	auipc	t6,0x0
 3c0:	6e4f8f93          	addi	t6,t6,1764 # aa0 <begin_regstate>
 3c4:	000fa183          	lw	gp,0(t6)
 3c8:	004fa203          	lw	tp,4(t6)
 3cc:	008fa283          	lw	t0,8(t6)
 3d0:	00000f97          	auipc	t6,0x0
 3d4:	6d0f8f93          	addi	t6,t6,1744 # aa0 <begin_regstate>
 3d8:	003fa023          	sw	gp,0(t6)
 3dc:	004fa223          	sw	tp,4(t6)
 3e0:	005fa423          	sw	t0,8(t6)
 3e4:	f00001b7          	lui	gp,0xf0000
 3e8:	00001217          	auipc	tp,0x1
 3ec:	81420213          	addi	tp,tp,-2028 # bfc <end_signature+0x7c>
 3f0:	00020283          	lb	t0,0(tp) # 0 <CL_SIZE-0x20>
 3f4:	00518023          	sb	t0,0(gp) # f0000000 <__global_pointer$+0xefffe8f8>
 3f8:	00028663          	beqz	t0,404 <STACK_SIZE+0x4>
 3fc:	00120213          	addi	tp,tp,1 # 1 <CL_SIZE-0x1f>
 400:	ff1ff06f          	j	3f0 <_run_test+0x150>
 404:	00000f97          	auipc	t6,0x0
 408:	69cf8f93          	addi	t6,t6,1692 # aa0 <begin_regstate>
 40c:	000fa183          	lw	gp,0(t6)
 410:	004fa203          	lw	tp,4(t6)
 414:	008fa283          	lw	t0,8(t6)
 418:	00000097          	auipc	ra,0x0
 41c:	66c08093          	addi	ra,ra,1644 # a84 <test_A2_data>
 420:	00000117          	auipc	sp,0x0
 424:	6b810113          	addi	sp,sp,1720 # ad8 <test_A2_res>
 428:	0000a403          	lw	s0,0(ra)
 42c:	00100493          	li	s1,1
 430:	80000537          	lui	a0,0x80000
 434:	fff50513          	addi	a0,a0,-1 # 7fffffff <__global_pointer$+0x7fffe8f7>
 438:	fff00593          	li	a1,-1
 43c:	00000613          	li	a2,0
 440:	800006b7          	lui	a3,0x80000
 444:	009424b3          	slt	s1,s0,s1
 448:	00a42533          	slt	a0,s0,a0
 44c:	00b425b3          	slt	a1,s0,a1
 450:	00c42633          	slt	a2,s0,a2
 454:	00d426b3          	slt	a3,s0,a3
 458:	00812023          	sw	s0,0(sp)
 45c:	00912223          	sw	s1,4(sp)
 460:	00a12423          	sw	a0,8(sp)
 464:	00b12623          	sw	a1,12(sp)
 468:	00c12823          	sw	a2,16(sp)
 46c:	00d12a23          	sw	a3,20(sp)
 470:	00000f97          	auipc	t6,0x0
 474:	630f8f93          	addi	t6,t6,1584 # aa0 <begin_regstate>
 478:	003fa023          	sw	gp,0(t6)
 47c:	004fa223          	sw	tp,4(t6)
 480:	005fa423          	sw	t0,8(t6)
 484:	f00001b7          	lui	gp,0xf0000
 488:	00000217          	auipc	tp,0x0
 48c:	7c620213          	addi	tp,tp,1990 # c4e <end_signature+0xce>
 490:	00020283          	lb	t0,0(tp) # 0 <CL_SIZE-0x20>
 494:	00518023          	sb	t0,0(gp) # f0000000 <__global_pointer$+0xefffe8f8>
 498:	00028663          	beqz	t0,4a4 <STACK_SIZE+0xa4>
 49c:	00120213          	addi	tp,tp,1 # 1 <CL_SIZE-0x1f>
 4a0:	ff1ff06f          	j	490 <STACK_SIZE+0x90>
 4a4:	00000f97          	auipc	t6,0x0
 4a8:	5fcf8f93          	addi	t6,t6,1532 # aa0 <begin_regstate>
 4ac:	000fa183          	lw	gp,0(t6)
 4b0:	004fa203          	lw	tp,4(t6)
 4b4:	008fa283          	lw	t0,8(t6)
 4b8:	00000f97          	auipc	t6,0x0
 4bc:	5e8f8f93          	addi	t6,t6,1512 # aa0 <begin_regstate>
 4c0:	003fa023          	sw	gp,0(t6)
 4c4:	004fa223          	sw	tp,4(t6)
 4c8:	005fa423          	sw	t0,8(t6)
 4cc:	f00001b7          	lui	gp,0xf0000
 4d0:	00000217          	auipc	tp,0x0
 4d4:	79a20213          	addi	tp,tp,1946 # c6a <end_signature+0xea>
 4d8:	00020283          	lb	t0,0(tp) # 0 <CL_SIZE-0x20>
 4dc:	00518023          	sb	t0,0(gp) # f0000000 <__global_pointer$+0xefffe8f8>
 4e0:	00028663          	beqz	t0,4ec <STACK_SIZE+0xec>
 4e4:	00120213          	addi	tp,tp,1 # 1 <CL_SIZE-0x1f>
 4e8:	ff1ff06f          	j	4d8 <STACK_SIZE+0xd8>
 4ec:	00000f97          	auipc	t6,0x0
 4f0:	5b4f8f93          	addi	t6,t6,1460 # aa0 <begin_regstate>
 4f4:	000fa183          	lw	gp,0(t6)
 4f8:	004fa203          	lw	tp,4(t6)
 4fc:	008fa283          	lw	t0,8(t6)
 500:	00000097          	auipc	ra,0x0
 504:	58808093          	addi	ra,ra,1416 # a88 <test_A3_data>
 508:	00000117          	auipc	sp,0x0
 50c:	5e810113          	addi	sp,sp,1512 # af0 <test_A3_res>
 510:	0000a683          	lw	a3,0(ra)
 514:	00100713          	li	a4,1
 518:	800007b7          	lui	a5,0x80000
 51c:	fff78793          	addi	a5,a5,-1 # 7fffffff <__global_pointer$+0x7fffe8f7>
 520:	fff00813          	li	a6,-1
 524:	00000893          	li	a7,0
 528:	80000937          	lui	s2,0x80000
 52c:	00e6a733          	slt	a4,a3,a4
 530:	00f6a7b3          	slt	a5,a3,a5
 534:	0106a833          	slt	a6,a3,a6
 538:	0116a8b3          	slt	a7,a3,a7
 53c:	0126a933          	slt	s2,a3,s2
 540:	00d12023          	sw	a3,0(sp)
 544:	00e12223          	sw	a4,4(sp)
 548:	00f12423          	sw	a5,8(sp)
 54c:	01012623          	sw	a6,12(sp)
 550:	01112823          	sw	a7,16(sp)
 554:	01212a23          	sw	s2,20(sp)
 558:	00000f97          	auipc	t6,0x0
 55c:	548f8f93          	addi	t6,t6,1352 # aa0 <begin_regstate>
 560:	003fa023          	sw	gp,0(t6)
 564:	004fa223          	sw	tp,4(t6)
 568:	005fa423          	sw	t0,8(t6)
 56c:	f00001b7          	lui	gp,0xf0000
 570:	00000217          	auipc	tp,0x0
 574:	74d20213          	addi	tp,tp,1869 # cbd <end_signature+0x13d>
 578:	00020283          	lb	t0,0(tp) # 0 <CL_SIZE-0x20>
 57c:	00518023          	sb	t0,0(gp) # f0000000 <__global_pointer$+0xefffe8f8>
 580:	00028663          	beqz	t0,58c <STACK_SIZE+0x18c>
 584:	00120213          	addi	tp,tp,1 # 1 <CL_SIZE-0x1f>
 588:	ff1ff06f          	j	578 <STACK_SIZE+0x178>
 58c:	00000f97          	auipc	t6,0x0
 590:	514f8f93          	addi	t6,t6,1300 # aa0 <begin_regstate>
 594:	000fa183          	lw	gp,0(t6)
 598:	004fa203          	lw	tp,4(t6)
 59c:	008fa283          	lw	t0,8(t6)
 5a0:	00000f97          	auipc	t6,0x0
 5a4:	500f8f93          	addi	t6,t6,1280 # aa0 <begin_regstate>
 5a8:	003fa023          	sw	gp,0(t6)
 5ac:	004fa223          	sw	tp,4(t6)
 5b0:	005fa423          	sw	t0,8(t6)
 5b4:	f00001b7          	lui	gp,0xf0000
 5b8:	00000217          	auipc	tp,0x0
 5bc:	72120213          	addi	tp,tp,1825 # cd9 <end_signature+0x159>
 5c0:	00020283          	lb	t0,0(tp) # 0 <CL_SIZE-0x20>
 5c4:	00518023          	sb	t0,0(gp) # f0000000 <__global_pointer$+0xefffe8f8>
 5c8:	00028663          	beqz	t0,5d4 <STACK_SIZE+0x1d4>
 5cc:	00120213          	addi	tp,tp,1 # 1 <CL_SIZE-0x1f>
 5d0:	ff1ff06f          	j	5c0 <STACK_SIZE+0x1c0>
 5d4:	00000f97          	auipc	t6,0x0
 5d8:	4ccf8f93          	addi	t6,t6,1228 # aa0 <begin_regstate>
 5dc:	000fa183          	lw	gp,0(t6)
 5e0:	004fa203          	lw	tp,4(t6)
 5e4:	008fa283          	lw	t0,8(t6)
 5e8:	00000097          	auipc	ra,0x0
 5ec:	4a408093          	addi	ra,ra,1188 # a8c <test_A4_data>
 5f0:	00000117          	auipc	sp,0x0
 5f4:	51810113          	addi	sp,sp,1304 # b08 <test_A4_res>
 5f8:	0000a903          	lw	s2,0(ra)
 5fc:	00100993          	li	s3,1
 600:	80000a37          	lui	s4,0x80000
 604:	fffa0a13          	addi	s4,s4,-1 # 7fffffff <__global_pointer$+0x7fffe8f7>
 608:	fff00a93          	li	s5,-1
 60c:	00000b13          	li	s6,0
 610:	80000bb7          	lui	s7,0x80000
 614:	013929b3          	slt	s3,s2,s3
 618:	01492a33          	slt	s4,s2,s4
 61c:	01592ab3          	slt	s5,s2,s5
 620:	01692b33          	slt	s6,s2,s6
 624:	01792bb3          	slt	s7,s2,s7
 628:	01212023          	sw	s2,0(sp)
 62c:	01312223          	sw	s3,4(sp)
 630:	01412423          	sw	s4,8(sp)
 634:	01512623          	sw	s5,12(sp)
 638:	01612823          	sw	s6,16(sp)
 63c:	01712a23          	sw	s7,20(sp)
 640:	00000f97          	auipc	t6,0x0
 644:	460f8f93          	addi	t6,t6,1120 # aa0 <begin_regstate>
 648:	003fa023          	sw	gp,0(t6)
 64c:	004fa223          	sw	tp,4(t6)
 650:	005fa423          	sw	t0,8(t6)
 654:	f00001b7          	lui	gp,0xf0000
 658:	00000217          	auipc	tp,0x0
 65c:	6dc20213          	addi	tp,tp,1756 # d34 <end_signature+0x1b4>
 660:	00020283          	lb	t0,0(tp) # 0 <CL_SIZE-0x20>
 664:	00518023          	sb	t0,0(gp) # f0000000 <__global_pointer$+0xefffe8f8>
 668:	00028663          	beqz	t0,674 <STACK_SIZE+0x274>
 66c:	00120213          	addi	tp,tp,1 # 1 <CL_SIZE-0x1f>
 670:	ff1ff06f          	j	660 <STACK_SIZE+0x260>
 674:	00000f97          	auipc	t6,0x0
 678:	42cf8f93          	addi	t6,t6,1068 # aa0 <begin_regstate>
 67c:	000fa183          	lw	gp,0(t6)
 680:	004fa203          	lw	tp,4(t6)
 684:	008fa283          	lw	t0,8(t6)
 688:	00000f97          	auipc	t6,0x0
 68c:	418f8f93          	addi	t6,t6,1048 # aa0 <begin_regstate>
 690:	003fa023          	sw	gp,0(t6)
 694:	004fa223          	sw	tp,4(t6)
 698:	005fa423          	sw	t0,8(t6)
 69c:	f00001b7          	lui	gp,0xf0000
 6a0:	00000217          	auipc	tp,0x0
 6a4:	6b020213          	addi	tp,tp,1712 # d50 <end_signature+0x1d0>
 6a8:	00020283          	lb	t0,0(tp) # 0 <CL_SIZE-0x20>
 6ac:	00518023          	sb	t0,0(gp) # f0000000 <__global_pointer$+0xefffe8f8>
 6b0:	00028663          	beqz	t0,6bc <STACK_SIZE+0x2bc>
 6b4:	00120213          	addi	tp,tp,1 # 1 <CL_SIZE-0x1f>
 6b8:	ff1ff06f          	j	6a8 <STACK_SIZE+0x2a8>
 6bc:	00000f97          	auipc	t6,0x0
 6c0:	3e4f8f93          	addi	t6,t6,996 # aa0 <begin_regstate>
 6c4:	000fa183          	lw	gp,0(t6)
 6c8:	004fa203          	lw	tp,4(t6)
 6cc:	008fa283          	lw	t0,8(t6)
 6d0:	00000097          	auipc	ra,0x0
 6d4:	3c008093          	addi	ra,ra,960 # a90 <test_A5_data>
 6d8:	00000117          	auipc	sp,0x0
 6dc:	44810113          	addi	sp,sp,1096 # b20 <test_A5_res>
 6e0:	0000ab83          	lw	s7,0(ra)
 6e4:	00100c13          	li	s8,1
 6e8:	80000cb7          	lui	s9,0x80000
 6ec:	fffc8c93          	addi	s9,s9,-1 # 7fffffff <__global_pointer$+0x7fffe8f7>
 6f0:	fff00d13          	li	s10,-1
 6f4:	00000d93          	li	s11,0
 6f8:	80000e37          	lui	t3,0x80000
 6fc:	018bac33          	slt	s8,s7,s8
 700:	019bacb3          	slt	s9,s7,s9
 704:	01abad33          	slt	s10,s7,s10
 708:	01bbadb3          	slt	s11,s7,s11
 70c:	01cbae33          	slt	t3,s7,t3
 710:	01712023          	sw	s7,0(sp)
 714:	01812223          	sw	s8,4(sp)
 718:	01912423          	sw	s9,8(sp)
 71c:	01a12623          	sw	s10,12(sp)
 720:	01b12823          	sw	s11,16(sp)
 724:	01c12a23          	sw	t3,20(sp)
 728:	00000f97          	auipc	t6,0x0
 72c:	378f8f93          	addi	t6,t6,888 # aa0 <begin_regstate>
 730:	003fa023          	sw	gp,0(t6)
 734:	004fa223          	sw	tp,4(t6)
 738:	005fa423          	sw	t0,8(t6)
 73c:	f00001b7          	lui	gp,0xf0000
 740:	00000217          	auipc	tp,0x0
 744:	66b20213          	addi	tp,tp,1643 # dab <end_signature+0x22b>
 748:	00020283          	lb	t0,0(tp) # 0 <CL_SIZE-0x20>
 74c:	00518023          	sb	t0,0(gp) # f0000000 <__global_pointer$+0xefffe8f8>
 750:	00028663          	beqz	t0,75c <STACK_SIZE+0x35c>
 754:	00120213          	addi	tp,tp,1 # 1 <CL_SIZE-0x1f>
 758:	ff1ff06f          	j	748 <STACK_SIZE+0x348>
 75c:	00000f97          	auipc	t6,0x0
 760:	344f8f93          	addi	t6,t6,836 # aa0 <begin_regstate>
 764:	000fa183          	lw	gp,0(t6)
 768:	004fa203          	lw	tp,4(t6)
 76c:	008fa283          	lw	t0,8(t6)
 770:	00000f97          	auipc	t6,0x0
 774:	330f8f93          	addi	t6,t6,816 # aa0 <begin_regstate>
 778:	003fa023          	sw	gp,0(t6)
 77c:	004fa223          	sw	tp,4(t6)
 780:	005fa423          	sw	t0,8(t6)
 784:	f00001b7          	lui	gp,0xf0000
 788:	00000217          	auipc	tp,0x0
 78c:	63f20213          	addi	tp,tp,1599 # dc7 <end_signature+0x247>
 790:	00020283          	lb	t0,0(tp) # 0 <CL_SIZE-0x20>
 794:	00518023          	sb	t0,0(gp) # f0000000 <__global_pointer$+0xefffe8f8>
 798:	00028663          	beqz	t0,7a4 <STACK_SIZE+0x3a4>
 79c:	00120213          	addi	tp,tp,1 # 1 <CL_SIZE-0x1f>
 7a0:	ff1ff06f          	j	790 <STACK_SIZE+0x390>
 7a4:	00000f97          	auipc	t6,0x0
 7a8:	2fcf8f93          	addi	t6,t6,764 # aa0 <begin_regstate>
 7ac:	000fa183          	lw	gp,0(t6)
 7b0:	004fa203          	lw	tp,4(t6)
 7b4:	008fa283          	lw	t0,8(t6)
 7b8:	00000d17          	auipc	s10,0x0
 7bc:	2dcd0d13          	addi	s10,s10,732 # a94 <test_B_data>
 7c0:	00000d97          	auipc	s11,0x0
 7c4:	378d8d93          	addi	s11,s11,888 # b38 <test_B_res>
 7c8:	000d2083          	lw	ra,0(s10)
 7cc:	00100113          	li	sp,1
 7d0:	0020a033          	slt	zero,ra,sp
 7d4:	000da023          	sw	zero,0(s11)
 7d8:	001da223          	sw	ra,4(s11)
 7dc:	002da423          	sw	sp,8(s11)
 7e0:	00000f97          	auipc	t6,0x0
 7e4:	2c0f8f93          	addi	t6,t6,704 # aa0 <begin_regstate>
 7e8:	003fa023          	sw	gp,0(t6)
 7ec:	004fa223          	sw	tp,4(t6)
 7f0:	005fa423          	sw	t0,8(t6)
 7f4:	f00001b7          	lui	gp,0xf0000
 7f8:	00000217          	auipc	tp,0x0
 7fc:	5f620213          	addi	tp,tp,1526 # dee <end_signature+0x26e>
 800:	00020283          	lb	t0,0(tp) # 0 <CL_SIZE-0x20>
 804:	00518023          	sb	t0,0(gp) # f0000000 <__global_pointer$+0xefffe8f8>
 808:	00028663          	beqz	t0,814 <STACK_SIZE+0x414>
 80c:	00120213          	addi	tp,tp,1 # 1 <CL_SIZE-0x1f>
 810:	ff1ff06f          	j	800 <STACK_SIZE+0x400>
 814:	00000f97          	auipc	t6,0x0
 818:	28cf8f93          	addi	t6,t6,652 # aa0 <begin_regstate>
 81c:	000fa183          	lw	gp,0(t6)
 820:	004fa203          	lw	tp,4(t6)
 824:	008fa283          	lw	t0,8(t6)
 828:	00000f97          	auipc	t6,0x0
 82c:	278f8f93          	addi	t6,t6,632 # aa0 <begin_regstate>
 830:	003fa023          	sw	gp,0(t6)
 834:	004fa223          	sw	tp,4(t6)
 838:	005fa423          	sw	t0,8(t6)
 83c:	f00001b7          	lui	gp,0xf0000
 840:	00000217          	auipc	tp,0x0
 844:	5c920213          	addi	tp,tp,1481 # e09 <end_signature+0x289>
 848:	00020283          	lb	t0,0(tp) # 0 <CL_SIZE-0x20>
 84c:	00518023          	sb	t0,0(gp) # f0000000 <__global_pointer$+0xefffe8f8>
 850:	00028663          	beqz	t0,85c <STACK_SIZE+0x45c>
 854:	00120213          	addi	tp,tp,1 # 1 <CL_SIZE-0x1f>
 858:	ff1ff06f          	j	848 <STACK_SIZE+0x448>
 85c:	00000f97          	auipc	t6,0x0
 860:	244f8f93          	addi	t6,t6,580 # aa0 <begin_regstate>
 864:	000fa183          	lw	gp,0(t6)
 868:	004fa203          	lw	tp,4(t6)
 86c:	008fa283          	lw	t0,8(t6)
 870:	00000f97          	auipc	t6,0x0
 874:	2d4f8f93          	addi	t6,t6,724 # b44 <test_C_res>
 878:	00100093          	li	ra,1
 87c:	7ff00113          	li	sp,2047
 880:	fff00193          	li	gp,-1
 884:	00000213          	li	tp,0
 888:	80000293          	li	t0,-2048
 88c:	00102333          	sgtz	t1,ra
 890:	002023b3          	sgtz	t2,sp
 894:	00302433          	sgtz	s0,gp
 898:	004024b3          	sgtz	s1,tp
 89c:	00502533          	sgtz	a0,t0
 8a0:	0000a5b3          	sltz	a1,ra
 8a4:	00012633          	sltz	a2,sp
 8a8:	0001a6b3          	sltz	a3,gp
 8ac:	00022733          	sltz	a4,tp
 8b0:	0002a7b3          	sltz	a5,t0
 8b4:	006fa023          	sw	t1,0(t6)
 8b8:	007fa223          	sw	t2,4(t6)
 8bc:	008fa423          	sw	s0,8(t6)
 8c0:	009fa623          	sw	s1,12(t6)
 8c4:	00afa823          	sw	a0,16(t6)
 8c8:	00bfaa23          	sw	a1,20(t6)
 8cc:	00cfac23          	sw	a2,24(t6)
 8d0:	00dfae23          	sw	a3,28(t6)
 8d4:	02efa023          	sw	a4,32(t6)
 8d8:	02ffa223          	sw	a5,36(t6)
 8dc:	00000f97          	auipc	t6,0x0
 8e0:	1c4f8f93          	addi	t6,t6,452 # aa0 <begin_regstate>
 8e4:	003fa023          	sw	gp,0(t6)
 8e8:	004fa223          	sw	tp,4(t6)
 8ec:	005fa423          	sw	t0,8(t6)
 8f0:	f00001b7          	lui	gp,0xf0000
 8f4:	00000217          	auipc	tp,0x0
 8f8:	53920213          	addi	tp,tp,1337 # e2d <end_signature+0x2ad>
 8fc:	00020283          	lb	t0,0(tp) # 0 <CL_SIZE-0x20>
 900:	00518023          	sb	t0,0(gp) # f0000000 <__global_pointer$+0xefffe8f8>
 904:	00028663          	beqz	t0,910 <STACK_SIZE+0x510>
 908:	00120213          	addi	tp,tp,1 # 1 <CL_SIZE-0x1f>
 90c:	ff1ff06f          	j	8fc <STACK_SIZE+0x4fc>
 910:	00000f97          	auipc	t6,0x0
 914:	190f8f93          	addi	t6,t6,400 # aa0 <begin_regstate>
 918:	000fa183          	lw	gp,0(t6)
 91c:	004fa203          	lw	tp,4(t6)
 920:	008fa283          	lw	t0,8(t6)
 924:	00000f97          	auipc	t6,0x0
 928:	17cf8f93          	addi	t6,t6,380 # aa0 <begin_regstate>
 92c:	003fa023          	sw	gp,0(t6)
 930:	004fa223          	sw	tp,4(t6)
 934:	005fa423          	sw	t0,8(t6)
 938:	f00001b7          	lui	gp,0xf0000
 93c:	00000217          	auipc	tp,0x0
 940:	50c20213          	addi	tp,tp,1292 # e48 <end_signature+0x2c8>
 944:	00020283          	lb	t0,0(tp) # 0 <CL_SIZE-0x20>
 948:	00518023          	sb	t0,0(gp) # f0000000 <__global_pointer$+0xefffe8f8>
 94c:	00028663          	beqz	t0,958 <STACK_SIZE+0x558>
 950:	00120213          	addi	tp,tp,1 # 1 <CL_SIZE-0x1f>
 954:	ff1ff06f          	j	944 <STACK_SIZE+0x544>
 958:	00000f97          	auipc	t6,0x0
 95c:	148f8f93          	addi	t6,t6,328 # aa0 <begin_regstate>
 960:	000fa183          	lw	gp,0(t6)
 964:	004fa203          	lw	tp,4(t6)
 968:	008fa283          	lw	t0,8(t6)
 96c:	00000f97          	auipc	t6,0x0
 970:	200f8f93          	addi	t6,t6,512 # b6c <test_D_res>
 974:	00100193          	li	gp,1
 978:	003020b3          	sgtz	ra,gp
 97c:	0030a133          	slt	sp,ra,gp
 980:	00312e33          	slt	t3,sp,gp
 984:	003e2eb3          	slt	t4,t3,gp
 988:	003eaf33          	slt	t5,t4,gp
 98c:	001fa023          	sw	ra,0(t6)
 990:	002fa223          	sw	sp,4(t6)
 994:	01cfa423          	sw	t3,8(t6)
 998:	01dfa623          	sw	t4,12(t6)
 99c:	01efa823          	sw	t5,16(t6)
 9a0:	00000f97          	auipc	t6,0x0
 9a4:	100f8f93          	addi	t6,t6,256 # aa0 <begin_regstate>
 9a8:	003fa023          	sw	gp,0(t6)
 9ac:	004fa223          	sw	tp,4(t6)
 9b0:	005fa423          	sw	t0,8(t6)
 9b4:	f00001b7          	lui	gp,0xf0000
 9b8:	00000217          	auipc	tp,0x0
 9bc:	4c920213          	addi	tp,tp,1225 # e81 <end_signature+0x301>
 9c0:	00020283          	lb	t0,0(tp) # 0 <CL_SIZE-0x20>
 9c4:	00518023          	sb	t0,0(gp) # f0000000 <__global_pointer$+0xefffe8f8>
 9c8:	00028663          	beqz	t0,9d4 <STACK_SIZE+0x5d4>
 9cc:	00120213          	addi	tp,tp,1 # 1 <CL_SIZE-0x1f>
 9d0:	ff1ff06f          	j	9c0 <STACK_SIZE+0x5c0>
 9d4:	00000f97          	auipc	t6,0x0
 9d8:	0ccf8f93          	addi	t6,t6,204 # aa0 <begin_regstate>
 9dc:	000fa183          	lw	gp,0(t6)
 9e0:	004fa203          	lw	tp,4(t6)
 9e4:	008fa283          	lw	t0,8(t6)
 9e8:	00000f97          	auipc	t6,0x0
 9ec:	0b8f8f93          	addi	t6,t6,184 # aa0 <begin_regstate>
 9f0:	003fa023          	sw	gp,0(t6)
 9f4:	004fa223          	sw	tp,4(t6)
 9f8:	005fa423          	sw	t0,8(t6)
 9fc:	f00001b7          	lui	gp,0xf0000
 a00:	00000217          	auipc	tp,0x0
 a04:	49c20213          	addi	tp,tp,1180 # e9c <end_signature+0x31c>
 a08:	00020283          	lb	t0,0(tp) # 0 <CL_SIZE-0x20>
 a0c:	00518023          	sb	t0,0(gp) # f0000000 <__global_pointer$+0xefffe8f8>
 a10:	00028663          	beqz	t0,a1c <STACK_SIZE+0x61c>
 a14:	00120213          	addi	tp,tp,1 # 1 <CL_SIZE-0x1f>
 a18:	ff1ff06f          	j	a08 <STACK_SIZE+0x608>
 a1c:	00000f97          	auipc	t6,0x0
 a20:	084f8f93          	addi	t6,t6,132 # aa0 <begin_regstate>
 a24:	000fa183          	lw	gp,0(t6)
 a28:	004fa203          	lw	tp,4(t6)
 a2c:	008fa283          	lw	t0,8(t6)

00000a30 <ecall>:
 a30:	00000073          	ecall
	...

00000a40 <sc_exit>:
 a40:	eb4ff06f          	j	f4 <SIM_EXIT>
 a44:	00000013          	nop
 a48:	00000013          	nop
 a4c:	00000013          	nop
 a50:	00000013          	nop
 a54:	00000013          	nop
 a58:	00000013          	nop
 a5c:	00000013          	nop
	...

Дизассемблирование раздела .data:

00000a80 <test_A1_data>:
 a80:	0000                	unimp
	...

00000a84 <test_A2_data>:
 a84:	0001                	nop
	...

00000a88 <test_A3_data>:
 a88:	ffff                	0xffff
 a8a:	ffff                	0xffff

00000a8c <test_A4_data>:
 a8c:	ffff                	0xffff
 a8e:	7fff                	0x7fff

00000a90 <test_A5_data>:
 a90:	0000                	unimp
 a92:	8000                	0x8000

00000a94 <test_B_data>:
 a94:	ffff                	0xffff
 a96:	ffff                	0xffff
	...

00000aa0 <begin_regstate>:
	...

00000ac0 <begin_signature>:
 ac0:	ffff                	0xffff
 ac2:	ffff                	0xffff
 ac4:	ffff                	0xffff
 ac6:	ffff                	0xffff
 ac8:	ffff                	0xffff
 aca:	ffff                	0xffff
 acc:	ffff                	0xffff
 ace:	ffff                	0xffff
 ad0:	ffff                	0xffff
 ad2:	ffff                	0xffff
 ad4:	ffff                	0xffff
 ad6:	ffff                	0xffff

00000ad8 <test_A2_res>:
 ad8:	ffff                	0xffff
 ada:	ffff                	0xffff
 adc:	ffff                	0xffff
 ade:	ffff                	0xffff
 ae0:	ffff                	0xffff
 ae2:	ffff                	0xffff
 ae4:	ffff                	0xffff
 ae6:	ffff                	0xffff
 ae8:	ffff                	0xffff
 aea:	ffff                	0xffff
 aec:	ffff                	0xffff
 aee:	ffff                	0xffff

00000af0 <test_A3_res>:
 af0:	ffff                	0xffff
 af2:	ffff                	0xffff
 af4:	ffff                	0xffff
 af6:	ffff                	0xffff
 af8:	ffff                	0xffff
 afa:	ffff                	0xffff
 afc:	ffff                	0xffff
 afe:	ffff                	0xffff
 b00:	ffff                	0xffff
 b02:	ffff                	0xffff
 b04:	ffff                	0xffff
 b06:	ffff                	0xffff

00000b08 <test_A4_res>:
 b08:	ffff                	0xffff
 b0a:	ffff                	0xffff
 b0c:	ffff                	0xffff
 b0e:	ffff                	0xffff
 b10:	ffff                	0xffff
 b12:	ffff                	0xffff
 b14:	ffff                	0xffff
 b16:	ffff                	0xffff
 b18:	ffff                	0xffff
 b1a:	ffff                	0xffff
 b1c:	ffff                	0xffff
 b1e:	ffff                	0xffff

00000b20 <test_A5_res>:
 b20:	ffff                	0xffff
 b22:	ffff                	0xffff
 b24:	ffff                	0xffff
 b26:	ffff                	0xffff
 b28:	ffff                	0xffff
 b2a:	ffff                	0xffff
 b2c:	ffff                	0xffff
 b2e:	ffff                	0xffff
 b30:	ffff                	0xffff
 b32:	ffff                	0xffff
 b34:	ffff                	0xffff
 b36:	ffff                	0xffff

00000b38 <test_B_res>:
 b38:	ffff                	0xffff
 b3a:	ffff                	0xffff
 b3c:	ffff                	0xffff
 b3e:	ffff                	0xffff
 b40:	ffff                	0xffff
 b42:	ffff                	0xffff

00000b44 <test_C_res>:
 b44:	ffff                	0xffff
 b46:	ffff                	0xffff
 b48:	ffff                	0xffff
 b4a:	ffff                	0xffff
 b4c:	ffff                	0xffff
 b4e:	ffff                	0xffff
 b50:	ffff                	0xffff
 b52:	ffff                	0xffff
 b54:	ffff                	0xffff
 b56:	ffff                	0xffff
 b58:	ffff                	0xffff
 b5a:	ffff                	0xffff
 b5c:	ffff                	0xffff
 b5e:	ffff                	0xffff
 b60:	ffff                	0xffff
 b62:	ffff                	0xffff
 b64:	ffff                	0xffff
 b66:	ffff                	0xffff
 b68:	ffff                	0xffff
 b6a:	ffff                	0xffff

00000b6c <test_D_res>:
 b6c:	ffff                	0xffff
 b6e:	ffff                	0xffff
 b70:	ffff                	0xffff
 b72:	ffff                	0xffff
 b74:	ffff                	0xffff
 b76:	ffff                	0xffff
 b78:	ffff                	0xffff
 b7a:	ffff                	0xffff
 b7c:	ffff                	0xffff
 b7e:	ffff                	0xffff

00000b80 <end_signature>:
 b80:	65542023          	sw	s5,1600(s0) # 80000640 <__global_pointer$+0x7fffef38>
 b84:	42207473          	csrrci	s0,0x422,0
 b88:	6765                	lui	a4,0x19
 b8a:	6e69                	lui	t3,0x1a
 b8c:	000a                	0xa
 b8e:	65542023          	sw	s5,1600(s0)
 b92:	70207473          	csrrci	s0,0x702,0
 b96:	7261                	lui	tp,0xffff8
 b98:	2074                	fld	fa3,192(s0)
 b9a:	3141                	jal	81a <STACK_SIZE+0x41a>
 b9c:	2d20                	fld	fs0,88(a0)
 b9e:	6720                	flw	fs0,72(a4)
 ba0:	6e65                	lui	t3,0x19
 ba2:	7265                	lui	tp,0xffff9
 ba4:	6c61                	lui	s8,0x18
 ba6:	7420                	flw	fs0,104(s0)
 ba8:	7365                	lui	t1,0xffff9
 baa:	2074                	fld	fa3,192(s0)
 bac:	7620666f          	jal	a2,730e <__global_pointer$+0x5c06>
 bb0:	6c61                	lui	s8,0x18
 bb2:	6575                	lui	a0,0x1d
 bb4:	3020                	fld	fs0,96(s0)
 bb6:	7720                	flw	fs0,104(a4)
 bb8:	7469                	lui	s0,0xffffa
 bba:	2068                	fld	fa0,192(s0)
 bbc:	2c30                	fld	fa2,88(s0)
 bbe:	3120                	fld	fs0,96(a0)
 bc0:	202c                	fld	fa1,64(s0)
 bc2:	312d                	jal	7ec <STACK_SIZE+0x3ec>
 bc4:	202c                	fld	fa1,64(s0)
 bc6:	494d                	li	s2,19
 bc8:	2c4e                	fld	fs8,208(sp)
 bca:	4d20                	lw	s0,88(a0)
 bcc:	5841                	li	a6,-16
 bce:	7220                	flw	fs0,96(a2)
 bd0:	6765                	lui	a4,0x19
 bd2:	7369                	lui	t1,0xffffa
 bd4:	6574                	flw	fa3,76(a0)
 bd6:	2072                	fld	ft0,280(sp)
 bd8:	6176                	flw	ft2,92(sp)
 bda:	756c                	flw	fa1,108(a0)
 bdc:	7365                	lui	t1,0xffff9
 bde:	000a                	0xa
 be0:	65542023          	sw	s5,1600(s0) # ffffa640 <__global_pointer$+0xffff8f38>
 be4:	70207473          	csrrci	s0,0x702,0
 be8:	7261                	lui	tp,0xffff8
 bea:	2074                	fld	fa3,192(s0)
 bec:	3141                	jal	86c <STACK_SIZE+0x46c>
 bee:	2020                	fld	fs0,64(s0)
 bf0:	202d                	jal	c1a <end_signature+0x9a>
 bf2:	706d6f43          	fmadd.s	ft10,fs10,ft6,fa4,unknown
 bf6:	656c                	flw	fa1,76(a0)
 bf8:	6574                	flw	fa3,76(a0)
 bfa:	000a                	0xa
 bfc:	65542023          	sw	s5,1600(s0)
 c00:	70207473          	csrrci	s0,0x702,0
 c04:	7261                	lui	tp,0xffff8
 c06:	2074                	fld	fa3,192(s0)
 c08:	3241                	jal	588 <STACK_SIZE+0x188>
 c0a:	2d20                	fld	fs0,88(a0)
 c0c:	6720                	flw	fs0,72(a4)
 c0e:	6e65                	lui	t3,0x19
 c10:	7265                	lui	tp,0xffff9
 c12:	6c61                	lui	s8,0x18
 c14:	7420                	flw	fs0,104(s0)
 c16:	7365                	lui	t1,0xffff9
 c18:	2074                	fld	fa3,192(s0)
 c1a:	7620666f          	jal	a2,737c <__global_pointer$+0x5c74>
 c1e:	6c61                	lui	s8,0x18
 c20:	6575                	lui	a0,0x1d
 c22:	3120                	fld	fs0,96(a0)
 c24:	7720                	flw	fs0,104(a4)
 c26:	7469                	lui	s0,0xffffa
 c28:	2068                	fld	fa0,192(s0)
 c2a:	2c30                	fld	fa2,88(s0)
 c2c:	3120                	fld	fs0,96(a0)
 c2e:	202c                	fld	fa1,64(s0)
 c30:	312d                	jal	85a <STACK_SIZE+0x45a>
 c32:	202c                	fld	fa1,64(s0)
 c34:	494d                	li	s2,19
 c36:	2c4e                	fld	fs8,208(sp)
 c38:	4d20                	lw	s0,88(a0)
 c3a:	5841                	li	a6,-16
 c3c:	7220                	flw	fs0,96(a2)
 c3e:	6765                	lui	a4,0x19
 c40:	7369                	lui	t1,0xffffa
 c42:	6574                	flw	fa3,76(a0)
 c44:	2072                	fld	ft0,280(sp)
 c46:	6176                	flw	ft2,92(sp)
 c48:	756c                	flw	fa1,108(a0)
 c4a:	7365                	lui	t1,0xffff9
 c4c:	000a                	0xa
 c4e:	65542023          	sw	s5,1600(s0) # ffffa640 <__global_pointer$+0xffff8f38>
 c52:	70207473          	csrrci	s0,0x702,0
 c56:	7261                	lui	tp,0xffff8
 c58:	2074                	fld	fa3,192(s0)
 c5a:	3241                	jal	5da <STACK_SIZE+0x1da>
 c5c:	2020                	fld	fs0,64(s0)
 c5e:	202d                	jal	c88 <end_signature+0x108>
 c60:	706d6f43          	fmadd.s	ft10,fs10,ft6,fa4,unknown
 c64:	656c                	flw	fa1,76(a0)
 c66:	6574                	flw	fa3,76(a0)
 c68:	000a                	0xa
 c6a:	65542023          	sw	s5,1600(s0)
 c6e:	70207473          	csrrci	s0,0x702,0
 c72:	7261                	lui	tp,0xffff8
 c74:	2074                	fld	fa3,192(s0)
 c76:	3341                	jal	9f6 <STACK_SIZE+0x5f6>
 c78:	2d20                	fld	fs0,88(a0)
 c7a:	6720                	flw	fs0,72(a4)
 c7c:	6e65                	lui	t3,0x19
 c7e:	7265                	lui	tp,0xffff9
 c80:	6c61                	lui	s8,0x18
 c82:	7420                	flw	fs0,104(s0)
 c84:	7365                	lui	t1,0xffff9
 c86:	2074                	fld	fa3,192(s0)
 c88:	7620666f          	jal	a2,73ea <__global_pointer$+0x5ce2>
 c8c:	6c61                	lui	s8,0x18
 c8e:	6575                	lui	a0,0x1d
 c90:	2d20                	fld	fs0,88(a0)
 c92:	2031                	jal	c9e <end_signature+0x11e>
 c94:	68746977          	0x68746977
 c98:	3020                	fld	fs0,96(s0)
 c9a:	202c                	fld	fa1,64(s0)
 c9c:	2c31                	jal	eb8 <end_signature+0x338>
 c9e:	2d20                	fld	fs0,88(a0)
 ca0:	2c31                	jal	ebc <end_signature+0x33c>
 ca2:	4d20                	lw	s0,88(a0)
 ca4:	4e49                	li	t3,18
 ca6:	202c                	fld	fa1,64(s0)
 ca8:	414d                	li	sp,19
 caa:	2058                	fld	fa4,128(s0)
 cac:	6572                	flw	fa0,28(sp)
 cae:	74736967          	0x74736967
 cb2:	7265                	lui	tp,0xffff9
 cb4:	7620                	flw	fs0,104(a2)
 cb6:	6c61                	lui	s8,0x18
 cb8:	6575                	lui	a0,0x1d
 cba:	23000a73          	0x23000a73
 cbe:	5420                	lw	s0,104(s0)
 cc0:	7365                	lui	t1,0xffff9
 cc2:	2074                	fld	fa3,192(s0)
 cc4:	6170                	flw	fa2,68(a0)
 cc6:	7472                	flw	fs0,60(sp)
 cc8:	4120                	lw	s0,64(a0)
 cca:	2d202033          	0x2d202033
 cce:	4320                	lw	s0,64(a4)
 cd0:	6c706d6f          	jal	s10,7b96 <__global_pointer$+0x648e>
 cd4:	7465                	lui	s0,0xffff9
 cd6:	0a65                	addi	s4,s4,25
 cd8:	2300                	fld	fs0,0(a4)
 cda:	5420                	lw	s0,104(s0)
 cdc:	7365                	lui	t1,0xffff9
 cde:	2074                	fld	fa3,192(s0)
 ce0:	6170                	flw	fa2,68(a0)
 ce2:	7472                	flw	fs0,60(sp)
 ce4:	4120                	lw	s0,64(a0)
 ce6:	2034                	fld	fa3,64(s0)
 ce8:	202d                	jal	d12 <end_signature+0x192>
 cea:	656e6567          	0x656e6567
 cee:	6172                	flw	ft2,28(sp)
 cf0:	206c                	fld	fa1,192(s0)
 cf2:	6574                	flw	fa3,76(a0)
 cf4:	6f207473          	csrrci	s0,0x6f2,0
 cf8:	2066                	fld	ft0,88(sp)
 cfa:	6176                	flw	ft2,92(sp)
 cfc:	756c                	flw	fa1,108(a0)
 cfe:	2065                	jal	da6 <end_signature+0x226>
 d00:	7830                	flw	fa2,112(s0)
 d02:	46464637          	lui	a2,0x46464
 d06:	4646                	lw	a2,80(sp)
 d08:	4646                	lw	a2,80(sp)
 d0a:	7720                	flw	fs0,104(a4)
 d0c:	7469                	lui	s0,0xffffa
 d0e:	2068                	fld	fa0,192(s0)
 d10:	2c30                	fld	fa2,88(s0)
 d12:	3120                	fld	fs0,96(a0)
 d14:	202c                	fld	fa1,64(s0)
 d16:	312d                	jal	940 <STACK_SIZE+0x540>
 d18:	202c                	fld	fa1,64(s0)
 d1a:	494d                	li	s2,19
 d1c:	2c4e                	fld	fs8,208(sp)
 d1e:	4d20                	lw	s0,88(a0)
 d20:	5841                	li	a6,-16
 d22:	7220                	flw	fs0,96(a2)
 d24:	6765                	lui	a4,0x19
 d26:	7369                	lui	t1,0xffffa
 d28:	6574                	flw	fa3,76(a0)
 d2a:	2072                	fld	ft0,280(sp)
 d2c:	6176                	flw	ft2,92(sp)
 d2e:	756c                	flw	fa1,108(a0)
 d30:	7365                	lui	t1,0xffff9
 d32:	000a                	0xa
 d34:	65542023          	sw	s5,1600(s0) # ffffa640 <__global_pointer$+0xffff8f38>
 d38:	70207473          	csrrci	s0,0x702,0
 d3c:	7261                	lui	tp,0xffff8
 d3e:	2074                	fld	fa3,192(s0)
 d40:	3441                	jal	7c0 <STACK_SIZE+0x3c0>
 d42:	2020                	fld	fs0,64(s0)
 d44:	202d                	jal	d6e <end_signature+0x1ee>
 d46:	706d6f43          	fmadd.s	ft10,fs10,ft6,fa4,unknown
 d4a:	656c                	flw	fa1,76(a0)
 d4c:	6574                	flw	fa3,76(a0)
 d4e:	000a                	0xa
 d50:	65542023          	sw	s5,1600(s0)
 d54:	70207473          	csrrci	s0,0x702,0
 d58:	7261                	lui	tp,0xffff8
 d5a:	2074                	fld	fa3,192(s0)
 d5c:	3541                	jal	bdc <end_signature+0x5c>
 d5e:	2d20                	fld	fs0,88(a0)
 d60:	6720                	flw	fs0,72(a4)
 d62:	6e65                	lui	t3,0x19
 d64:	7265                	lui	tp,0xffff9
 d66:	6c61                	lui	s8,0x18
 d68:	7420                	flw	fs0,104(s0)
 d6a:	7365                	lui	t1,0xffff9
 d6c:	2074                	fld	fa3,192(s0)
 d6e:	7620666f          	jal	a2,74d0 <__global_pointer$+0x5dc8>
 d72:	6c61                	lui	s8,0x18
 d74:	6575                	lui	a0,0x1d
 d76:	3020                	fld	fs0,96(s0)
 d78:	3878                	fld	fa4,240(s0)
 d7a:	3030                	fld	fa2,96(s0)
 d7c:	3030                	fld	fa2,96(s0)
 d7e:	3030                	fld	fa2,96(s0)
 d80:	2030                	fld	fa2,64(s0)
 d82:	68746977          	0x68746977
 d86:	3020                	fld	fs0,96(s0)
 d88:	202c                	fld	fa1,64(s0)
 d8a:	2c31                	jal	fa6 <_end+0x86>
 d8c:	2d20                	fld	fs0,88(a0)
 d8e:	2c31                	jal	faa <_end+0x8a>
 d90:	4d20                	lw	s0,88(a0)
 d92:	4e49                	li	t3,18
 d94:	202c                	fld	fa1,64(s0)
 d96:	414d                	li	sp,19
 d98:	2058                	fld	fa4,128(s0)
 d9a:	6572                	flw	fa0,28(sp)
 d9c:	74736967          	0x74736967
 da0:	7265                	lui	tp,0xffff9
 da2:	7620                	flw	fs0,104(a2)
 da4:	6c61                	lui	s8,0x18
 da6:	6575                	lui	a0,0x1d
 da8:	23000a73          	0x23000a73
 dac:	5420                	lw	s0,104(s0)
 dae:	7365                	lui	t1,0xffff9
 db0:	2074                	fld	fa3,192(s0)
 db2:	6170                	flw	fa2,68(a0)
 db4:	7472                	flw	fs0,60(sp)
 db6:	4120                	lw	s0,64(a0)
 db8:	2035                	jal	de4 <end_signature+0x264>
 dba:	2d20                	fld	fs0,88(a0)
 dbc:	4320                	lw	s0,64(a4)
 dbe:	6c706d6f          	jal	s10,7c84 <__global_pointer$+0x657c>
 dc2:	7465                	lui	s0,0xffff9
 dc4:	0a65                	addi	s4,s4,25
 dc6:	2300                	fld	fs0,0(a4)
 dc8:	5420                	lw	s0,104(s0)
 dca:	7365                	lui	t1,0xffff9
 dcc:	2074                	fld	fa3,192(s0)
 dce:	6170                	flw	fa2,68(a0)
 dd0:	7472                	flw	fs0,60(sp)
 dd2:	4220                	lw	s0,64(a2)
 dd4:	2d20                	fld	fs0,88(a0)
 dd6:	7420                	flw	fs0,104(s0)
 dd8:	7365                	lui	t1,0xffff9
 dda:	6974                	flw	fa3,84(a0)
 ddc:	676e                	flw	fa4,216(sp)
 dde:	7720                	flw	fs0,104(a4)
 de0:	6972                	flw	fs2,28(sp)
 de2:	6974                	flw	fa3,84(a0)
 de4:	676e                	flw	fa4,216(sp)
 de6:	7420                	flw	fs0,104(s0)
 de8:	3078206f          	j	838ee <__global_pointer$+0x821e6>
 dec:	000a                	0xa
 dee:	65542023          	sw	s5,1600(s0) # ffff9640 <__global_pointer$+0xffff7f38>
 df2:	70207473          	csrrci	s0,0x702,0
 df6:	7261                	lui	tp,0xffff8
 df8:	2074                	fld	fa3,192(s0)
 dfa:	2042                	fld	ft0,16(sp)
 dfc:	2d20                	fld	fs0,88(a0)
 dfe:	4320                	lw	s0,64(a4)
 e00:	6c706d6f          	jal	s10,7cc6 <__global_pointer$+0x65be>
 e04:	7465                	lui	s0,0xffff9
 e06:	0a65                	addi	s4,s4,25
 e08:	2300                	fld	fs0,0(a4)
 e0a:	5420                	lw	s0,104(s0)
 e0c:	7365                	lui	t1,0xffff9
 e0e:	2074                	fld	fa3,192(s0)
 e10:	6170                	flw	fa2,68(a0)
 e12:	7472                	flw	fs0,60(sp)
 e14:	4320                	lw	s0,64(a4)
 e16:	2d20                	fld	fs0,88(a0)
 e18:	7420                	flw	fs0,104(s0)
 e1a:	7365                	lui	t1,0xffff9
 e1c:	6974                	flw	fa3,84(a0)
 e1e:	676e                	flw	fa4,216(sp)
 e20:	6320                	flw	fs0,64(a4)
 e22:	61706d6f          	jal	s10,7c38 <__global_pointer$+0x6530>
 e26:	6572                	flw	fa0,28(sp)
 e28:	7820                	flw	fs0,112(s0)
 e2a:	0a30                	addi	a2,sp,280
 e2c:	2300                	fld	fs0,0(a4)
 e2e:	5420                	lw	s0,104(s0)
 e30:	7365                	lui	t1,0xffff9
 e32:	2074                	fld	fa3,192(s0)
 e34:	6170                	flw	fa2,68(a0)
 e36:	7472                	flw	fs0,60(sp)
 e38:	4320                	lw	s0,64(a4)
 e3a:	2020                	fld	fs0,64(s0)
 e3c:	202d                	jal	e66 <end_signature+0x2e6>
 e3e:	706d6f43          	fmadd.s	ft10,fs10,ft6,fa4,unknown
 e42:	656c                	flw	fa1,76(a0)
 e44:	6574                	flw	fa3,76(a0)
 e46:	000a                	0xa
 e48:	65542023          	sw	s5,1600(s0) # ffff9640 <__global_pointer$+0xffff7f38>
 e4c:	70207473          	csrrci	s0,0x702,0
 e50:	7261                	lui	tp,0xffff8
 e52:	2074                	fld	fa3,192(s0)
 e54:	2044                	fld	fs1,128(s0)
 e56:	202d                	jal	e80 <end_signature+0x300>
 e58:	6574                	flw	fa3,76(a0)
 e5a:	6e697473          	csrrci	s0,0x6e6,18
 e5e:	6f662067          	0x6f662067
 e62:	7772                	flw	fa4,60(sp)
 e64:	7261                	lui	tp,0xffff8
 e66:	6964                	flw	fs1,84(a0)
 e68:	676e                	flw	fa4,216(sp)
 e6a:	6220                	flw	fs0,64(a2)
 e6c:	7465                	lui	s0,0xffff9
 e6e:	6e656577          	0x6e656577
 e72:	6920                	flw	fs0,80(a0)
 e74:	736e                	flw	ft6,248(sp)
 e76:	7274                	flw	fa3,100(a2)
 e78:	6375                	lui	t1,0x1d
 e7a:	6974                	flw	fa3,84(a0)
 e7c:	0a736e6f          	jal	t3,37722 <__global_pointer$+0x3601a>
 e80:	2300                	fld	fs0,0(a4)
 e82:	5420                	lw	s0,104(s0)
 e84:	7365                	lui	t1,0xffff9
 e86:	2074                	fld	fa3,192(s0)
 e88:	6170                	flw	fa2,68(a0)
 e8a:	7472                	flw	fs0,60(sp)
 e8c:	4420                	lw	s0,72(s0)
 e8e:	2020                	fld	fs0,64(s0)
 e90:	202d                	jal	eba <end_signature+0x33a>
 e92:	706d6f43          	fmadd.s	ft10,fs10,ft6,fa4,unknown
 e96:	656c                	flw	fa1,76(a0)
 e98:	6574                	flw	fa3,76(a0)
 e9a:	000a                	0xa
 e9c:	65542023          	sw	s5,1600(s0) # ffff9640 <__global_pointer$+0xffff7f38>
 ea0:	45207473          	csrrci	s0,0x452,0
 ea4:	646e                	flw	fs0,216(sp)
 ea6:	000a                	0xa
	...

Дизассемблирование раздела .tohost:

00000ec0 <tohost>:
	...

00000f00 <fromhost>:
	...

Дизассемблирование раздела .sdata:

00000f08 <__global_pointer$-0x800>:
	...

Дизассемблирование раздела .stack:

0000fc00 <.stack>:
	...
