
/home/oleg/scr1/build/verilator_wf_AHB_IMC/compliance_sh.elf:     формат файла elf32-littleriscv
/home/oleg/scr1/build/verilator_wf_AHB_IMC/compliance_sh.elf
архитектура: riscv:rv32, флаги 0x00000112:
EXEC_P, HAS_SYMS, D_PAGED
начальный адрес 0x00000200

Заголовок программы:
    LOAD off    0x00001000 vaddr 0x00000000 paddr 0x00000000 align 2**12
         filesz 0x000009c8 memsz 0x000009e0 flags rwx
    LOAD off    0x00001c00 vaddr 0x0000fc00 paddr 0x0000fc00 align 2**12
         filesz 0x00000000 memsz 0x00000400 flags rw-

Разделы:
Idx Name          Size      VMA       LMA       File off  Algn  Флаги
  0 .text.init    00000284  00000000  00000000  00001000  2**6  CONTENTS, ALLOC, LOAD, READONLY, CODE
  1 .text         00000600  000002a0  000002a0  000012a0  2**5  CONTENTS, ALLOC, LOAD, READONLY, CODE
  2 .data         000000e0  000008a0  000008a0  000018a0  2**4  CONTENTS, ALLOC, LOAD, DATA
  3 .tohost       00000048  00000980  00000980  00001980  2**6  CONTENTS, ALLOC, LOAD, DATA
  4 .sdata        00000018  000009c8  000009c8  000019c8  2**0  ALLOC
  5 .tdata        00000000  000009e0  000009e0  000019c8  2**0  CONTENTS, ALLOC, LOAD, DATA, THREAD_LOCAL
  6 .tbss         00000000  000009e0  000009e0  00000000  2**0  ALLOC, THREAD_LOCAL
  7 .bss          00000000  000009e0  000009e0  000019c8  2**0  ALLOC
  8 .stack        00000400  0000fc00  0000fc00  00001c00  2**0  ALLOC
SYMBOL TABLE:
00000000 l    d  .text.init	00000000 .text.init
000002a0 l    d  .text	00000000 .text
000008a0 l    d  .data	00000000 .data
00000980 l    d  .tohost	00000000 .tohost
000009c8 l    d  .sdata	00000000 .sdata
000009e0 l    d  .tdata	00000000 .tdata
000009e0 l    d  .tbss	00000000 .tbss
000009e0 l    d  .bss	00000000 .bss
0000fc00 l    d  .stack	00000000 .stack
00000000 l    df *ABS*	00000000 /home/oleg/scr1/build/verilator_wf_AHB_IMC/riscv_compliance/riscv_compliance_objs/sh.o
00000860 l       .text	00000000 sc_exit
000001c0 l       .text.init	00000000 trap_vector
000001fc l       .text.init	00000000 _report
000001f8 l       .text.init	00000000 handle_exception
000001f8 l       .text.init	00000000 other_exception
000002a0 l       .text	00000000 _run_test
000002a0 l       .text	00000000 test_2
000008a0 l       .data	00000000 tdat
000008e0 l       .data	00000000 test_res
00000820 l       .text	00000000 fail
000002cc l       .text	00000000 test_3
00000300 l       .text	00000000 test_4
00000334 l       .text	00000000 test_5
00000368 l       .text	00000000 test_6
000008ae l       .data	00000000 tdat8
00000394 l       .text	00000000 test_7
000003c8 l       .text	00000000 test_8
000003fc l       .text	00000000 test_9
00000430 l       .text	00000000 test_10
000008b0 l       .data	00000000 tdat9
00000468 l       .text	00000000 test_11
000008b2 l       .data	00000000 tdat10
000004a8 l       .text	00000000 test_12
000004ec l       .text	00000000 test_13
00000534 l       .text	00000000 test_14
00000580 l       .text	00000000 test_15
000005c8 l       .text	00000000 test_16
00000614 l       .text	00000000 test_17
00000660 l       .text	00000000 test_18
000006a4 l       .text	00000000 test_19
000006ec l       .text	00000000 test_20
00000738 l       .text	00000000 test_21
00000778 l       .text	00000000 test_22
000007bc l       .text	00000000 test_23
00000830 l       .text	00000000 pass
00000840 l       .text	00000000 ecall
000008a0 l       .data	00000000 tdat1
000008a2 l       .data	00000000 tdat2
000008a4 l       .data	00000000 tdat3
000008a6 l       .data	00000000 tdat4
000008a8 l       .data	00000000 tdat5
000008aa l       .data	00000000 tdat6
000008ac l       .data	00000000 tdat7
00000400 g       *ABS*	00000000 STACK_SIZE
000011c8 g       .sdata	00000000 __global_pointer$
00000980 g       .data	00000000 end_signature
000008c0 g       .data	00000000 begin_regstate
000008e0 g       .data	00000000 begin_signature
00000200 g       .text.init	00000000 _start
00000020 g       *ABS*	00000000 CL_SIZE
000000f8 g       .text.init	00000000 SIM_STOP
000009e0 g       .bss	00000000 _end
000009c0 g       .tohost	00000000 fromhost
00000980 g       .tohost	00000000 tohost
000000f4 g       .text.init	00000000 SIM_EXIT



Дизассемблирование раздела .text.init:

00000000 <SIM_EXIT-0xf4>:
	...

000000f4 <SIM_EXIT>:
  f4:	00000013          	nop

000000f8 <SIM_STOP>:
  f8:	0000006f          	j	f8 <SIM_STOP>
  fc:	ffff                	0xffff
  fe:	ffff                	0xffff
	...

000001c0 <trap_vector>:
 1c0:	34202773          	csrr	a4,mcause
 1c4:	00800793          	li	a5,8
 1c8:	02f70a63          	beq	a4,a5,1fc <_report>
 1cc:	00900793          	li	a5,9
 1d0:	02f70663          	beq	a4,a5,1fc <_report>
 1d4:	00b00793          	li	a5,11
 1d8:	02f70263          	beq	a4,a5,1fc <_report>
 1dc:	00000717          	auipc	a4,0x0
 1e0:	e2470713          	addi	a4,a4,-476 # 0 <CL_SIZE-0x20>
 1e4:	00070463          	beqz	a4,1ec <trap_vector+0x2c>
 1e8:	00070067          	jr	a4
 1ec:	34202773          	csrr	a4,mcause
 1f0:	00075463          	bgez	a4,1f8 <handle_exception>
 1f4:	0040006f          	j	1f8 <handle_exception>

000001f8 <handle_exception>:
 1f8:	00100513          	li	a0,1

000001fc <_report>:
 1fc:	6640006f          	j	860 <sc_exit>

00000200 <_start>:
 200:	f1402573          	csrr	a0,mhartid
 204:	00051063          	bnez	a0,204 <_start+0x4>
 208:	00000193          	li	gp,0
 20c:	00000297          	auipc	t0,0x0
 210:	fb428293          	addi	t0,t0,-76 # 1c0 <trap_vector>
 214:	30529073          	csrw	mtvec,t0
 218:	00100513          	li	a0,1
 21c:	01f51513          	slli	a0,a0,0x1f
 220:	00054a63          	bltz	a0,234 <_start+0x34>
 224:	0ff0000f          	fence
 228:	00018593          	mv	a1,gp
 22c:	00000513          	li	a0,0
 230:	00000073          	ecall
 234:	01f55513          	srli	a0,a0,0x1f
 238:	00000297          	auipc	t0,0x0
 23c:	6a828293          	addi	t0,t0,1704 # 8e0 <begin_signature>
 240:	00a2a023          	sw	a0,0(t0)
 244:	00000297          	auipc	t0,0x0
 248:	dbc28293          	addi	t0,t0,-580 # 0 <CL_SIZE-0x20>
 24c:	00028e63          	beqz	t0,268 <_start+0x68>
 250:	10529073          	csrw	stvec,t0
 254:	0000b2b7          	lui	t0,0xb
 258:	10928293          	addi	t0,t0,265 # b109 <__global_pointer$+0x9f41>
 25c:	30229073          	csrw	medeleg,t0
 260:	30202373          	csrr	t1,medeleg
 264:	f8629ae3          	bne	t0,t1,1f8 <handle_exception>
 268:	30005073          	csrwi	mstatus,0
 26c:	00000297          	auipc	t0,0x0
 270:	03428293          	addi	t0,t0,52 # 2a0 <_run_test>
 274:	34129073          	csrw	mepc,t0
 278:	f1402573          	csrr	a0,mhartid
 27c:	30200073          	mret
 280:	0000                	unimp
	...

Дизассемблирование раздела .text:

000002a0 <_run_test>:
 2a0:	00000097          	auipc	ra,0x0
 2a4:	60008093          	addi	ra,ra,1536 # 8a0 <tdat>
 2a8:	0aa00113          	li	sp,170
 2ac:	00209023          	sh	sp,0(ra)
 2b0:	00009f03          	lh	t5,0(ra)
 2b4:	0aa00e93          	li	t4,170
 2b8:	00200193          	li	gp,2
 2bc:	00000e17          	auipc	t3,0x0
 2c0:	624e0e13          	addi	t3,t3,1572 # 8e0 <begin_signature>
 2c4:	01ee2423          	sw	t5,8(t3)
 2c8:	55df1c63          	bne	t5,t4,820 <fail>

000002cc <test_3>:
 2cc:	00000097          	auipc	ra,0x0
 2d0:	5d408093          	addi	ra,ra,1492 # 8a0 <tdat>
 2d4:	ffffb137          	lui	sp,0xffffb
 2d8:	a0010113          	addi	sp,sp,-1536 # ffffaa00 <__global_pointer$+0xffff9838>
 2dc:	00209123          	sh	sp,2(ra)
 2e0:	00209f03          	lh	t5,2(ra)
 2e4:	ffffbeb7          	lui	t4,0xffffb
 2e8:	a00e8e93          	addi	t4,t4,-1536 # ffffaa00 <__global_pointer$+0xffff9838>
 2ec:	00300193          	li	gp,3
 2f0:	00000e17          	auipc	t3,0x0
 2f4:	5f0e0e13          	addi	t3,t3,1520 # 8e0 <begin_signature>
 2f8:	01ee2623          	sw	t5,12(t3)
 2fc:	53df1263          	bne	t5,t4,820 <fail>

00000300 <test_4>:
 300:	00000097          	auipc	ra,0x0
 304:	5a008093          	addi	ra,ra,1440 # 8a0 <tdat>
 308:	beef1137          	lui	sp,0xbeef1
 30c:	aa010113          	addi	sp,sp,-1376 # beef0aa0 <__global_pointer$+0xbeeef8d8>
 310:	00209223          	sh	sp,4(ra)
 314:	0040af03          	lw	t5,4(ra)
 318:	beef1eb7          	lui	t4,0xbeef1
 31c:	aa0e8e93          	addi	t4,t4,-1376 # beef0aa0 <__global_pointer$+0xbeeef8d8>
 320:	00400193          	li	gp,4
 324:	00000e17          	auipc	t3,0x0
 328:	5bce0e13          	addi	t3,t3,1468 # 8e0 <begin_signature>
 32c:	01ee2823          	sw	t5,16(t3)
 330:	4fdf1863          	bne	t5,t4,820 <fail>

00000334 <test_5>:
 334:	00000097          	auipc	ra,0x0
 338:	56c08093          	addi	ra,ra,1388 # 8a0 <tdat>
 33c:	ffffa137          	lui	sp,0xffffa
 340:	00a10113          	addi	sp,sp,10 # ffffa00a <__global_pointer$+0xffff8e42>
 344:	00209323          	sh	sp,6(ra)
 348:	00609f03          	lh	t5,6(ra)
 34c:	ffffaeb7          	lui	t4,0xffffa
 350:	00ae8e93          	addi	t4,t4,10 # ffffa00a <__global_pointer$+0xffff8e42>
 354:	00500193          	li	gp,5
 358:	00000e17          	auipc	t3,0x0
 35c:	588e0e13          	addi	t3,t3,1416 # 8e0 <begin_signature>
 360:	01ee2a23          	sw	t5,20(t3)
 364:	4bdf1e63          	bne	t5,t4,820 <fail>

00000368 <test_6>:
 368:	00000097          	auipc	ra,0x0
 36c:	54608093          	addi	ra,ra,1350 # 8ae <tdat8>
 370:	0aa00113          	li	sp,170
 374:	fe209d23          	sh	sp,-6(ra)
 378:	ffa09f03          	lh	t5,-6(ra)
 37c:	0aa00e93          	li	t4,170
 380:	00600193          	li	gp,6
 384:	00000e17          	auipc	t3,0x0
 388:	55ce0e13          	addi	t3,t3,1372 # 8e0 <begin_signature>
 38c:	01ee2c23          	sw	t5,24(t3)
 390:	49df1863          	bne	t5,t4,820 <fail>

00000394 <test_7>:
 394:	00000097          	auipc	ra,0x0
 398:	51a08093          	addi	ra,ra,1306 # 8ae <tdat8>
 39c:	ffffb137          	lui	sp,0xffffb
 3a0:	a0010113          	addi	sp,sp,-1536 # ffffaa00 <__global_pointer$+0xffff9838>
 3a4:	fe209e23          	sh	sp,-4(ra)
 3a8:	ffc09f03          	lh	t5,-4(ra)
 3ac:	ffffbeb7          	lui	t4,0xffffb
 3b0:	a00e8e93          	addi	t4,t4,-1536 # ffffaa00 <__global_pointer$+0xffff9838>
 3b4:	00700193          	li	gp,7
 3b8:	00000e17          	auipc	t3,0x0
 3bc:	528e0e13          	addi	t3,t3,1320 # 8e0 <begin_signature>
 3c0:	01ee2e23          	sw	t5,28(t3)
 3c4:	45df1e63          	bne	t5,t4,820 <fail>

000003c8 <test_8>:
 3c8:	00000097          	auipc	ra,0x0
 3cc:	4e608093          	addi	ra,ra,1254 # 8ae <tdat8>
 3d0:	00001137          	lui	sp,0x1
 3d4:	aa010113          	addi	sp,sp,-1376 # aa0 <_end+0xc0>
 3d8:	fe209f23          	sh	sp,-2(ra)
 3dc:	ffe09f03          	lh	t5,-2(ra)
 3e0:	00001eb7          	lui	t4,0x1
 3e4:	aa0e8e93          	addi	t4,t4,-1376 # aa0 <_end+0xc0>
 3e8:	00800193          	li	gp,8
 3ec:	00000e17          	auipc	t3,0x0
 3f0:	4f4e0e13          	addi	t3,t3,1268 # 8e0 <begin_signature>
 3f4:	03ee2023          	sw	t5,32(t3)
 3f8:	43df1463          	bne	t5,t4,820 <fail>

000003fc <test_9>:
 3fc:	00000097          	auipc	ra,0x0
 400:	4b208093          	addi	ra,ra,1202 # 8ae <tdat8>
 404:	ffffa137          	lui	sp,0xffffa
 408:	00a10113          	addi	sp,sp,10 # ffffa00a <__global_pointer$+0xffff8e42>
 40c:	00209023          	sh	sp,0(ra)
 410:	00009f03          	lh	t5,0(ra)
 414:	ffffaeb7          	lui	t4,0xffffa
 418:	00ae8e93          	addi	t4,t4,10 # ffffa00a <__global_pointer$+0xffff8e42>
 41c:	00900193          	li	gp,9
 420:	00000e17          	auipc	t3,0x0
 424:	4c0e0e13          	addi	t3,t3,1216 # 8e0 <begin_signature>
 428:	03ee2223          	sw	t5,36(t3)
 42c:	3fdf1a63          	bne	t5,t4,820 <fail>

00000430 <test_10>:
 430:	00000097          	auipc	ra,0x0
 434:	48008093          	addi	ra,ra,1152 # 8b0 <tdat9>
 438:	12345137          	lui	sp,0x12345
 43c:	67810113          	addi	sp,sp,1656 # 12345678 <__global_pointer$+0x123444b0>
 440:	fe008213          	addi	tp,ra,-32
 444:	02221023          	sh	sp,32(tp) # 20 <CL_SIZE>
 448:	00009283          	lh	t0,0(ra)
 44c:	00005eb7          	lui	t4,0x5
 450:	678e8e93          	addi	t4,t4,1656 # 5678 <__global_pointer$+0x44b0>
 454:	00a00193          	li	gp,10
 458:	00000e17          	auipc	t3,0x0
 45c:	488e0e13          	addi	t3,t3,1160 # 8e0 <begin_signature>
 460:	025e2423          	sw	t0,40(t3)
 464:	3bd29e63          	bne	t0,t4,820 <fail>

00000468 <test_11>:
 468:	00000097          	auipc	ra,0x0
 46c:	44808093          	addi	ra,ra,1096 # 8b0 <tdat9>
 470:	00003137          	lui	sp,0x3
 474:	09810113          	addi	sp,sp,152 # 3098 <__global_pointer$+0x1ed0>
 478:	ffb08093          	addi	ra,ra,-5
 47c:	002093a3          	sh	sp,7(ra)
 480:	00000217          	auipc	tp,0x0
 484:	43220213          	addi	tp,tp,1074 # 8b2 <tdat10>
 488:	00021283          	lh	t0,0(tp) # 0 <CL_SIZE-0x20>
 48c:	00003eb7          	lui	t4,0x3
 490:	098e8e93          	addi	t4,t4,152 # 3098 <__global_pointer$+0x1ed0>
 494:	00b00193          	li	gp,11
 498:	00000e17          	auipc	t3,0x0
 49c:	448e0e13          	addi	t3,t3,1096 # 8e0 <begin_signature>
 4a0:	025e2623          	sw	t0,44(t3)
 4a4:	37d29e63          	bne	t0,t4,820 <fail>

000004a8 <test_12>:
 4a8:	00c00193          	li	gp,12
 4ac:	00000e17          	auipc	t3,0x0
 4b0:	434e0e13          	addi	t3,t3,1076 # 8e0 <begin_signature>
 4b4:	023e2823          	sw	gp,48(t3)
 4b8:	00000213          	li	tp,0
 4bc:	ffffd0b7          	lui	ra,0xffffd
 4c0:	cdd08093          	addi	ra,ra,-803 # ffffccdd <__global_pointer$+0xffffbb15>
 4c4:	00000117          	auipc	sp,0x0
 4c8:	3dc10113          	addi	sp,sp,988 # 8a0 <tdat>
 4cc:	00111023          	sh	ra,0(sp)
 4d0:	00011f03          	lh	t5,0(sp)
 4d4:	ffffdeb7          	lui	t4,0xffffd
 4d8:	cdde8e93          	addi	t4,t4,-803 # ffffccdd <__global_pointer$+0xffffbb15>
 4dc:	35df1263          	bne	t5,t4,820 <fail>
 4e0:	00120213          	addi	tp,tp,1 # 1 <CL_SIZE-0x1f>
 4e4:	00200293          	li	t0,2
 4e8:	fc521ae3          	bne	tp,t0,4bc <test_12+0x14>

000004ec <test_13>:
 4ec:	00d00193          	li	gp,13
 4f0:	00000e17          	auipc	t3,0x0
 4f4:	3f0e0e13          	addi	t3,t3,1008 # 8e0 <begin_signature>
 4f8:	023e2a23          	sw	gp,52(t3)
 4fc:	00000213          	li	tp,0
 500:	ffffc0b7          	lui	ra,0xffffc
 504:	ccd08093          	addi	ra,ra,-819 # ffffbccd <__global_pointer$+0xffffab05>
 508:	00000117          	auipc	sp,0x0
 50c:	39810113          	addi	sp,sp,920 # 8a0 <tdat>
 510:	00000013          	nop
 514:	00111123          	sh	ra,2(sp)
 518:	00211f03          	lh	t5,2(sp)
 51c:	ffffceb7          	lui	t4,0xffffc
 520:	ccde8e93          	addi	t4,t4,-819 # ffffbccd <__global_pointer$+0xffffab05>
 524:	2fdf1e63          	bne	t5,t4,820 <fail>
 528:	00120213          	addi	tp,tp,1 # 1 <CL_SIZE-0x1f>
 52c:	00200293          	li	t0,2
 530:	fc5218e3          	bne	tp,t0,500 <test_13+0x14>

00000534 <test_14>:
 534:	00e00193          	li	gp,14
 538:	00000e17          	auipc	t3,0x0
 53c:	3a8e0e13          	addi	t3,t3,936 # 8e0 <begin_signature>
 540:	023e2c23          	sw	gp,56(t3)
 544:	00000213          	li	tp,0
 548:	ffffc0b7          	lui	ra,0xffffc
 54c:	bcc08093          	addi	ra,ra,-1076 # ffffbbcc <__global_pointer$+0xffffaa04>
 550:	00000117          	auipc	sp,0x0
 554:	35010113          	addi	sp,sp,848 # 8a0 <tdat>
 558:	00000013          	nop
 55c:	00000013          	nop
 560:	00111223          	sh	ra,4(sp)
 564:	00411f03          	lh	t5,4(sp)
 568:	ffffceb7          	lui	t4,0xffffc
 56c:	bcce8e93          	addi	t4,t4,-1076 # ffffbbcc <__global_pointer$+0xffffaa04>
 570:	2bdf1863          	bne	t5,t4,820 <fail>
 574:	00120213          	addi	tp,tp,1 # 1 <CL_SIZE-0x1f>
 578:	00200293          	li	t0,2
 57c:	fc5216e3          	bne	tp,t0,548 <test_14+0x14>

00000580 <test_15>:
 580:	00f00193          	li	gp,15
 584:	00000e17          	auipc	t3,0x0
 588:	35ce0e13          	addi	t3,t3,860 # 8e0 <begin_signature>
 58c:	023e2e23          	sw	gp,60(t3)
 590:	00000213          	li	tp,0
 594:	ffffb0b7          	lui	ra,0xffffb
 598:	bbc08093          	addi	ra,ra,-1092 # ffffabbc <__global_pointer$+0xffff99f4>
 59c:	00000013          	nop
 5a0:	00000117          	auipc	sp,0x0
 5a4:	30010113          	addi	sp,sp,768 # 8a0 <tdat>
 5a8:	00111323          	sh	ra,6(sp)
 5ac:	00611f03          	lh	t5,6(sp)
 5b0:	ffffbeb7          	lui	t4,0xffffb
 5b4:	bbce8e93          	addi	t4,t4,-1092 # ffffabbc <__global_pointer$+0xffff99f4>
 5b8:	27df1463          	bne	t5,t4,820 <fail>
 5bc:	00120213          	addi	tp,tp,1 # 1 <CL_SIZE-0x1f>
 5c0:	00200293          	li	t0,2
 5c4:	fc5218e3          	bne	tp,t0,594 <test_15+0x14>

000005c8 <test_16>:
 5c8:	01000193          	li	gp,16
 5cc:	00000e17          	auipc	t3,0x0
 5d0:	314e0e13          	addi	t3,t3,788 # 8e0 <begin_signature>
 5d4:	043e2023          	sw	gp,64(t3)
 5d8:	00000213          	li	tp,0
 5dc:	ffffb0b7          	lui	ra,0xffffb
 5e0:	abb08093          	addi	ra,ra,-1349 # ffffaabb <__global_pointer$+0xffff98f3>
 5e4:	00000013          	nop
 5e8:	00000117          	auipc	sp,0x0
 5ec:	2b810113          	addi	sp,sp,696 # 8a0 <tdat>
 5f0:	00000013          	nop
 5f4:	00111423          	sh	ra,8(sp)
 5f8:	00811f03          	lh	t5,8(sp)
 5fc:	ffffbeb7          	lui	t4,0xffffb
 600:	abbe8e93          	addi	t4,t4,-1349 # ffffaabb <__global_pointer$+0xffff98f3>
 604:	21df1e63          	bne	t5,t4,820 <fail>
 608:	00120213          	addi	tp,tp,1 # 1 <CL_SIZE-0x1f>
 60c:	00200293          	li	t0,2
 610:	fc5216e3          	bne	tp,t0,5dc <test_16+0x14>

00000614 <test_17>:
 614:	01100193          	li	gp,17
 618:	00000e17          	auipc	t3,0x0
 61c:	2c8e0e13          	addi	t3,t3,712 # 8e0 <begin_signature>
 620:	043e2223          	sw	gp,68(t3)
 624:	00000213          	li	tp,0
 628:	ffffe0b7          	lui	ra,0xffffe
 62c:	aab08093          	addi	ra,ra,-1365 # ffffdaab <__global_pointer$+0xffffc8e3>
 630:	00000013          	nop
 634:	00000013          	nop
 638:	00000117          	auipc	sp,0x0
 63c:	26810113          	addi	sp,sp,616 # 8a0 <tdat>
 640:	00111523          	sh	ra,10(sp)
 644:	00a11f03          	lh	t5,10(sp)
 648:	ffffeeb7          	lui	t4,0xffffe
 64c:	aabe8e93          	addi	t4,t4,-1365 # ffffdaab <__global_pointer$+0xffffc8e3>
 650:	1ddf1863          	bne	t5,t4,820 <fail>
 654:	00120213          	addi	tp,tp,1 # 1 <CL_SIZE-0x1f>
 658:	00200293          	li	t0,2
 65c:	fc5216e3          	bne	tp,t0,628 <test_17+0x14>

00000660 <test_18>:
 660:	01200193          	li	gp,18
 664:	00000e17          	auipc	t3,0x0
 668:	27ce0e13          	addi	t3,t3,636 # 8e0 <begin_signature>
 66c:	043e2423          	sw	gp,72(t3)
 670:	00000213          	li	tp,0
 674:	00000117          	auipc	sp,0x0
 678:	22c10113          	addi	sp,sp,556 # 8a0 <tdat>
 67c:	000020b7          	lui	ra,0x2
 680:	23308093          	addi	ra,ra,563 # 2233 <__global_pointer$+0x106b>
 684:	00111023          	sh	ra,0(sp)
 688:	00011f03          	lh	t5,0(sp)
 68c:	00002eb7          	lui	t4,0x2
 690:	233e8e93          	addi	t4,t4,563 # 2233 <__global_pointer$+0x106b>
 694:	19df1663          	bne	t5,t4,820 <fail>
 698:	00120213          	addi	tp,tp,1 # 1 <CL_SIZE-0x1f>
 69c:	00200293          	li	t0,2
 6a0:	fc521ae3          	bne	tp,t0,674 <test_18+0x14>

000006a4 <test_19>:
 6a4:	01300193          	li	gp,19
 6a8:	00000e17          	auipc	t3,0x0
 6ac:	238e0e13          	addi	t3,t3,568 # 8e0 <begin_signature>
 6b0:	043e2623          	sw	gp,76(t3)
 6b4:	00000213          	li	tp,0
 6b8:	00000117          	auipc	sp,0x0
 6bc:	1e810113          	addi	sp,sp,488 # 8a0 <tdat>
 6c0:	000010b7          	lui	ra,0x1
 6c4:	22308093          	addi	ra,ra,547 # 1223 <__global_pointer$+0x5b>
 6c8:	00000013          	nop
 6cc:	00111123          	sh	ra,2(sp)
 6d0:	00211f03          	lh	t5,2(sp)
 6d4:	00001eb7          	lui	t4,0x1
 6d8:	223e8e93          	addi	t4,t4,547 # 1223 <__global_pointer$+0x5b>
 6dc:	15df1263          	bne	t5,t4,820 <fail>
 6e0:	00120213          	addi	tp,tp,1 # 1 <CL_SIZE-0x1f>
 6e4:	00200293          	li	t0,2
 6e8:	fc5218e3          	bne	tp,t0,6b8 <test_19+0x14>

000006ec <test_20>:
 6ec:	01400193          	li	gp,20
 6f0:	00000e17          	auipc	t3,0x0
 6f4:	1f0e0e13          	addi	t3,t3,496 # 8e0 <begin_signature>
 6f8:	043e2823          	sw	gp,80(t3)
 6fc:	00000213          	li	tp,0
 700:	00000117          	auipc	sp,0x0
 704:	1a010113          	addi	sp,sp,416 # 8a0 <tdat>
 708:	000010b7          	lui	ra,0x1
 70c:	12208093          	addi	ra,ra,290 # 1122 <_end+0x742>
 710:	00000013          	nop
 714:	00000013          	nop
 718:	00111223          	sh	ra,4(sp)
 71c:	00411f03          	lh	t5,4(sp)
 720:	00001eb7          	lui	t4,0x1
 724:	122e8e93          	addi	t4,t4,290 # 1122 <_end+0x742>
 728:	0fdf1c63          	bne	t5,t4,820 <fail>
 72c:	00120213          	addi	tp,tp,1 # 1 <CL_SIZE-0x1f>
 730:	00200293          	li	t0,2
 734:	fc5216e3          	bne	tp,t0,700 <test_20+0x14>

00000738 <test_21>:
 738:	01500193          	li	gp,21
 73c:	00000e17          	auipc	t3,0x0
 740:	1a4e0e13          	addi	t3,t3,420 # 8e0 <begin_signature>
 744:	043e2a23          	sw	gp,84(t3)
 748:	00000213          	li	tp,0
 74c:	00000117          	auipc	sp,0x0
 750:	15410113          	addi	sp,sp,340 # 8a0 <tdat>
 754:	00000013          	nop
 758:	11200093          	li	ra,274
 75c:	00111323          	sh	ra,6(sp)
 760:	00611f03          	lh	t5,6(sp)
 764:	11200e93          	li	t4,274
 768:	0bdf1c63          	bne	t5,t4,820 <fail>
 76c:	00120213          	addi	tp,tp,1 # 1 <CL_SIZE-0x1f>
 770:	00200293          	li	t0,2
 774:	fc521ce3          	bne	tp,t0,74c <test_21+0x14>

00000778 <test_22>:
 778:	01600193          	li	gp,22
 77c:	00000e17          	auipc	t3,0x0
 780:	164e0e13          	addi	t3,t3,356 # 8e0 <begin_signature>
 784:	043e2c23          	sw	gp,88(t3)
 788:	00000213          	li	tp,0
 78c:	00000117          	auipc	sp,0x0
 790:	11410113          	addi	sp,sp,276 # 8a0 <tdat>
 794:	00000013          	nop
 798:	01100093          	li	ra,17
 79c:	00000013          	nop
 7a0:	00111423          	sh	ra,8(sp)
 7a4:	00811f03          	lh	t5,8(sp)
 7a8:	01100e93          	li	t4,17
 7ac:	07df1a63          	bne	t5,t4,820 <fail>
 7b0:	00120213          	addi	tp,tp,1 # 1 <CL_SIZE-0x1f>
 7b4:	00200293          	li	t0,2
 7b8:	fc521ae3          	bne	tp,t0,78c <test_22+0x14>

000007bc <test_23>:
 7bc:	01700193          	li	gp,23
 7c0:	00000e17          	auipc	t3,0x0
 7c4:	120e0e13          	addi	t3,t3,288 # 8e0 <begin_signature>
 7c8:	043e2e23          	sw	gp,92(t3)
 7cc:	00000213          	li	tp,0
 7d0:	00000117          	auipc	sp,0x0
 7d4:	0d010113          	addi	sp,sp,208 # 8a0 <tdat>
 7d8:	00000013          	nop
 7dc:	00000013          	nop
 7e0:	000030b7          	lui	ra,0x3
 7e4:	00108093          	addi	ra,ra,1 # 3001 <__global_pointer$+0x1e39>
 7e8:	00111523          	sh	ra,10(sp)
 7ec:	00a11f03          	lh	t5,10(sp)
 7f0:	00003eb7          	lui	t4,0x3
 7f4:	001e8e93          	addi	t4,t4,1 # 3001 <__global_pointer$+0x1e39>
 7f8:	03df1463          	bne	t5,t4,820 <fail>
 7fc:	00120213          	addi	tp,tp,1 # 1 <CL_SIZE-0x1f>
 800:	00200293          	li	t0,2
 804:	fc5216e3          	bne	tp,t0,7d0 <test_23+0x14>
 808:	0000c537          	lui	a0,0xc
 80c:	eef50513          	addi	a0,a0,-273 # beef <__global_pointer$+0xad27>
 810:	00000597          	auipc	a1,0x0
 814:	09058593          	addi	a1,a1,144 # 8a0 <tdat>
 818:	00a59323          	sh	a0,6(a1)
 81c:	00301a63          	bne	zero,gp,830 <pass>

00000820 <fail>:
 820:	0ff0000f          	fence
 824:	00018593          	mv	a1,gp
 828:	00100513          	li	a0,1
 82c:	00000073          	ecall

00000830 <pass>:
 830:	0ff0000f          	fence
 834:	00018593          	mv	a1,gp
 838:	00000513          	li	a0,0
 83c:	00000073          	ecall

00000840 <ecall>:
 840:	00000073          	ecall
	...

00000860 <sc_exit>:
 860:	895ff06f          	j	f4 <SIM_EXIT>
 864:	00000013          	nop
 868:	00000013          	nop
 86c:	00000013          	nop
 870:	00000013          	nop
 874:	00000013          	nop
 878:	00000013          	nop
 87c:	00000013          	nop
	...

Дизассемблирование раздела .data:

000008a0 <tdat>:
 8a0:	          	jal	t4,ffffbc8e <__global_pointer$+0xffffaac6>

000008a2 <tdat2>:
 8a2:	          	jal	t4,ffffbc90 <__global_pointer$+0xffffaac8>

000008a4 <tdat3>:
 8a4:	          	jal	t4,ffffbc92 <__global_pointer$+0xffffaaca>

000008a6 <tdat4>:
 8a6:	          	jal	t4,ffffbc94 <__global_pointer$+0xffffaacc>

000008a8 <tdat5>:
 8a8:	          	jal	t4,ffffbc96 <__global_pointer$+0xffffaace>

000008aa <tdat6>:
 8aa:	          	jal	t4,ffffbc98 <__global_pointer$+0xffffaad0>

000008ac <tdat7>:
 8ac:	          	jal	t4,ffffbc9a <__global_pointer$+0xffffaad2>

000008ae <tdat8>:
 8ae:	          	jal	t4,ffffbc9c <__global_pointer$+0xffffaad4>

000008b0 <tdat9>:
 8b0:	          	jal	t4,ffffbc9e <__global_pointer$+0xffffaad6>

000008b2 <tdat10>:
 8b2:	0000beef          	jal	t4,b8b2 <__global_pointer$+0xa6ea>
	...

000008c0 <begin_regstate>:
	...

000008e0 <begin_signature>:
 8e0:	ffff                	0xffff
 8e2:	ffff                	0xffff
 8e4:	ffff                	0xffff
 8e6:	ffff                	0xffff
 8e8:	ffff                	0xffff
 8ea:	ffff                	0xffff
 8ec:	ffff                	0xffff
 8ee:	ffff                	0xffff
 8f0:	ffff                	0xffff
 8f2:	ffff                	0xffff
 8f4:	ffff                	0xffff
 8f6:	ffff                	0xffff
 8f8:	ffff                	0xffff
 8fa:	ffff                	0xffff
 8fc:	ffff                	0xffff
 8fe:	ffff                	0xffff
 900:	ffff                	0xffff
 902:	ffff                	0xffff
 904:	ffff                	0xffff
 906:	ffff                	0xffff
 908:	ffff                	0xffff
 90a:	ffff                	0xffff
 90c:	ffff                	0xffff
 90e:	ffff                	0xffff
 910:	ffff                	0xffff
 912:	ffff                	0xffff
 914:	ffff                	0xffff
 916:	ffff                	0xffff
 918:	ffff                	0xffff
 91a:	ffff                	0xffff
 91c:	ffff                	0xffff
 91e:	ffff                	0xffff
 920:	ffff                	0xffff
 922:	ffff                	0xffff
 924:	ffff                	0xffff
 926:	ffff                	0xffff
 928:	ffff                	0xffff
 92a:	ffff                	0xffff
 92c:	ffff                	0xffff
 92e:	ffff                	0xffff
 930:	ffff                	0xffff
 932:	ffff                	0xffff
 934:	ffff                	0xffff
 936:	ffff                	0xffff
 938:	ffff                	0xffff
 93a:	ffff                	0xffff
 93c:	ffff                	0xffff
 93e:	ffff                	0xffff
 940:	ffff                	0xffff
 942:	ffff                	0xffff
 944:	ffff                	0xffff
 946:	ffff                	0xffff
 948:	ffff                	0xffff
 94a:	ffff                	0xffff
 94c:	ffff                	0xffff
 94e:	ffff                	0xffff
 950:	ffff                	0xffff
 952:	ffff                	0xffff
 954:	ffff                	0xffff
 956:	ffff                	0xffff
 958:	ffff                	0xffff
 95a:	ffff                	0xffff
 95c:	ffff                	0xffff
 95e:	ffff                	0xffff
 960:	ffff                	0xffff
 962:	ffff                	0xffff
 964:	ffff                	0xffff
 966:	ffff                	0xffff
 968:	ffff                	0xffff
 96a:	ffff                	0xffff
 96c:	ffff                	0xffff
 96e:	ffff                	0xffff
 970:	ffff                	0xffff
 972:	ffff                	0xffff
 974:	ffff                	0xffff
 976:	ffff                	0xffff
 978:	ffff                	0xffff
 97a:	ffff                	0xffff
 97c:	ffff                	0xffff
 97e:	ffff                	0xffff

Дизассемблирование раздела .tohost:

00000980 <tohost>:
	...

000009c0 <fromhost>:
	...

Дизассемблирование раздела .sdata:

000009c8 <__global_pointer$-0x800>:
	...

Дизассемблирование раздела .stack:

0000fc00 <.stack>:
	...
