
/home/oleg/scr1/build/verilator_wf_AHB_IMC/compliance_I-SRAI-01.elf:     формат файла elf32-littleriscv
/home/oleg/scr1/build/verilator_wf_AHB_IMC/compliance_I-SRAI-01.elf
архитектура: riscv:rv32, флаги 0x00000112:
EXEC_P, HAS_SYMS, D_PAGED
начальный адрес 0x00000200

Заголовок программы:
    LOAD off    0x00001000 vaddr 0x00000000 paddr 0x00000000 align 2**12
         filesz 0x00000e48 memsz 0x00000e60 flags rwx
    LOAD off    0x00002c00 vaddr 0x0000fc00 paddr 0x0000fc00 align 2**12
         filesz 0x00000000 memsz 0x00000400 flags rw-

Разделы:
Idx Name          Size      VMA       LMA       File off  Algn  Флаги
  0 .text.init    00000284  00000000  00000000  00001000  2**6  CONTENTS, ALLOC, LOAD, READONLY, CODE
  1 .text         00000720  000002a0  000002a0  000012a0  2**5  CONTENTS, ALLOC, LOAD, READONLY, CODE
  2 .data         00000420  000009c0  000009c0  000019c0  2**4  CONTENTS, ALLOC, LOAD, DATA
  3 .tohost       00000048  00000e00  00000e00  00001e00  2**6  CONTENTS, ALLOC, LOAD, DATA
  4 .sdata        00000018  00000e48  00000e48  00001e48  2**0  ALLOC
  5 .tdata        00000000  00000e60  00000e60  00001e48  2**0  CONTENTS, ALLOC, LOAD, DATA, THREAD_LOCAL
  6 .tbss         00000000  00000e60  00000e60  00000000  2**0  ALLOC, THREAD_LOCAL
  7 .bss          00000000  00000e60  00000e60  00001e48  2**0  ALLOC
  8 .stack        00000400  0000fc00  0000fc00  00002c00  2**0  ALLOC
SYMBOL TABLE:
00000000 l    d  .text.init	00000000 .text.init
000002a0 l    d  .text	00000000 .text
000009c0 l    d  .data	00000000 .data
00000e00 l    d  .tohost	00000000 .tohost
00000e48 l    d  .sdata	00000000 .sdata
00000e60 l    d  .tdata	00000000 .tdata
00000e60 l    d  .tbss	00000000 .tbss
00000e60 l    d  .bss	00000000 .bss
0000fc00 l    d  .stack	00000000 .stack
00000000 l    df *ABS*	00000000 /home/oleg/scr1/build/verilator_wf_AHB_IMC/riscv_compliance/riscv_compliance_objs/I-SRAI-01.o
00000980 l       .text	00000000 sc_exit
000001c0 l       .text.init	00000000 trap_vector
000001fc l       .text.init	00000000 _report
000001f8 l       .text.init	00000000 handle_exception
000001f8 l       .text.init	00000000 other_exception
000002a0 l       .text	00000000 _run_test
000009c0 l       .data	00000000 test_A1_data
00000a00 l       .data	00000000 test_A1_res
000009c4 l       .data	00000000 test_A2_data
00000a18 l       .data	00000000 test_A2_res
000009c8 l       .data	00000000 test_A3_data
00000a30 l       .data	00000000 test_A3_res
000009cc l       .data	00000000 test_A4_data
00000a48 l       .data	00000000 test_A4_res
000009d0 l       .data	00000000 test_A5_data
00000a60 l       .data	00000000 test_A5_res
000009d4 l       .data	00000000 test_B_data
00000a78 l       .data	00000000 test_B_res
000009d8 l       .data	00000000 test_C_data
00000a94 l       .data	00000000 test_C_res
000009dc l       .data	00000000 test_D_data
00000a98 l       .data	00000000 test_D_res
00000978 l       .text	00000000 ecall
00000400 g       *ABS*	00000000 STACK_SIZE
00001648 g       .sdata	00000000 __global_pointer$
00000aa0 g       .data	00000000 end_signature
000009e0 g       .data	00000000 begin_regstate
00000a00 g       .data	00000000 begin_signature
00000200 g       .text.init	00000000 _start
00000020 g       *ABS*	00000000 CL_SIZE
000000f8 g       .text.init	00000000 SIM_STOP
00000e60 g       .bss	00000000 _end
00000e40 g       .tohost	00000000 fromhost
00000e00 g       .tohost	00000000 tohost
000000f4 g       .text.init	00000000 SIM_EXIT



Дизассемблирование раздела .text.init:

00000000 <SIM_EXIT-0xf4>:
	...

000000f4 <SIM_EXIT>:
  f4:	00000013          	nop

000000f8 <SIM_STOP>:
  f8:	0000006f          	j	f8 <SIM_STOP>
  fc:	ffff                	0xffff
  fe:	ffff                	0xffff
	...

000001c0 <trap_vector>:
 1c0:	34202773          	csrr	a4,mcause
 1c4:	00800793          	li	a5,8
 1c8:	02f70a63          	beq	a4,a5,1fc <_report>
 1cc:	00900793          	li	a5,9
 1d0:	02f70663          	beq	a4,a5,1fc <_report>
 1d4:	00b00793          	li	a5,11
 1d8:	02f70263          	beq	a4,a5,1fc <_report>
 1dc:	00000717          	auipc	a4,0x0
 1e0:	e2470713          	addi	a4,a4,-476 # 0 <CL_SIZE-0x20>
 1e4:	00070463          	beqz	a4,1ec <trap_vector+0x2c>
 1e8:	00070067          	jr	a4
 1ec:	34202773          	csrr	a4,mcause
 1f0:	00075463          	bgez	a4,1f8 <handle_exception>
 1f4:	0040006f          	j	1f8 <handle_exception>

000001f8 <handle_exception>:
 1f8:	00100513          	li	a0,1

000001fc <_report>:
 1fc:	7840006f          	j	980 <sc_exit>

00000200 <_start>:
 200:	f1402573          	csrr	a0,mhartid
 204:	00051063          	bnez	a0,204 <_start+0x4>
 208:	00000e13          	li	t3,0
 20c:	00000297          	auipc	t0,0x0
 210:	fb428293          	addi	t0,t0,-76 # 1c0 <trap_vector>
 214:	30529073          	csrw	mtvec,t0
 218:	00100513          	li	a0,1
 21c:	01f51513          	slli	a0,a0,0x1f
 220:	00054a63          	bltz	a0,234 <_start+0x34>
 224:	0ff0000f          	fence
 228:	000e0593          	mv	a1,t3
 22c:	00000513          	li	a0,0
 230:	00000073          	ecall
 234:	00000297          	auipc	t0,0x0
 238:	dcc28293          	addi	t0,t0,-564 # 0 <CL_SIZE-0x20>
 23c:	00028e63          	beqz	t0,258 <_start+0x58>
 240:	10529073          	csrw	stvec,t0
 244:	0000b2b7          	lui	t0,0xb
 248:	10928293          	addi	t0,t0,265 # b109 <__global_pointer$+0x9ac1>
 24c:	30229073          	csrw	medeleg,t0
 250:	30202373          	csrr	t1,medeleg
 254:	fa6292e3          	bne	t0,t1,1f8 <handle_exception>
 258:	30005073          	csrwi	mstatus,0
 25c:	00002537          	lui	a0,0x2
 260:	80050513          	addi	a0,a0,-2048 # 1800 <__global_pointer$+0x1b8>
 264:	30052073          	csrs	mstatus,a0
 268:	00000297          	auipc	t0,0x0
 26c:	03828293          	addi	t0,t0,56 # 2a0 <_run_test>
 270:	34129073          	csrw	mepc,t0
 274:	f1402573          	csrr	a0,mhartid
 278:	30200073          	mret
	...

Дизассемблирование раздела .text:

000002a0 <_run_test>:
 2a0:	00000f97          	auipc	t6,0x0
 2a4:	740f8f93          	addi	t6,t6,1856 # 9e0 <begin_regstate>
 2a8:	003fa023          	sw	gp,0(t6)
 2ac:	004fa223          	sw	tp,4(t6)
 2b0:	005fa423          	sw	t0,8(t6)
 2b4:	f00001b7          	lui	gp,0xf0000
 2b8:	00000217          	auipc	tp,0x0
 2bc:	7e820213          	addi	tp,tp,2024 # aa0 <end_signature>
 2c0:	00020283          	lb	t0,0(tp) # 0 <CL_SIZE-0x20>
 2c4:	00518023          	sb	t0,0(gp) # f0000000 <__global_pointer$+0xefffe9b8>
 2c8:	00028663          	beqz	t0,2d4 <_run_test+0x34>
 2cc:	00120213          	addi	tp,tp,1 # 1 <CL_SIZE-0x1f>
 2d0:	ff1ff06f          	j	2c0 <_run_test+0x20>
 2d4:	00000f97          	auipc	t6,0x0
 2d8:	70cf8f93          	addi	t6,t6,1804 # 9e0 <begin_regstate>
 2dc:	000fa183          	lw	gp,0(t6)
 2e0:	004fa203          	lw	tp,4(t6)
 2e4:	008fa283          	lw	t0,8(t6)
 2e8:	00000f97          	auipc	t6,0x0
 2ec:	6f8f8f93          	addi	t6,t6,1784 # 9e0 <begin_regstate>
 2f0:	003fa023          	sw	gp,0(t6)
 2f4:	004fa223          	sw	tp,4(t6)
 2f8:	005fa423          	sw	t0,8(t6)
 2fc:	f00001b7          	lui	gp,0xf0000
 300:	00000217          	auipc	tp,0x0
 304:	7ae20213          	addi	tp,tp,1966 # aae <end_signature+0xe>
 308:	00020283          	lb	t0,0(tp) # 0 <CL_SIZE-0x20>
 30c:	00518023          	sb	t0,0(gp) # f0000000 <__global_pointer$+0xefffe9b8>
 310:	00028663          	beqz	t0,31c <_run_test+0x7c>
 314:	00120213          	addi	tp,tp,1 # 1 <CL_SIZE-0x1f>
 318:	ff1ff06f          	j	308 <_run_test+0x68>
 31c:	00000f97          	auipc	t6,0x0
 320:	6c4f8f93          	addi	t6,t6,1732 # 9e0 <begin_regstate>
 324:	000fa183          	lw	gp,0(t6)
 328:	004fa203          	lw	tp,4(t6)
 32c:	008fa283          	lw	t0,8(t6)
 330:	00000097          	auipc	ra,0x0
 334:	69008093          	addi	ra,ra,1680 # 9c0 <test_A1_data>
 338:	00000117          	auipc	sp,0x0
 33c:	6c810113          	addi	sp,sp,1736 # a00 <begin_signature>
 340:	0000a183          	lw	gp,0(ra)
 344:	4011d213          	srai	tp,gp,0x1
 348:	40f1d293          	srai	t0,gp,0xf
 34c:	41f1d313          	srai	t1,gp,0x1f
 350:	4001d393          	srai	t2,gp,0x0
 354:	4101d413          	srai	s0,gp,0x10
 358:	00312023          	sw	gp,0(sp)
 35c:	00412223          	sw	tp,4(sp)
 360:	00512423          	sw	t0,8(sp)
 364:	00612623          	sw	t1,12(sp)
 368:	00712823          	sw	t2,16(sp)
 36c:	00812a23          	sw	s0,20(sp)
 370:	00000f97          	auipc	t6,0x0
 374:	670f8f93          	addi	t6,t6,1648 # 9e0 <begin_regstate>
 378:	003fa023          	sw	gp,0(t6)
 37c:	004fa223          	sw	tp,4(t6)
 380:	005fa423          	sw	t0,8(t6)
 384:	f00001b7          	lui	gp,0xf0000
 388:	00000217          	auipc	tp,0x0
 38c:	77920213          	addi	tp,tp,1913 # b01 <end_signature+0x61>
 390:	00020283          	lb	t0,0(tp) # 0 <CL_SIZE-0x20>
 394:	00518023          	sb	t0,0(gp) # f0000000 <__global_pointer$+0xefffe9b8>
 398:	00028663          	beqz	t0,3a4 <_run_test+0x104>
 39c:	00120213          	addi	tp,tp,1 # 1 <CL_SIZE-0x1f>
 3a0:	ff1ff06f          	j	390 <_run_test+0xf0>
 3a4:	00000f97          	auipc	t6,0x0
 3a8:	63cf8f93          	addi	t6,t6,1596 # 9e0 <begin_regstate>
 3ac:	000fa183          	lw	gp,0(t6)
 3b0:	004fa203          	lw	tp,4(t6)
 3b4:	008fa283          	lw	t0,8(t6)
 3b8:	00000f97          	auipc	t6,0x0
 3bc:	628f8f93          	addi	t6,t6,1576 # 9e0 <begin_regstate>
 3c0:	003fa023          	sw	gp,0(t6)
 3c4:	004fa223          	sw	tp,4(t6)
 3c8:	005fa423          	sw	t0,8(t6)
 3cc:	f00001b7          	lui	gp,0xf0000
 3d0:	00000217          	auipc	tp,0x0
 3d4:	74d20213          	addi	tp,tp,1869 # b1d <end_signature+0x7d>
 3d8:	00020283          	lb	t0,0(tp) # 0 <CL_SIZE-0x20>
 3dc:	00518023          	sb	t0,0(gp) # f0000000 <__global_pointer$+0xefffe9b8>
 3e0:	00028663          	beqz	t0,3ec <_run_test+0x14c>
 3e4:	00120213          	addi	tp,tp,1 # 1 <CL_SIZE-0x1f>
 3e8:	ff1ff06f          	j	3d8 <_run_test+0x138>
 3ec:	00000f97          	auipc	t6,0x0
 3f0:	5f4f8f93          	addi	t6,t6,1524 # 9e0 <begin_regstate>
 3f4:	000fa183          	lw	gp,0(t6)
 3f8:	004fa203          	lw	tp,4(t6)
 3fc:	008fa283          	lw	t0,8(t6)
 400:	00000097          	auipc	ra,0x0
 404:	5c408093          	addi	ra,ra,1476 # 9c4 <test_A2_data>
 408:	00000117          	auipc	sp,0x0
 40c:	61010113          	addi	sp,sp,1552 # a18 <test_A2_res>
 410:	0000a403          	lw	s0,0(ra)
 414:	40145493          	srai	s1,s0,0x1
 418:	40f45513          	srai	a0,s0,0xf
 41c:	41f45593          	srai	a1,s0,0x1f
 420:	40045613          	srai	a2,s0,0x0
 424:	41045693          	srai	a3,s0,0x10
 428:	00812023          	sw	s0,0(sp)
 42c:	00912223          	sw	s1,4(sp)
 430:	00a12423          	sw	a0,8(sp)
 434:	00b12623          	sw	a1,12(sp)
 438:	00c12823          	sw	a2,16(sp)
 43c:	00d12a23          	sw	a3,20(sp)
 440:	00000f97          	auipc	t6,0x0
 444:	5a0f8f93          	addi	t6,t6,1440 # 9e0 <begin_regstate>
 448:	003fa023          	sw	gp,0(t6)
 44c:	004fa223          	sw	tp,4(t6)
 450:	005fa423          	sw	t0,8(t6)
 454:	f00001b7          	lui	gp,0xf0000
 458:	00000217          	auipc	tp,0x0
 45c:	71820213          	addi	tp,tp,1816 # b70 <end_signature+0xd0>
 460:	00020283          	lb	t0,0(tp) # 0 <CL_SIZE-0x20>
 464:	00518023          	sb	t0,0(gp) # f0000000 <__global_pointer$+0xefffe9b8>
 468:	00028663          	beqz	t0,474 <STACK_SIZE+0x74>
 46c:	00120213          	addi	tp,tp,1 # 1 <CL_SIZE-0x1f>
 470:	ff1ff06f          	j	460 <STACK_SIZE+0x60>
 474:	00000f97          	auipc	t6,0x0
 478:	56cf8f93          	addi	t6,t6,1388 # 9e0 <begin_regstate>
 47c:	000fa183          	lw	gp,0(t6)
 480:	004fa203          	lw	tp,4(t6)
 484:	008fa283          	lw	t0,8(t6)
 488:	00000f97          	auipc	t6,0x0
 48c:	558f8f93          	addi	t6,t6,1368 # 9e0 <begin_regstate>
 490:	003fa023          	sw	gp,0(t6)
 494:	004fa223          	sw	tp,4(t6)
 498:	005fa423          	sw	t0,8(t6)
 49c:	f00001b7          	lui	gp,0xf0000
 4a0:	00000217          	auipc	tp,0x0
 4a4:	6ec20213          	addi	tp,tp,1772 # b8c <end_signature+0xec>
 4a8:	00020283          	lb	t0,0(tp) # 0 <CL_SIZE-0x20>
 4ac:	00518023          	sb	t0,0(gp) # f0000000 <__global_pointer$+0xefffe9b8>
 4b0:	00028663          	beqz	t0,4bc <STACK_SIZE+0xbc>
 4b4:	00120213          	addi	tp,tp,1 # 1 <CL_SIZE-0x1f>
 4b8:	ff1ff06f          	j	4a8 <STACK_SIZE+0xa8>
 4bc:	00000f97          	auipc	t6,0x0
 4c0:	524f8f93          	addi	t6,t6,1316 # 9e0 <begin_regstate>
 4c4:	000fa183          	lw	gp,0(t6)
 4c8:	004fa203          	lw	tp,4(t6)
 4cc:	008fa283          	lw	t0,8(t6)
 4d0:	00000097          	auipc	ra,0x0
 4d4:	4f808093          	addi	ra,ra,1272 # 9c8 <test_A3_data>
 4d8:	00000117          	auipc	sp,0x0
 4dc:	55810113          	addi	sp,sp,1368 # a30 <test_A3_res>
 4e0:	0000a683          	lw	a3,0(ra)
 4e4:	4016d713          	srai	a4,a3,0x1
 4e8:	40f6d793          	srai	a5,a3,0xf
 4ec:	41f6d813          	srai	a6,a3,0x1f
 4f0:	4006d893          	srai	a7,a3,0x0
 4f4:	4106d913          	srai	s2,a3,0x10
 4f8:	00d12023          	sw	a3,0(sp)
 4fc:	00e12223          	sw	a4,4(sp)
 500:	00f12423          	sw	a5,8(sp)
 504:	01012623          	sw	a6,12(sp)
 508:	01112823          	sw	a7,16(sp)
 50c:	01212a23          	sw	s2,20(sp)
 510:	00000f97          	auipc	t6,0x0
 514:	4d0f8f93          	addi	t6,t6,1232 # 9e0 <begin_regstate>
 518:	003fa023          	sw	gp,0(t6)
 51c:	004fa223          	sw	tp,4(t6)
 520:	005fa423          	sw	t0,8(t6)
 524:	f00001b7          	lui	gp,0xf0000
 528:	00000217          	auipc	tp,0x0
 52c:	6b820213          	addi	tp,tp,1720 # be0 <end_signature+0x140>
 530:	00020283          	lb	t0,0(tp) # 0 <CL_SIZE-0x20>
 534:	00518023          	sb	t0,0(gp) # f0000000 <__global_pointer$+0xefffe9b8>
 538:	00028663          	beqz	t0,544 <STACK_SIZE+0x144>
 53c:	00120213          	addi	tp,tp,1 # 1 <CL_SIZE-0x1f>
 540:	ff1ff06f          	j	530 <STACK_SIZE+0x130>
 544:	00000f97          	auipc	t6,0x0
 548:	49cf8f93          	addi	t6,t6,1180 # 9e0 <begin_regstate>
 54c:	000fa183          	lw	gp,0(t6)
 550:	004fa203          	lw	tp,4(t6)
 554:	008fa283          	lw	t0,8(t6)
 558:	00000f97          	auipc	t6,0x0
 55c:	488f8f93          	addi	t6,t6,1160 # 9e0 <begin_regstate>
 560:	003fa023          	sw	gp,0(t6)
 564:	004fa223          	sw	tp,4(t6)
 568:	005fa423          	sw	t0,8(t6)
 56c:	f00001b7          	lui	gp,0xf0000
 570:	00000217          	auipc	tp,0x0
 574:	68c20213          	addi	tp,tp,1676 # bfc <end_signature+0x15c>
 578:	00020283          	lb	t0,0(tp) # 0 <CL_SIZE-0x20>
 57c:	00518023          	sb	t0,0(gp) # f0000000 <__global_pointer$+0xefffe9b8>
 580:	00028663          	beqz	t0,58c <STACK_SIZE+0x18c>
 584:	00120213          	addi	tp,tp,1 # 1 <CL_SIZE-0x1f>
 588:	ff1ff06f          	j	578 <STACK_SIZE+0x178>
 58c:	00000f97          	auipc	t6,0x0
 590:	454f8f93          	addi	t6,t6,1108 # 9e0 <begin_regstate>
 594:	000fa183          	lw	gp,0(t6)
 598:	004fa203          	lw	tp,4(t6)
 59c:	008fa283          	lw	t0,8(t6)
 5a0:	00000617          	auipc	a2,0x0
 5a4:	42c60613          	addi	a2,a2,1068 # 9cc <test_A4_data>
 5a8:	00000697          	auipc	a3,0x0
 5ac:	4a068693          	addi	a3,a3,1184 # a48 <test_A4_res>
 5b0:	00062903          	lw	s2,0(a2)
 5b4:	40195993          	srai	s3,s2,0x1
 5b8:	40f95a13          	srai	s4,s2,0xf
 5bc:	41f95a93          	srai	s5,s2,0x1f
 5c0:	40095b13          	srai	s6,s2,0x0
 5c4:	41095b93          	srai	s7,s2,0x10
 5c8:	0126a023          	sw	s2,0(a3)
 5cc:	0136a223          	sw	s3,4(a3)
 5d0:	0146a423          	sw	s4,8(a3)
 5d4:	0156a623          	sw	s5,12(a3)
 5d8:	0166a823          	sw	s6,16(a3)
 5dc:	0176aa23          	sw	s7,20(a3)
 5e0:	00000f97          	auipc	t6,0x0
 5e4:	400f8f93          	addi	t6,t6,1024 # 9e0 <begin_regstate>
 5e8:	003fa023          	sw	gp,0(t6)
 5ec:	004fa223          	sw	tp,4(t6)
 5f0:	005fa423          	sw	t0,8(t6)
 5f4:	f00001b7          	lui	gp,0xf0000
 5f8:	00000217          	auipc	tp,0x0
 5fc:	66020213          	addi	tp,tp,1632 # c58 <end_signature+0x1b8>
 600:	00020283          	lb	t0,0(tp) # 0 <CL_SIZE-0x20>
 604:	00518023          	sb	t0,0(gp) # f0000000 <__global_pointer$+0xefffe9b8>
 608:	00028663          	beqz	t0,614 <STACK_SIZE+0x214>
 60c:	00120213          	addi	tp,tp,1 # 1 <CL_SIZE-0x1f>
 610:	ff1ff06f          	j	600 <STACK_SIZE+0x200>
 614:	00000f97          	auipc	t6,0x0
 618:	3ccf8f93          	addi	t6,t6,972 # 9e0 <begin_regstate>
 61c:	000fa183          	lw	gp,0(t6)
 620:	004fa203          	lw	tp,4(t6)
 624:	008fa283          	lw	t0,8(t6)
 628:	00000f97          	auipc	t6,0x0
 62c:	3b8f8f93          	addi	t6,t6,952 # 9e0 <begin_regstate>
 630:	003fa023          	sw	gp,0(t6)
 634:	004fa223          	sw	tp,4(t6)
 638:	005fa423          	sw	t0,8(t6)
 63c:	f00001b7          	lui	gp,0xf0000
 640:	00000217          	auipc	tp,0x0
 644:	63420213          	addi	tp,tp,1588 # c74 <end_signature+0x1d4>
 648:	00020283          	lb	t0,0(tp) # 0 <CL_SIZE-0x20>
 64c:	00518023          	sb	t0,0(gp) # f0000000 <__global_pointer$+0xefffe9b8>
 650:	00028663          	beqz	t0,65c <STACK_SIZE+0x25c>
 654:	00120213          	addi	tp,tp,1 # 1 <CL_SIZE-0x1f>
 658:	ff1ff06f          	j	648 <STACK_SIZE+0x248>
 65c:	00000f97          	auipc	t6,0x0
 660:	384f8f93          	addi	t6,t6,900 # 9e0 <begin_regstate>
 664:	000fa183          	lw	gp,0(t6)
 668:	004fa203          	lw	tp,4(t6)
 66c:	008fa283          	lw	t0,8(t6)
 670:	00000617          	auipc	a2,0x0
 674:	36060613          	addi	a2,a2,864 # 9d0 <test_A5_data>
 678:	00000697          	auipc	a3,0x0
 67c:	3e868693          	addi	a3,a3,1000 # a60 <test_A5_res>
 680:	00062b83          	lw	s7,0(a2)
 684:	401bdc13          	srai	s8,s7,0x1
 688:	40fbdc93          	srai	s9,s7,0xf
 68c:	41fbdd13          	srai	s10,s7,0x1f
 690:	400bdd93          	srai	s11,s7,0x0
 694:	410bde13          	srai	t3,s7,0x10
 698:	0176a023          	sw	s7,0(a3)
 69c:	0186a223          	sw	s8,4(a3)
 6a0:	0196a423          	sw	s9,8(a3)
 6a4:	01a6a623          	sw	s10,12(a3)
 6a8:	01b6a823          	sw	s11,16(a3)
 6ac:	01c6aa23          	sw	t3,20(a3)
 6b0:	00000f97          	auipc	t6,0x0
 6b4:	330f8f93          	addi	t6,t6,816 # 9e0 <begin_regstate>
 6b8:	003fa023          	sw	gp,0(t6)
 6bc:	004fa223          	sw	tp,4(t6)
 6c0:	005fa423          	sw	t0,8(t6)
 6c4:	f00001b7          	lui	gp,0xf0000
 6c8:	00000217          	auipc	tp,0x0
 6cc:	60820213          	addi	tp,tp,1544 # cd0 <end_signature+0x230>
 6d0:	00020283          	lb	t0,0(tp) # 0 <CL_SIZE-0x20>
 6d4:	00518023          	sb	t0,0(gp) # f0000000 <__global_pointer$+0xefffe9b8>
 6d8:	00028663          	beqz	t0,6e4 <STACK_SIZE+0x2e4>
 6dc:	00120213          	addi	tp,tp,1 # 1 <CL_SIZE-0x1f>
 6e0:	ff1ff06f          	j	6d0 <STACK_SIZE+0x2d0>
 6e4:	00000f97          	auipc	t6,0x0
 6e8:	2fcf8f93          	addi	t6,t6,764 # 9e0 <begin_regstate>
 6ec:	000fa183          	lw	gp,0(t6)
 6f0:	004fa203          	lw	tp,4(t6)
 6f4:	008fa283          	lw	t0,8(t6)
 6f8:	00000f97          	auipc	t6,0x0
 6fc:	2e8f8f93          	addi	t6,t6,744 # 9e0 <begin_regstate>
 700:	003fa023          	sw	gp,0(t6)
 704:	004fa223          	sw	tp,4(t6)
 708:	005fa423          	sw	t0,8(t6)
 70c:	f00001b7          	lui	gp,0xf0000
 710:	00000217          	auipc	tp,0x0
 714:	5dc20213          	addi	tp,tp,1500 # cec <end_signature+0x24c>
 718:	00020283          	lb	t0,0(tp) # 0 <CL_SIZE-0x20>
 71c:	00518023          	sb	t0,0(gp) # f0000000 <__global_pointer$+0xefffe9b8>
 720:	00028663          	beqz	t0,72c <STACK_SIZE+0x32c>
 724:	00120213          	addi	tp,tp,1 # 1 <CL_SIZE-0x1f>
 728:	ff1ff06f          	j	718 <STACK_SIZE+0x318>
 72c:	00000f97          	auipc	t6,0x0
 730:	2b4f8f93          	addi	t6,t6,692 # 9e0 <begin_regstate>
 734:	000fa183          	lw	gp,0(t6)
 738:	004fa203          	lw	tp,4(t6)
 73c:	008fa283          	lw	t0,8(t6)
 740:	00000d17          	auipc	s10,0x0
 744:	294d0d13          	addi	s10,s10,660 # 9d4 <test_B_data>
 748:	00000d97          	auipc	s11,0x0
 74c:	330d8d93          	addi	s11,s11,816 # a78 <test_B_res>
 750:	000d2e03          	lw	t3,0(s10)
 754:	401e5e93          	srai	t4,t3,0x1
 758:	401edf13          	srai	t5,t4,0x1
 75c:	401f5f93          	srai	t6,t5,0x1
 760:	401fd093          	srai	ra,t6,0x1
 764:	4010d113          	srai	sp,ra,0x1
 768:	40115193          	srai	gp,sp,0x1
 76c:	01cda023          	sw	t3,0(s11)
 770:	01dda223          	sw	t4,4(s11)
 774:	01eda423          	sw	t5,8(s11)
 778:	01fda623          	sw	t6,12(s11)
 77c:	001da823          	sw	ra,16(s11)
 780:	002daa23          	sw	sp,20(s11)
 784:	003dac23          	sw	gp,24(s11)
 788:	00000f97          	auipc	t6,0x0
 78c:	258f8f93          	addi	t6,t6,600 # 9e0 <begin_regstate>
 790:	003fa023          	sw	gp,0(t6)
 794:	004fa223          	sw	tp,4(t6)
 798:	005fa423          	sw	t0,8(t6)
 79c:	f00001b7          	lui	gp,0xf0000
 7a0:	00000217          	auipc	tp,0x0
 7a4:	58520213          	addi	tp,tp,1413 # d25 <end_signature+0x285>
 7a8:	00020283          	lb	t0,0(tp) # 0 <CL_SIZE-0x20>
 7ac:	00518023          	sb	t0,0(gp) # f0000000 <__global_pointer$+0xefffe9b8>
 7b0:	00028663          	beqz	t0,7bc <STACK_SIZE+0x3bc>
 7b4:	00120213          	addi	tp,tp,1 # 1 <CL_SIZE-0x1f>
 7b8:	ff1ff06f          	j	7a8 <STACK_SIZE+0x3a8>
 7bc:	00000f97          	auipc	t6,0x0
 7c0:	224f8f93          	addi	t6,t6,548 # 9e0 <begin_regstate>
 7c4:	000fa183          	lw	gp,0(t6)
 7c8:	004fa203          	lw	tp,4(t6)
 7cc:	008fa283          	lw	t0,8(t6)
 7d0:	00000f97          	auipc	t6,0x0
 7d4:	210f8f93          	addi	t6,t6,528 # 9e0 <begin_regstate>
 7d8:	003fa023          	sw	gp,0(t6)
 7dc:	004fa223          	sw	tp,4(t6)
 7e0:	005fa423          	sw	t0,8(t6)
 7e4:	f00001b7          	lui	gp,0xf0000
 7e8:	00000217          	auipc	tp,0x0
 7ec:	55820213          	addi	tp,tp,1368 # d40 <end_signature+0x2a0>
 7f0:	00020283          	lb	t0,0(tp) # 0 <CL_SIZE-0x20>
 7f4:	00518023          	sb	t0,0(gp) # f0000000 <__global_pointer$+0xefffe9b8>
 7f8:	00028663          	beqz	t0,804 <STACK_SIZE+0x404>
 7fc:	00120213          	addi	tp,tp,1 # 1 <CL_SIZE-0x1f>
 800:	ff1ff06f          	j	7f0 <STACK_SIZE+0x3f0>
 804:	00000f97          	auipc	t6,0x0
 808:	1dcf8f93          	addi	t6,t6,476 # 9e0 <begin_regstate>
 80c:	000fa183          	lw	gp,0(t6)
 810:	004fa203          	lw	tp,4(t6)
 814:	008fa283          	lw	t0,8(t6)
 818:	00000097          	auipc	ra,0x0
 81c:	1c008093          	addi	ra,ra,448 # 9d8 <test_C_data>
 820:	00000117          	auipc	sp,0x0
 824:	27410113          	addi	sp,sp,628 # a94 <test_C_res>
 828:	0000a283          	lw	t0,0(ra)
 82c:	4012d013          	srai	zero,t0,0x1
 830:	00012023          	sw	zero,0(sp)
 834:	00000f97          	auipc	t6,0x0
 838:	1acf8f93          	addi	t6,t6,428 # 9e0 <begin_regstate>
 83c:	003fa023          	sw	gp,0(t6)
 840:	004fa223          	sw	tp,4(t6)
 844:	005fa423          	sw	t0,8(t6)
 848:	f00001b7          	lui	gp,0xf0000
 84c:	00000217          	auipc	tp,0x0
 850:	51b20213          	addi	tp,tp,1307 # d67 <end_signature+0x2c7>
 854:	00020283          	lb	t0,0(tp) # 0 <CL_SIZE-0x20>
 858:	00518023          	sb	t0,0(gp) # f0000000 <__global_pointer$+0xefffe9b8>
 85c:	00028663          	beqz	t0,868 <STACK_SIZE+0x468>
 860:	00120213          	addi	tp,tp,1 # 1 <CL_SIZE-0x1f>
 864:	ff1ff06f          	j	854 <STACK_SIZE+0x454>
 868:	00000f97          	auipc	t6,0x0
 86c:	178f8f93          	addi	t6,t6,376 # 9e0 <begin_regstate>
 870:	000fa183          	lw	gp,0(t6)
 874:	004fa203          	lw	tp,4(t6)
 878:	008fa283          	lw	t0,8(t6)
 87c:	00000f97          	auipc	t6,0x0
 880:	164f8f93          	addi	t6,t6,356 # 9e0 <begin_regstate>
 884:	003fa023          	sw	gp,0(t6)
 888:	004fa223          	sw	tp,4(t6)
 88c:	005fa423          	sw	t0,8(t6)
 890:	f00001b7          	lui	gp,0xf0000
 894:	00000217          	auipc	tp,0x0
 898:	4ee20213          	addi	tp,tp,1262 # d82 <end_signature+0x2e2>
 89c:	00020283          	lb	t0,0(tp) # 0 <CL_SIZE-0x20>
 8a0:	00518023          	sb	t0,0(gp) # f0000000 <__global_pointer$+0xefffe9b8>
 8a4:	00028663          	beqz	t0,8b0 <STACK_SIZE+0x4b0>
 8a8:	00120213          	addi	tp,tp,1 # 1 <CL_SIZE-0x1f>
 8ac:	ff1ff06f          	j	89c <STACK_SIZE+0x49c>
 8b0:	00000f97          	auipc	t6,0x0
 8b4:	130f8f93          	addi	t6,t6,304 # 9e0 <begin_regstate>
 8b8:	000fa183          	lw	gp,0(t6)
 8bc:	004fa203          	lw	tp,4(t6)
 8c0:	008fa283          	lw	t0,8(t6)
 8c4:	00000097          	auipc	ra,0x0
 8c8:	11808093          	addi	ra,ra,280 # 9dc <test_D_data>
 8cc:	00000117          	auipc	sp,0x0
 8d0:	1cc10113          	addi	sp,sp,460 # a98 <test_D_res>
 8d4:	0000a283          	lw	t0,0(ra)
 8d8:	4012d013          	srai	zero,t0,0x1
 8dc:	40105293          	srai	t0,zero,0x1
 8e0:	00012023          	sw	zero,0(sp)
 8e4:	00512223          	sw	t0,4(sp)
 8e8:	00000f97          	auipc	t6,0x0
 8ec:	0f8f8f93          	addi	t6,t6,248 # 9e0 <begin_regstate>
 8f0:	003fa023          	sw	gp,0(t6)
 8f4:	004fa223          	sw	tp,4(t6)
 8f8:	005fa423          	sw	t0,8(t6)
 8fc:	f00001b7          	lui	gp,0xf0000
 900:	00000217          	auipc	tp,0x0
 904:	4b220213          	addi	tp,tp,1202 # db2 <end_signature+0x312>
 908:	00020283          	lb	t0,0(tp) # 0 <CL_SIZE-0x20>
 90c:	00518023          	sb	t0,0(gp) # f0000000 <__global_pointer$+0xefffe9b8>
 910:	00028663          	beqz	t0,91c <STACK_SIZE+0x51c>
 914:	00120213          	addi	tp,tp,1 # 1 <CL_SIZE-0x1f>
 918:	ff1ff06f          	j	908 <STACK_SIZE+0x508>
 91c:	00000f97          	auipc	t6,0x0
 920:	0c4f8f93          	addi	t6,t6,196 # 9e0 <begin_regstate>
 924:	000fa183          	lw	gp,0(t6)
 928:	004fa203          	lw	tp,4(t6)
 92c:	008fa283          	lw	t0,8(t6)
 930:	00000f97          	auipc	t6,0x0
 934:	0b0f8f93          	addi	t6,t6,176 # 9e0 <begin_regstate>
 938:	003fa023          	sw	gp,0(t6)
 93c:	004fa223          	sw	tp,4(t6)
 940:	005fa423          	sw	t0,8(t6)
 944:	f00001b7          	lui	gp,0xf0000
 948:	00000217          	auipc	tp,0x0
 94c:	48520213          	addi	tp,tp,1157 # dcd <end_signature+0x32d>
 950:	00020283          	lb	t0,0(tp) # 0 <CL_SIZE-0x20>
 954:	00518023          	sb	t0,0(gp) # f0000000 <__global_pointer$+0xefffe9b8>
 958:	00028663          	beqz	t0,964 <STACK_SIZE+0x564>
 95c:	00120213          	addi	tp,tp,1 # 1 <CL_SIZE-0x1f>
 960:	ff1ff06f          	j	950 <STACK_SIZE+0x550>
 964:	00000f97          	auipc	t6,0x0
 968:	07cf8f93          	addi	t6,t6,124 # 9e0 <begin_regstate>
 96c:	000fa183          	lw	gp,0(t6)
 970:	004fa203          	lw	tp,4(t6)
 974:	008fa283          	lw	t0,8(t6)

00000978 <ecall>:
 978:	00000073          	ecall
 97c:	0000                	unimp
	...

00000980 <sc_exit>:
 980:	f74ff06f          	j	f4 <SIM_EXIT>
 984:	00000013          	nop
 988:	00000013          	nop
 98c:	00000013          	nop
 990:	00000013          	nop
 994:	00000013          	nop
 998:	00000013          	nop
 99c:	00000013          	nop
	...

Дизассемблирование раздела .data:

000009c0 <test_A1_data>:
 9c0:	0000                	unimp
	...

000009c4 <test_A2_data>:
 9c4:	0001                	nop
	...

000009c8 <test_A3_data>:
 9c8:	ffff                	0xffff
 9ca:	ffff                	0xffff

000009cc <test_A4_data>:
 9cc:	ffff                	0xffff
 9ce:	7fff                	0x7fff

000009d0 <test_A5_data>:
 9d0:	0000                	unimp
 9d2:	8000                	0x8000

000009d4 <test_B_data>:
 9d4:	ef10                	fsw	fa2,24(a4)
 9d6:	abcd                	j	fc8 <_end+0x168>

000009d8 <test_C_data>:
 9d8:	5678                	lw	a4,108(a2)
 9da:	1234                	addi	a3,sp,296

000009dc <test_D_data>:
 9dc:	ba98                	fsd	fa4,48(a3)
 9de:	fedc                	fsw	fa5,60(a3)

000009e0 <begin_regstate>:
	...

00000a00 <begin_signature>:
 a00:	ffff                	0xffff
 a02:	ffff                	0xffff
 a04:	ffff                	0xffff
 a06:	ffff                	0xffff
 a08:	ffff                	0xffff
 a0a:	ffff                	0xffff
 a0c:	ffff                	0xffff
 a0e:	ffff                	0xffff
 a10:	ffff                	0xffff
 a12:	ffff                	0xffff
 a14:	ffff                	0xffff
 a16:	ffff                	0xffff

00000a18 <test_A2_res>:
 a18:	ffff                	0xffff
 a1a:	ffff                	0xffff
 a1c:	ffff                	0xffff
 a1e:	ffff                	0xffff
 a20:	ffff                	0xffff
 a22:	ffff                	0xffff
 a24:	ffff                	0xffff
 a26:	ffff                	0xffff
 a28:	ffff                	0xffff
 a2a:	ffff                	0xffff
 a2c:	ffff                	0xffff
 a2e:	ffff                	0xffff

00000a30 <test_A3_res>:
 a30:	ffff                	0xffff
 a32:	ffff                	0xffff
 a34:	ffff                	0xffff
 a36:	ffff                	0xffff
 a38:	ffff                	0xffff
 a3a:	ffff                	0xffff
 a3c:	ffff                	0xffff
 a3e:	ffff                	0xffff
 a40:	ffff                	0xffff
 a42:	ffff                	0xffff
 a44:	ffff                	0xffff
 a46:	ffff                	0xffff

00000a48 <test_A4_res>:
 a48:	ffff                	0xffff
 a4a:	ffff                	0xffff
 a4c:	ffff                	0xffff
 a4e:	ffff                	0xffff
 a50:	ffff                	0xffff
 a52:	ffff                	0xffff
 a54:	ffff                	0xffff
 a56:	ffff                	0xffff
 a58:	ffff                	0xffff
 a5a:	ffff                	0xffff
 a5c:	ffff                	0xffff
 a5e:	ffff                	0xffff

00000a60 <test_A5_res>:
 a60:	ffff                	0xffff
 a62:	ffff                	0xffff
 a64:	ffff                	0xffff
 a66:	ffff                	0xffff
 a68:	ffff                	0xffff
 a6a:	ffff                	0xffff
 a6c:	ffff                	0xffff
 a6e:	ffff                	0xffff
 a70:	ffff                	0xffff
 a72:	ffff                	0xffff
 a74:	ffff                	0xffff
 a76:	ffff                	0xffff

00000a78 <test_B_res>:
 a78:	ffff                	0xffff
 a7a:	ffff                	0xffff
 a7c:	ffff                	0xffff
 a7e:	ffff                	0xffff
 a80:	ffff                	0xffff
 a82:	ffff                	0xffff
 a84:	ffff                	0xffff
 a86:	ffff                	0xffff
 a88:	ffff                	0xffff
 a8a:	ffff                	0xffff
 a8c:	ffff                	0xffff
 a8e:	ffff                	0xffff
 a90:	ffff                	0xffff
 a92:	ffff                	0xffff

00000a94 <test_C_res>:
 a94:	ffff                	0xffff
 a96:	ffff                	0xffff

00000a98 <test_D_res>:
 a98:	ffff                	0xffff
 a9a:	ffff                	0xffff
 a9c:	ffff                	0xffff
 a9e:	ffff                	0xffff

00000aa0 <end_signature>:
 aa0:	65542023          	sw	s5,1600(s0)
 aa4:	42207473          	csrrci	s0,0x422,0
 aa8:	6765                	lui	a4,0x19
 aaa:	6e69                	lui	t3,0x1a
 aac:	000a                	0xa
 aae:	65542023          	sw	s5,1600(s0)
 ab2:	70207473          	csrrci	s0,0x702,0
 ab6:	7261                	lui	tp,0xffff8
 ab8:	2074                	fld	fa3,192(s0)
 aba:	3141                	jal	73a <STACK_SIZE+0x33a>
 abc:	2d20                	fld	fs0,88(a0)
 abe:	6720                	flw	fs0,72(a4)
 ac0:	6e65                	lui	t3,0x19
 ac2:	7265                	lui	tp,0xffff9
 ac4:	6c61                	lui	s8,0x18
 ac6:	7420                	flw	fs0,104(s0)
 ac8:	7365                	lui	t1,0xffff9
 aca:	2074                	fld	fa3,192(s0)
 acc:	7620666f          	jal	a2,722e <__global_pointer$+0x5be6>
 ad0:	6c61                	lui	s8,0x18
 ad2:	6575                	lui	a0,0x1d
 ad4:	3020                	fld	fs0,96(s0)
 ad6:	7720                	flw	fs0,104(a4)
 ad8:	7469                	lui	s0,0xffffa
 ada:	2068                	fld	fa0,192(s0)
 adc:	2c30                	fld	fa2,88(s0)
 ade:	3120                	fld	fs0,96(a0)
 ae0:	202c                	fld	fa1,64(s0)
 ae2:	312d                	jal	70c <STACK_SIZE+0x30c>
 ae4:	202c                	fld	fa1,64(s0)
 ae6:	494d                	li	s2,19
 ae8:	2c4e                	fld	fs8,208(sp)
 aea:	4d20                	lw	s0,88(a0)
 aec:	5841                	li	a6,-16
 aee:	6920                	flw	fs0,80(a0)
 af0:	6d6d                	lui	s10,0x1b
 af2:	6465                	lui	s0,0x19
 af4:	6169                	addi	sp,sp,208
 af6:	6574                	flw	fa3,76(a0)
 af8:	7620                	flw	fs0,104(a2)
 afa:	6c61                	lui	s8,0x18
 afc:	6575                	lui	a0,0x1d
 afe:	23000a73          	0x23000a73
 b02:	5420                	lw	s0,104(s0)
 b04:	7365                	lui	t1,0xffff9
 b06:	2074                	fld	fa3,192(s0)
 b08:	6170                	flw	fa2,68(a0)
 b0a:	7472                	flw	fs0,60(sp)
 b0c:	4120                	lw	s0,64(a0)
 b0e:	2031                	jal	b1a <end_signature+0x7a>
 b10:	2d20                	fld	fs0,88(a0)
 b12:	4320                	lw	s0,64(a4)
 b14:	6c706d6f          	jal	s10,79da <__global_pointer$+0x6392>
 b18:	7465                	lui	s0,0xffff9
 b1a:	0a65                	addi	s4,s4,25
 b1c:	2300                	fld	fs0,0(a4)
 b1e:	5420                	lw	s0,104(s0)
 b20:	7365                	lui	t1,0xffff9
 b22:	2074                	fld	fa3,192(s0)
 b24:	6170                	flw	fa2,68(a0)
 b26:	7472                	flw	fs0,60(sp)
 b28:	4120                	lw	s0,64(a0)
 b2a:	2032                	fld	ft0,264(sp)
 b2c:	202d                	jal	b56 <end_signature+0xb6>
 b2e:	656e6567          	0x656e6567
 b32:	6172                	flw	ft2,28(sp)
 b34:	206c                	fld	fa1,192(s0)
 b36:	6574                	flw	fa3,76(a0)
 b38:	6f207473          	csrrci	s0,0x6f2,0
 b3c:	2066                	fld	ft0,88(sp)
 b3e:	6176                	flw	ft2,92(sp)
 b40:	756c                	flw	fa1,108(a0)
 b42:	2065                	jal	bea <end_signature+0x14a>
 b44:	2031                	jal	b50 <end_signature+0xb0>
 b46:	68746977          	0x68746977
 b4a:	3020                	fld	fs0,96(s0)
 b4c:	202c                	fld	fa1,64(s0)
 b4e:	2c31                	jal	d6a <end_signature+0x2ca>
 b50:	2d20                	fld	fs0,88(a0)
 b52:	2c31                	jal	d6e <end_signature+0x2ce>
 b54:	4d20                	lw	s0,88(a0)
 b56:	4e49                	li	t3,18
 b58:	202c                	fld	fa1,64(s0)
 b5a:	414d                	li	sp,19
 b5c:	2058                	fld	fa4,128(s0)
 b5e:	6d69                	lui	s10,0x1a
 b60:	656d                	lui	a0,0x1b
 b62:	6964                	flw	fs1,84(a0)
 b64:	7461                	lui	s0,0xffff8
 b66:	2065                	jal	c0e <end_signature+0x16e>
 b68:	6176                	flw	ft2,92(sp)
 b6a:	756c                	flw	fa1,108(a0)
 b6c:	7365                	lui	t1,0xffff9
 b6e:	000a                	0xa
 b70:	65542023          	sw	s5,1600(s0) # ffff8640 <__global_pointer$+0xffff6ff8>
 b74:	70207473          	csrrci	s0,0x702,0
 b78:	7261                	lui	tp,0xffff8
 b7a:	2074                	fld	fa3,192(s0)
 b7c:	3241                	jal	4fc <STACK_SIZE+0xfc>
 b7e:	2020                	fld	fs0,64(s0)
 b80:	202d                	jal	baa <end_signature+0x10a>
 b82:	706d6f43          	fmadd.s	ft10,fs10,ft6,fa4,unknown
 b86:	656c                	flw	fa1,76(a0)
 b88:	6574                	flw	fa3,76(a0)
 b8a:	000a                	0xa
 b8c:	65542023          	sw	s5,1600(s0)
 b90:	70207473          	csrrci	s0,0x702,0
 b94:	7261                	lui	tp,0xffff8
 b96:	2074                	fld	fa3,192(s0)
 b98:	3341                	jal	918 <STACK_SIZE+0x518>
 b9a:	2d20                	fld	fs0,88(a0)
 b9c:	6720                	flw	fs0,72(a4)
 b9e:	6e65                	lui	t3,0x19
 ba0:	7265                	lui	tp,0xffff9
 ba2:	6c61                	lui	s8,0x18
 ba4:	7420                	flw	fs0,104(s0)
 ba6:	7365                	lui	t1,0xffff9
 ba8:	2074                	fld	fa3,192(s0)
 baa:	7620666f          	jal	a2,730c <__global_pointer$+0x5cc4>
 bae:	6c61                	lui	s8,0x18
 bb0:	6575                	lui	a0,0x1d
 bb2:	2d20                	fld	fs0,88(a0)
 bb4:	2031                	jal	bc0 <end_signature+0x120>
 bb6:	68746977          	0x68746977
 bba:	3020                	fld	fs0,96(s0)
 bbc:	202c                	fld	fa1,64(s0)
 bbe:	2c31                	jal	dda <end_signature+0x33a>
 bc0:	2d20                	fld	fs0,88(a0)
 bc2:	2c31                	jal	dde <end_signature+0x33e>
 bc4:	4d20                	lw	s0,88(a0)
 bc6:	4e49                	li	t3,18
 bc8:	202c                	fld	fa1,64(s0)
 bca:	414d                	li	sp,19
 bcc:	2058                	fld	fa4,128(s0)
 bce:	6d69                	lui	s10,0x1a
 bd0:	656d                	lui	a0,0x1b
 bd2:	6964                	flw	fs1,84(a0)
 bd4:	7461                	lui	s0,0xffff8
 bd6:	2065                	jal	c7e <end_signature+0x1de>
 bd8:	6176                	flw	ft2,92(sp)
 bda:	756c                	flw	fa1,108(a0)
 bdc:	7365                	lui	t1,0xffff9
 bde:	000a                	0xa
 be0:	65542023          	sw	s5,1600(s0) # ffff8640 <__global_pointer$+0xffff6ff8>
 be4:	70207473          	csrrci	s0,0x702,0
 be8:	7261                	lui	tp,0xffff8
 bea:	2074                	fld	fa3,192(s0)
 bec:	3341                	jal	96c <STACK_SIZE+0x56c>
 bee:	2020                	fld	fs0,64(s0)
 bf0:	202d                	jal	c1a <end_signature+0x17a>
 bf2:	706d6f43          	fmadd.s	ft10,fs10,ft6,fa4,unknown
 bf6:	656c                	flw	fa1,76(a0)
 bf8:	6574                	flw	fa3,76(a0)
 bfa:	000a                	0xa
 bfc:	65542023          	sw	s5,1600(s0)
 c00:	70207473          	csrrci	s0,0x702,0
 c04:	7261                	lui	tp,0xffff8
 c06:	2074                	fld	fa3,192(s0)
 c08:	3441                	jal	688 <STACK_SIZE+0x288>
 c0a:	2d20                	fld	fs0,88(a0)
 c0c:	6720                	flw	fs0,72(a4)
 c0e:	6e65                	lui	t3,0x19
 c10:	7265                	lui	tp,0xffff9
 c12:	6c61                	lui	s8,0x18
 c14:	7420                	flw	fs0,104(s0)
 c16:	7365                	lui	t1,0xffff9
 c18:	2074                	fld	fa3,192(s0)
 c1a:	7620666f          	jal	a2,737c <__global_pointer$+0x5d34>
 c1e:	6c61                	lui	s8,0x18
 c20:	6575                	lui	a0,0x1d
 c22:	3020                	fld	fs0,96(s0)
 c24:	3778                	fld	fa4,232(a4)
 c26:	4646                	lw	a2,80(sp)
 c28:	4646                	lw	a2,80(sp)
 c2a:	4646                	lw	a2,80(sp)
 c2c:	2046                	fld	ft0,80(sp)
 c2e:	68746977          	0x68746977
 c32:	3020                	fld	fs0,96(s0)
 c34:	202c                	fld	fa1,64(s0)
 c36:	2c31                	jal	e52 <fromhost+0x12>
 c38:	2d20                	fld	fs0,88(a0)
 c3a:	2c31                	jal	e56 <fromhost+0x16>
 c3c:	4d20                	lw	s0,88(a0)
 c3e:	4e49                	li	t3,18
 c40:	202c                	fld	fa1,64(s0)
 c42:	414d                	li	sp,19
 c44:	2058                	fld	fa4,128(s0)
 c46:	6d69                	lui	s10,0x1a
 c48:	656d                	lui	a0,0x1b
 c4a:	6964                	flw	fs1,84(a0)
 c4c:	7461                	lui	s0,0xffff8
 c4e:	2065                	jal	cf6 <end_signature+0x256>
 c50:	6176                	flw	ft2,92(sp)
 c52:	756c                	flw	fa1,108(a0)
 c54:	7365                	lui	t1,0xffff9
 c56:	000a                	0xa
 c58:	65542023          	sw	s5,1600(s0) # ffff8640 <__global_pointer$+0xffff6ff8>
 c5c:	70207473          	csrrci	s0,0x702,0
 c60:	7261                	lui	tp,0xffff8
 c62:	2074                	fld	fa3,192(s0)
 c64:	3441                	jal	6e4 <STACK_SIZE+0x2e4>
 c66:	2020                	fld	fs0,64(s0)
 c68:	202d                	jal	c92 <end_signature+0x1f2>
 c6a:	706d6f43          	fmadd.s	ft10,fs10,ft6,fa4,unknown
 c6e:	656c                	flw	fa1,76(a0)
 c70:	6574                	flw	fa3,76(a0)
 c72:	000a                	0xa
 c74:	65542023          	sw	s5,1600(s0)
 c78:	70207473          	csrrci	s0,0x702,0
 c7c:	7261                	lui	tp,0xffff8
 c7e:	2074                	fld	fa3,192(s0)
 c80:	3541                	jal	b00 <end_signature+0x60>
 c82:	2d20                	fld	fs0,88(a0)
 c84:	6720                	flw	fs0,72(a4)
 c86:	6e65                	lui	t3,0x19
 c88:	7265                	lui	tp,0xffff9
 c8a:	6c61                	lui	s8,0x18
 c8c:	7420                	flw	fs0,104(s0)
 c8e:	7365                	lui	t1,0xffff9
 c90:	2074                	fld	fa3,192(s0)
 c92:	7620666f          	jal	a2,73f4 <__global_pointer$+0x5dac>
 c96:	6c61                	lui	s8,0x18
 c98:	6575                	lui	a0,0x1d
 c9a:	3020                	fld	fs0,96(s0)
 c9c:	3878                	fld	fa4,240(s0)
 c9e:	3030                	fld	fa2,96(s0)
 ca0:	3030                	fld	fa2,96(s0)
 ca2:	3030                	fld	fa2,96(s0)
 ca4:	2030                	fld	fa2,64(s0)
 ca6:	68746977          	0x68746977
 caa:	3020                	fld	fs0,96(s0)
 cac:	202c                	fld	fa1,64(s0)
 cae:	2c31                	jal	eca <_end+0x6a>
 cb0:	2d20                	fld	fs0,88(a0)
 cb2:	2c31                	jal	ece <_end+0x6e>
 cb4:	4d20                	lw	s0,88(a0)
 cb6:	4e49                	li	t3,18
 cb8:	202c                	fld	fa1,64(s0)
 cba:	414d                	li	sp,19
 cbc:	2058                	fld	fa4,128(s0)
 cbe:	6d69                	lui	s10,0x1a
 cc0:	656d                	lui	a0,0x1b
 cc2:	6964                	flw	fs1,84(a0)
 cc4:	7461                	lui	s0,0xffff8
 cc6:	2065                	jal	d6e <end_signature+0x2ce>
 cc8:	6176                	flw	ft2,92(sp)
 cca:	756c                	flw	fa1,108(a0)
 ccc:	7365                	lui	t1,0xffff9
 cce:	000a                	0xa
 cd0:	65542023          	sw	s5,1600(s0) # ffff8640 <__global_pointer$+0xffff6ff8>
 cd4:	70207473          	csrrci	s0,0x702,0
 cd8:	7261                	lui	tp,0xffff8
 cda:	2074                	fld	fa3,192(s0)
 cdc:	3541                	jal	b5c <end_signature+0xbc>
 cde:	2020                	fld	fs0,64(s0)
 ce0:	202d                	jal	d0a <end_signature+0x26a>
 ce2:	706d6f43          	fmadd.s	ft10,fs10,ft6,fa4,unknown
 ce6:	656c                	flw	fa1,76(a0)
 ce8:	6574                	flw	fa3,76(a0)
 cea:	000a                	0xa
 cec:	65542023          	sw	s5,1600(s0)
 cf0:	70207473          	csrrci	s0,0x702,0
 cf4:	7261                	lui	tp,0xffff8
 cf6:	2074                	fld	fa3,192(s0)
 cf8:	2042                	fld	ft0,16(sp)
 cfa:	202d                	jal	d24 <end_signature+0x284>
 cfc:	6574                	flw	fa3,76(a0)
 cfe:	6e697473          	csrrci	s0,0x6e6,18
 d02:	6f662067          	0x6f662067
 d06:	7772                	flw	fa4,60(sp)
 d08:	7261                	lui	tp,0xffff8
 d0a:	6964                	flw	fs1,84(a0)
 d0c:	676e                	flw	fa4,216(sp)
 d0e:	6220                	flw	fs0,64(a2)
 d10:	7465                	lui	s0,0xffff9
 d12:	6e656577          	0x6e656577
 d16:	6920                	flw	fs0,80(a0)
 d18:	736e                	flw	ft6,248(sp)
 d1a:	7274                	flw	fa3,100(a2)
 d1c:	6375                	lui	t1,0x1d
 d1e:	6974                	flw	fa3,84(a0)
 d20:	0a736e6f          	jal	t3,375c6 <__global_pointer$+0x35f7e>
 d24:	2300                	fld	fs0,0(a4)
 d26:	5420                	lw	s0,104(s0)
 d28:	7365                	lui	t1,0xffff9
 d2a:	2074                	fld	fa3,192(s0)
 d2c:	6170                	flw	fa2,68(a0)
 d2e:	7472                	flw	fs0,60(sp)
 d30:	4220                	lw	s0,64(a2)
 d32:	2020                	fld	fs0,64(s0)
 d34:	202d                	jal	d5e <end_signature+0x2be>
 d36:	706d6f43          	fmadd.s	ft10,fs10,ft6,fa4,unknown
 d3a:	656c                	flw	fa1,76(a0)
 d3c:	6574                	flw	fa3,76(a0)
 d3e:	000a                	0xa
 d40:	65542023          	sw	s5,1600(s0) # ffff9640 <__global_pointer$+0xffff7ff8>
 d44:	70207473          	csrrci	s0,0x702,0
 d48:	7261                	lui	tp,0xffff8
 d4a:	2074                	fld	fa3,192(s0)
 d4c:	202d2043          	fmadd.s	ft0,fs10,ft2,ft4,rdn
 d50:	6574                	flw	fa3,76(a0)
 d52:	6e697473          	csrrci	s0,0x6e6,18
 d56:	72772067          	0x72772067
 d5a:	7469                	lui	s0,0xffffa
 d5c:	6e69                	lui	t3,0x1a
 d5e:	6f742067          	0x6f742067
 d62:	7820                	flw	fs0,112(s0)
 d64:	0a30                	addi	a2,sp,280
 d66:	2300                	fld	fs0,0(a4)
 d68:	5420                	lw	s0,104(s0)
 d6a:	7365                	lui	t1,0xffff9
 d6c:	2074                	fld	fa3,192(s0)
 d6e:	6170                	flw	fa2,68(a0)
 d70:	7472                	flw	fs0,60(sp)
 d72:	4320                	lw	s0,64(a4)
 d74:	2020                	fld	fs0,64(s0)
 d76:	202d                	jal	da0 <end_signature+0x300>
 d78:	706d6f43          	fmadd.s	ft10,fs10,ft6,fa4,unknown
 d7c:	656c                	flw	fa1,76(a0)
 d7e:	6574                	flw	fa3,76(a0)
 d80:	000a                	0xa
 d82:	65542023          	sw	s5,1600(s0) # ffffa640 <__global_pointer$+0xffff8ff8>
 d86:	70207473          	csrrci	s0,0x702,0
 d8a:	7261                	lui	tp,0xffff8
 d8c:	2074                	fld	fa3,192(s0)
 d8e:	2044                	fld	fs1,128(s0)
 d90:	202d                	jal	dba <end_signature+0x31a>
 d92:	6574                	flw	fa3,76(a0)
 d94:	6e697473          	csrrci	s0,0x6e6,18
 d98:	6f662067          	0x6f662067
 d9c:	7772                	flw	fa4,60(sp)
 d9e:	7261                	lui	tp,0xffff8
 da0:	6964                	flw	fs1,84(a0)
 da2:	676e                	flw	fa4,216(sp)
 da4:	7420                	flw	fs0,104(s0)
 da6:	7268                	flw	fa0,100(a2)
 da8:	6867756f          	jal	a0,7842e <__global_pointer$+0x76de6>
 dac:	2074                	fld	fa3,192(s0)
 dae:	3078                	fld	fa4,224(s0)
 db0:	000a                	0xa
 db2:	65542023          	sw	s5,1600(s0)
 db6:	70207473          	csrrci	s0,0x702,0
 dba:	7261                	lui	tp,0xffff8
 dbc:	2074                	fld	fa3,192(s0)
 dbe:	2044                	fld	fs1,128(s0)
 dc0:	2d20                	fld	fs0,88(a0)
 dc2:	4320                	lw	s0,64(a4)
 dc4:	6c706d6f          	jal	s10,7c8a <__global_pointer$+0x6642>
 dc8:	7465                	lui	s0,0xffff9
 dca:	0a65                	addi	s4,s4,25
 dcc:	2300                	fld	fs0,0(a4)
 dce:	5420                	lw	s0,104(s0)
 dd0:	7365                	lui	t1,0xffff9
 dd2:	2074                	fld	fa3,192(s0)
 dd4:	6e45                	lui	t3,0x11
 dd6:	0a64                	addi	s1,sp,284
	...

Дизассемблирование раздела .tohost:

00000e00 <tohost>:
	...

00000e40 <fromhost>:
	...

Дизассемблирование раздела .sdata:

00000e48 <__global_pointer$-0x800>:
	...

Дизассемблирование раздела .stack:

0000fc00 <.stack>:
	...
