
/home/oleg/scr1/build/verilator_wf_AHB_IMC/compliance_slti.elf:     формат файла elf32-littleriscv
/home/oleg/scr1/build/verilator_wf_AHB_IMC/compliance_slti.elf
архитектура: riscv:rv32, флаги 0x00000112:
EXEC_P, HAS_SYMS, D_PAGED
начальный адрес 0x00000200

Заголовок программы:
    LOAD off    0x00001000 vaddr 0x00000000 paddr 0x00000000 align 2**12
         filesz 0x000007c8 memsz 0x000007e0 flags rwx
    LOAD off    0x00001c00 vaddr 0x0000fc00 paddr 0x0000fc00 align 2**12
         filesz 0x00000000 memsz 0x00000400 flags rw-

Разделы:
Idx Name          Size      VMA       LMA       File off  Algn  Флаги
  0 .text.init    00000284  00000000  00000000  00001000  2**6  CONTENTS, ALLOC, LOAD, READONLY, CODE
  1 .text         00000400  000002a0  000002a0  000012a0  2**5  CONTENTS, ALLOC, LOAD, READONLY, CODE
  2 .data         000000c0  000006a0  000006a0  000016a0  2**4  CONTENTS, ALLOC, LOAD, DATA
  3 .tohost       00000048  00000780  00000780  00001780  2**6  CONTENTS, ALLOC, LOAD, DATA
  4 .sdata        00000018  000007c8  000007c8  000017c8  2**0  ALLOC
  5 .tdata        00000000  000007e0  000007e0  000017c8  2**0  CONTENTS, ALLOC, LOAD, DATA, THREAD_LOCAL
  6 .tbss         00000000  000007e0  000007e0  00000000  2**0  ALLOC, THREAD_LOCAL
  7 .bss          00000000  000007e0  000007e0  000017c8  2**0  ALLOC
  8 .stack        00000400  0000fc00  0000fc00  00001c00  2**0  ALLOC
SYMBOL TABLE:
00000000 l    d  .text.init	00000000 .text.init
000002a0 l    d  .text	00000000 .text
000006a0 l    d  .data	00000000 .data
00000780 l    d  .tohost	00000000 .tohost
000007c8 l    d  .sdata	00000000 .sdata
000007e0 l    d  .tdata	00000000 .tdata
000007e0 l    d  .tbss	00000000 .tbss
000007e0 l    d  .bss	00000000 .bss
0000fc00 l    d  .stack	00000000 .stack
00000000 l    df *ABS*	00000000 /home/oleg/scr1/build/verilator_wf_AHB_IMC/riscv_compliance/riscv_compliance_objs/slti.o
00000660 l       .text	00000000 sc_exit
000001c0 l       .text.init	00000000 trap_vector
000001fc l       .text.init	00000000 _report
000001f8 l       .text.init	00000000 handle_exception
000001f8 l       .text.init	00000000 other_exception
000002a0 l       .text	00000000 _run_test
000002a0 l       .text	00000000 test_2
000006c0 l       .data	00000000 test_res
00000634 l       .text	00000000 fail
000002c0 l       .text	00000000 test_3
000002e0 l       .text	00000000 test_4
00000300 l       .text	00000000 test_5
00000320 l       .text	00000000 test_6
00000340 l       .text	00000000 test_7
00000360 l       .text	00000000 test_8
00000380 l       .text	00000000 test_9
000003a0 l       .text	00000000 test_10
000003c4 l       .text	00000000 test_11
000003e8 l       .text	00000000 test_12
00000408 l       .text	00000000 test_13
0000042c l       .text	00000000 test_14
0000044c l       .text	00000000 test_15
0000046c l       .text	00000000 test_16
0000048c l       .text	00000000 test_17
000004ac l       .text	00000000 test_18
000004e0 l       .text	00000000 test_19
00000518 l       .text	00000000 test_20
00000554 l       .text	00000000 test_21
00000584 l       .text	00000000 test_22
000005b8 l       .text	00000000 test_23
000005f0 l       .text	00000000 test_24
0000060c l       .text	00000000 test_25
00000644 l       .text	00000000 pass
00000654 l       .text	00000000 ecall
00000400 g       *ABS*	00000000 STACK_SIZE
00000fc8 g       .sdata	00000000 __global_pointer$
00000760 g       .data	00000000 end_signature
000006a0 g       .data	00000000 begin_regstate
000006c0 g       .data	00000000 begin_signature
00000200 g       .text.init	00000000 _start
00000020 g       *ABS*	00000000 CL_SIZE
000000f8 g       .text.init	00000000 SIM_STOP
000007e0 g       .bss	00000000 _end
000007c0 g       .tohost	00000000 fromhost
00000780 g       .tohost	00000000 tohost
000000f4 g       .text.init	00000000 SIM_EXIT



Дизассемблирование раздела .text.init:

00000000 <SIM_EXIT-0xf4>:
	...

000000f4 <SIM_EXIT>:
  f4:	00000013          	nop

000000f8 <SIM_STOP>:
  f8:	0000006f          	j	f8 <SIM_STOP>
  fc:	ffff                	0xffff
  fe:	ffff                	0xffff
	...

000001c0 <trap_vector>:
 1c0:	34202773          	csrr	a4,mcause
 1c4:	00800793          	li	a5,8
 1c8:	02f70a63          	beq	a4,a5,1fc <_report>
 1cc:	00900793          	li	a5,9
 1d0:	02f70663          	beq	a4,a5,1fc <_report>
 1d4:	00b00793          	li	a5,11
 1d8:	02f70263          	beq	a4,a5,1fc <_report>
 1dc:	00000717          	auipc	a4,0x0
 1e0:	e2470713          	addi	a4,a4,-476 # 0 <CL_SIZE-0x20>
 1e4:	00070463          	beqz	a4,1ec <trap_vector+0x2c>
 1e8:	00070067          	jr	a4
 1ec:	34202773          	csrr	a4,mcause
 1f0:	00075463          	bgez	a4,1f8 <handle_exception>
 1f4:	0040006f          	j	1f8 <handle_exception>

000001f8 <handle_exception>:
 1f8:	00100513          	li	a0,1

000001fc <_report>:
 1fc:	4640006f          	j	660 <sc_exit>

00000200 <_start>:
 200:	f1402573          	csrr	a0,mhartid
 204:	00051063          	bnez	a0,204 <_start+0x4>
 208:	00000193          	li	gp,0
 20c:	00000297          	auipc	t0,0x0
 210:	fb428293          	addi	t0,t0,-76 # 1c0 <trap_vector>
 214:	30529073          	csrw	mtvec,t0
 218:	00100513          	li	a0,1
 21c:	01f51513          	slli	a0,a0,0x1f
 220:	00054a63          	bltz	a0,234 <_start+0x34>
 224:	0ff0000f          	fence
 228:	00018593          	mv	a1,gp
 22c:	00000513          	li	a0,0
 230:	00000073          	ecall
 234:	01f55513          	srli	a0,a0,0x1f
 238:	00000297          	auipc	t0,0x0
 23c:	48828293          	addi	t0,t0,1160 # 6c0 <begin_signature>
 240:	00a2a023          	sw	a0,0(t0)
 244:	00000297          	auipc	t0,0x0
 248:	dbc28293          	addi	t0,t0,-580 # 0 <CL_SIZE-0x20>
 24c:	00028e63          	beqz	t0,268 <_start+0x68>
 250:	10529073          	csrw	stvec,t0
 254:	0000b2b7          	lui	t0,0xb
 258:	10928293          	addi	t0,t0,265 # b109 <__global_pointer$+0xa141>
 25c:	30229073          	csrw	medeleg,t0
 260:	30202373          	csrr	t1,medeleg
 264:	f8629ae3          	bne	t0,t1,1f8 <handle_exception>
 268:	30005073          	csrwi	mstatus,0
 26c:	00000297          	auipc	t0,0x0
 270:	03428293          	addi	t0,t0,52 # 2a0 <_run_test>
 274:	34129073          	csrw	mepc,t0
 278:	f1402573          	csrr	a0,mhartid
 27c:	30200073          	mret
 280:	0000                	unimp
	...

Дизассемблирование раздела .text:

000002a0 <_run_test>:
 2a0:	00000093          	li	ra,0
 2a4:	0000af13          	slti	t5,ra,0
 2a8:	00000e93          	li	t4,0
 2ac:	00200193          	li	gp,2
 2b0:	00000e17          	auipc	t3,0x0
 2b4:	410e0e13          	addi	t3,t3,1040 # 6c0 <begin_signature>
 2b8:	01ee2423          	sw	t5,8(t3)
 2bc:	37df1c63          	bne	t5,t4,634 <fail>

000002c0 <test_3>:
 2c0:	00100093          	li	ra,1
 2c4:	0010af13          	slti	t5,ra,1
 2c8:	00000e93          	li	t4,0
 2cc:	00300193          	li	gp,3
 2d0:	00000e17          	auipc	t3,0x0
 2d4:	3f0e0e13          	addi	t3,t3,1008 # 6c0 <begin_signature>
 2d8:	01ee2623          	sw	t5,12(t3)
 2dc:	35df1c63          	bne	t5,t4,634 <fail>

000002e0 <test_4>:
 2e0:	00300093          	li	ra,3
 2e4:	0070af13          	slti	t5,ra,7
 2e8:	00100e93          	li	t4,1
 2ec:	00400193          	li	gp,4
 2f0:	00000e17          	auipc	t3,0x0
 2f4:	3d0e0e13          	addi	t3,t3,976 # 6c0 <begin_signature>
 2f8:	01ee2823          	sw	t5,16(t3)
 2fc:	33df1c63          	bne	t5,t4,634 <fail>

00000300 <test_5>:
 300:	00700093          	li	ra,7
 304:	0030af13          	slti	t5,ra,3
 308:	00000e93          	li	t4,0
 30c:	00500193          	li	gp,5
 310:	00000e17          	auipc	t3,0x0
 314:	3b0e0e13          	addi	t3,t3,944 # 6c0 <begin_signature>
 318:	01ee2a23          	sw	t5,20(t3)
 31c:	31df1c63          	bne	t5,t4,634 <fail>

00000320 <test_6>:
 320:	00000093          	li	ra,0
 324:	8000af13          	slti	t5,ra,-2048
 328:	00000e93          	li	t4,0
 32c:	00600193          	li	gp,6
 330:	00000e17          	auipc	t3,0x0
 334:	390e0e13          	addi	t3,t3,912 # 6c0 <begin_signature>
 338:	01ee2c23          	sw	t5,24(t3)
 33c:	2fdf1c63          	bne	t5,t4,634 <fail>

00000340 <test_7>:
 340:	800000b7          	lui	ra,0x80000
 344:	0000af13          	slti	t5,ra,0
 348:	00100e93          	li	t4,1
 34c:	00700193          	li	gp,7
 350:	00000e17          	auipc	t3,0x0
 354:	370e0e13          	addi	t3,t3,880 # 6c0 <begin_signature>
 358:	01ee2e23          	sw	t5,28(t3)
 35c:	2ddf1c63          	bne	t5,t4,634 <fail>

00000360 <test_8>:
 360:	800000b7          	lui	ra,0x80000
 364:	8000af13          	slti	t5,ra,-2048
 368:	00100e93          	li	t4,1
 36c:	00800193          	li	gp,8
 370:	00000e17          	auipc	t3,0x0
 374:	350e0e13          	addi	t3,t3,848 # 6c0 <begin_signature>
 378:	03ee2023          	sw	t5,32(t3)
 37c:	2bdf1c63          	bne	t5,t4,634 <fail>

00000380 <test_9>:
 380:	00000093          	li	ra,0
 384:	7ff0af13          	slti	t5,ra,2047
 388:	00100e93          	li	t4,1
 38c:	00900193          	li	gp,9
 390:	00000e17          	auipc	t3,0x0
 394:	330e0e13          	addi	t3,t3,816 # 6c0 <begin_signature>
 398:	03ee2223          	sw	t5,36(t3)
 39c:	29df1c63          	bne	t5,t4,634 <fail>

000003a0 <test_10>:
 3a0:	800000b7          	lui	ra,0x80000
 3a4:	fff08093          	addi	ra,ra,-1 # 7fffffff <__global_pointer$+0x7ffff037>
 3a8:	0000af13          	slti	t5,ra,0
 3ac:	00000e93          	li	t4,0
 3b0:	00a00193          	li	gp,10
 3b4:	00000e17          	auipc	t3,0x0
 3b8:	30ce0e13          	addi	t3,t3,780 # 6c0 <begin_signature>
 3bc:	03ee2423          	sw	t5,40(t3)
 3c0:	27df1a63          	bne	t5,t4,634 <fail>

000003c4 <test_11>:
 3c4:	800000b7          	lui	ra,0x80000
 3c8:	fff08093          	addi	ra,ra,-1 # 7fffffff <__global_pointer$+0x7ffff037>
 3cc:	7ff0af13          	slti	t5,ra,2047
 3d0:	00000e93          	li	t4,0
 3d4:	00b00193          	li	gp,11
 3d8:	00000e17          	auipc	t3,0x0
 3dc:	2e8e0e13          	addi	t3,t3,744 # 6c0 <begin_signature>
 3e0:	03ee2623          	sw	t5,44(t3)
 3e4:	25df1863          	bne	t5,t4,634 <fail>

000003e8 <test_12>:
 3e8:	800000b7          	lui	ra,0x80000
 3ec:	7ff0af13          	slti	t5,ra,2047
 3f0:	00100e93          	li	t4,1
 3f4:	00c00193          	li	gp,12
 3f8:	00000e17          	auipc	t3,0x0
 3fc:	2c8e0e13          	addi	t3,t3,712 # 6c0 <begin_signature>
 400:	03ee2823          	sw	t5,48(t3)
 404:	23df1863          	bne	t5,t4,634 <fail>

00000408 <test_13>:
 408:	800000b7          	lui	ra,0x80000
 40c:	fff08093          	addi	ra,ra,-1 # 7fffffff <__global_pointer$+0x7ffff037>
 410:	8000af13          	slti	t5,ra,-2048
 414:	00000e93          	li	t4,0
 418:	00d00193          	li	gp,13
 41c:	00000e17          	auipc	t3,0x0
 420:	2a4e0e13          	addi	t3,t3,676 # 6c0 <begin_signature>
 424:	03ee2a23          	sw	t5,52(t3)
 428:	21df1663          	bne	t5,t4,634 <fail>

0000042c <test_14>:
 42c:	00000093          	li	ra,0
 430:	fff0af13          	slti	t5,ra,-1
 434:	00000e93          	li	t4,0
 438:	00e00193          	li	gp,14
 43c:	00000e17          	auipc	t3,0x0
 440:	284e0e13          	addi	t3,t3,644 # 6c0 <begin_signature>
 444:	03ee2c23          	sw	t5,56(t3)
 448:	1fdf1663          	bne	t5,t4,634 <fail>

0000044c <test_15>:
 44c:	fff00093          	li	ra,-1
 450:	0010af13          	slti	t5,ra,1
 454:	00100e93          	li	t4,1
 458:	00f00193          	li	gp,15
 45c:	00000e17          	auipc	t3,0x0
 460:	264e0e13          	addi	t3,t3,612 # 6c0 <begin_signature>
 464:	03ee2e23          	sw	t5,60(t3)
 468:	1ddf1663          	bne	t5,t4,634 <fail>

0000046c <test_16>:
 46c:	fff00093          	li	ra,-1
 470:	fff0af13          	slti	t5,ra,-1
 474:	00000e93          	li	t4,0
 478:	01000193          	li	gp,16
 47c:	00000e17          	auipc	t3,0x0
 480:	244e0e13          	addi	t3,t3,580 # 6c0 <begin_signature>
 484:	05ee2023          	sw	t5,64(t3)
 488:	1bdf1663          	bne	t5,t4,634 <fail>

0000048c <test_17>:
 48c:	00b00093          	li	ra,11
 490:	00d0a093          	slti	ra,ra,13
 494:	00100e93          	li	t4,1
 498:	01100193          	li	gp,17
 49c:	00000e17          	auipc	t3,0x0
 4a0:	224e0e13          	addi	t3,t3,548 # 6c0 <begin_signature>
 4a4:	041e2223          	sw	ra,68(t3)
 4a8:	19d09663          	bne	ra,t4,634 <fail>

000004ac <test_18>:
 4ac:	00000213          	li	tp,0
 4b0:	00f00093          	li	ra,15
 4b4:	00a0af13          	slti	t5,ra,10
 4b8:	000f0313          	mv	t1,t5
 4bc:	00120213          	addi	tp,tp,1 # 1 <CL_SIZE-0x1f>
 4c0:	00200293          	li	t0,2
 4c4:	fe5216e3          	bne	tp,t0,4b0 <test_18+0x4>
 4c8:	00000e93          	li	t4,0
 4cc:	01200193          	li	gp,18
 4d0:	00000e17          	auipc	t3,0x0
 4d4:	1f0e0e13          	addi	t3,t3,496 # 6c0 <begin_signature>
 4d8:	046e2423          	sw	t1,72(t3)
 4dc:	15d31c63          	bne	t1,t4,634 <fail>

000004e0 <test_19>:
 4e0:	00000213          	li	tp,0
 4e4:	00a00093          	li	ra,10
 4e8:	0100af13          	slti	t5,ra,16
 4ec:	00000013          	nop
 4f0:	000f0313          	mv	t1,t5
 4f4:	00120213          	addi	tp,tp,1 # 1 <CL_SIZE-0x1f>
 4f8:	00200293          	li	t0,2
 4fc:	fe5214e3          	bne	tp,t0,4e4 <test_19+0x4>
 500:	00100e93          	li	t4,1
 504:	01300193          	li	gp,19
 508:	00000e17          	auipc	t3,0x0
 50c:	1b8e0e13          	addi	t3,t3,440 # 6c0 <begin_signature>
 510:	046e2623          	sw	t1,76(t3)
 514:	13d31063          	bne	t1,t4,634 <fail>

00000518 <test_20>:
 518:	00000213          	li	tp,0
 51c:	01000093          	li	ra,16
 520:	0090af13          	slti	t5,ra,9
 524:	00000013          	nop
 528:	00000013          	nop
 52c:	000f0313          	mv	t1,t5
 530:	00120213          	addi	tp,tp,1 # 1 <CL_SIZE-0x1f>
 534:	00200293          	li	t0,2
 538:	fe5212e3          	bne	tp,t0,51c <test_20+0x4>
 53c:	00000e93          	li	t4,0
 540:	01400193          	li	gp,20
 544:	00000e17          	auipc	t3,0x0
 548:	17ce0e13          	addi	t3,t3,380 # 6c0 <begin_signature>
 54c:	046e2823          	sw	t1,80(t3)
 550:	0fd31263          	bne	t1,t4,634 <fail>

00000554 <test_21>:
 554:	00000213          	li	tp,0
 558:	00b00093          	li	ra,11
 55c:	00f0af13          	slti	t5,ra,15
 560:	00120213          	addi	tp,tp,1 # 1 <CL_SIZE-0x1f>
 564:	00200293          	li	t0,2
 568:	fe5218e3          	bne	tp,t0,558 <test_21+0x4>
 56c:	00100e93          	li	t4,1
 570:	01500193          	li	gp,21
 574:	00000e17          	auipc	t3,0x0
 578:	14ce0e13          	addi	t3,t3,332 # 6c0 <begin_signature>
 57c:	05ee2a23          	sw	t5,84(t3)
 580:	0bdf1a63          	bne	t5,t4,634 <fail>

00000584 <test_22>:
 584:	00000213          	li	tp,0
 588:	01100093          	li	ra,17
 58c:	00000013          	nop
 590:	0080af13          	slti	t5,ra,8
 594:	00120213          	addi	tp,tp,1 # 1 <CL_SIZE-0x1f>
 598:	00200293          	li	t0,2
 59c:	fe5216e3          	bne	tp,t0,588 <test_22+0x4>
 5a0:	00000e93          	li	t4,0
 5a4:	01600193          	li	gp,22
 5a8:	00000e17          	auipc	t3,0x0
 5ac:	118e0e13          	addi	t3,t3,280 # 6c0 <begin_signature>
 5b0:	05ee2c23          	sw	t5,88(t3)
 5b4:	09df1063          	bne	t5,t4,634 <fail>

000005b8 <test_23>:
 5b8:	00000213          	li	tp,0
 5bc:	00c00093          	li	ra,12
 5c0:	00000013          	nop
 5c4:	00000013          	nop
 5c8:	00e0af13          	slti	t5,ra,14
 5cc:	00120213          	addi	tp,tp,1 # 1 <CL_SIZE-0x1f>
 5d0:	00200293          	li	t0,2
 5d4:	fe5214e3          	bne	tp,t0,5bc <test_23+0x4>
 5d8:	00100e93          	li	t4,1
 5dc:	01700193          	li	gp,23
 5e0:	00000e17          	auipc	t3,0x0
 5e4:	0e0e0e13          	addi	t3,t3,224 # 6c0 <begin_signature>
 5e8:	05ee2e23          	sw	t5,92(t3)
 5ec:	05df1463          	bne	t5,t4,634 <fail>

000005f0 <test_24>:
 5f0:	fff02093          	slti	ra,zero,-1
 5f4:	00000e93          	li	t4,0
 5f8:	01800193          	li	gp,24
 5fc:	00000e17          	auipc	t3,0x0
 600:	0c4e0e13          	addi	t3,t3,196 # 6c0 <begin_signature>
 604:	061e2023          	sw	ra,96(t3)
 608:	03d09663          	bne	ra,t4,634 <fail>

0000060c <test_25>:
 60c:	00ff00b7          	lui	ra,0xff0
 610:	0ff08093          	addi	ra,ra,255 # ff00ff <__global_pointer$+0xfef137>
 614:	fff0a013          	slti	zero,ra,-1
 618:	00000e93          	li	t4,0
 61c:	01900193          	li	gp,25
 620:	00000e17          	auipc	t3,0x0
 624:	0a0e0e13          	addi	t3,t3,160 # 6c0 <begin_signature>
 628:	060e2223          	sw	zero,100(t3)
 62c:	01d01463          	bne	zero,t4,634 <fail>
 630:	00301a63          	bne	zero,gp,644 <pass>

00000634 <fail>:
 634:	0ff0000f          	fence
 638:	00018593          	mv	a1,gp
 63c:	00100513          	li	a0,1
 640:	00000073          	ecall

00000644 <pass>:
 644:	0ff0000f          	fence
 648:	00018593          	mv	a1,gp
 64c:	00000513          	li	a0,0
 650:	00000073          	ecall

00000654 <ecall>:
 654:	00000073          	ecall
	...

00000660 <sc_exit>:
 660:	a95ff06f          	j	f4 <SIM_EXIT>
 664:	00000013          	nop
 668:	00000013          	nop
 66c:	00000013          	nop
 670:	00000013          	nop
 674:	00000013          	nop
 678:	00000013          	nop
 67c:	00000013          	nop
	...

Дизассемблирование раздела .data:

000006a0 <begin_regstate>:
	...

000006c0 <begin_signature>:
 6c0:	ffff                	0xffff
 6c2:	ffff                	0xffff
 6c4:	ffff                	0xffff
 6c6:	ffff                	0xffff
 6c8:	ffff                	0xffff
 6ca:	ffff                	0xffff
 6cc:	ffff                	0xffff
 6ce:	ffff                	0xffff
 6d0:	ffff                	0xffff
 6d2:	ffff                	0xffff
 6d4:	ffff                	0xffff
 6d6:	ffff                	0xffff
 6d8:	ffff                	0xffff
 6da:	ffff                	0xffff
 6dc:	ffff                	0xffff
 6de:	ffff                	0xffff
 6e0:	ffff                	0xffff
 6e2:	ffff                	0xffff
 6e4:	ffff                	0xffff
 6e6:	ffff                	0xffff
 6e8:	ffff                	0xffff
 6ea:	ffff                	0xffff
 6ec:	ffff                	0xffff
 6ee:	ffff                	0xffff
 6f0:	ffff                	0xffff
 6f2:	ffff                	0xffff
 6f4:	ffff                	0xffff
 6f6:	ffff                	0xffff
 6f8:	ffff                	0xffff
 6fa:	ffff                	0xffff
 6fc:	ffff                	0xffff
 6fe:	ffff                	0xffff
 700:	ffff                	0xffff
 702:	ffff                	0xffff
 704:	ffff                	0xffff
 706:	ffff                	0xffff
 708:	ffff                	0xffff
 70a:	ffff                	0xffff
 70c:	ffff                	0xffff
 70e:	ffff                	0xffff
 710:	ffff                	0xffff
 712:	ffff                	0xffff
 714:	ffff                	0xffff
 716:	ffff                	0xffff
 718:	ffff                	0xffff
 71a:	ffff                	0xffff
 71c:	ffff                	0xffff
 71e:	ffff                	0xffff
 720:	ffff                	0xffff
 722:	ffff                	0xffff
 724:	ffff                	0xffff
 726:	ffff                	0xffff
 728:	ffff                	0xffff
 72a:	ffff                	0xffff
 72c:	ffff                	0xffff
 72e:	ffff                	0xffff
 730:	ffff                	0xffff
 732:	ffff                	0xffff
 734:	ffff                	0xffff
 736:	ffff                	0xffff
 738:	ffff                	0xffff
 73a:	ffff                	0xffff
 73c:	ffff                	0xffff
 73e:	ffff                	0xffff
 740:	ffff                	0xffff
 742:	ffff                	0xffff
 744:	ffff                	0xffff
 746:	ffff                	0xffff
 748:	ffff                	0xffff
 74a:	ffff                	0xffff
 74c:	ffff                	0xffff
 74e:	ffff                	0xffff
 750:	ffff                	0xffff
 752:	ffff                	0xffff
 754:	ffff                	0xffff
 756:	ffff                	0xffff
 758:	ffff                	0xffff
 75a:	ffff                	0xffff
 75c:	ffff                	0xffff
 75e:	ffff                	0xffff

Дизассемблирование раздела .tohost:

00000780 <tohost>:
	...

000007c0 <fromhost>:
	...

Дизассемблирование раздела .sdata:

000007c8 <__global_pointer$-0x800>:
	...

Дизассемблирование раздела .stack:

0000fc00 <.stack>:
	...
