
/home/oleg/scr1/build/verilator_wf_AHB_IMC/compliance_bne.elf:     формат файла elf32-littleriscv
/home/oleg/scr1/build/verilator_wf_AHB_IMC/compliance_bne.elf
архитектура: riscv:rv32, флаги 0x00000112:
EXEC_P, HAS_SYMS, D_PAGED
начальный адрес 0x00000200

Заголовок программы:
    LOAD off    0x00001000 vaddr 0x00000000 paddr 0x00000000 align 2**12
         filesz 0x000007c8 memsz 0x000007e0 flags rwx
    LOAD off    0x00001c00 vaddr 0x0000fc00 paddr 0x0000fc00 align 2**12
         filesz 0x00000000 memsz 0x00000400 flags rw-

Разделы:
Idx Name          Size      VMA       LMA       File off  Algn  Флаги
  0 .text.init    00000284  00000000  00000000  00001000  2**6  CONTENTS, ALLOC, LOAD, READONLY, CODE
  1 .text         00000420  000002a0  000002a0  000012a0  2**5  CONTENTS, ALLOC, LOAD, READONLY, CODE
  2 .data         000000a0  000006c0  000006c0  000016c0  2**4  CONTENTS, ALLOC, LOAD, DATA
  3 .tohost       00000048  00000780  00000780  00001780  2**6  CONTENTS, ALLOC, LOAD, DATA
  4 .sdata        00000018  000007c8  000007c8  000017c8  2**0  ALLOC
  5 .tdata        00000000  000007e0  000007e0  000017c8  2**0  CONTENTS, ALLOC, LOAD, DATA, THREAD_LOCAL
  6 .tbss         00000000  000007e0  000007e0  00000000  2**0  ALLOC, THREAD_LOCAL
  7 .bss          00000000  000007e0  000007e0  000017c8  2**0  ALLOC
  8 .stack        00000400  0000fc00  0000fc00  00001c00  2**0  ALLOC
SYMBOL TABLE:
00000000 l    d  .text.init	00000000 .text.init
000002a0 l    d  .text	00000000 .text
000006c0 l    d  .data	00000000 .data
00000780 l    d  .tohost	00000000 .tohost
000007c8 l    d  .sdata	00000000 .sdata
000007e0 l    d  .tdata	00000000 .tdata
000007e0 l    d  .tbss	00000000 .tbss
000007e0 l    d  .bss	00000000 .bss
0000fc00 l    d  .stack	00000000 .stack
00000000 l    df *ABS*	00000000 /home/oleg/scr1/build/verilator_wf_AHB_IMC/riscv_compliance/riscv_compliance_objs/bne.o
00000680 l       .text	00000000 sc_exit
000001c0 l       .text.init	00000000 trap_vector
000001fc l       .text.init	00000000 _report
000001f8 l       .text.init	00000000 handle_exception
000001f8 l       .text.init	00000000 other_exception
000002a0 l       .text	00000000 _run_test
000002a0 l       .text	00000000 test_2
000006e0 l       .data	00000000 test_res
00000654 l       .text	00000000 fail
000002cc l       .text	00000000 test_3
000002f8 l       .text	00000000 test_4
00000324 l       .text	00000000 test_5
00000350 l       .text	00000000 test_6
00000378 l       .text	00000000 test_7
000003a0 l       .text	00000000 test_8
000003c8 l       .text	00000000 test_9
000003f4 l       .text	00000000 test_10
00000424 l       .text	00000000 test_11
00000458 l       .text	00000000 test_12
00000488 l       .text	00000000 test_13
000004bc l       .text	00000000 test_14
000004f0 l       .text	00000000 test_15
0000051c l       .text	00000000 test_16
0000054c l       .text	00000000 test_17
00000580 l       .text	00000000 test_18
000005b0 l       .text	00000000 test_19
000005e4 l       .text	00000000 test_20
00000618 l       .text	00000000 test_21
00000664 l       .text	00000000 pass
00000674 l       .text	00000000 ecall
00000400 g       *ABS*	00000000 STACK_SIZE
00000fc8 g       .sdata	00000000 __global_pointer$
00000760 g       .data	00000000 end_signature
000006c0 g       .data	00000000 begin_regstate
000006e0 g       .data	00000000 begin_signature
00000200 g       .text.init	00000000 _start
00000020 g       *ABS*	00000000 CL_SIZE
000000f8 g       .text.init	00000000 SIM_STOP
000007e0 g       .bss	00000000 _end
000007c0 g       .tohost	00000000 fromhost
00000780 g       .tohost	00000000 tohost
000000f4 g       .text.init	00000000 SIM_EXIT



Дизассемблирование раздела .text.init:

00000000 <SIM_EXIT-0xf4>:
	...

000000f4 <SIM_EXIT>:
  f4:	00000013          	nop

000000f8 <SIM_STOP>:
  f8:	0000006f          	j	f8 <SIM_STOP>
  fc:	ffff                	0xffff
  fe:	ffff                	0xffff
	...

000001c0 <trap_vector>:
 1c0:	34202773          	csrr	a4,mcause
 1c4:	00800793          	li	a5,8
 1c8:	02f70a63          	beq	a4,a5,1fc <_report>
 1cc:	00900793          	li	a5,9
 1d0:	02f70663          	beq	a4,a5,1fc <_report>
 1d4:	00b00793          	li	a5,11
 1d8:	02f70263          	beq	a4,a5,1fc <_report>
 1dc:	00000717          	auipc	a4,0x0
 1e0:	e2470713          	addi	a4,a4,-476 # 0 <CL_SIZE-0x20>
 1e4:	00070463          	beqz	a4,1ec <trap_vector+0x2c>
 1e8:	00070067          	jr	a4
 1ec:	34202773          	csrr	a4,mcause
 1f0:	00075463          	bgez	a4,1f8 <handle_exception>
 1f4:	0040006f          	j	1f8 <handle_exception>

000001f8 <handle_exception>:
 1f8:	00100513          	li	a0,1

000001fc <_report>:
 1fc:	4840006f          	j	680 <sc_exit>

00000200 <_start>:
 200:	f1402573          	csrr	a0,mhartid
 204:	00051063          	bnez	a0,204 <_start+0x4>
 208:	00000193          	li	gp,0
 20c:	00000297          	auipc	t0,0x0
 210:	fb428293          	addi	t0,t0,-76 # 1c0 <trap_vector>
 214:	30529073          	csrw	mtvec,t0
 218:	00100513          	li	a0,1
 21c:	01f51513          	slli	a0,a0,0x1f
 220:	00054a63          	bltz	a0,234 <_start+0x34>
 224:	0ff0000f          	fence
 228:	00018593          	mv	a1,gp
 22c:	00000513          	li	a0,0
 230:	00000073          	ecall
 234:	01f55513          	srli	a0,a0,0x1f
 238:	00000297          	auipc	t0,0x0
 23c:	4a828293          	addi	t0,t0,1192 # 6e0 <begin_signature>
 240:	00a2a023          	sw	a0,0(t0)
 244:	00000297          	auipc	t0,0x0
 248:	dbc28293          	addi	t0,t0,-580 # 0 <CL_SIZE-0x20>
 24c:	00028e63          	beqz	t0,268 <_start+0x68>
 250:	10529073          	csrw	stvec,t0
 254:	0000b2b7          	lui	t0,0xb
 258:	10928293          	addi	t0,t0,265 # b109 <__global_pointer$+0xa141>
 25c:	30229073          	csrw	medeleg,t0
 260:	30202373          	csrr	t1,medeleg
 264:	f8629ae3          	bne	t0,t1,1f8 <handle_exception>
 268:	30005073          	csrwi	mstatus,0
 26c:	00000297          	auipc	t0,0x0
 270:	03428293          	addi	t0,t0,52 # 2a0 <_run_test>
 274:	34129073          	csrw	mepc,t0
 278:	f1402573          	csrr	a0,mhartid
 27c:	30200073          	mret
 280:	0000                	unimp
	...

Дизассемблирование раздела .text:

000002a0 <_run_test>:
 2a0:	00200193          	li	gp,2
 2a4:	00000e17          	auipc	t3,0x0
 2a8:	43ce0e13          	addi	t3,t3,1084 # 6e0 <begin_signature>
 2ac:	003e2423          	sw	gp,8(t3)
 2b0:	00000093          	li	ra,0
 2b4:	00100113          	li	sp,1
 2b8:	00209663          	bne	ra,sp,2c4 <_run_test+0x24>
 2bc:	38301c63          	bne	zero,gp,654 <fail>
 2c0:	00301663          	bne	zero,gp,2cc <test_3>
 2c4:	fe209ee3          	bne	ra,sp,2c0 <_run_test+0x20>
 2c8:	38301663          	bne	zero,gp,654 <fail>

000002cc <test_3>:
 2cc:	00300193          	li	gp,3
 2d0:	00000e17          	auipc	t3,0x0
 2d4:	410e0e13          	addi	t3,t3,1040 # 6e0 <begin_signature>
 2d8:	003e2623          	sw	gp,12(t3)
 2dc:	00100093          	li	ra,1
 2e0:	00000113          	li	sp,0
 2e4:	00209663          	bne	ra,sp,2f0 <test_3+0x24>
 2e8:	36301663          	bne	zero,gp,654 <fail>
 2ec:	00301663          	bne	zero,gp,2f8 <test_4>
 2f0:	fe209ee3          	bne	ra,sp,2ec <test_3+0x20>
 2f4:	36301063          	bne	zero,gp,654 <fail>

000002f8 <test_4>:
 2f8:	00400193          	li	gp,4
 2fc:	00000e17          	auipc	t3,0x0
 300:	3e4e0e13          	addi	t3,t3,996 # 6e0 <begin_signature>
 304:	003e2823          	sw	gp,16(t3)
 308:	fff00093          	li	ra,-1
 30c:	00100113          	li	sp,1
 310:	00209663          	bne	ra,sp,31c <test_4+0x24>
 314:	34301063          	bne	zero,gp,654 <fail>
 318:	00301663          	bne	zero,gp,324 <test_5>
 31c:	fe209ee3          	bne	ra,sp,318 <test_4+0x20>
 320:	32301a63          	bne	zero,gp,654 <fail>

00000324 <test_5>:
 324:	00500193          	li	gp,5
 328:	00000e17          	auipc	t3,0x0
 32c:	3b8e0e13          	addi	t3,t3,952 # 6e0 <begin_signature>
 330:	003e2a23          	sw	gp,20(t3)
 334:	00100093          	li	ra,1
 338:	fff00113          	li	sp,-1
 33c:	00209663          	bne	ra,sp,348 <test_5+0x24>
 340:	30301a63          	bne	zero,gp,654 <fail>
 344:	00301663          	bne	zero,gp,350 <test_6>
 348:	fe209ee3          	bne	ra,sp,344 <test_5+0x20>
 34c:	30301463          	bne	zero,gp,654 <fail>

00000350 <test_6>:
 350:	00600193          	li	gp,6
 354:	00000e17          	auipc	t3,0x0
 358:	38ce0e13          	addi	t3,t3,908 # 6e0 <begin_signature>
 35c:	003e2c23          	sw	gp,24(t3)
 360:	00000093          	li	ra,0
 364:	00000113          	li	sp,0
 368:	00209463          	bne	ra,sp,370 <test_6+0x20>
 36c:	00301463          	bne	zero,gp,374 <test_6+0x24>
 370:	2e301263          	bne	zero,gp,654 <fail>
 374:	fe209ee3          	bne	ra,sp,370 <test_6+0x20>

00000378 <test_7>:
 378:	00700193          	li	gp,7
 37c:	00000e17          	auipc	t3,0x0
 380:	364e0e13          	addi	t3,t3,868 # 6e0 <begin_signature>
 384:	003e2e23          	sw	gp,28(t3)
 388:	00100093          	li	ra,1
 38c:	00100113          	li	sp,1
 390:	00209463          	bne	ra,sp,398 <test_7+0x20>
 394:	00301463          	bne	zero,gp,39c <test_7+0x24>
 398:	2a301e63          	bne	zero,gp,654 <fail>
 39c:	fe209ee3          	bne	ra,sp,398 <test_7+0x20>

000003a0 <test_8>:
 3a0:	00800193          	li	gp,8
 3a4:	00000e17          	auipc	t3,0x0
 3a8:	33ce0e13          	addi	t3,t3,828 # 6e0 <begin_signature>
 3ac:	023e2023          	sw	gp,32(t3)
 3b0:	fff00093          	li	ra,-1
 3b4:	fff00113          	li	sp,-1
 3b8:	00209463          	bne	ra,sp,3c0 <test_8+0x20>
 3bc:	00301463          	bne	zero,gp,3c4 <test_8+0x24>
 3c0:	28301a63          	bne	zero,gp,654 <fail>
 3c4:	fe209ee3          	bne	ra,sp,3c0 <test_8+0x20>

000003c8 <test_9>:
 3c8:	00900193          	li	gp,9
 3cc:	00000e17          	auipc	t3,0x0
 3d0:	314e0e13          	addi	t3,t3,788 # 6e0 <begin_signature>
 3d4:	023e2223          	sw	gp,36(t3)
 3d8:	00000213          	li	tp,0
 3dc:	00000093          	li	ra,0
 3e0:	00000113          	li	sp,0
 3e4:	26209863          	bne	ra,sp,654 <fail>
 3e8:	00120213          	addi	tp,tp,1 # 1 <CL_SIZE-0x1f>
 3ec:	00200293          	li	t0,2
 3f0:	fe5216e3          	bne	tp,t0,3dc <test_9+0x14>

000003f4 <test_10>:
 3f4:	00a00193          	li	gp,10
 3f8:	00000e17          	auipc	t3,0x0
 3fc:	2e8e0e13          	addi	t3,t3,744 # 6e0 <begin_signature>
 400:	023e2423          	sw	gp,40(t3)
 404:	00000213          	li	tp,0
 408:	00000093          	li	ra,0
 40c:	00000113          	li	sp,0
 410:	00000013          	nop
 414:	24209063          	bne	ra,sp,654 <fail>
 418:	00120213          	addi	tp,tp,1 # 1 <CL_SIZE-0x1f>
 41c:	00200293          	li	t0,2
 420:	fe5214e3          	bne	tp,t0,408 <STACK_SIZE+0x8>

00000424 <test_11>:
 424:	00b00193          	li	gp,11
 428:	00000e17          	auipc	t3,0x0
 42c:	2b8e0e13          	addi	t3,t3,696 # 6e0 <begin_signature>
 430:	023e2623          	sw	gp,44(t3)
 434:	00000213          	li	tp,0
 438:	00000093          	li	ra,0
 43c:	00000113          	li	sp,0
 440:	00000013          	nop
 444:	00000013          	nop
 448:	20209663          	bne	ra,sp,654 <fail>
 44c:	00120213          	addi	tp,tp,1 # 1 <CL_SIZE-0x1f>
 450:	00200293          	li	t0,2
 454:	fe5212e3          	bne	tp,t0,438 <test_11+0x14>

00000458 <test_12>:
 458:	00c00193          	li	gp,12
 45c:	00000e17          	auipc	t3,0x0
 460:	284e0e13          	addi	t3,t3,644 # 6e0 <begin_signature>
 464:	023e2823          	sw	gp,48(t3)
 468:	00000213          	li	tp,0
 46c:	00000093          	li	ra,0
 470:	00000013          	nop
 474:	00000113          	li	sp,0
 478:	1c209e63          	bne	ra,sp,654 <fail>
 47c:	00120213          	addi	tp,tp,1 # 1 <CL_SIZE-0x1f>
 480:	00200293          	li	t0,2
 484:	fe5214e3          	bne	tp,t0,46c <test_12+0x14>

00000488 <test_13>:
 488:	00d00193          	li	gp,13
 48c:	00000e17          	auipc	t3,0x0
 490:	254e0e13          	addi	t3,t3,596 # 6e0 <begin_signature>
 494:	023e2a23          	sw	gp,52(t3)
 498:	00000213          	li	tp,0
 49c:	00000093          	li	ra,0
 4a0:	00000013          	nop
 4a4:	00000113          	li	sp,0
 4a8:	00000013          	nop
 4ac:	1a209463          	bne	ra,sp,654 <fail>
 4b0:	00120213          	addi	tp,tp,1 # 1 <CL_SIZE-0x1f>
 4b4:	00200293          	li	t0,2
 4b8:	fe5212e3          	bne	tp,t0,49c <test_13+0x14>

000004bc <test_14>:
 4bc:	00e00193          	li	gp,14
 4c0:	00000e17          	auipc	t3,0x0
 4c4:	220e0e13          	addi	t3,t3,544 # 6e0 <begin_signature>
 4c8:	023e2c23          	sw	gp,56(t3)
 4cc:	00000213          	li	tp,0
 4d0:	00000093          	li	ra,0
 4d4:	00000013          	nop
 4d8:	00000013          	nop
 4dc:	00000113          	li	sp,0
 4e0:	16209a63          	bne	ra,sp,654 <fail>
 4e4:	00120213          	addi	tp,tp,1 # 1 <CL_SIZE-0x1f>
 4e8:	00200293          	li	t0,2
 4ec:	fe5212e3          	bne	tp,t0,4d0 <test_14+0x14>

000004f0 <test_15>:
 4f0:	00f00193          	li	gp,15
 4f4:	00000e17          	auipc	t3,0x0
 4f8:	1ece0e13          	addi	t3,t3,492 # 6e0 <begin_signature>
 4fc:	023e2e23          	sw	gp,60(t3)
 500:	00000213          	li	tp,0
 504:	00000093          	li	ra,0
 508:	00000113          	li	sp,0
 50c:	14209463          	bne	ra,sp,654 <fail>
 510:	00120213          	addi	tp,tp,1 # 1 <CL_SIZE-0x1f>
 514:	00200293          	li	t0,2
 518:	fe5216e3          	bne	tp,t0,504 <test_15+0x14>

0000051c <test_16>:
 51c:	01000193          	li	gp,16
 520:	00000e17          	auipc	t3,0x0
 524:	1c0e0e13          	addi	t3,t3,448 # 6e0 <begin_signature>
 528:	043e2023          	sw	gp,64(t3)
 52c:	00000213          	li	tp,0
 530:	00000093          	li	ra,0
 534:	00000113          	li	sp,0
 538:	00000013          	nop
 53c:	10209c63          	bne	ra,sp,654 <fail>
 540:	00120213          	addi	tp,tp,1 # 1 <CL_SIZE-0x1f>
 544:	00200293          	li	t0,2
 548:	fe5214e3          	bne	tp,t0,530 <test_16+0x14>

0000054c <test_17>:
 54c:	01100193          	li	gp,17
 550:	00000e17          	auipc	t3,0x0
 554:	190e0e13          	addi	t3,t3,400 # 6e0 <begin_signature>
 558:	043e2223          	sw	gp,68(t3)
 55c:	00000213          	li	tp,0
 560:	00000093          	li	ra,0
 564:	00000113          	li	sp,0
 568:	00000013          	nop
 56c:	00000013          	nop
 570:	0e209263          	bne	ra,sp,654 <fail>
 574:	00120213          	addi	tp,tp,1 # 1 <CL_SIZE-0x1f>
 578:	00200293          	li	t0,2
 57c:	fe5212e3          	bne	tp,t0,560 <test_17+0x14>

00000580 <test_18>:
 580:	01200193          	li	gp,18
 584:	00000e17          	auipc	t3,0x0
 588:	15ce0e13          	addi	t3,t3,348 # 6e0 <begin_signature>
 58c:	043e2423          	sw	gp,72(t3)
 590:	00000213          	li	tp,0
 594:	00000093          	li	ra,0
 598:	00000013          	nop
 59c:	00000113          	li	sp,0
 5a0:	0a209a63          	bne	ra,sp,654 <fail>
 5a4:	00120213          	addi	tp,tp,1 # 1 <CL_SIZE-0x1f>
 5a8:	00200293          	li	t0,2
 5ac:	fe5214e3          	bne	tp,t0,594 <test_18+0x14>

000005b0 <test_19>:
 5b0:	01300193          	li	gp,19
 5b4:	00000e17          	auipc	t3,0x0
 5b8:	12ce0e13          	addi	t3,t3,300 # 6e0 <begin_signature>
 5bc:	043e2623          	sw	gp,76(t3)
 5c0:	00000213          	li	tp,0
 5c4:	00000093          	li	ra,0
 5c8:	00000013          	nop
 5cc:	00000113          	li	sp,0
 5d0:	00000013          	nop
 5d4:	08209063          	bne	ra,sp,654 <fail>
 5d8:	00120213          	addi	tp,tp,1 # 1 <CL_SIZE-0x1f>
 5dc:	00200293          	li	t0,2
 5e0:	fe5212e3          	bne	tp,t0,5c4 <test_19+0x14>

000005e4 <test_20>:
 5e4:	01400193          	li	gp,20
 5e8:	00000e17          	auipc	t3,0x0
 5ec:	0f8e0e13          	addi	t3,t3,248 # 6e0 <begin_signature>
 5f0:	043e2823          	sw	gp,80(t3)
 5f4:	00000213          	li	tp,0
 5f8:	00000093          	li	ra,0
 5fc:	00000013          	nop
 600:	00000013          	nop
 604:	00000113          	li	sp,0
 608:	04209663          	bne	ra,sp,654 <fail>
 60c:	00120213          	addi	tp,tp,1 # 1 <CL_SIZE-0x1f>
 610:	00200293          	li	t0,2
 614:	fe5212e3          	bne	tp,t0,5f8 <test_20+0x14>

00000618 <test_21>:
 618:	00100093          	li	ra,1
 61c:	00009a63          	bnez	ra,630 <test_21+0x18>
 620:	00108093          	addi	ra,ra,1
 624:	00108093          	addi	ra,ra,1
 628:	00108093          	addi	ra,ra,1
 62c:	00108093          	addi	ra,ra,1
 630:	00108093          	addi	ra,ra,1
 634:	00108093          	addi	ra,ra,1
 638:	00300e93          	li	t4,3
 63c:	01500193          	li	gp,21
 640:	00000e17          	auipc	t3,0x0
 644:	0a0e0e13          	addi	t3,t3,160 # 6e0 <begin_signature>
 648:	041e2a23          	sw	ra,84(t3)
 64c:	01d09463          	bne	ra,t4,654 <fail>
 650:	00301a63          	bne	zero,gp,664 <pass>

00000654 <fail>:
 654:	0ff0000f          	fence
 658:	00018593          	mv	a1,gp
 65c:	00100513          	li	a0,1
 660:	00000073          	ecall

00000664 <pass>:
 664:	0ff0000f          	fence
 668:	00018593          	mv	a1,gp
 66c:	00000513          	li	a0,0
 670:	00000073          	ecall

00000674 <ecall>:
 674:	00000073          	ecall
	...

00000680 <sc_exit>:
 680:	a75ff06f          	j	f4 <SIM_EXIT>
 684:	00000013          	nop
 688:	00000013          	nop
 68c:	00000013          	nop
 690:	00000013          	nop
 694:	00000013          	nop
 698:	00000013          	nop
 69c:	00000013          	nop
	...

Дизассемблирование раздела .data:

000006c0 <begin_regstate>:
	...

000006e0 <begin_signature>:
 6e0:	ffff                	0xffff
 6e2:	ffff                	0xffff
 6e4:	ffff                	0xffff
 6e6:	ffff                	0xffff
 6e8:	ffff                	0xffff
 6ea:	ffff                	0xffff
 6ec:	ffff                	0xffff
 6ee:	ffff                	0xffff
 6f0:	ffff                	0xffff
 6f2:	ffff                	0xffff
 6f4:	ffff                	0xffff
 6f6:	ffff                	0xffff
 6f8:	ffff                	0xffff
 6fa:	ffff                	0xffff
 6fc:	ffff                	0xffff
 6fe:	ffff                	0xffff
 700:	ffff                	0xffff
 702:	ffff                	0xffff
 704:	ffff                	0xffff
 706:	ffff                	0xffff
 708:	ffff                	0xffff
 70a:	ffff                	0xffff
 70c:	ffff                	0xffff
 70e:	ffff                	0xffff
 710:	ffff                	0xffff
 712:	ffff                	0xffff
 714:	ffff                	0xffff
 716:	ffff                	0xffff
 718:	ffff                	0xffff
 71a:	ffff                	0xffff
 71c:	ffff                	0xffff
 71e:	ffff                	0xffff
 720:	ffff                	0xffff
 722:	ffff                	0xffff
 724:	ffff                	0xffff
 726:	ffff                	0xffff
 728:	ffff                	0xffff
 72a:	ffff                	0xffff
 72c:	ffff                	0xffff
 72e:	ffff                	0xffff
 730:	ffff                	0xffff
 732:	ffff                	0xffff
 734:	ffff                	0xffff
 736:	ffff                	0xffff
 738:	ffff                	0xffff
 73a:	ffff                	0xffff
 73c:	ffff                	0xffff
 73e:	ffff                	0xffff
 740:	ffff                	0xffff
 742:	ffff                	0xffff
 744:	ffff                	0xffff
 746:	ffff                	0xffff
 748:	ffff                	0xffff
 74a:	ffff                	0xffff
 74c:	ffff                	0xffff
 74e:	ffff                	0xffff
 750:	ffff                	0xffff
 752:	ffff                	0xffff
 754:	ffff                	0xffff
 756:	ffff                	0xffff
	...

Дизассемблирование раздела .tohost:

00000780 <tohost>:
	...

000007c0 <fromhost>:
	...

Дизассемблирование раздела .sdata:

000007c8 <__global_pointer$-0x800>:
	...

Дизассемблирование раздела .stack:

0000fc00 <.stack>:
	...
