
/home/oleg/scr1/build/verilator_wf_AHB_IMC/compliance_xor.elf:     формат файла elf32-littleriscv
/home/oleg/scr1/build/verilator_wf_AHB_IMC/compliance_xor.elf
архитектура: riscv:rv32, флаги 0x00000112:
EXEC_P, HAS_SYMS, D_PAGED
начальный адрес 0x00000200

Заголовок программы:
    LOAD off    0x00001000 vaddr 0x00000000 paddr 0x00000000 align 2**12
         filesz 0x00000a08 memsz 0x00000a20 flags rwx
    LOAD off    0x00001c00 vaddr 0x0000fc00 paddr 0x0000fc00 align 2**12
         filesz 0x00000000 memsz 0x00000400 flags rw-

Разделы:
Idx Name          Size      VMA       LMA       File off  Algn  Флаги
  0 .text.init    00000284  00000000  00000000  00001000  2**6  CONTENTS, ALLOC, LOAD, READONLY, CODE
  1 .text         00000660  000002a0  000002a0  000012a0  2**5  CONTENTS, ALLOC, LOAD, READONLY, CODE
  2 .data         000000c0  00000900  00000900  00001900  2**4  CONTENTS, ALLOC, LOAD, DATA
  3 .tohost       00000048  000009c0  000009c0  000019c0  2**6  CONTENTS, ALLOC, LOAD, DATA
  4 .sdata        00000018  00000a08  00000a08  00001a08  2**0  ALLOC
  5 .tdata        00000000  00000a20  00000a20  00001a08  2**0  CONTENTS, ALLOC, LOAD, DATA, THREAD_LOCAL
  6 .tbss         00000000  00000a20  00000a20  00000000  2**0  ALLOC, THREAD_LOCAL
  7 .bss          00000000  00000a20  00000a20  00001a08  2**0  ALLOC
  8 .stack        00000400  0000fc00  0000fc00  00001c00  2**0  ALLOC
SYMBOL TABLE:
00000000 l    d  .text.init	00000000 .text.init
000002a0 l    d  .text	00000000 .text
00000900 l    d  .data	00000000 .data
000009c0 l    d  .tohost	00000000 .tohost
00000a08 l    d  .sdata	00000000 .sdata
00000a20 l    d  .tdata	00000000 .tdata
00000a20 l    d  .tbss	00000000 .tbss
00000a20 l    d  .bss	00000000 .bss
0000fc00 l    d  .stack	00000000 .stack
00000000 l    df *ABS*	00000000 /home/oleg/scr1/build/verilator_wf_AHB_IMC/riscv_compliance/riscv_compliance_objs/xor.o
000008c0 l       .text	00000000 sc_exit
000001c0 l       .text.init	00000000 trap_vector
000001fc l       .text.init	00000000 _report
000001f8 l       .text.init	00000000 handle_exception
000001f8 l       .text.init	00000000 other_exception
000002a0 l       .text	00000000 _run_test
000002a0 l       .text	00000000 test_2
00000920 l       .data	00000000 test_res
00000898 l       .text	00000000 fail
000002d0 l       .text	00000000 test_3
00000300 l       .text	00000000 test_4
00000330 l       .text	00000000 test_5
00000360 l       .text	00000000 test_6
00000390 l       .text	00000000 test_7
000003c0 l       .text	00000000 test_8
000003e4 l       .text	00000000 test_9
00000428 l       .text	00000000 test_10
00000470 l       .text	00000000 test_11
000004bc l       .text	00000000 test_12
000004fc l       .text	00000000 test_13
00000540 l       .text	00000000 test_14
00000588 l       .text	00000000 test_15
000005cc l       .text	00000000 test_16
00000614 l       .text	00000000 test_17
0000065c l       .text	00000000 test_18
0000069c l       .text	00000000 test_19
000006e0 l       .text	00000000 test_20
00000728 l       .text	00000000 test_21
0000076c l       .text	00000000 test_22
000007b4 l       .text	00000000 test_23
000007fc l       .text	00000000 test_24
00000824 l       .text	00000000 test_25
0000084c l       .text	00000000 test_26
00000868 l       .text	00000000 test_27
000008a8 l       .text	00000000 pass
000008b8 l       .text	00000000 ecall
00000400 g       *ABS*	00000000 STACK_SIZE
00001208 g       .sdata	00000000 __global_pointer$
000009c0 g       .data	00000000 end_signature
00000900 g       .data	00000000 begin_regstate
00000920 g       .data	00000000 begin_signature
00000200 g       .text.init	00000000 _start
00000020 g       *ABS*	00000000 CL_SIZE
000000f8 g       .text.init	00000000 SIM_STOP
00000a20 g       .bss	00000000 _end
00000a00 g       .tohost	00000000 fromhost
000009c0 g       .tohost	00000000 tohost
000000f4 g       .text.init	00000000 SIM_EXIT



Дизассемблирование раздела .text.init:

00000000 <SIM_EXIT-0xf4>:
	...

000000f4 <SIM_EXIT>:
  f4:	00000013          	nop

000000f8 <SIM_STOP>:
  f8:	0000006f          	j	f8 <SIM_STOP>
  fc:	ffff                	0xffff
  fe:	ffff                	0xffff
	...

000001c0 <trap_vector>:
 1c0:	34202773          	csrr	a4,mcause
 1c4:	00800793          	li	a5,8
 1c8:	02f70a63          	beq	a4,a5,1fc <_report>
 1cc:	00900793          	li	a5,9
 1d0:	02f70663          	beq	a4,a5,1fc <_report>
 1d4:	00b00793          	li	a5,11
 1d8:	02f70263          	beq	a4,a5,1fc <_report>
 1dc:	00000717          	auipc	a4,0x0
 1e0:	e2470713          	addi	a4,a4,-476 # 0 <CL_SIZE-0x20>
 1e4:	00070463          	beqz	a4,1ec <trap_vector+0x2c>
 1e8:	00070067          	jr	a4
 1ec:	34202773          	csrr	a4,mcause
 1f0:	00075463          	bgez	a4,1f8 <handle_exception>
 1f4:	0040006f          	j	1f8 <handle_exception>

000001f8 <handle_exception>:
 1f8:	00100513          	li	a0,1

000001fc <_report>:
 1fc:	6c40006f          	j	8c0 <sc_exit>

00000200 <_start>:
 200:	f1402573          	csrr	a0,mhartid
 204:	00051063          	bnez	a0,204 <_start+0x4>
 208:	00000193          	li	gp,0
 20c:	00000297          	auipc	t0,0x0
 210:	fb428293          	addi	t0,t0,-76 # 1c0 <trap_vector>
 214:	30529073          	csrw	mtvec,t0
 218:	00100513          	li	a0,1
 21c:	01f51513          	slli	a0,a0,0x1f
 220:	00054a63          	bltz	a0,234 <_start+0x34>
 224:	0ff0000f          	fence
 228:	00018593          	mv	a1,gp
 22c:	00000513          	li	a0,0
 230:	00000073          	ecall
 234:	01f55513          	srli	a0,a0,0x1f
 238:	00000297          	auipc	t0,0x0
 23c:	6e828293          	addi	t0,t0,1768 # 920 <begin_signature>
 240:	00a2a023          	sw	a0,0(t0)
 244:	00000297          	auipc	t0,0x0
 248:	dbc28293          	addi	t0,t0,-580 # 0 <CL_SIZE-0x20>
 24c:	00028e63          	beqz	t0,268 <_start+0x68>
 250:	10529073          	csrw	stvec,t0
 254:	0000b2b7          	lui	t0,0xb
 258:	10928293          	addi	t0,t0,265 # b109 <__global_pointer$+0x9f01>
 25c:	30229073          	csrw	medeleg,t0
 260:	30202373          	csrr	t1,medeleg
 264:	f8629ae3          	bne	t0,t1,1f8 <handle_exception>
 268:	30005073          	csrwi	mstatus,0
 26c:	00000297          	auipc	t0,0x0
 270:	03428293          	addi	t0,t0,52 # 2a0 <_run_test>
 274:	34129073          	csrw	mepc,t0
 278:	f1402573          	csrr	a0,mhartid
 27c:	30200073          	mret
 280:	0000                	unimp
	...

Дизассемблирование раздела .text:

000002a0 <_run_test>:
 2a0:	ff0100b7          	lui	ra,0xff010
 2a4:	f0008093          	addi	ra,ra,-256 # ff00ff00 <__global_pointer$+0xff00ecf8>
 2a8:	0f0f1137          	lui	sp,0xf0f1
 2ac:	f0f10113          	addi	sp,sp,-241 # f0f0f0f <__global_pointer$+0xf0efd07>
 2b0:	0020cf33          	xor	t5,ra,sp
 2b4:	f00ffeb7          	lui	t4,0xf00ff
 2b8:	00fe8e93          	addi	t4,t4,15 # f00ff00f <__global_pointer$+0xf00fde07>
 2bc:	00200193          	li	gp,2
 2c0:	00000e17          	auipc	t3,0x0
 2c4:	660e0e13          	addi	t3,t3,1632 # 920 <begin_signature>
 2c8:	01ee2423          	sw	t5,8(t3)
 2cc:	5ddf1663          	bne	t5,t4,898 <fail>

000002d0 <test_3>:
 2d0:	0ff010b7          	lui	ra,0xff01
 2d4:	ff008093          	addi	ra,ra,-16 # ff00ff0 <__global_pointer$+0xfeffde8>
 2d8:	f0f0f137          	lui	sp,0xf0f0f
 2dc:	0f010113          	addi	sp,sp,240 # f0f0f0f0 <__global_pointer$+0xf0f0dee8>
 2e0:	0020cf33          	xor	t5,ra,sp
 2e4:	ff010eb7          	lui	t4,0xff010
 2e8:	f00e8e93          	addi	t4,t4,-256 # ff00ff00 <__global_pointer$+0xff00ecf8>
 2ec:	00300193          	li	gp,3
 2f0:	00000e17          	auipc	t3,0x0
 2f4:	630e0e13          	addi	t3,t3,1584 # 920 <begin_signature>
 2f8:	01ee2623          	sw	t5,12(t3)
 2fc:	59df1e63          	bne	t5,t4,898 <fail>

00000300 <test_4>:
 300:	00ff00b7          	lui	ra,0xff0
 304:	0ff08093          	addi	ra,ra,255 # ff00ff <__global_pointer$+0xfeeef7>
 308:	0f0f1137          	lui	sp,0xf0f1
 30c:	f0f10113          	addi	sp,sp,-241 # f0f0f0f <__global_pointer$+0xf0efd07>
 310:	0020cf33          	xor	t5,ra,sp
 314:	0ff01eb7          	lui	t4,0xff01
 318:	ff0e8e93          	addi	t4,t4,-16 # ff00ff0 <__global_pointer$+0xfeffde8>
 31c:	00400193          	li	gp,4
 320:	00000e17          	auipc	t3,0x0
 324:	600e0e13          	addi	t3,t3,1536 # 920 <begin_signature>
 328:	01ee2823          	sw	t5,16(t3)
 32c:	57df1663          	bne	t5,t4,898 <fail>

00000330 <test_5>:
 330:	f00ff0b7          	lui	ra,0xf00ff
 334:	00f08093          	addi	ra,ra,15 # f00ff00f <__global_pointer$+0xf00fde07>
 338:	f0f0f137          	lui	sp,0xf0f0f
 33c:	0f010113          	addi	sp,sp,240 # f0f0f0f0 <__global_pointer$+0xf0f0dee8>
 340:	0020cf33          	xor	t5,ra,sp
 344:	00ff0eb7          	lui	t4,0xff0
 348:	0ffe8e93          	addi	t4,t4,255 # ff00ff <__global_pointer$+0xfeeef7>
 34c:	00500193          	li	gp,5
 350:	00000e17          	auipc	t3,0x0
 354:	5d0e0e13          	addi	t3,t3,1488 # 920 <begin_signature>
 358:	01ee2a23          	sw	t5,20(t3)
 35c:	53df1e63          	bne	t5,t4,898 <fail>

00000360 <test_6>:
 360:	ff0100b7          	lui	ra,0xff010
 364:	f0008093          	addi	ra,ra,-256 # ff00ff00 <__global_pointer$+0xff00ecf8>
 368:	0f0f1137          	lui	sp,0xf0f1
 36c:	f0f10113          	addi	sp,sp,-241 # f0f0f0f <__global_pointer$+0xf0efd07>
 370:	0020c0b3          	xor	ra,ra,sp
 374:	f00ffeb7          	lui	t4,0xf00ff
 378:	00fe8e93          	addi	t4,t4,15 # f00ff00f <__global_pointer$+0xf00fde07>
 37c:	00600193          	li	gp,6
 380:	00000e17          	auipc	t3,0x0
 384:	5a0e0e13          	addi	t3,t3,1440 # 920 <begin_signature>
 388:	001e2c23          	sw	ra,24(t3)
 38c:	51d09663          	bne	ra,t4,898 <fail>

00000390 <test_7>:
 390:	ff0100b7          	lui	ra,0xff010
 394:	f0008093          	addi	ra,ra,-256 # ff00ff00 <__global_pointer$+0xff00ecf8>
 398:	0f0f1137          	lui	sp,0xf0f1
 39c:	f0f10113          	addi	sp,sp,-241 # f0f0f0f <__global_pointer$+0xf0efd07>
 3a0:	0020c133          	xor	sp,ra,sp
 3a4:	f00ffeb7          	lui	t4,0xf00ff
 3a8:	00fe8e93          	addi	t4,t4,15 # f00ff00f <__global_pointer$+0xf00fde07>
 3ac:	00700193          	li	gp,7
 3b0:	00000e17          	auipc	t3,0x0
 3b4:	570e0e13          	addi	t3,t3,1392 # 920 <begin_signature>
 3b8:	002e2e23          	sw	sp,28(t3)
 3bc:	4dd11e63          	bne	sp,t4,898 <fail>

000003c0 <test_8>:
 3c0:	ff0100b7          	lui	ra,0xff010
 3c4:	f0008093          	addi	ra,ra,-256 # ff00ff00 <__global_pointer$+0xff00ecf8>
 3c8:	0010c0b3          	xor	ra,ra,ra
 3cc:	00000e93          	li	t4,0
 3d0:	00800193          	li	gp,8
 3d4:	00000e17          	auipc	t3,0x0
 3d8:	54ce0e13          	addi	t3,t3,1356 # 920 <begin_signature>
 3dc:	021e2023          	sw	ra,32(t3)
 3e0:	4bd09c63          	bne	ra,t4,898 <fail>

000003e4 <test_9>:
 3e4:	00000213          	li	tp,0
 3e8:	ff0100b7          	lui	ra,0xff010
 3ec:	f0008093          	addi	ra,ra,-256 # ff00ff00 <__global_pointer$+0xff00ecf8>
 3f0:	0f0f1137          	lui	sp,0xf0f1
 3f4:	f0f10113          	addi	sp,sp,-241 # f0f0f0f <__global_pointer$+0xf0efd07>
 3f8:	0020cf33          	xor	t5,ra,sp
 3fc:	000f0313          	mv	t1,t5
 400:	00120213          	addi	tp,tp,1 # 1 <CL_SIZE-0x1f>
 404:	00200293          	li	t0,2
 408:	fe5210e3          	bne	tp,t0,3e8 <test_9+0x4>
 40c:	f00ffeb7          	lui	t4,0xf00ff
 410:	00fe8e93          	addi	t4,t4,15 # f00ff00f <__global_pointer$+0xf00fde07>
 414:	00900193          	li	gp,9
 418:	00000e17          	auipc	t3,0x0
 41c:	508e0e13          	addi	t3,t3,1288 # 920 <begin_signature>
 420:	026e2223          	sw	t1,36(t3)
 424:	47d31a63          	bne	t1,t4,898 <fail>

00000428 <test_10>:
 428:	00000213          	li	tp,0
 42c:	0ff010b7          	lui	ra,0xff01
 430:	ff008093          	addi	ra,ra,-16 # ff00ff0 <__global_pointer$+0xfeffde8>
 434:	f0f0f137          	lui	sp,0xf0f0f
 438:	0f010113          	addi	sp,sp,240 # f0f0f0f0 <__global_pointer$+0xf0f0dee8>
 43c:	0020cf33          	xor	t5,ra,sp
 440:	00000013          	nop
 444:	000f0313          	mv	t1,t5
 448:	00120213          	addi	tp,tp,1 # 1 <CL_SIZE-0x1f>
 44c:	00200293          	li	t0,2
 450:	fc521ee3          	bne	tp,t0,42c <test_10+0x4>
 454:	ff010eb7          	lui	t4,0xff010
 458:	f00e8e93          	addi	t4,t4,-256 # ff00ff00 <__global_pointer$+0xff00ecf8>
 45c:	00a00193          	li	gp,10
 460:	00000e17          	auipc	t3,0x0
 464:	4c0e0e13          	addi	t3,t3,1216 # 920 <begin_signature>
 468:	026e2423          	sw	t1,40(t3)
 46c:	43d31663          	bne	t1,t4,898 <fail>

00000470 <test_11>:
 470:	00000213          	li	tp,0
 474:	00ff00b7          	lui	ra,0xff0
 478:	0ff08093          	addi	ra,ra,255 # ff00ff <__global_pointer$+0xfeeef7>
 47c:	0f0f1137          	lui	sp,0xf0f1
 480:	f0f10113          	addi	sp,sp,-241 # f0f0f0f <__global_pointer$+0xf0efd07>
 484:	0020cf33          	xor	t5,ra,sp
 488:	00000013          	nop
 48c:	00000013          	nop
 490:	000f0313          	mv	t1,t5
 494:	00120213          	addi	tp,tp,1 # 1 <CL_SIZE-0x1f>
 498:	00200293          	li	t0,2
 49c:	fc521ce3          	bne	tp,t0,474 <test_11+0x4>
 4a0:	0ff01eb7          	lui	t4,0xff01
 4a4:	ff0e8e93          	addi	t4,t4,-16 # ff00ff0 <__global_pointer$+0xfeffde8>
 4a8:	00b00193          	li	gp,11
 4ac:	00000e17          	auipc	t3,0x0
 4b0:	474e0e13          	addi	t3,t3,1140 # 920 <begin_signature>
 4b4:	026e2623          	sw	t1,44(t3)
 4b8:	3fd31063          	bne	t1,t4,898 <fail>

000004bc <test_12>:
 4bc:	00000213          	li	tp,0
 4c0:	ff0100b7          	lui	ra,0xff010
 4c4:	f0008093          	addi	ra,ra,-256 # ff00ff00 <__global_pointer$+0xff00ecf8>
 4c8:	0f0f1137          	lui	sp,0xf0f1
 4cc:	f0f10113          	addi	sp,sp,-241 # f0f0f0f <__global_pointer$+0xf0efd07>
 4d0:	0020cf33          	xor	t5,ra,sp
 4d4:	00120213          	addi	tp,tp,1 # 1 <CL_SIZE-0x1f>
 4d8:	00200293          	li	t0,2
 4dc:	fe5212e3          	bne	tp,t0,4c0 <test_12+0x4>
 4e0:	f00ffeb7          	lui	t4,0xf00ff
 4e4:	00fe8e93          	addi	t4,t4,15 # f00ff00f <__global_pointer$+0xf00fde07>
 4e8:	00c00193          	li	gp,12
 4ec:	00000e17          	auipc	t3,0x0
 4f0:	434e0e13          	addi	t3,t3,1076 # 920 <begin_signature>
 4f4:	03ee2823          	sw	t5,48(t3)
 4f8:	3bdf1063          	bne	t5,t4,898 <fail>

000004fc <test_13>:
 4fc:	00000213          	li	tp,0
 500:	0ff010b7          	lui	ra,0xff01
 504:	ff008093          	addi	ra,ra,-16 # ff00ff0 <__global_pointer$+0xfeffde8>
 508:	f0f0f137          	lui	sp,0xf0f0f
 50c:	0f010113          	addi	sp,sp,240 # f0f0f0f0 <__global_pointer$+0xf0f0dee8>
 510:	00000013          	nop
 514:	0020cf33          	xor	t5,ra,sp
 518:	00120213          	addi	tp,tp,1 # 1 <CL_SIZE-0x1f>
 51c:	00200293          	li	t0,2
 520:	fe5210e3          	bne	tp,t0,500 <test_13+0x4>
 524:	ff010eb7          	lui	t4,0xff010
 528:	f00e8e93          	addi	t4,t4,-256 # ff00ff00 <__global_pointer$+0xff00ecf8>
 52c:	00d00193          	li	gp,13
 530:	00000e17          	auipc	t3,0x0
 534:	3f0e0e13          	addi	t3,t3,1008 # 920 <begin_signature>
 538:	03ee2a23          	sw	t5,52(t3)
 53c:	35df1e63          	bne	t5,t4,898 <fail>

00000540 <test_14>:
 540:	00000213          	li	tp,0
 544:	00ff00b7          	lui	ra,0xff0
 548:	0ff08093          	addi	ra,ra,255 # ff00ff <__global_pointer$+0xfeeef7>
 54c:	0f0f1137          	lui	sp,0xf0f1
 550:	f0f10113          	addi	sp,sp,-241 # f0f0f0f <__global_pointer$+0xf0efd07>
 554:	00000013          	nop
 558:	00000013          	nop
 55c:	0020cf33          	xor	t5,ra,sp
 560:	00120213          	addi	tp,tp,1 # 1 <CL_SIZE-0x1f>
 564:	00200293          	li	t0,2
 568:	fc521ee3          	bne	tp,t0,544 <test_14+0x4>
 56c:	0ff01eb7          	lui	t4,0xff01
 570:	ff0e8e93          	addi	t4,t4,-16 # ff00ff0 <__global_pointer$+0xfeffde8>
 574:	00e00193          	li	gp,14
 578:	00000e17          	auipc	t3,0x0
 57c:	3a8e0e13          	addi	t3,t3,936 # 920 <begin_signature>
 580:	03ee2c23          	sw	t5,56(t3)
 584:	31df1a63          	bne	t5,t4,898 <fail>

00000588 <test_15>:
 588:	00000213          	li	tp,0
 58c:	ff0100b7          	lui	ra,0xff010
 590:	f0008093          	addi	ra,ra,-256 # ff00ff00 <__global_pointer$+0xff00ecf8>
 594:	00000013          	nop
 598:	0f0f1137          	lui	sp,0xf0f1
 59c:	f0f10113          	addi	sp,sp,-241 # f0f0f0f <__global_pointer$+0xf0efd07>
 5a0:	0020cf33          	xor	t5,ra,sp
 5a4:	00120213          	addi	tp,tp,1 # 1 <CL_SIZE-0x1f>
 5a8:	00200293          	li	t0,2
 5ac:	fe5210e3          	bne	tp,t0,58c <test_15+0x4>
 5b0:	f00ffeb7          	lui	t4,0xf00ff
 5b4:	00fe8e93          	addi	t4,t4,15 # f00ff00f <__global_pointer$+0xf00fde07>
 5b8:	00f00193          	li	gp,15
 5bc:	00000e17          	auipc	t3,0x0
 5c0:	364e0e13          	addi	t3,t3,868 # 920 <begin_signature>
 5c4:	03ee2e23          	sw	t5,60(t3)
 5c8:	2ddf1863          	bne	t5,t4,898 <fail>

000005cc <test_16>:
 5cc:	00000213          	li	tp,0
 5d0:	0ff010b7          	lui	ra,0xff01
 5d4:	ff008093          	addi	ra,ra,-16 # ff00ff0 <__global_pointer$+0xfeffde8>
 5d8:	00000013          	nop
 5dc:	f0f0f137          	lui	sp,0xf0f0f
 5e0:	0f010113          	addi	sp,sp,240 # f0f0f0f0 <__global_pointer$+0xf0f0dee8>
 5e4:	00000013          	nop
 5e8:	0020cf33          	xor	t5,ra,sp
 5ec:	00120213          	addi	tp,tp,1 # 1 <CL_SIZE-0x1f>
 5f0:	00200293          	li	t0,2
 5f4:	fc521ee3          	bne	tp,t0,5d0 <test_16+0x4>
 5f8:	ff010eb7          	lui	t4,0xff010
 5fc:	f00e8e93          	addi	t4,t4,-256 # ff00ff00 <__global_pointer$+0xff00ecf8>
 600:	01000193          	li	gp,16
 604:	00000e17          	auipc	t3,0x0
 608:	31ce0e13          	addi	t3,t3,796 # 920 <begin_signature>
 60c:	05ee2023          	sw	t5,64(t3)
 610:	29df1463          	bne	t5,t4,898 <fail>

00000614 <test_17>:
 614:	00000213          	li	tp,0
 618:	00ff00b7          	lui	ra,0xff0
 61c:	0ff08093          	addi	ra,ra,255 # ff00ff <__global_pointer$+0xfeeef7>
 620:	00000013          	nop
 624:	00000013          	nop
 628:	0f0f1137          	lui	sp,0xf0f1
 62c:	f0f10113          	addi	sp,sp,-241 # f0f0f0f <__global_pointer$+0xf0efd07>
 630:	0020cf33          	xor	t5,ra,sp
 634:	00120213          	addi	tp,tp,1 # 1 <CL_SIZE-0x1f>
 638:	00200293          	li	t0,2
 63c:	fc521ee3          	bne	tp,t0,618 <test_17+0x4>
 640:	0ff01eb7          	lui	t4,0xff01
 644:	ff0e8e93          	addi	t4,t4,-16 # ff00ff0 <__global_pointer$+0xfeffde8>
 648:	01100193          	li	gp,17
 64c:	00000e17          	auipc	t3,0x0
 650:	2d4e0e13          	addi	t3,t3,724 # 920 <begin_signature>
 654:	05ee2223          	sw	t5,68(t3)
 658:	25df1063          	bne	t5,t4,898 <fail>

0000065c <test_18>:
 65c:	00000213          	li	tp,0
 660:	0f0f1137          	lui	sp,0xf0f1
 664:	f0f10113          	addi	sp,sp,-241 # f0f0f0f <__global_pointer$+0xf0efd07>
 668:	ff0100b7          	lui	ra,0xff010
 66c:	f0008093          	addi	ra,ra,-256 # ff00ff00 <__global_pointer$+0xff00ecf8>
 670:	0020cf33          	xor	t5,ra,sp
 674:	00120213          	addi	tp,tp,1 # 1 <CL_SIZE-0x1f>
 678:	00200293          	li	t0,2
 67c:	fe5212e3          	bne	tp,t0,660 <test_18+0x4>
 680:	f00ffeb7          	lui	t4,0xf00ff
 684:	00fe8e93          	addi	t4,t4,15 # f00ff00f <__global_pointer$+0xf00fde07>
 688:	01200193          	li	gp,18
 68c:	00000e17          	auipc	t3,0x0
 690:	294e0e13          	addi	t3,t3,660 # 920 <begin_signature>
 694:	05ee2423          	sw	t5,72(t3)
 698:	21df1063          	bne	t5,t4,898 <fail>

0000069c <test_19>:
 69c:	00000213          	li	tp,0
 6a0:	f0f0f137          	lui	sp,0xf0f0f
 6a4:	0f010113          	addi	sp,sp,240 # f0f0f0f0 <__global_pointer$+0xf0f0dee8>
 6a8:	0ff010b7          	lui	ra,0xff01
 6ac:	ff008093          	addi	ra,ra,-16 # ff00ff0 <__global_pointer$+0xfeffde8>
 6b0:	00000013          	nop
 6b4:	0020cf33          	xor	t5,ra,sp
 6b8:	00120213          	addi	tp,tp,1 # 1 <CL_SIZE-0x1f>
 6bc:	00200293          	li	t0,2
 6c0:	fe5210e3          	bne	tp,t0,6a0 <test_19+0x4>
 6c4:	ff010eb7          	lui	t4,0xff010
 6c8:	f00e8e93          	addi	t4,t4,-256 # ff00ff00 <__global_pointer$+0xff00ecf8>
 6cc:	01300193          	li	gp,19
 6d0:	00000e17          	auipc	t3,0x0
 6d4:	250e0e13          	addi	t3,t3,592 # 920 <begin_signature>
 6d8:	05ee2623          	sw	t5,76(t3)
 6dc:	1bdf1e63          	bne	t5,t4,898 <fail>

000006e0 <test_20>:
 6e0:	00000213          	li	tp,0
 6e4:	0f0f1137          	lui	sp,0xf0f1
 6e8:	f0f10113          	addi	sp,sp,-241 # f0f0f0f <__global_pointer$+0xf0efd07>
 6ec:	00ff00b7          	lui	ra,0xff0
 6f0:	0ff08093          	addi	ra,ra,255 # ff00ff <__global_pointer$+0xfeeef7>
 6f4:	00000013          	nop
 6f8:	00000013          	nop
 6fc:	0020cf33          	xor	t5,ra,sp
 700:	00120213          	addi	tp,tp,1 # 1 <CL_SIZE-0x1f>
 704:	00200293          	li	t0,2
 708:	fc521ee3          	bne	tp,t0,6e4 <test_20+0x4>
 70c:	0ff01eb7          	lui	t4,0xff01
 710:	ff0e8e93          	addi	t4,t4,-16 # ff00ff0 <__global_pointer$+0xfeffde8>
 714:	01400193          	li	gp,20
 718:	00000e17          	auipc	t3,0x0
 71c:	208e0e13          	addi	t3,t3,520 # 920 <begin_signature>
 720:	05ee2823          	sw	t5,80(t3)
 724:	17df1a63          	bne	t5,t4,898 <fail>

00000728 <test_21>:
 728:	00000213          	li	tp,0
 72c:	0f0f1137          	lui	sp,0xf0f1
 730:	f0f10113          	addi	sp,sp,-241 # f0f0f0f <__global_pointer$+0xf0efd07>
 734:	00000013          	nop
 738:	ff0100b7          	lui	ra,0xff010
 73c:	f0008093          	addi	ra,ra,-256 # ff00ff00 <__global_pointer$+0xff00ecf8>
 740:	0020cf33          	xor	t5,ra,sp
 744:	00120213          	addi	tp,tp,1 # 1 <CL_SIZE-0x1f>
 748:	00200293          	li	t0,2
 74c:	fe5210e3          	bne	tp,t0,72c <test_21+0x4>
 750:	f00ffeb7          	lui	t4,0xf00ff
 754:	00fe8e93          	addi	t4,t4,15 # f00ff00f <__global_pointer$+0xf00fde07>
 758:	01500193          	li	gp,21
 75c:	00000e17          	auipc	t3,0x0
 760:	1c4e0e13          	addi	t3,t3,452 # 920 <begin_signature>
 764:	05ee2a23          	sw	t5,84(t3)
 768:	13df1863          	bne	t5,t4,898 <fail>

0000076c <test_22>:
 76c:	00000213          	li	tp,0
 770:	f0f0f137          	lui	sp,0xf0f0f
 774:	0f010113          	addi	sp,sp,240 # f0f0f0f0 <__global_pointer$+0xf0f0dee8>
 778:	00000013          	nop
 77c:	0ff010b7          	lui	ra,0xff01
 780:	ff008093          	addi	ra,ra,-16 # ff00ff0 <__global_pointer$+0xfeffde8>
 784:	00000013          	nop
 788:	0020cf33          	xor	t5,ra,sp
 78c:	00120213          	addi	tp,tp,1 # 1 <CL_SIZE-0x1f>
 790:	00200293          	li	t0,2
 794:	fc521ee3          	bne	tp,t0,770 <test_22+0x4>
 798:	ff010eb7          	lui	t4,0xff010
 79c:	f00e8e93          	addi	t4,t4,-256 # ff00ff00 <__global_pointer$+0xff00ecf8>
 7a0:	01600193          	li	gp,22
 7a4:	00000e17          	auipc	t3,0x0
 7a8:	17ce0e13          	addi	t3,t3,380 # 920 <begin_signature>
 7ac:	05ee2c23          	sw	t5,88(t3)
 7b0:	0fdf1463          	bne	t5,t4,898 <fail>

000007b4 <test_23>:
 7b4:	00000213          	li	tp,0
 7b8:	0f0f1137          	lui	sp,0xf0f1
 7bc:	f0f10113          	addi	sp,sp,-241 # f0f0f0f <__global_pointer$+0xf0efd07>
 7c0:	00000013          	nop
 7c4:	00000013          	nop
 7c8:	00ff00b7          	lui	ra,0xff0
 7cc:	0ff08093          	addi	ra,ra,255 # ff00ff <__global_pointer$+0xfeeef7>
 7d0:	0020cf33          	xor	t5,ra,sp
 7d4:	00120213          	addi	tp,tp,1 # 1 <CL_SIZE-0x1f>
 7d8:	00200293          	li	t0,2
 7dc:	fc521ee3          	bne	tp,t0,7b8 <test_23+0x4>
 7e0:	0ff01eb7          	lui	t4,0xff01
 7e4:	ff0e8e93          	addi	t4,t4,-16 # ff00ff0 <__global_pointer$+0xfeffde8>
 7e8:	01700193          	li	gp,23
 7ec:	00000e17          	auipc	t3,0x0
 7f0:	134e0e13          	addi	t3,t3,308 # 920 <begin_signature>
 7f4:	05ee2e23          	sw	t5,92(t3)
 7f8:	0bdf1063          	bne	t5,t4,898 <fail>

000007fc <test_24>:
 7fc:	ff0100b7          	lui	ra,0xff010
 800:	f0008093          	addi	ra,ra,-256 # ff00ff00 <__global_pointer$+0xff00ecf8>
 804:	00104133          	xor	sp,zero,ra
 808:	ff010eb7          	lui	t4,0xff010
 80c:	f00e8e93          	addi	t4,t4,-256 # ff00ff00 <__global_pointer$+0xff00ecf8>
 810:	01800193          	li	gp,24
 814:	00000e17          	auipc	t3,0x0
 818:	10ce0e13          	addi	t3,t3,268 # 920 <begin_signature>
 81c:	062e2023          	sw	sp,96(t3)
 820:	07d11c63          	bne	sp,t4,898 <fail>

00000824 <test_25>:
 824:	00ff00b7          	lui	ra,0xff0
 828:	0ff08093          	addi	ra,ra,255 # ff00ff <__global_pointer$+0xfeeef7>
 82c:	0000c133          	xor	sp,ra,zero
 830:	00ff0eb7          	lui	t4,0xff0
 834:	0ffe8e93          	addi	t4,t4,255 # ff00ff <__global_pointer$+0xfeeef7>
 838:	01900193          	li	gp,25
 83c:	00000e17          	auipc	t3,0x0
 840:	0e4e0e13          	addi	t3,t3,228 # 920 <begin_signature>
 844:	062e2223          	sw	sp,100(t3)
 848:	05d11863          	bne	sp,t4,898 <fail>

0000084c <test_26>:
 84c:	000040b3          	xor	ra,zero,zero
 850:	00000e93          	li	t4,0
 854:	01a00193          	li	gp,26
 858:	00000e17          	auipc	t3,0x0
 85c:	0c8e0e13          	addi	t3,t3,200 # 920 <begin_signature>
 860:	061e2423          	sw	ra,104(t3)
 864:	03d09a63          	bne	ra,t4,898 <fail>

00000868 <test_27>:
 868:	111110b7          	lui	ra,0x11111
 86c:	11108093          	addi	ra,ra,273 # 11111111 <__global_pointer$+0x1110ff09>
 870:	22222137          	lui	sp,0x22222
 874:	22210113          	addi	sp,sp,546 # 22222222 <__global_pointer$+0x2222101a>
 878:	0020c033          	xor	zero,ra,sp
 87c:	00000e93          	li	t4,0
 880:	01b00193          	li	gp,27
 884:	00000e17          	auipc	t3,0x0
 888:	09ce0e13          	addi	t3,t3,156 # 920 <begin_signature>
 88c:	060e2623          	sw	zero,108(t3)
 890:	01d01463          	bne	zero,t4,898 <fail>
 894:	00301a63          	bne	zero,gp,8a8 <pass>

00000898 <fail>:
 898:	0ff0000f          	fence
 89c:	00018593          	mv	a1,gp
 8a0:	00100513          	li	a0,1
 8a4:	00000073          	ecall

000008a8 <pass>:
 8a8:	0ff0000f          	fence
 8ac:	00018593          	mv	a1,gp
 8b0:	00000513          	li	a0,0
 8b4:	00000073          	ecall

000008b8 <ecall>:
 8b8:	00000073          	ecall
 8bc:	0000                	unimp
	...

000008c0 <sc_exit>:
 8c0:	835ff06f          	j	f4 <SIM_EXIT>
 8c4:	00000013          	nop
 8c8:	00000013          	nop
 8cc:	00000013          	nop
 8d0:	00000013          	nop
 8d4:	00000013          	nop
 8d8:	00000013          	nop
 8dc:	00000013          	nop
	...

Дизассемблирование раздела .data:

00000900 <begin_regstate>:
	...

00000920 <begin_signature>:
 920:	ffff                	0xffff
 922:	ffff                	0xffff
 924:	ffff                	0xffff
 926:	ffff                	0xffff
 928:	ffff                	0xffff
 92a:	ffff                	0xffff
 92c:	ffff                	0xffff
 92e:	ffff                	0xffff
 930:	ffff                	0xffff
 932:	ffff                	0xffff
 934:	ffff                	0xffff
 936:	ffff                	0xffff
 938:	ffff                	0xffff
 93a:	ffff                	0xffff
 93c:	ffff                	0xffff
 93e:	ffff                	0xffff
 940:	ffff                	0xffff
 942:	ffff                	0xffff
 944:	ffff                	0xffff
 946:	ffff                	0xffff
 948:	ffff                	0xffff
 94a:	ffff                	0xffff
 94c:	ffff                	0xffff
 94e:	ffff                	0xffff
 950:	ffff                	0xffff
 952:	ffff                	0xffff
 954:	ffff                	0xffff
 956:	ffff                	0xffff
 958:	ffff                	0xffff
 95a:	ffff                	0xffff
 95c:	ffff                	0xffff
 95e:	ffff                	0xffff
 960:	ffff                	0xffff
 962:	ffff                	0xffff
 964:	ffff                	0xffff
 966:	ffff                	0xffff
 968:	ffff                	0xffff
 96a:	ffff                	0xffff
 96c:	ffff                	0xffff
 96e:	ffff                	0xffff
 970:	ffff                	0xffff
 972:	ffff                	0xffff
 974:	ffff                	0xffff
 976:	ffff                	0xffff
 978:	ffff                	0xffff
 97a:	ffff                	0xffff
 97c:	ffff                	0xffff
 97e:	ffff                	0xffff
 980:	ffff                	0xffff
 982:	ffff                	0xffff
 984:	ffff                	0xffff
 986:	ffff                	0xffff
 988:	ffff                	0xffff
 98a:	ffff                	0xffff
 98c:	ffff                	0xffff
 98e:	ffff                	0xffff
 990:	ffff                	0xffff
 992:	ffff                	0xffff
 994:	ffff                	0xffff
 996:	ffff                	0xffff
 998:	ffff                	0xffff
 99a:	ffff                	0xffff
 99c:	ffff                	0xffff
 99e:	ffff                	0xffff
 9a0:	ffff                	0xffff
 9a2:	ffff                	0xffff
 9a4:	ffff                	0xffff
 9a6:	ffff                	0xffff
 9a8:	ffff                	0xffff
 9aa:	ffff                	0xffff
 9ac:	ffff                	0xffff
 9ae:	ffff                	0xffff
 9b0:	ffff                	0xffff
 9b2:	ffff                	0xffff
 9b4:	ffff                	0xffff
 9b6:	ffff                	0xffff
 9b8:	ffff                	0xffff
 9ba:	ffff                	0xffff
 9bc:	ffff                	0xffff
 9be:	ffff                	0xffff

Дизассемблирование раздела .tohost:

000009c0 <tohost>:
	...

00000a00 <fromhost>:
	...

Дизассемблирование раздела .sdata:

00000a08 <__global_pointer$-0x800>:
	...

Дизассемблирование раздела .stack:

0000fc00 <.stack>:
	...
