
/home/oleg/scr1/build/verilator_wf_AHB_IMC/compliance_I-SRL-01.elf:     формат файла elf32-littleriscv
/home/oleg/scr1/build/verilator_wf_AHB_IMC/compliance_I-SRL-01.elf
архитектура: riscv:rv32, флаги 0x00000112:
EXEC_P, HAS_SYMS, D_PAGED
начальный адрес 0x00000200

Заголовок программы:
    LOAD off    0x00001000 vaddr 0x00000000 paddr 0x00000000 align 2**12
         filesz 0x00001048 memsz 0x00001060 flags rwx
    LOAD off    0x00002c00 vaddr 0x0000fc00 paddr 0x0000fc00 align 2**12
         filesz 0x00000000 memsz 0x00000400 flags rw-

Разделы:
Idx Name          Size      VMA       LMA       File off  Algn  Флаги
  0 .text.init    00000284  00000000  00000000  00001000  2**6  CONTENTS, ALLOC, LOAD, READONLY, CODE
  1 .text         00000880  000002a0  000002a0  000012a0  2**5  CONTENTS, ALLOC, LOAD, READONLY, CODE
  2 .data         000004c0  00000b20  00000b20  00001b20  2**4  CONTENTS, ALLOC, LOAD, DATA
  3 .tohost       00000048  00001000  00001000  00002000  2**6  CONTENTS, ALLOC, LOAD, DATA
  4 .sdata        00000018  00001048  00001048  00002048  2**0  ALLOC
  5 .tdata        00000000  00001060  00001060  00002048  2**0  CONTENTS, ALLOC, LOAD, DATA, THREAD_LOCAL
  6 .tbss         00000000  00001060  00001060  00000000  2**0  ALLOC, THREAD_LOCAL
  7 .bss          00000000  00001060  00001060  00002048  2**0  ALLOC
  8 .stack        00000400  0000fc00  0000fc00  00002c00  2**0  ALLOC
SYMBOL TABLE:
00000000 l    d  .text.init	00000000 .text.init
000002a0 l    d  .text	00000000 .text
00000b20 l    d  .data	00000000 .data
00001000 l    d  .tohost	00000000 .tohost
00001048 l    d  .sdata	00000000 .sdata
00001060 l    d  .tdata	00000000 .tdata
00001060 l    d  .tbss	00000000 .tbss
00001060 l    d  .bss	00000000 .bss
0000fc00 l    d  .stack	00000000 .stack
00000000 l    df *ABS*	00000000 /home/oleg/scr1/build/verilator_wf_AHB_IMC/riscv_compliance/riscv_compliance_objs/I-SRL-01.o
00000ae0 l       .text	00000000 sc_exit
000001c0 l       .text.init	00000000 trap_vector
000001fc l       .text.init	00000000 _report
000001f8 l       .text.init	00000000 handle_exception
000001f8 l       .text.init	00000000 other_exception
000002a0 l       .text	00000000 _run_test
00000b20 l       .data	00000000 test_A1_data
00000b70 l       .data	00000000 test_A1_res
00000b24 l       .data	00000000 test_A2_data
00000b88 l       .data	00000000 test_A2_res
00000b28 l       .data	00000000 test_A3_data
00000ba0 l       .data	00000000 test_A3_res
00000b2c l       .data	00000000 test_A4_data
00000bb8 l       .data	00000000 test_A4_res
00000b30 l       .data	00000000 test_A5_data
00000bd0 l       .data	00000000 test_A5_res
00000b34 l       .data	00000000 test_B_data
00000be8 l       .data	00000000 test_B_res
00000b38 l       .data	00000000 test_C_data
00000c04 l       .data	00000000 test_C_res
00000b3c l       .data	00000000 test_D_data
00000c08 l       .data	00000000 test_D_res
00000b40 l       .data	00000000 test_E_data
00000c10 l       .data	00000000 test_E_res
00000acc l       .text	00000000 ecall
00000400 g       *ABS*	00000000 STACK_SIZE
00001848 g       .sdata	00000000 __global_pointer$
00000c20 g       .data	00000000 end_signature
00000b50 g       .data	00000000 begin_regstate
00000b70 g       .data	00000000 begin_signature
00000200 g       .text.init	00000000 _start
00000020 g       *ABS*	00000000 CL_SIZE
000000f8 g       .text.init	00000000 SIM_STOP
00001060 g       .bss	00000000 _end
00001040 g       .tohost	00000000 fromhost
00001000 g       .tohost	00000000 tohost
000000f4 g       .text.init	00000000 SIM_EXIT



Дизассемблирование раздела .text.init:

00000000 <SIM_EXIT-0xf4>:
	...

000000f4 <SIM_EXIT>:
  f4:	00000013          	nop

000000f8 <SIM_STOP>:
  f8:	0000006f          	j	f8 <SIM_STOP>
  fc:	ffff                	0xffff
  fe:	ffff                	0xffff
	...

000001c0 <trap_vector>:
 1c0:	34202773          	csrr	a4,mcause
 1c4:	00800793          	li	a5,8
 1c8:	02f70a63          	beq	a4,a5,1fc <_report>
 1cc:	00900793          	li	a5,9
 1d0:	02f70663          	beq	a4,a5,1fc <_report>
 1d4:	00b00793          	li	a5,11
 1d8:	02f70263          	beq	a4,a5,1fc <_report>
 1dc:	00000717          	auipc	a4,0x0
 1e0:	e2470713          	addi	a4,a4,-476 # 0 <CL_SIZE-0x20>
 1e4:	00070463          	beqz	a4,1ec <trap_vector+0x2c>
 1e8:	00070067          	jr	a4
 1ec:	34202773          	csrr	a4,mcause
 1f0:	00075463          	bgez	a4,1f8 <handle_exception>
 1f4:	0040006f          	j	1f8 <handle_exception>

000001f8 <handle_exception>:
 1f8:	00100513          	li	a0,1

000001fc <_report>:
 1fc:	0e50006f          	j	ae0 <sc_exit>

00000200 <_start>:
 200:	f1402573          	csrr	a0,mhartid
 204:	00051063          	bnez	a0,204 <_start+0x4>
 208:	00000e13          	li	t3,0
 20c:	00000297          	auipc	t0,0x0
 210:	fb428293          	addi	t0,t0,-76 # 1c0 <trap_vector>
 214:	30529073          	csrw	mtvec,t0
 218:	00100513          	li	a0,1
 21c:	01f51513          	slli	a0,a0,0x1f
 220:	00054a63          	bltz	a0,234 <_start+0x34>
 224:	0ff0000f          	fence
 228:	000e0593          	mv	a1,t3
 22c:	00000513          	li	a0,0
 230:	00000073          	ecall
 234:	00000297          	auipc	t0,0x0
 238:	dcc28293          	addi	t0,t0,-564 # 0 <CL_SIZE-0x20>
 23c:	00028e63          	beqz	t0,258 <_start+0x58>
 240:	10529073          	csrw	stvec,t0
 244:	0000b2b7          	lui	t0,0xb
 248:	10928293          	addi	t0,t0,265 # b109 <__global_pointer$+0x98c1>
 24c:	30229073          	csrw	medeleg,t0
 250:	30202373          	csrr	t1,medeleg
 254:	fa6292e3          	bne	t0,t1,1f8 <handle_exception>
 258:	30005073          	csrwi	mstatus,0
 25c:	00002537          	lui	a0,0x2
 260:	80050513          	addi	a0,a0,-2048 # 1800 <_end+0x7a0>
 264:	30052073          	csrs	mstatus,a0
 268:	00000297          	auipc	t0,0x0
 26c:	03828293          	addi	t0,t0,56 # 2a0 <_run_test>
 270:	34129073          	csrw	mepc,t0
 274:	f1402573          	csrr	a0,mhartid
 278:	30200073          	mret
	...

Дизассемблирование раздела .text:

000002a0 <_run_test>:
 2a0:	00001f97          	auipc	t6,0x1
 2a4:	8b0f8f93          	addi	t6,t6,-1872 # b50 <begin_regstate>
 2a8:	003fa023          	sw	gp,0(t6)
 2ac:	004fa223          	sw	tp,4(t6)
 2b0:	005fa423          	sw	t0,8(t6)
 2b4:	f00001b7          	lui	gp,0xf0000
 2b8:	00001217          	auipc	tp,0x1
 2bc:	96820213          	addi	tp,tp,-1688 # c20 <end_signature>
 2c0:	00020283          	lb	t0,0(tp) # 0 <CL_SIZE-0x20>
 2c4:	00518023          	sb	t0,0(gp) # f0000000 <__global_pointer$+0xefffe7b8>
 2c8:	00028663          	beqz	t0,2d4 <_run_test+0x34>
 2cc:	00120213          	addi	tp,tp,1 # 1 <CL_SIZE-0x1f>
 2d0:	ff1ff06f          	j	2c0 <_run_test+0x20>
 2d4:	00001f97          	auipc	t6,0x1
 2d8:	87cf8f93          	addi	t6,t6,-1924 # b50 <begin_regstate>
 2dc:	000fa183          	lw	gp,0(t6)
 2e0:	004fa203          	lw	tp,4(t6)
 2e4:	008fa283          	lw	t0,8(t6)
 2e8:	00001f97          	auipc	t6,0x1
 2ec:	868f8f93          	addi	t6,t6,-1944 # b50 <begin_regstate>
 2f0:	003fa023          	sw	gp,0(t6)
 2f4:	004fa223          	sw	tp,4(t6)
 2f8:	005fa423          	sw	t0,8(t6)
 2fc:	f00001b7          	lui	gp,0xf0000
 300:	00001217          	auipc	tp,0x1
 304:	92e20213          	addi	tp,tp,-1746 # c2e <end_signature+0xe>
 308:	00020283          	lb	t0,0(tp) # 0 <CL_SIZE-0x20>
 30c:	00518023          	sb	t0,0(gp) # f0000000 <__global_pointer$+0xefffe7b8>
 310:	00028663          	beqz	t0,31c <_run_test+0x7c>
 314:	00120213          	addi	tp,tp,1 # 1 <CL_SIZE-0x1f>
 318:	ff1ff06f          	j	308 <_run_test+0x68>
 31c:	00001f97          	auipc	t6,0x1
 320:	834f8f93          	addi	t6,t6,-1996 # b50 <begin_regstate>
 324:	000fa183          	lw	gp,0(t6)
 328:	004fa203          	lw	tp,4(t6)
 32c:	008fa283          	lw	t0,8(t6)
 330:	00000097          	auipc	ra,0x0
 334:	7f008093          	addi	ra,ra,2032 # b20 <test_A1_data>
 338:	00001117          	auipc	sp,0x1
 33c:	83810113          	addi	sp,sp,-1992 # b70 <begin_signature>
 340:	0000a183          	lw	gp,0(ra)
 344:	00100213          	li	tp,1
 348:	00f00293          	li	t0,15
 34c:	01f00313          	li	t1,31
 350:	00000393          	li	t2,0
 354:	01000413          	li	s0,16
 358:	0041d233          	srl	tp,gp,tp
 35c:	0051d2b3          	srl	t0,gp,t0
 360:	0061d333          	srl	t1,gp,t1
 364:	0071d3b3          	srl	t2,gp,t2
 368:	0081d433          	srl	s0,gp,s0
 36c:	00312023          	sw	gp,0(sp)
 370:	00412223          	sw	tp,4(sp)
 374:	00512423          	sw	t0,8(sp)
 378:	00612623          	sw	t1,12(sp)
 37c:	00712823          	sw	t2,16(sp)
 380:	00812a23          	sw	s0,20(sp)
 384:	00000f97          	auipc	t6,0x0
 388:	7ccf8f93          	addi	t6,t6,1996 # b50 <begin_regstate>
 38c:	003fa023          	sw	gp,0(t6)
 390:	004fa223          	sw	tp,4(t6)
 394:	005fa423          	sw	t0,8(t6)
 398:	f00001b7          	lui	gp,0xf0000
 39c:	00001217          	auipc	tp,0x1
 3a0:	8eb20213          	addi	tp,tp,-1813 # c87 <end_signature+0x67>
 3a4:	00020283          	lb	t0,0(tp) # 0 <CL_SIZE-0x20>
 3a8:	00518023          	sb	t0,0(gp) # f0000000 <__global_pointer$+0xefffe7b8>
 3ac:	00028663          	beqz	t0,3b8 <_run_test+0x118>
 3b0:	00120213          	addi	tp,tp,1 # 1 <CL_SIZE-0x1f>
 3b4:	ff1ff06f          	j	3a4 <_run_test+0x104>
 3b8:	00000f97          	auipc	t6,0x0
 3bc:	798f8f93          	addi	t6,t6,1944 # b50 <begin_regstate>
 3c0:	000fa183          	lw	gp,0(t6)
 3c4:	004fa203          	lw	tp,4(t6)
 3c8:	008fa283          	lw	t0,8(t6)
 3cc:	00000f97          	auipc	t6,0x0
 3d0:	784f8f93          	addi	t6,t6,1924 # b50 <begin_regstate>
 3d4:	003fa023          	sw	gp,0(t6)
 3d8:	004fa223          	sw	tp,4(t6)
 3dc:	005fa423          	sw	t0,8(t6)
 3e0:	f00001b7          	lui	gp,0xf0000
 3e4:	00001217          	auipc	tp,0x1
 3e8:	8bf20213          	addi	tp,tp,-1857 # ca3 <end_signature+0x83>
 3ec:	00020283          	lb	t0,0(tp) # 0 <CL_SIZE-0x20>
 3f0:	00518023          	sb	t0,0(gp) # f0000000 <__global_pointer$+0xefffe7b8>
 3f4:	00028663          	beqz	t0,400 <STACK_SIZE>
 3f8:	00120213          	addi	tp,tp,1 # 1 <CL_SIZE-0x1f>
 3fc:	ff1ff06f          	j	3ec <_run_test+0x14c>
 400:	00000f97          	auipc	t6,0x0
 404:	750f8f93          	addi	t6,t6,1872 # b50 <begin_regstate>
 408:	000fa183          	lw	gp,0(t6)
 40c:	004fa203          	lw	tp,4(t6)
 410:	008fa283          	lw	t0,8(t6)
 414:	00000097          	auipc	ra,0x0
 418:	71008093          	addi	ra,ra,1808 # b24 <test_A2_data>
 41c:	00000117          	auipc	sp,0x0
 420:	76c10113          	addi	sp,sp,1900 # b88 <test_A2_res>
 424:	0000a403          	lw	s0,0(ra)
 428:	00100493          	li	s1,1
 42c:	00f00513          	li	a0,15
 430:	01f00593          	li	a1,31
 434:	00000613          	li	a2,0
 438:	01000693          	li	a3,16
 43c:	009454b3          	srl	s1,s0,s1
 440:	00a45533          	srl	a0,s0,a0
 444:	00b455b3          	srl	a1,s0,a1
 448:	00c45633          	srl	a2,s0,a2
 44c:	00d456b3          	srl	a3,s0,a3
 450:	00812023          	sw	s0,0(sp)
 454:	00912223          	sw	s1,4(sp)
 458:	00a12423          	sw	a0,8(sp)
 45c:	00b12623          	sw	a1,12(sp)
 460:	00c12823          	sw	a2,16(sp)
 464:	00d12a23          	sw	a3,20(sp)
 468:	00000f97          	auipc	t6,0x0
 46c:	6e8f8f93          	addi	t6,t6,1768 # b50 <begin_regstate>
 470:	003fa023          	sw	gp,0(t6)
 474:	004fa223          	sw	tp,4(t6)
 478:	005fa423          	sw	t0,8(t6)
 47c:	f00001b7          	lui	gp,0xf0000
 480:	00001217          	auipc	tp,0x1
 484:	87c20213          	addi	tp,tp,-1924 # cfc <end_signature+0xdc>
 488:	00020283          	lb	t0,0(tp) # 0 <CL_SIZE-0x20>
 48c:	00518023          	sb	t0,0(gp) # f0000000 <__global_pointer$+0xefffe7b8>
 490:	00028663          	beqz	t0,49c <STACK_SIZE+0x9c>
 494:	00120213          	addi	tp,tp,1 # 1 <CL_SIZE-0x1f>
 498:	ff1ff06f          	j	488 <STACK_SIZE+0x88>
 49c:	00000f97          	auipc	t6,0x0
 4a0:	6b4f8f93          	addi	t6,t6,1716 # b50 <begin_regstate>
 4a4:	000fa183          	lw	gp,0(t6)
 4a8:	004fa203          	lw	tp,4(t6)
 4ac:	008fa283          	lw	t0,8(t6)
 4b0:	00000f97          	auipc	t6,0x0
 4b4:	6a0f8f93          	addi	t6,t6,1696 # b50 <begin_regstate>
 4b8:	003fa023          	sw	gp,0(t6)
 4bc:	004fa223          	sw	tp,4(t6)
 4c0:	005fa423          	sw	t0,8(t6)
 4c4:	f00001b7          	lui	gp,0xf0000
 4c8:	00001217          	auipc	tp,0x1
 4cc:	85020213          	addi	tp,tp,-1968 # d18 <end_signature+0xf8>
 4d0:	00020283          	lb	t0,0(tp) # 0 <CL_SIZE-0x20>
 4d4:	00518023          	sb	t0,0(gp) # f0000000 <__global_pointer$+0xefffe7b8>
 4d8:	00028663          	beqz	t0,4e4 <STACK_SIZE+0xe4>
 4dc:	00120213          	addi	tp,tp,1 # 1 <CL_SIZE-0x1f>
 4e0:	ff1ff06f          	j	4d0 <STACK_SIZE+0xd0>
 4e4:	00000f97          	auipc	t6,0x0
 4e8:	66cf8f93          	addi	t6,t6,1644 # b50 <begin_regstate>
 4ec:	000fa183          	lw	gp,0(t6)
 4f0:	004fa203          	lw	tp,4(t6)
 4f4:	008fa283          	lw	t0,8(t6)
 4f8:	00000097          	auipc	ra,0x0
 4fc:	63008093          	addi	ra,ra,1584 # b28 <test_A3_data>
 500:	00000117          	auipc	sp,0x0
 504:	6a010113          	addi	sp,sp,1696 # ba0 <test_A3_res>
 508:	0000a683          	lw	a3,0(ra)
 50c:	00100713          	li	a4,1
 510:	00f00793          	li	a5,15
 514:	01f00813          	li	a6,31
 518:	00000893          	li	a7,0
 51c:	01000913          	li	s2,16
 520:	00e6d733          	srl	a4,a3,a4
 524:	00f6d7b3          	srl	a5,a3,a5
 528:	0106d833          	srl	a6,a3,a6
 52c:	0116d8b3          	srl	a7,a3,a7
 530:	0126d933          	srl	s2,a3,s2
 534:	00d12023          	sw	a3,0(sp)
 538:	00e12223          	sw	a4,4(sp)
 53c:	00f12423          	sw	a5,8(sp)
 540:	01012623          	sw	a6,12(sp)
 544:	01112823          	sw	a7,16(sp)
 548:	01212a23          	sw	s2,20(sp)
 54c:	00000f97          	auipc	t6,0x0
 550:	604f8f93          	addi	t6,t6,1540 # b50 <begin_regstate>
 554:	003fa023          	sw	gp,0(t6)
 558:	004fa223          	sw	tp,4(t6)
 55c:	005fa423          	sw	t0,8(t6)
 560:	f00001b7          	lui	gp,0xf0000
 564:	00001217          	auipc	tp,0x1
 568:	80e20213          	addi	tp,tp,-2034 # d72 <end_signature+0x152>
 56c:	00020283          	lb	t0,0(tp) # 0 <CL_SIZE-0x20>
 570:	00518023          	sb	t0,0(gp) # f0000000 <__global_pointer$+0xefffe7b8>
 574:	00028663          	beqz	t0,580 <STACK_SIZE+0x180>
 578:	00120213          	addi	tp,tp,1 # 1 <CL_SIZE-0x1f>
 57c:	ff1ff06f          	j	56c <STACK_SIZE+0x16c>
 580:	00000f97          	auipc	t6,0x0
 584:	5d0f8f93          	addi	t6,t6,1488 # b50 <begin_regstate>
 588:	000fa183          	lw	gp,0(t6)
 58c:	004fa203          	lw	tp,4(t6)
 590:	008fa283          	lw	t0,8(t6)
 594:	00000f97          	auipc	t6,0x0
 598:	5bcf8f93          	addi	t6,t6,1468 # b50 <begin_regstate>
 59c:	003fa023          	sw	gp,0(t6)
 5a0:	004fa223          	sw	tp,4(t6)
 5a4:	005fa423          	sw	t0,8(t6)
 5a8:	f00001b7          	lui	gp,0xf0000
 5ac:	00000217          	auipc	tp,0x0
 5b0:	7e220213          	addi	tp,tp,2018 # d8e <end_signature+0x16e>
 5b4:	00020283          	lb	t0,0(tp) # 0 <CL_SIZE-0x20>
 5b8:	00518023          	sb	t0,0(gp) # f0000000 <__global_pointer$+0xefffe7b8>
 5bc:	00028663          	beqz	t0,5c8 <STACK_SIZE+0x1c8>
 5c0:	00120213          	addi	tp,tp,1 # 1 <CL_SIZE-0x1f>
 5c4:	ff1ff06f          	j	5b4 <STACK_SIZE+0x1b4>
 5c8:	00000f97          	auipc	t6,0x0
 5cc:	588f8f93          	addi	t6,t6,1416 # b50 <begin_regstate>
 5d0:	000fa183          	lw	gp,0(t6)
 5d4:	004fa203          	lw	tp,4(t6)
 5d8:	008fa283          	lw	t0,8(t6)
 5dc:	00000617          	auipc	a2,0x0
 5e0:	55060613          	addi	a2,a2,1360 # b2c <test_A4_data>
 5e4:	00000697          	auipc	a3,0x0
 5e8:	5d468693          	addi	a3,a3,1492 # bb8 <test_A4_res>
 5ec:	00062903          	lw	s2,0(a2)
 5f0:	00100993          	li	s3,1
 5f4:	00f00a13          	li	s4,15
 5f8:	01f00a93          	li	s5,31
 5fc:	00000b13          	li	s6,0
 600:	01000b93          	li	s7,16
 604:	013959b3          	srl	s3,s2,s3
 608:	01495a33          	srl	s4,s2,s4
 60c:	01595ab3          	srl	s5,s2,s5
 610:	01695b33          	srl	s6,s2,s6
 614:	01795bb3          	srl	s7,s2,s7
 618:	0126a023          	sw	s2,0(a3)
 61c:	0136a223          	sw	s3,4(a3)
 620:	0146a423          	sw	s4,8(a3)
 624:	0156a623          	sw	s5,12(a3)
 628:	0166a823          	sw	s6,16(a3)
 62c:	0176aa23          	sw	s7,20(a3)
 630:	00000f97          	auipc	t6,0x0
 634:	520f8f93          	addi	t6,t6,1312 # b50 <begin_regstate>
 638:	003fa023          	sw	gp,0(t6)
 63c:	004fa223          	sw	tp,4(t6)
 640:	005fa423          	sw	t0,8(t6)
 644:	f00001b7          	lui	gp,0xf0000
 648:	00000217          	auipc	tp,0x0
 64c:	7a820213          	addi	tp,tp,1960 # df0 <end_signature+0x1d0>
 650:	00020283          	lb	t0,0(tp) # 0 <CL_SIZE-0x20>
 654:	00518023          	sb	t0,0(gp) # f0000000 <__global_pointer$+0xefffe7b8>
 658:	00028663          	beqz	t0,664 <STACK_SIZE+0x264>
 65c:	00120213          	addi	tp,tp,1 # 1 <CL_SIZE-0x1f>
 660:	ff1ff06f          	j	650 <STACK_SIZE+0x250>
 664:	00000f97          	auipc	t6,0x0
 668:	4ecf8f93          	addi	t6,t6,1260 # b50 <begin_regstate>
 66c:	000fa183          	lw	gp,0(t6)
 670:	004fa203          	lw	tp,4(t6)
 674:	008fa283          	lw	t0,8(t6)
 678:	00000f97          	auipc	t6,0x0
 67c:	4d8f8f93          	addi	t6,t6,1240 # b50 <begin_regstate>
 680:	003fa023          	sw	gp,0(t6)
 684:	004fa223          	sw	tp,4(t6)
 688:	005fa423          	sw	t0,8(t6)
 68c:	f00001b7          	lui	gp,0xf0000
 690:	00000217          	auipc	tp,0x0
 694:	77c20213          	addi	tp,tp,1916 # e0c <end_signature+0x1ec>
 698:	00020283          	lb	t0,0(tp) # 0 <CL_SIZE-0x20>
 69c:	00518023          	sb	t0,0(gp) # f0000000 <__global_pointer$+0xefffe7b8>
 6a0:	00028663          	beqz	t0,6ac <STACK_SIZE+0x2ac>
 6a4:	00120213          	addi	tp,tp,1 # 1 <CL_SIZE-0x1f>
 6a8:	ff1ff06f          	j	698 <STACK_SIZE+0x298>
 6ac:	00000f97          	auipc	t6,0x0
 6b0:	4a4f8f93          	addi	t6,t6,1188 # b50 <begin_regstate>
 6b4:	000fa183          	lw	gp,0(t6)
 6b8:	004fa203          	lw	tp,4(t6)
 6bc:	008fa283          	lw	t0,8(t6)
 6c0:	00000617          	auipc	a2,0x0
 6c4:	47060613          	addi	a2,a2,1136 # b30 <test_A5_data>
 6c8:	00000697          	auipc	a3,0x0
 6cc:	50868693          	addi	a3,a3,1288 # bd0 <test_A5_res>
 6d0:	00062b83          	lw	s7,0(a2)
 6d4:	00100c13          	li	s8,1
 6d8:	00f00c93          	li	s9,15
 6dc:	01f00d13          	li	s10,31
 6e0:	00000d93          	li	s11,0
 6e4:	01000e13          	li	t3,16
 6e8:	018bdc33          	srl	s8,s7,s8
 6ec:	019bdcb3          	srl	s9,s7,s9
 6f0:	01abdd33          	srl	s10,s7,s10
 6f4:	01bbddb3          	srl	s11,s7,s11
 6f8:	01cbde33          	srl	t3,s7,t3
 6fc:	0176a023          	sw	s7,0(a3)
 700:	0186a223          	sw	s8,4(a3)
 704:	0196a423          	sw	s9,8(a3)
 708:	01a6a623          	sw	s10,12(a3)
 70c:	01b6a823          	sw	s11,16(a3)
 710:	01c6aa23          	sw	t3,20(a3)
 714:	00000f97          	auipc	t6,0x0
 718:	43cf8f93          	addi	t6,t6,1084 # b50 <begin_regstate>
 71c:	003fa023          	sw	gp,0(t6)
 720:	004fa223          	sw	tp,4(t6)
 724:	005fa423          	sw	t0,8(t6)
 728:	f00001b7          	lui	gp,0xf0000
 72c:	00000217          	auipc	tp,0x0
 730:	74220213          	addi	tp,tp,1858 # e6e <end_signature+0x24e>
 734:	00020283          	lb	t0,0(tp) # 0 <CL_SIZE-0x20>
 738:	00518023          	sb	t0,0(gp) # f0000000 <__global_pointer$+0xefffe7b8>
 73c:	00028663          	beqz	t0,748 <STACK_SIZE+0x348>
 740:	00120213          	addi	tp,tp,1 # 1 <CL_SIZE-0x1f>
 744:	ff1ff06f          	j	734 <STACK_SIZE+0x334>
 748:	00000f97          	auipc	t6,0x0
 74c:	408f8f93          	addi	t6,t6,1032 # b50 <begin_regstate>
 750:	000fa183          	lw	gp,0(t6)
 754:	004fa203          	lw	tp,4(t6)
 758:	008fa283          	lw	t0,8(t6)
 75c:	00000f97          	auipc	t6,0x0
 760:	3f4f8f93          	addi	t6,t6,1012 # b50 <begin_regstate>
 764:	003fa023          	sw	gp,0(t6)
 768:	004fa223          	sw	tp,4(t6)
 76c:	005fa423          	sw	t0,8(t6)
 770:	f00001b7          	lui	gp,0xf0000
 774:	00000217          	auipc	tp,0x0
 778:	71620213          	addi	tp,tp,1814 # e8a <end_signature+0x26a>
 77c:	00020283          	lb	t0,0(tp) # 0 <CL_SIZE-0x20>
 780:	00518023          	sb	t0,0(gp) # f0000000 <__global_pointer$+0xefffe7b8>
 784:	00028663          	beqz	t0,790 <STACK_SIZE+0x390>
 788:	00120213          	addi	tp,tp,1 # 1 <CL_SIZE-0x1f>
 78c:	ff1ff06f          	j	77c <STACK_SIZE+0x37c>
 790:	00000f97          	auipc	t6,0x0
 794:	3c0f8f93          	addi	t6,t6,960 # b50 <begin_regstate>
 798:	000fa183          	lw	gp,0(t6)
 79c:	004fa203          	lw	tp,4(t6)
 7a0:	008fa283          	lw	t0,8(t6)
 7a4:	00000c97          	auipc	s9,0x0
 7a8:	390c8c93          	addi	s9,s9,912 # b34 <test_B_data>
 7ac:	00000d17          	auipc	s10,0x0
 7b0:	43cd0d13          	addi	s10,s10,1084 # be8 <test_B_res>
 7b4:	000cae03          	lw	t3,0(s9)
 7b8:	00100d93          	li	s11,1
 7bc:	01be5eb3          	srl	t4,t3,s11
 7c0:	01bedf33          	srl	t5,t4,s11
 7c4:	01bf5fb3          	srl	t6,t5,s11
 7c8:	01bfd0b3          	srl	ra,t6,s11
 7cc:	01b0d133          	srl	sp,ra,s11
 7d0:	01b151b3          	srl	gp,sp,s11
 7d4:	01cd2023          	sw	t3,0(s10)
 7d8:	01dd2223          	sw	t4,4(s10)
 7dc:	01ed2423          	sw	t5,8(s10)
 7e0:	01fd2623          	sw	t6,12(s10)
 7e4:	001d2823          	sw	ra,16(s10)
 7e8:	002d2a23          	sw	sp,20(s10)
 7ec:	003d2c23          	sw	gp,24(s10)
 7f0:	00000f97          	auipc	t6,0x0
 7f4:	360f8f93          	addi	t6,t6,864 # b50 <begin_regstate>
 7f8:	003fa023          	sw	gp,0(t6)
 7fc:	004fa223          	sw	tp,4(t6)
 800:	005fa423          	sw	t0,8(t6)
 804:	f00001b7          	lui	gp,0xf0000
 808:	00000217          	auipc	tp,0x0
 80c:	6bb20213          	addi	tp,tp,1723 # ec3 <end_signature+0x2a3>
 810:	00020283          	lb	t0,0(tp) # 0 <CL_SIZE-0x20>
 814:	00518023          	sb	t0,0(gp) # f0000000 <__global_pointer$+0xefffe7b8>
 818:	00028663          	beqz	t0,824 <STACK_SIZE+0x424>
 81c:	00120213          	addi	tp,tp,1 # 1 <CL_SIZE-0x1f>
 820:	ff1ff06f          	j	810 <STACK_SIZE+0x410>
 824:	00000f97          	auipc	t6,0x0
 828:	32cf8f93          	addi	t6,t6,812 # b50 <begin_regstate>
 82c:	000fa183          	lw	gp,0(t6)
 830:	004fa203          	lw	tp,4(t6)
 834:	008fa283          	lw	t0,8(t6)
 838:	00000f97          	auipc	t6,0x0
 83c:	318f8f93          	addi	t6,t6,792 # b50 <begin_regstate>
 840:	003fa023          	sw	gp,0(t6)
 844:	004fa223          	sw	tp,4(t6)
 848:	005fa423          	sw	t0,8(t6)
 84c:	f00001b7          	lui	gp,0xf0000
 850:	00000217          	auipc	tp,0x0
 854:	68e20213          	addi	tp,tp,1678 # ede <end_signature+0x2be>
 858:	00020283          	lb	t0,0(tp) # 0 <CL_SIZE-0x20>
 85c:	00518023          	sb	t0,0(gp) # f0000000 <__global_pointer$+0xefffe7b8>
 860:	00028663          	beqz	t0,86c <STACK_SIZE+0x46c>
 864:	00120213          	addi	tp,tp,1 # 1 <CL_SIZE-0x1f>
 868:	ff1ff06f          	j	858 <STACK_SIZE+0x458>
 86c:	00000f97          	auipc	t6,0x0
 870:	2e4f8f93          	addi	t6,t6,740 # b50 <begin_regstate>
 874:	000fa183          	lw	gp,0(t6)
 878:	004fa203          	lw	tp,4(t6)
 87c:	008fa283          	lw	t0,8(t6)
 880:	00000097          	auipc	ra,0x0
 884:	2b808093          	addi	ra,ra,696 # b38 <test_C_data>
 888:	00000117          	auipc	sp,0x0
 88c:	37c10113          	addi	sp,sp,892 # c04 <test_C_res>
 890:	0000a283          	lw	t0,0(ra)
 894:	00100d93          	li	s11,1
 898:	01b2d033          	srl	zero,t0,s11
 89c:	00012023          	sw	zero,0(sp)
 8a0:	00000f97          	auipc	t6,0x0
 8a4:	2b0f8f93          	addi	t6,t6,688 # b50 <begin_regstate>
 8a8:	003fa023          	sw	gp,0(t6)
 8ac:	004fa223          	sw	tp,4(t6)
 8b0:	005fa423          	sw	t0,8(t6)
 8b4:	f00001b7          	lui	gp,0xf0000
 8b8:	00000217          	auipc	tp,0x0
 8bc:	64d20213          	addi	tp,tp,1613 # f05 <end_signature+0x2e5>
 8c0:	00020283          	lb	t0,0(tp) # 0 <CL_SIZE-0x20>
 8c4:	00518023          	sb	t0,0(gp) # f0000000 <__global_pointer$+0xefffe7b8>
 8c8:	00028663          	beqz	t0,8d4 <STACK_SIZE+0x4d4>
 8cc:	00120213          	addi	tp,tp,1 # 1 <CL_SIZE-0x1f>
 8d0:	ff1ff06f          	j	8c0 <STACK_SIZE+0x4c0>
 8d4:	00000f97          	auipc	t6,0x0
 8d8:	27cf8f93          	addi	t6,t6,636 # b50 <begin_regstate>
 8dc:	000fa183          	lw	gp,0(t6)
 8e0:	004fa203          	lw	tp,4(t6)
 8e4:	008fa283          	lw	t0,8(t6)
 8e8:	00000f97          	auipc	t6,0x0
 8ec:	268f8f93          	addi	t6,t6,616 # b50 <begin_regstate>
 8f0:	003fa023          	sw	gp,0(t6)
 8f4:	004fa223          	sw	tp,4(t6)
 8f8:	005fa423          	sw	t0,8(t6)
 8fc:	f00001b7          	lui	gp,0xf0000
 900:	00000217          	auipc	tp,0x0
 904:	62020213          	addi	tp,tp,1568 # f20 <end_signature+0x300>
 908:	00020283          	lb	t0,0(tp) # 0 <CL_SIZE-0x20>
 90c:	00518023          	sb	t0,0(gp) # f0000000 <__global_pointer$+0xefffe7b8>
 910:	00028663          	beqz	t0,91c <STACK_SIZE+0x51c>
 914:	00120213          	addi	tp,tp,1 # 1 <CL_SIZE-0x1f>
 918:	ff1ff06f          	j	908 <STACK_SIZE+0x508>
 91c:	00000f97          	auipc	t6,0x0
 920:	234f8f93          	addi	t6,t6,564 # b50 <begin_regstate>
 924:	000fa183          	lw	gp,0(t6)
 928:	004fa203          	lw	tp,4(t6)
 92c:	008fa283          	lw	t0,8(t6)
 930:	00000097          	auipc	ra,0x0
 934:	20c08093          	addi	ra,ra,524 # b3c <test_D_data>
 938:	00000117          	auipc	sp,0x0
 93c:	2d010113          	addi	sp,sp,720 # c08 <test_D_res>
 940:	0000a283          	lw	t0,0(ra)
 944:	00100d93          	li	s11,1
 948:	01b2d033          	srl	zero,t0,s11
 94c:	01b052b3          	srl	t0,zero,s11
 950:	00012023          	sw	zero,0(sp)
 954:	00512223          	sw	t0,4(sp)
 958:	00000f97          	auipc	t6,0x0
 95c:	1f8f8f93          	addi	t6,t6,504 # b50 <begin_regstate>
 960:	003fa023          	sw	gp,0(t6)
 964:	004fa223          	sw	tp,4(t6)
 968:	005fa423          	sw	t0,8(t6)
 96c:	f00001b7          	lui	gp,0xf0000
 970:	00000217          	auipc	tp,0x0
 974:	5e020213          	addi	tp,tp,1504 # f50 <end_signature+0x330>
 978:	00020283          	lb	t0,0(tp) # 0 <CL_SIZE-0x20>
 97c:	00518023          	sb	t0,0(gp) # f0000000 <__global_pointer$+0xefffe7b8>
 980:	00028663          	beqz	t0,98c <STACK_SIZE+0x58c>
 984:	00120213          	addi	tp,tp,1 # 1 <CL_SIZE-0x1f>
 988:	ff1ff06f          	j	978 <STACK_SIZE+0x578>
 98c:	00000f97          	auipc	t6,0x0
 990:	1c4f8f93          	addi	t6,t6,452 # b50 <begin_regstate>
 994:	000fa183          	lw	gp,0(t6)
 998:	004fa203          	lw	tp,4(t6)
 99c:	008fa283          	lw	t0,8(t6)
 9a0:	00000f97          	auipc	t6,0x0
 9a4:	1b0f8f93          	addi	t6,t6,432 # b50 <begin_regstate>
 9a8:	003fa023          	sw	gp,0(t6)
 9ac:	004fa223          	sw	tp,4(t6)
 9b0:	005fa423          	sw	t0,8(t6)
 9b4:	f00001b7          	lui	gp,0xf0000
 9b8:	00000217          	auipc	tp,0x0
 9bc:	5b320213          	addi	tp,tp,1459 # f6b <end_signature+0x34b>
 9c0:	00020283          	lb	t0,0(tp) # 0 <CL_SIZE-0x20>
 9c4:	00518023          	sb	t0,0(gp) # f0000000 <__global_pointer$+0xefffe7b8>
 9c8:	00028663          	beqz	t0,9d4 <STACK_SIZE+0x5d4>
 9cc:	00120213          	addi	tp,tp,1 # 1 <CL_SIZE-0x1f>
 9d0:	ff1ff06f          	j	9c0 <STACK_SIZE+0x5c0>
 9d4:	00000f97          	auipc	t6,0x0
 9d8:	17cf8f93          	addi	t6,t6,380 # b50 <begin_regstate>
 9dc:	000fa183          	lw	gp,0(t6)
 9e0:	004fa203          	lw	tp,4(t6)
 9e4:	008fa283          	lw	t0,8(t6)
 9e8:	00000097          	auipc	ra,0x0
 9ec:	15808093          	addi	ra,ra,344 # b40 <test_E_data>
 9f0:	00000117          	auipc	sp,0x0
 9f4:	22010113          	addi	sp,sp,544 # c10 <test_E_res>
 9f8:	0000a183          	lw	gp,0(ra)
 9fc:	10000237          	lui	tp,0x10000
 a00:	fe020213          	addi	tp,tp,-32 # fffffe0 <__global_pointer$+0xfffe798>
 a04:	100002b7          	lui	t0,0x10000
 a08:	fe128293          	addi	t0,t0,-31 # fffffe1 <__global_pointer$+0xfffe799>
 a0c:	10000337          	lui	t1,0x10000
 a10:	fef30313          	addi	t1,t1,-17 # fffffef <__global_pointer$+0xfffe7a7>
 a14:	100003b7          	lui	t2,0x10000
 a18:	fff38393          	addi	t2,t2,-1 # fffffff <__global_pointer$+0xfffe7b7>
 a1c:	0041d233          	srl	tp,gp,tp
 a20:	0051d2b3          	srl	t0,gp,t0
 a24:	0061d333          	srl	t1,gp,t1
 a28:	0071d3b3          	srl	t2,gp,t2
 a2c:	00412023          	sw	tp,0(sp)
 a30:	00512223          	sw	t0,4(sp)
 a34:	00612423          	sw	t1,8(sp)
 a38:	00712623          	sw	t2,12(sp)
 a3c:	00000f97          	auipc	t6,0x0
 a40:	114f8f93          	addi	t6,t6,276 # b50 <begin_regstate>
 a44:	003fa023          	sw	gp,0(t6)
 a48:	004fa223          	sw	tp,4(t6)
 a4c:	005fa423          	sw	t0,8(t6)
 a50:	f00001b7          	lui	gp,0xf0000
 a54:	00000217          	auipc	tp,0x0
 a58:	54f20213          	addi	tp,tp,1359 # fa3 <end_signature+0x383>
 a5c:	00020283          	lb	t0,0(tp) # 0 <CL_SIZE-0x20>
 a60:	00518023          	sb	t0,0(gp) # f0000000 <__global_pointer$+0xefffe7b8>
 a64:	00028663          	beqz	t0,a70 <STACK_SIZE+0x670>
 a68:	00120213          	addi	tp,tp,1 # 1 <CL_SIZE-0x1f>
 a6c:	ff1ff06f          	j	a5c <STACK_SIZE+0x65c>
 a70:	00000f97          	auipc	t6,0x0
 a74:	0e0f8f93          	addi	t6,t6,224 # b50 <begin_regstate>
 a78:	000fa183          	lw	gp,0(t6)
 a7c:	004fa203          	lw	tp,4(t6)
 a80:	008fa283          	lw	t0,8(t6)
 a84:	00000f97          	auipc	t6,0x0
 a88:	0ccf8f93          	addi	t6,t6,204 # b50 <begin_regstate>
 a8c:	003fa023          	sw	gp,0(t6)
 a90:	004fa223          	sw	tp,4(t6)
 a94:	005fa423          	sw	t0,8(t6)
 a98:	f00001b7          	lui	gp,0xf0000
 a9c:	00000217          	auipc	tp,0x0
 aa0:	52220213          	addi	tp,tp,1314 # fbe <end_signature+0x39e>
 aa4:	00020283          	lb	t0,0(tp) # 0 <CL_SIZE-0x20>
 aa8:	00518023          	sb	t0,0(gp) # f0000000 <__global_pointer$+0xefffe7b8>
 aac:	00028663          	beqz	t0,ab8 <STACK_SIZE+0x6b8>
 ab0:	00120213          	addi	tp,tp,1 # 1 <CL_SIZE-0x1f>
 ab4:	ff1ff06f          	j	aa4 <STACK_SIZE+0x6a4>
 ab8:	00000f97          	auipc	t6,0x0
 abc:	098f8f93          	addi	t6,t6,152 # b50 <begin_regstate>
 ac0:	000fa183          	lw	gp,0(t6)
 ac4:	004fa203          	lw	tp,4(t6)
 ac8:	008fa283          	lw	t0,8(t6)

00000acc <ecall>:
 acc:	00000073          	ecall
	...

00000ae0 <sc_exit>:
 ae0:	e14ff06f          	j	f4 <SIM_EXIT>
 ae4:	00000013          	nop
 ae8:	00000013          	nop
 aec:	00000013          	nop
 af0:	00000013          	nop
 af4:	00000013          	nop
 af8:	00000013          	nop
 afc:	00000013          	nop
	...

Дизассемблирование раздела .data:

00000b20 <test_A1_data>:
 b20:	0000                	unimp
	...

00000b24 <test_A2_data>:
 b24:	0001                	nop
	...

00000b28 <test_A3_data>:
 b28:	ffff                	0xffff
 b2a:	ffff                	0xffff

00000b2c <test_A4_data>:
 b2c:	ffff                	0xffff
 b2e:	7fff                	0x7fff

00000b30 <test_A5_data>:
 b30:	0000                	unimp
 b32:	8000                	0x8000

00000b34 <test_B_data>:
 b34:	ef10                	fsw	fa2,24(a4)
 b36:	abcd                	j	1128 <_end+0xc8>

00000b38 <test_C_data>:
 b38:	5678                	lw	a4,108(a2)
 b3a:	1234                	addi	a3,sp,296

00000b3c <test_D_data>:
 b3c:	ba98                	fsd	fa4,48(a3)
 b3e:	fedc                	fsw	fa5,60(a3)

00000b40 <test_E_data>:
 b40:	4321                	li	t1,8
 b42:	8765                	srai	a4,a4,0x19
	...

00000b50 <begin_regstate>:
	...

00000b70 <begin_signature>:
 b70:	ffff                	0xffff
 b72:	ffff                	0xffff
 b74:	ffff                	0xffff
 b76:	ffff                	0xffff
 b78:	ffff                	0xffff
 b7a:	ffff                	0xffff
 b7c:	ffff                	0xffff
 b7e:	ffff                	0xffff
 b80:	ffff                	0xffff
 b82:	ffff                	0xffff
 b84:	ffff                	0xffff
 b86:	ffff                	0xffff

00000b88 <test_A2_res>:
 b88:	ffff                	0xffff
 b8a:	ffff                	0xffff
 b8c:	ffff                	0xffff
 b8e:	ffff                	0xffff
 b90:	ffff                	0xffff
 b92:	ffff                	0xffff
 b94:	ffff                	0xffff
 b96:	ffff                	0xffff
 b98:	ffff                	0xffff
 b9a:	ffff                	0xffff
 b9c:	ffff                	0xffff
 b9e:	ffff                	0xffff

00000ba0 <test_A3_res>:
 ba0:	ffff                	0xffff
 ba2:	ffff                	0xffff
 ba4:	ffff                	0xffff
 ba6:	ffff                	0xffff
 ba8:	ffff                	0xffff
 baa:	ffff                	0xffff
 bac:	ffff                	0xffff
 bae:	ffff                	0xffff
 bb0:	ffff                	0xffff
 bb2:	ffff                	0xffff
 bb4:	ffff                	0xffff
 bb6:	ffff                	0xffff

00000bb8 <test_A4_res>:
 bb8:	ffff                	0xffff
 bba:	ffff                	0xffff
 bbc:	ffff                	0xffff
 bbe:	ffff                	0xffff
 bc0:	ffff                	0xffff
 bc2:	ffff                	0xffff
 bc4:	ffff                	0xffff
 bc6:	ffff                	0xffff
 bc8:	ffff                	0xffff
 bca:	ffff                	0xffff
 bcc:	ffff                	0xffff
 bce:	ffff                	0xffff

00000bd0 <test_A5_res>:
 bd0:	ffff                	0xffff
 bd2:	ffff                	0xffff
 bd4:	ffff                	0xffff
 bd6:	ffff                	0xffff
 bd8:	ffff                	0xffff
 bda:	ffff                	0xffff
 bdc:	ffff                	0xffff
 bde:	ffff                	0xffff
 be0:	ffff                	0xffff
 be2:	ffff                	0xffff
 be4:	ffff                	0xffff
 be6:	ffff                	0xffff

00000be8 <test_B_res>:
 be8:	ffff                	0xffff
 bea:	ffff                	0xffff
 bec:	ffff                	0xffff
 bee:	ffff                	0xffff
 bf0:	ffff                	0xffff
 bf2:	ffff                	0xffff
 bf4:	ffff                	0xffff
 bf6:	ffff                	0xffff
 bf8:	ffff                	0xffff
 bfa:	ffff                	0xffff
 bfc:	ffff                	0xffff
 bfe:	ffff                	0xffff
 c00:	ffff                	0xffff
 c02:	ffff                	0xffff

00000c04 <test_C_res>:
 c04:	ffff                	0xffff
 c06:	ffff                	0xffff

00000c08 <test_D_res>:
 c08:	ffff                	0xffff
 c0a:	ffff                	0xffff
 c0c:	ffff                	0xffff
 c0e:	ffff                	0xffff

00000c10 <test_E_res>:
 c10:	ffff                	0xffff
 c12:	ffff                	0xffff
 c14:	ffff                	0xffff
 c16:	ffff                	0xffff
 c18:	ffff                	0xffff
 c1a:	ffff                	0xffff
 c1c:	ffff                	0xffff
 c1e:	ffff                	0xffff

00000c20 <end_signature>:
 c20:	65542023          	sw	s5,1600(s0)
 c24:	42207473          	csrrci	s0,0x422,0
 c28:	6765                	lui	a4,0x19
 c2a:	6e69                	lui	t3,0x1a
 c2c:	000a                	0xa
 c2e:	65542023          	sw	s5,1600(s0)
 c32:	70207473          	csrrci	s0,0x702,0
 c36:	7261                	lui	tp,0xffff8
 c38:	2074                	fld	fa3,192(s0)
 c3a:	3141                	jal	8ba <STACK_SIZE+0x4ba>
 c3c:	2d20                	fld	fs0,88(a0)
 c3e:	6720                	flw	fs0,72(a4)
 c40:	6e65                	lui	t3,0x19
 c42:	7265                	lui	tp,0xffff9
 c44:	6c61                	lui	s8,0x18
 c46:	7420                	flw	fs0,104(s0)
 c48:	7365                	lui	t1,0xffff9
 c4a:	2074                	fld	fa3,192(s0)
 c4c:	7620666f          	jal	a2,73ae <__global_pointer$+0x5b66>
 c50:	6c61                	lui	s8,0x18
 c52:	6575                	lui	a0,0x1d
 c54:	3020                	fld	fs0,96(s0)
 c56:	7720                	flw	fs0,104(a4)
 c58:	7469                	lui	s0,0xffffa
 c5a:	2068                	fld	fa0,192(s0)
 c5c:	2c30                	fld	fa2,88(s0)
 c5e:	3120                	fld	fs0,96(a0)
 c60:	202c                	fld	fa1,64(s0)
 c62:	312d                	jal	88c <STACK_SIZE+0x48c>
 c64:	202c                	fld	fa1,64(s0)
 c66:	494d                	li	s2,19
 c68:	2c4e                	fld	fs8,208(sp)
 c6a:	4d20                	lw	s0,88(a0)
 c6c:	5841                	li	a6,-16
 c6e:	2820                	fld	fs0,80(s0)
 c70:	6235                	lui	tp,0xd
 c72:	7469                	lui	s0,0xffffa
 c74:	2029                	jal	c7e <end_signature+0x5e>
 c76:	6572                	flw	fa0,28(sp)
 c78:	74736967          	0x74736967
 c7c:	7265                	lui	tp,0xffff9
 c7e:	7620                	flw	fs0,104(a2)
 c80:	6c61                	lui	s8,0x18
 c82:	6575                	lui	a0,0x1d
 c84:	23000a73          	0x23000a73
 c88:	5420                	lw	s0,104(s0)
 c8a:	7365                	lui	t1,0xffff9
 c8c:	2074                	fld	fa3,192(s0)
 c8e:	6170                	flw	fa2,68(a0)
 c90:	7472                	flw	fs0,60(sp)
 c92:	4120                	lw	s0,64(a0)
 c94:	2031                	jal	ca0 <end_signature+0x80>
 c96:	2d20                	fld	fs0,88(a0)
 c98:	4320                	lw	s0,64(a4)
 c9a:	6c706d6f          	jal	s10,7b60 <__global_pointer$+0x6318>
 c9e:	7465                	lui	s0,0xffff9
 ca0:	0a65                	addi	s4,s4,25
 ca2:	2300                	fld	fs0,0(a4)
 ca4:	5420                	lw	s0,104(s0)
 ca6:	7365                	lui	t1,0xffff9
 ca8:	2074                	fld	fa3,192(s0)
 caa:	6170                	flw	fa2,68(a0)
 cac:	7472                	flw	fs0,60(sp)
 cae:	4120                	lw	s0,64(a0)
 cb0:	2032                	fld	ft0,264(sp)
 cb2:	202d                	jal	cdc <end_signature+0xbc>
 cb4:	656e6567          	0x656e6567
 cb8:	6172                	flw	ft2,28(sp)
 cba:	206c                	fld	fa1,192(s0)
 cbc:	6574                	flw	fa3,76(a0)
 cbe:	6f207473          	csrrci	s0,0x6f2,0
 cc2:	2066                	fld	ft0,88(sp)
 cc4:	6176                	flw	ft2,92(sp)
 cc6:	756c                	flw	fa1,108(a0)
 cc8:	2065                	jal	d70 <end_signature+0x150>
 cca:	2031                	jal	cd6 <end_signature+0xb6>
 ccc:	68746977          	0x68746977
 cd0:	3020                	fld	fs0,96(s0)
 cd2:	202c                	fld	fa1,64(s0)
 cd4:	2c31                	jal	ef0 <end_signature+0x2d0>
 cd6:	2d20                	fld	fs0,88(a0)
 cd8:	2c31                	jal	ef4 <end_signature+0x2d4>
 cda:	4d20                	lw	s0,88(a0)
 cdc:	4e49                	li	t3,18
 cde:	202c                	fld	fa1,64(s0)
 ce0:	414d                	li	sp,19
 ce2:	2058                	fld	fa4,128(s0)
 ce4:	3528                	fld	fa0,104(a0)
 ce6:	6962                	flw	fs2,24(sp)
 ce8:	2974                	fld	fa3,208(a0)
 cea:	7220                	flw	fs0,96(a2)
 cec:	6765                	lui	a4,0x19
 cee:	7369                	lui	t1,0xffffa
 cf0:	6574                	flw	fa3,76(a0)
 cf2:	2072                	fld	ft0,280(sp)
 cf4:	6176                	flw	ft2,92(sp)
 cf6:	756c                	flw	fa1,108(a0)
 cf8:	7365                	lui	t1,0xffff9
 cfa:	000a                	0xa
 cfc:	65542023          	sw	s5,1600(s0) # ffff9640 <__global_pointer$+0xffff7df8>
 d00:	70207473          	csrrci	s0,0x702,0
 d04:	7261                	lui	tp,0xffff8
 d06:	2074                	fld	fa3,192(s0)
 d08:	3241                	jal	688 <STACK_SIZE+0x288>
 d0a:	2020                	fld	fs0,64(s0)
 d0c:	202d                	jal	d36 <end_signature+0x116>
 d0e:	706d6f43          	fmadd.s	ft10,fs10,ft6,fa4,unknown
 d12:	656c                	flw	fa1,76(a0)
 d14:	6574                	flw	fa3,76(a0)
 d16:	000a                	0xa
 d18:	65542023          	sw	s5,1600(s0)
 d1c:	70207473          	csrrci	s0,0x702,0
 d20:	7261                	lui	tp,0xffff8
 d22:	2074                	fld	fa3,192(s0)
 d24:	3341                	jal	aa4 <STACK_SIZE+0x6a4>
 d26:	2d20                	fld	fs0,88(a0)
 d28:	6720                	flw	fs0,72(a4)
 d2a:	6e65                	lui	t3,0x19
 d2c:	7265                	lui	tp,0xffff9
 d2e:	6c61                	lui	s8,0x18
 d30:	7420                	flw	fs0,104(s0)
 d32:	7365                	lui	t1,0xffff9
 d34:	2074                	fld	fa3,192(s0)
 d36:	7620666f          	jal	a2,7498 <__global_pointer$+0x5c50>
 d3a:	6c61                	lui	s8,0x18
 d3c:	6575                	lui	a0,0x1d
 d3e:	2d20                	fld	fs0,88(a0)
 d40:	2031                	jal	d4c <end_signature+0x12c>
 d42:	68746977          	0x68746977
 d46:	3020                	fld	fs0,96(s0)
 d48:	202c                	fld	fa1,64(s0)
 d4a:	2c31                	jal	f66 <end_signature+0x346>
 d4c:	2d20                	fld	fs0,88(a0)
 d4e:	2c31                	jal	f6a <end_signature+0x34a>
 d50:	4d20                	lw	s0,88(a0)
 d52:	4e49                	li	t3,18
 d54:	202c                	fld	fa1,64(s0)
 d56:	414d                	li	sp,19
 d58:	2058                	fld	fa4,128(s0)
 d5a:	3528                	fld	fa0,104(a0)
 d5c:	6962                	flw	fs2,24(sp)
 d5e:	2974                	fld	fa3,208(a0)
 d60:	7220                	flw	fs0,96(a2)
 d62:	6765                	lui	a4,0x19
 d64:	7369                	lui	t1,0xffffa
 d66:	6574                	flw	fa3,76(a0)
 d68:	2072                	fld	ft0,280(sp)
 d6a:	6176                	flw	ft2,92(sp)
 d6c:	756c                	flw	fa1,108(a0)
 d6e:	7365                	lui	t1,0xffff9
 d70:	000a                	0xa
 d72:	65542023          	sw	s5,1600(s0)
 d76:	70207473          	csrrci	s0,0x702,0
 d7a:	7261                	lui	tp,0xffff8
 d7c:	2074                	fld	fa3,192(s0)
 d7e:	3341                	jal	afe <sc_exit+0x1e>
 d80:	2020                	fld	fs0,64(s0)
 d82:	202d                	jal	dac <end_signature+0x18c>
 d84:	706d6f43          	fmadd.s	ft10,fs10,ft6,fa4,unknown
 d88:	656c                	flw	fa1,76(a0)
 d8a:	6574                	flw	fa3,76(a0)
 d8c:	000a                	0xa
 d8e:	65542023          	sw	s5,1600(s0)
 d92:	70207473          	csrrci	s0,0x702,0
 d96:	7261                	lui	tp,0xffff8
 d98:	2074                	fld	fa3,192(s0)
 d9a:	3441                	jal	81a <STACK_SIZE+0x41a>
 d9c:	2d20                	fld	fs0,88(a0)
 d9e:	6720                	flw	fs0,72(a4)
 da0:	6e65                	lui	t3,0x19
 da2:	7265                	lui	tp,0xffff9
 da4:	6c61                	lui	s8,0x18
 da6:	7420                	flw	fs0,104(s0)
 da8:	7365                	lui	t1,0xffff9
 daa:	2074                	fld	fa3,192(s0)
 dac:	7620666f          	jal	a2,750e <__global_pointer$+0x5cc6>
 db0:	6c61                	lui	s8,0x18
 db2:	6575                	lui	a0,0x1d
 db4:	3020                	fld	fs0,96(s0)
 db6:	3778                	fld	fa4,232(a4)
 db8:	4646                	lw	a2,80(sp)
 dba:	4646                	lw	a2,80(sp)
 dbc:	4646                	lw	a2,80(sp)
 dbe:	2046                	fld	ft0,80(sp)
 dc0:	68746977          	0x68746977
 dc4:	3020                	fld	fs0,96(s0)
 dc6:	202c                	fld	fa1,64(s0)
 dc8:	2c31                	jal	fe4 <end_signature+0x3c4>
 dca:	2d20                	fld	fs0,88(a0)
 dcc:	2c31                	jal	fe8 <end_signature+0x3c8>
 dce:	4d20                	lw	s0,88(a0)
 dd0:	4e49                	li	t3,18
 dd2:	202c                	fld	fa1,64(s0)
 dd4:	414d                	li	sp,19
 dd6:	2058                	fld	fa4,128(s0)
 dd8:	3528                	fld	fa0,104(a0)
 dda:	6962                	flw	fs2,24(sp)
 ddc:	2974                	fld	fa3,208(a0)
 dde:	7220                	flw	fs0,96(a2)
 de0:	6765                	lui	a4,0x19
 de2:	7369                	lui	t1,0xffffa
 de4:	6574                	flw	fa3,76(a0)
 de6:	2072                	fld	ft0,280(sp)
 de8:	6176                	flw	ft2,92(sp)
 dea:	756c                	flw	fa1,108(a0)
 dec:	7365                	lui	t1,0xffff9
 dee:	000a                	0xa
 df0:	65542023          	sw	s5,1600(s0)
 df4:	70207473          	csrrci	s0,0x702,0
 df8:	7261                	lui	tp,0xffff8
 dfa:	2074                	fld	fa3,192(s0)
 dfc:	3441                	jal	87c <STACK_SIZE+0x47c>
 dfe:	2020                	fld	fs0,64(s0)
 e00:	202d                	jal	e2a <end_signature+0x20a>
 e02:	706d6f43          	fmadd.s	ft10,fs10,ft6,fa4,unknown
 e06:	656c                	flw	fa1,76(a0)
 e08:	6574                	flw	fa3,76(a0)
 e0a:	000a                	0xa
 e0c:	65542023          	sw	s5,1600(s0)
 e10:	70207473          	csrrci	s0,0x702,0
 e14:	7261                	lui	tp,0xffff8
 e16:	2074                	fld	fa3,192(s0)
 e18:	3541                	jal	c98 <end_signature+0x78>
 e1a:	2d20                	fld	fs0,88(a0)
 e1c:	6720                	flw	fs0,72(a4)
 e1e:	6e65                	lui	t3,0x19
 e20:	7265                	lui	tp,0xffff9
 e22:	6c61                	lui	s8,0x18
 e24:	7420                	flw	fs0,104(s0)
 e26:	7365                	lui	t1,0xffff9
 e28:	2074                	fld	fa3,192(s0)
 e2a:	7620666f          	jal	a2,758c <__global_pointer$+0x5d44>
 e2e:	6c61                	lui	s8,0x18
 e30:	6575                	lui	a0,0x1d
 e32:	3020                	fld	fs0,96(s0)
 e34:	3878                	fld	fa4,240(s0)
 e36:	3030                	fld	fa2,96(s0)
 e38:	3030                	fld	fa2,96(s0)
 e3a:	3030                	fld	fa2,96(s0)
 e3c:	2030                	fld	fa2,64(s0)
 e3e:	68746977          	0x68746977
 e42:	3020                	fld	fs0,96(s0)
 e44:	202c                	fld	fa1,64(s0)
 e46:	2c31                	jal	1062 <_end+0x2>
 e48:	2d20                	fld	fs0,88(a0)
 e4a:	2c31                	jal	1066 <_end+0x6>
 e4c:	4d20                	lw	s0,88(a0)
 e4e:	4e49                	li	t3,18
 e50:	202c                	fld	fa1,64(s0)
 e52:	414d                	li	sp,19
 e54:	2058                	fld	fa4,128(s0)
 e56:	3528                	fld	fa0,104(a0)
 e58:	6962                	flw	fs2,24(sp)
 e5a:	2974                	fld	fa3,208(a0)
 e5c:	7220                	flw	fs0,96(a2)
 e5e:	6765                	lui	a4,0x19
 e60:	7369                	lui	t1,0xffffa
 e62:	6574                	flw	fa3,76(a0)
 e64:	2072                	fld	ft0,280(sp)
 e66:	6176                	flw	ft2,92(sp)
 e68:	756c                	flw	fa1,108(a0)
 e6a:	7365                	lui	t1,0xffff9
 e6c:	000a                	0xa
 e6e:	65542023          	sw	s5,1600(s0)
 e72:	70207473          	csrrci	s0,0x702,0
 e76:	7261                	lui	tp,0xffff8
 e78:	2074                	fld	fa3,192(s0)
 e7a:	3541                	jal	cfa <end_signature+0xda>
 e7c:	2020                	fld	fs0,64(s0)
 e7e:	202d                	jal	ea8 <end_signature+0x288>
 e80:	706d6f43          	fmadd.s	ft10,fs10,ft6,fa4,unknown
 e84:	656c                	flw	fa1,76(a0)
 e86:	6574                	flw	fa3,76(a0)
 e88:	000a                	0xa
 e8a:	65542023          	sw	s5,1600(s0)
 e8e:	70207473          	csrrci	s0,0x702,0
 e92:	7261                	lui	tp,0xffff8
 e94:	2074                	fld	fa3,192(s0)
 e96:	2042                	fld	ft0,16(sp)
 e98:	202d                	jal	ec2 <end_signature+0x2a2>
 e9a:	6574                	flw	fa3,76(a0)
 e9c:	6e697473          	csrrci	s0,0x6e6,18
 ea0:	6f662067          	0x6f662067
 ea4:	7772                	flw	fa4,60(sp)
 ea6:	7261                	lui	tp,0xffff8
 ea8:	6964                	flw	fs1,84(a0)
 eaa:	676e                	flw	fa4,216(sp)
 eac:	6220                	flw	fs0,64(a2)
 eae:	7465                	lui	s0,0xffff9
 eb0:	6e656577          	0x6e656577
 eb4:	6920                	flw	fs0,80(a0)
 eb6:	736e                	flw	ft6,248(sp)
 eb8:	7274                	flw	fa3,100(a2)
 eba:	6375                	lui	t1,0x1d
 ebc:	6974                	flw	fa3,84(a0)
 ebe:	0a736e6f          	jal	t3,37764 <__global_pointer$+0x35f1c>
 ec2:	2300                	fld	fs0,0(a4)
 ec4:	5420                	lw	s0,104(s0)
 ec6:	7365                	lui	t1,0xffff9
 ec8:	2074                	fld	fa3,192(s0)
 eca:	6170                	flw	fa2,68(a0)
 ecc:	7472                	flw	fs0,60(sp)
 ece:	4220                	lw	s0,64(a2)
 ed0:	2020                	fld	fs0,64(s0)
 ed2:	202d                	jal	efc <end_signature+0x2dc>
 ed4:	706d6f43          	fmadd.s	ft10,fs10,ft6,fa4,unknown
 ed8:	656c                	flw	fa1,76(a0)
 eda:	6574                	flw	fa3,76(a0)
 edc:	000a                	0xa
 ede:	65542023          	sw	s5,1600(s0) # ffff9640 <__global_pointer$+0xffff7df8>
 ee2:	70207473          	csrrci	s0,0x702,0
 ee6:	7261                	lui	tp,0xffff8
 ee8:	2074                	fld	fa3,192(s0)
 eea:	202d2043          	fmadd.s	ft0,fs10,ft2,ft4,rdn
 eee:	6574                	flw	fa3,76(a0)
 ef0:	6e697473          	csrrci	s0,0x6e6,18
 ef4:	72772067          	0x72772067
 ef8:	7469                	lui	s0,0xffffa
 efa:	6e69                	lui	t3,0x1a
 efc:	6f742067          	0x6f742067
 f00:	7820                	flw	fs0,112(s0)
 f02:	0a30                	addi	a2,sp,280
 f04:	2300                	fld	fs0,0(a4)
 f06:	5420                	lw	s0,104(s0)
 f08:	7365                	lui	t1,0xffff9
 f0a:	2074                	fld	fa3,192(s0)
 f0c:	6170                	flw	fa2,68(a0)
 f0e:	7472                	flw	fs0,60(sp)
 f10:	4320                	lw	s0,64(a4)
 f12:	2020                	fld	fs0,64(s0)
 f14:	202d                	jal	f3e <end_signature+0x31e>
 f16:	706d6f43          	fmadd.s	ft10,fs10,ft6,fa4,unknown
 f1a:	656c                	flw	fa1,76(a0)
 f1c:	6574                	flw	fa3,76(a0)
 f1e:	000a                	0xa
 f20:	65542023          	sw	s5,1600(s0) # ffffa640 <__global_pointer$+0xffff8df8>
 f24:	70207473          	csrrci	s0,0x702,0
 f28:	7261                	lui	tp,0xffff8
 f2a:	2074                	fld	fa3,192(s0)
 f2c:	2044                	fld	fs1,128(s0)
 f2e:	202d                	jal	f58 <end_signature+0x338>
 f30:	6574                	flw	fa3,76(a0)
 f32:	6e697473          	csrrci	s0,0x6e6,18
 f36:	6f662067          	0x6f662067
 f3a:	7772                	flw	fa4,60(sp)
 f3c:	7261                	lui	tp,0xffff8
 f3e:	6964                	flw	fs1,84(a0)
 f40:	676e                	flw	fa4,216(sp)
 f42:	7420                	flw	fs0,104(s0)
 f44:	7268                	flw	fa0,100(a2)
 f46:	6867756f          	jal	a0,785cc <__global_pointer$+0x76d84>
 f4a:	2074                	fld	fa3,192(s0)
 f4c:	3078                	fld	fa4,224(s0)
 f4e:	000a                	0xa
 f50:	65542023          	sw	s5,1600(s0)
 f54:	70207473          	csrrci	s0,0x702,0
 f58:	7261                	lui	tp,0xffff8
 f5a:	2074                	fld	fa3,192(s0)
 f5c:	2044                	fld	fs1,128(s0)
 f5e:	2d20                	fld	fs0,88(a0)
 f60:	4320                	lw	s0,64(a4)
 f62:	6c706d6f          	jal	s10,7e28 <__global_pointer$+0x65e0>
 f66:	7465                	lui	s0,0xffff9
 f68:	0a65                	addi	s4,s4,25
 f6a:	2300                	fld	fs0,0(a4)
 f6c:	5420                	lw	s0,104(s0)
 f6e:	7365                	lui	t1,0xffff9
 f70:	2074                	fld	fa3,192(s0)
 f72:	6170                	flw	fa2,68(a0)
 f74:	7472                	flw	fs0,60(sp)
 f76:	4520                	lw	s0,72(a0)
 f78:	2d20                	fld	fs0,88(a0)
 f7a:	7420                	flw	fs0,104(s0)
 f7c:	7365                	lui	t1,0xffff9
 f7e:	6974                	flw	fa3,84(a0)
 f80:	676e                	flw	fa4,216(sp)
 f82:	7320                	flw	fs0,96(a4)
 f84:	6968                	flw	fa0,84(a0)
 f86:	7466                	flw	fs0,120(sp)
 f88:	6220                	flw	fs0,64(a2)
 f8a:	2079                	jal	1018 <tohost+0x18>
 f8c:	6176                	flw	ft2,92(sp)
 f8e:	756c                	flw	fa1,108(a0)
 f90:	2065                	jal	1038 <tohost+0x38>
 f92:	61657267          	0x61657267
 f96:	6574                	flw	fa3,76(a0)
 f98:	2072                	fld	ft0,280(sp)
 f9a:	6874                	flw	fa3,84(s0)
 f9c:	6e61                	lui	t3,0x18
 f9e:	3320                	fld	fs0,96(a4)
 fa0:	0a31                	addi	s4,s4,12
 fa2:	2300                	fld	fs0,0(a4)
 fa4:	5420                	lw	s0,104(s0)
 fa6:	7365                	lui	t1,0xffff9
 fa8:	2074                	fld	fa3,192(s0)
 faa:	6170                	flw	fa2,68(a0)
 fac:	7472                	flw	fs0,60(sp)
 fae:	4520                	lw	s0,72(a0)
 fb0:	2020                	fld	fs0,64(s0)
 fb2:	202d                	jal	fdc <end_signature+0x3bc>
 fb4:	706d6f43          	fmadd.s	ft10,fs10,ft6,fa4,unknown
 fb8:	656c                	flw	fa1,76(a0)
 fba:	6574                	flw	fa3,76(a0)
 fbc:	000a                	0xa
 fbe:	65542023          	sw	s5,1600(s0) # ffff9640 <__global_pointer$+0xffff7df8>
 fc2:	45207473          	csrrci	s0,0x452,0
 fc6:	646e                	flw	fs0,216(sp)
 fc8:	000a                	0xa
	...

Дизассемблирование раздела .tohost:

00001000 <tohost>:
	...

00001040 <fromhost>:
	...

Дизассемблирование раздела .sdata:

00001048 <__global_pointer$-0x800>:
	...

Дизассемблирование раздела .stack:

0000fc00 <.stack>:
	...
