
/home/oleg/scr1/build/verilator_wf_AHB_IMC/compliance_rvc.elf:     формат файла elf32-littleriscv
/home/oleg/scr1/build/verilator_wf_AHB_IMC/compliance_rvc.elf
архитектура: riscv:rv32, флаги 0x00000112:
EXEC_P, HAS_SYMS, D_PAGED
начальный адрес 0x00000200

Заголовок программы:
    LOAD off    0x00001000 vaddr 0x00000000 paddr 0x00000000 align 2**12
         filesz 0x00004148 memsz 0x00004160 flags rwx
    LOAD off    0x00005c00 vaddr 0x0000fc00 paddr 0x0000fc00 align 2**12
         filesz 0x00000000 memsz 0x00000400 flags rw-

Разделы:
Idx Name          Size      VMA       LMA       File off  Algn  Флаги
  0 .text.init    00000292  00000000  00000000  00001000  2**6  CONTENTS, ALLOC, LOAD, READONLY, CODE
  1 .text         00003020  00001000  00001000  00002000  2**12  CONTENTS, ALLOC, LOAD, READONLY, CODE
  2 .data         000000e0  00004020  00004020  00005020  2**4  CONTENTS, ALLOC, LOAD, DATA
  3 .tohost       00000048  00004100  00004100  00005100  2**6  CONTENTS, ALLOC, LOAD, DATA
  4 .sdata        00000018  00004148  00004148  00005148  2**0  ALLOC
  5 .tdata        00000000  00004160  00004160  00005148  2**0  CONTENTS, ALLOC, LOAD, DATA, THREAD_LOCAL
  6 .tbss         00000000  00004160  00004160  00000000  2**0  ALLOC, THREAD_LOCAL
  7 .bss          00000000  00004160  00004160  00005148  2**0  ALLOC
  8 .stack        00000400  0000fc00  0000fc00  00005c00  2**0  ALLOC
SYMBOL TABLE:
00000000 l    d  .text.init	00000000 .text.init
00001000 l    d  .text	00000000 .text
00004020 l    d  .data	00000000 .data
00004100 l    d  .tohost	00000000 .tohost
00004148 l    d  .sdata	00000000 .sdata
00004160 l    d  .tdata	00000000 .tdata
00004160 l    d  .tbss	00000000 .tbss
00004160 l    d  .bss	00000000 .bss
0000fc00 l    d  .stack	00000000 .stack
00000000 l    df *ABS*	00000000 /home/oleg/scr1/build/verilator_wf_AHB_IMC/riscv_compliance/riscv_compliance_objs/rvc.o
00003fe0 l       .text	00000000 sc_exit
000001c0 l       .text.init	00000000 trap_vector
000001ee l       .text.init	00000000 _report
000001ec l       .text.init	00000000 handle_exception
000001ec l       .text.init	00000000 other_exception
00001000 l       .text	00000000 _run_test
00001008 l       .text	00000000 test_2
00001010 l       .text	00000000 data
00004040 l       .data	00000000 test_res
00003374 l       .text	00000000 fail
00003022 l       .text	00000000 test_3
00003040 l       .text	00000000 test_4
00003060 l       .text	00000000 test_5
00003088 l       .text	00000000 test_6
000030ac l       .text	00000000 test_8
000030cc l       .text	00000000 test_9
000030ec l       .text	00000000 test_11
00003108 l       .text	00000000 test_12
00003128 l       .text	00000000 test_14
00003144 l       .text	00000000 test_15
00003164 l       .text	00000000 test_16
00003184 l       .text	00000000 test_17
000031a4 l       .text	00000000 test_18
000031c4 l       .text	00000000 test_21
000031ec l       .text	00000000 test_30
00003210 l       .text	00000000 test_31
00003234 l       .text	00000000 test_32
00003258 l       .text	00000000 test_33
00003278 l       .text	00000000 test_34
00003298 l       .text	00000000 test_35
000032c4 l       .text	00000000 test_36
000032f4 l       .text	00000000 test_37
0000332c l       .text	00000000 test_40
00003350 l       .text	00000000 test_42
00003380 l       .text	00000000 pass
0000338c l       .text	00000000 ecall
00000400 g       *ABS*	00000000 STACK_SIZE
00004948 g       .sdata	00000000 __global_pointer$
00004100 g       .data	00000000 end_signature
00004020 g       .data	00000000 begin_regstate
00004040 g       .data	00000000 begin_signature
00000200 g       .text.init	00000000 _start
00000020 g       *ABS*	00000000 CL_SIZE
000000f8 g       .text.init	00000000 SIM_STOP
00004160 g       .bss	00000000 _end
00004140 g       .tohost	00000000 fromhost
00004100 g       .tohost	00000000 tohost
000000f4 g       .text.init	00000000 SIM_EXIT



Дизассемблирование раздела .text.init:

00000000 <SIM_EXIT-0xf4>:
	...

000000f4 <SIM_EXIT>:
  f4:	00000013          	nop

000000f8 <SIM_STOP>:
  f8:	0000006f          	j	f8 <SIM_STOP>
  fc:	ffff                	0xffff
  fe:	ffff                	0xffff
	...

000001c0 <trap_vector>:
 1c0:	34202773          	csrr	a4,mcause
 1c4:	47a1                	li	a5,8
 1c6:	02f70463          	beq	a4,a5,1ee <_report>
 1ca:	47a5                	li	a5,9
 1cc:	02f70163          	beq	a4,a5,1ee <_report>
 1d0:	47ad                	li	a5,11
 1d2:	00f70e63          	beq	a4,a5,1ee <_report>
 1d6:	00000717          	auipc	a4,0x0
 1da:	e2a70713          	addi	a4,a4,-470 # 0 <CL_SIZE-0x20>
 1de:	c311                	beqz	a4,1e2 <trap_vector+0x22>
 1e0:	8702                	jr	a4
 1e2:	34202773          	csrr	a4,mcause
 1e6:	00075363          	bgez	a4,1ec <handle_exception>
 1ea:	a009                	j	1ec <handle_exception>

000001ec <handle_exception>:
 1ec:	4505                	li	a0,1

000001ee <_report>:
 1ee:	5f30306f          	j	3fe0 <sc_exit>
 1f2:	00000013          	nop
 1f6:	00000013          	nop
 1fa:	00000013          	nop
 1fe:	0001                	nop

00000200 <_start>:
 200:	f1402573          	csrr	a0,mhartid
 204:	e101                	bnez	a0,204 <_start+0x4>
 206:	4181                	li	gp,0
 208:	00000297          	auipc	t0,0x0
 20c:	fb828293          	addi	t0,t0,-72 # 1c0 <trap_vector>
 210:	30529073          	csrw	mtvec,t0
 214:	4505                	li	a0,1
 216:	057e                	slli	a0,a0,0x1f
 218:	00054863          	bltz	a0,228 <_start+0x28>
 21c:	0ff0000f          	fence
 220:	858e                	mv	a1,gp
 222:	4501                	li	a0,0
 224:	00000073          	ecall
 228:	817d                	srli	a0,a0,0x1f
 22a:	00004297          	auipc	t0,0x4
 22e:	e1628293          	addi	t0,t0,-490 # 4040 <begin_signature>
 232:	00a2a023          	sw	a0,0(t0)
 236:	00000297          	auipc	t0,0x0
 23a:	dca28293          	addi	t0,t0,-566 # 0 <CL_SIZE-0x20>
 23e:	00028e63          	beqz	t0,25a <_start+0x5a>
 242:	10529073          	csrw	stvec,t0
 246:	0000b2b7          	lui	t0,0xb
 24a:	10928293          	addi	t0,t0,265 # b109 <__global_pointer$+0x67c1>
 24e:	30229073          	csrw	medeleg,t0
 252:	30202373          	csrr	t1,medeleg
 256:	f8629be3          	bne	t0,t1,1ec <handle_exception>
 25a:	30005073          	csrwi	mstatus,0
 25e:	00001297          	auipc	t0,0x1
 262:	da228293          	addi	t0,t0,-606 # 1000 <_run_test>
 266:	34129073          	csrw	mepc,t0
 26a:	f1402573          	csrr	a0,mhartid
 26e:	30200073          	mret
	...

Дизассемблирование раздела .text:

00001000 <_run_test>:
    1000:	00200193          	li	gp,2
    1004:	29a00593          	li	a1,666

00001008 <test_2>:
    1008:	7f70106f          	j	2ffe <data+0x1fee>
    100c:	00000013          	nop

00001010 <data>:
    1010:	3210                	fld	fa2,32(a2)
    1012:	7654                	flw	fa3,44(a2)
    1014:	ba98                	fsd	fa4,48(a3)
    1016:	fedc                	fsw	fa5,60(a3)
    1018:	3210                	fld	fa2,32(a2)
    101a:	7654                	flw	fa3,44(a2)
    101c:	ba98                	fsd	fa4,48(a3)
    101e:	fedc                	fsw	fa5,60(a3)
    1020:	00000013          	nop
    1024:	00000013          	nop
    1028:	00000013          	nop
    102c:	00000013          	nop
    1030:	00000013          	nop
    1034:	00000013          	nop
    1038:	00000013          	nop
    103c:	00000013          	nop
    1040:	00000013          	nop
    1044:	00000013          	nop
    1048:	00000013          	nop
    104c:	00000013          	nop
    1050:	00000013          	nop
    1054:	00000013          	nop
    1058:	00000013          	nop
    105c:	00000013          	nop
    1060:	00000013          	nop
    1064:	00000013          	nop
    1068:	00000013          	nop
    106c:	00000013          	nop
    1070:	00000013          	nop
    1074:	00000013          	nop
    1078:	00000013          	nop
    107c:	00000013          	nop
    1080:	00000013          	nop
    1084:	00000013          	nop
    1088:	00000013          	nop
    108c:	00000013          	nop
    1090:	00000013          	nop
    1094:	00000013          	nop
    1098:	00000013          	nop
    109c:	00000013          	nop
    10a0:	00000013          	nop
    10a4:	00000013          	nop
    10a8:	00000013          	nop
    10ac:	00000013          	nop
    10b0:	00000013          	nop
    10b4:	00000013          	nop
    10b8:	00000013          	nop
    10bc:	00000013          	nop
    10c0:	00000013          	nop
    10c4:	00000013          	nop
    10c8:	00000013          	nop
    10cc:	00000013          	nop
    10d0:	00000013          	nop
    10d4:	00000013          	nop
    10d8:	00000013          	nop
    10dc:	00000013          	nop
    10e0:	00000013          	nop
    10e4:	00000013          	nop
    10e8:	00000013          	nop
    10ec:	00000013          	nop
    10f0:	00000013          	nop
    10f4:	00000013          	nop
    10f8:	00000013          	nop
    10fc:	00000013          	nop
    1100:	00000013          	nop
    1104:	00000013          	nop
    1108:	00000013          	nop
    110c:	00000013          	nop
    1110:	00000013          	nop
    1114:	00000013          	nop
    1118:	00000013          	nop
    111c:	00000013          	nop
    1120:	00000013          	nop
    1124:	00000013          	nop
    1128:	00000013          	nop
    112c:	00000013          	nop
    1130:	00000013          	nop
    1134:	00000013          	nop
    1138:	00000013          	nop
    113c:	00000013          	nop
    1140:	00000013          	nop
    1144:	00000013          	nop
    1148:	00000013          	nop
    114c:	00000013          	nop
    1150:	00000013          	nop
    1154:	00000013          	nop
    1158:	00000013          	nop
    115c:	00000013          	nop
    1160:	00000013          	nop
    1164:	00000013          	nop
    1168:	00000013          	nop
    116c:	00000013          	nop
    1170:	00000013          	nop
    1174:	00000013          	nop
    1178:	00000013          	nop
    117c:	00000013          	nop
    1180:	00000013          	nop
    1184:	00000013          	nop
    1188:	00000013          	nop
    118c:	00000013          	nop
    1190:	00000013          	nop
    1194:	00000013          	nop
    1198:	00000013          	nop
    119c:	00000013          	nop
    11a0:	00000013          	nop
    11a4:	00000013          	nop
    11a8:	00000013          	nop
    11ac:	00000013          	nop
    11b0:	00000013          	nop
    11b4:	00000013          	nop
    11b8:	00000013          	nop
    11bc:	00000013          	nop
    11c0:	00000013          	nop
    11c4:	00000013          	nop
    11c8:	00000013          	nop
    11cc:	00000013          	nop
    11d0:	00000013          	nop
    11d4:	00000013          	nop
    11d8:	00000013          	nop
    11dc:	00000013          	nop
    11e0:	00000013          	nop
    11e4:	00000013          	nop
    11e8:	00000013          	nop
    11ec:	00000013          	nop
    11f0:	00000013          	nop
    11f4:	00000013          	nop
    11f8:	00000013          	nop
    11fc:	00000013          	nop
    1200:	00000013          	nop
    1204:	00000013          	nop
    1208:	00000013          	nop
    120c:	00000013          	nop
    1210:	00000013          	nop
    1214:	00000013          	nop
    1218:	00000013          	nop
    121c:	00000013          	nop
    1220:	00000013          	nop
    1224:	00000013          	nop
    1228:	00000013          	nop
    122c:	00000013          	nop
    1230:	00000013          	nop
    1234:	00000013          	nop
    1238:	00000013          	nop
    123c:	00000013          	nop
    1240:	00000013          	nop
    1244:	00000013          	nop
    1248:	00000013          	nop
    124c:	00000013          	nop
    1250:	00000013          	nop
    1254:	00000013          	nop
    1258:	00000013          	nop
    125c:	00000013          	nop
    1260:	00000013          	nop
    1264:	00000013          	nop
    1268:	00000013          	nop
    126c:	00000013          	nop
    1270:	00000013          	nop
    1274:	00000013          	nop
    1278:	00000013          	nop
    127c:	00000013          	nop
    1280:	00000013          	nop
    1284:	00000013          	nop
    1288:	00000013          	nop
    128c:	00000013          	nop
    1290:	00000013          	nop
    1294:	00000013          	nop
    1298:	00000013          	nop
    129c:	00000013          	nop
    12a0:	00000013          	nop
    12a4:	00000013          	nop
    12a8:	00000013          	nop
    12ac:	00000013          	nop
    12b0:	00000013          	nop
    12b4:	00000013          	nop
    12b8:	00000013          	nop
    12bc:	00000013          	nop
    12c0:	00000013          	nop
    12c4:	00000013          	nop
    12c8:	00000013          	nop
    12cc:	00000013          	nop
    12d0:	00000013          	nop
    12d4:	00000013          	nop
    12d8:	00000013          	nop
    12dc:	00000013          	nop
    12e0:	00000013          	nop
    12e4:	00000013          	nop
    12e8:	00000013          	nop
    12ec:	00000013          	nop
    12f0:	00000013          	nop
    12f4:	00000013          	nop
    12f8:	00000013          	nop
    12fc:	00000013          	nop
    1300:	00000013          	nop
    1304:	00000013          	nop
    1308:	00000013          	nop
    130c:	00000013          	nop
    1310:	00000013          	nop
    1314:	00000013          	nop
    1318:	00000013          	nop
    131c:	00000013          	nop
    1320:	00000013          	nop
    1324:	00000013          	nop
    1328:	00000013          	nop
    132c:	00000013          	nop
    1330:	00000013          	nop
    1334:	00000013          	nop
    1338:	00000013          	nop
    133c:	00000013          	nop
    1340:	00000013          	nop
    1344:	00000013          	nop
    1348:	00000013          	nop
    134c:	00000013          	nop
    1350:	00000013          	nop
    1354:	00000013          	nop
    1358:	00000013          	nop
    135c:	00000013          	nop
    1360:	00000013          	nop
    1364:	00000013          	nop
    1368:	00000013          	nop
    136c:	00000013          	nop
    1370:	00000013          	nop
    1374:	00000013          	nop
    1378:	00000013          	nop
    137c:	00000013          	nop
    1380:	00000013          	nop
    1384:	00000013          	nop
    1388:	00000013          	nop
    138c:	00000013          	nop
    1390:	00000013          	nop
    1394:	00000013          	nop
    1398:	00000013          	nop
    139c:	00000013          	nop
    13a0:	00000013          	nop
    13a4:	00000013          	nop
    13a8:	00000013          	nop
    13ac:	00000013          	nop
    13b0:	00000013          	nop
    13b4:	00000013          	nop
    13b8:	00000013          	nop
    13bc:	00000013          	nop
    13c0:	00000013          	nop
    13c4:	00000013          	nop
    13c8:	00000013          	nop
    13cc:	00000013          	nop
    13d0:	00000013          	nop
    13d4:	00000013          	nop
    13d8:	00000013          	nop
    13dc:	00000013          	nop
    13e0:	00000013          	nop
    13e4:	00000013          	nop
    13e8:	00000013          	nop
    13ec:	00000013          	nop
    13f0:	00000013          	nop
    13f4:	00000013          	nop
    13f8:	00000013          	nop
    13fc:	00000013          	nop
    1400:	00000013          	nop
    1404:	00000013          	nop
    1408:	00000013          	nop
    140c:	00000013          	nop
    1410:	00000013          	nop
    1414:	00000013          	nop
    1418:	00000013          	nop
    141c:	00000013          	nop
    1420:	00000013          	nop
    1424:	00000013          	nop
    1428:	00000013          	nop
    142c:	00000013          	nop
    1430:	00000013          	nop
    1434:	00000013          	nop
    1438:	00000013          	nop
    143c:	00000013          	nop
    1440:	00000013          	nop
    1444:	00000013          	nop
    1448:	00000013          	nop
    144c:	00000013          	nop
    1450:	00000013          	nop
    1454:	00000013          	nop
    1458:	00000013          	nop
    145c:	00000013          	nop
    1460:	00000013          	nop
    1464:	00000013          	nop
    1468:	00000013          	nop
    146c:	00000013          	nop
    1470:	00000013          	nop
    1474:	00000013          	nop
    1478:	00000013          	nop
    147c:	00000013          	nop
    1480:	00000013          	nop
    1484:	00000013          	nop
    1488:	00000013          	nop
    148c:	00000013          	nop
    1490:	00000013          	nop
    1494:	00000013          	nop
    1498:	00000013          	nop
    149c:	00000013          	nop
    14a0:	00000013          	nop
    14a4:	00000013          	nop
    14a8:	00000013          	nop
    14ac:	00000013          	nop
    14b0:	00000013          	nop
    14b4:	00000013          	nop
    14b8:	00000013          	nop
    14bc:	00000013          	nop
    14c0:	00000013          	nop
    14c4:	00000013          	nop
    14c8:	00000013          	nop
    14cc:	00000013          	nop
    14d0:	00000013          	nop
    14d4:	00000013          	nop
    14d8:	00000013          	nop
    14dc:	00000013          	nop
    14e0:	00000013          	nop
    14e4:	00000013          	nop
    14e8:	00000013          	nop
    14ec:	00000013          	nop
    14f0:	00000013          	nop
    14f4:	00000013          	nop
    14f8:	00000013          	nop
    14fc:	00000013          	nop
    1500:	00000013          	nop
    1504:	00000013          	nop
    1508:	00000013          	nop
    150c:	00000013          	nop
    1510:	00000013          	nop
    1514:	00000013          	nop
    1518:	00000013          	nop
    151c:	00000013          	nop
    1520:	00000013          	nop
    1524:	00000013          	nop
    1528:	00000013          	nop
    152c:	00000013          	nop
    1530:	00000013          	nop
    1534:	00000013          	nop
    1538:	00000013          	nop
    153c:	00000013          	nop
    1540:	00000013          	nop
    1544:	00000013          	nop
    1548:	00000013          	nop
    154c:	00000013          	nop
    1550:	00000013          	nop
    1554:	00000013          	nop
    1558:	00000013          	nop
    155c:	00000013          	nop
    1560:	00000013          	nop
    1564:	00000013          	nop
    1568:	00000013          	nop
    156c:	00000013          	nop
    1570:	00000013          	nop
    1574:	00000013          	nop
    1578:	00000013          	nop
    157c:	00000013          	nop
    1580:	00000013          	nop
    1584:	00000013          	nop
    1588:	00000013          	nop
    158c:	00000013          	nop
    1590:	00000013          	nop
    1594:	00000013          	nop
    1598:	00000013          	nop
    159c:	00000013          	nop
    15a0:	00000013          	nop
    15a4:	00000013          	nop
    15a8:	00000013          	nop
    15ac:	00000013          	nop
    15b0:	00000013          	nop
    15b4:	00000013          	nop
    15b8:	00000013          	nop
    15bc:	00000013          	nop
    15c0:	00000013          	nop
    15c4:	00000013          	nop
    15c8:	00000013          	nop
    15cc:	00000013          	nop
    15d0:	00000013          	nop
    15d4:	00000013          	nop
    15d8:	00000013          	nop
    15dc:	00000013          	nop
    15e0:	00000013          	nop
    15e4:	00000013          	nop
    15e8:	00000013          	nop
    15ec:	00000013          	nop
    15f0:	00000013          	nop
    15f4:	00000013          	nop
    15f8:	00000013          	nop
    15fc:	00000013          	nop
    1600:	00000013          	nop
    1604:	00000013          	nop
    1608:	00000013          	nop
    160c:	00000013          	nop
    1610:	00000013          	nop
    1614:	00000013          	nop
    1618:	00000013          	nop
    161c:	00000013          	nop
    1620:	00000013          	nop
    1624:	00000013          	nop
    1628:	00000013          	nop
    162c:	00000013          	nop
    1630:	00000013          	nop
    1634:	00000013          	nop
    1638:	00000013          	nop
    163c:	00000013          	nop
    1640:	00000013          	nop
    1644:	00000013          	nop
    1648:	00000013          	nop
    164c:	00000013          	nop
    1650:	00000013          	nop
    1654:	00000013          	nop
    1658:	00000013          	nop
    165c:	00000013          	nop
    1660:	00000013          	nop
    1664:	00000013          	nop
    1668:	00000013          	nop
    166c:	00000013          	nop
    1670:	00000013          	nop
    1674:	00000013          	nop
    1678:	00000013          	nop
    167c:	00000013          	nop
    1680:	00000013          	nop
    1684:	00000013          	nop
    1688:	00000013          	nop
    168c:	00000013          	nop
    1690:	00000013          	nop
    1694:	00000013          	nop
    1698:	00000013          	nop
    169c:	00000013          	nop
    16a0:	00000013          	nop
    16a4:	00000013          	nop
    16a8:	00000013          	nop
    16ac:	00000013          	nop
    16b0:	00000013          	nop
    16b4:	00000013          	nop
    16b8:	00000013          	nop
    16bc:	00000013          	nop
    16c0:	00000013          	nop
    16c4:	00000013          	nop
    16c8:	00000013          	nop
    16cc:	00000013          	nop
    16d0:	00000013          	nop
    16d4:	00000013          	nop
    16d8:	00000013          	nop
    16dc:	00000013          	nop
    16e0:	00000013          	nop
    16e4:	00000013          	nop
    16e8:	00000013          	nop
    16ec:	00000013          	nop
    16f0:	00000013          	nop
    16f4:	00000013          	nop
    16f8:	00000013          	nop
    16fc:	00000013          	nop
    1700:	00000013          	nop
    1704:	00000013          	nop
    1708:	00000013          	nop
    170c:	00000013          	nop
    1710:	00000013          	nop
    1714:	00000013          	nop
    1718:	00000013          	nop
    171c:	00000013          	nop
    1720:	00000013          	nop
    1724:	00000013          	nop
    1728:	00000013          	nop
    172c:	00000013          	nop
    1730:	00000013          	nop
    1734:	00000013          	nop
    1738:	00000013          	nop
    173c:	00000013          	nop
    1740:	00000013          	nop
    1744:	00000013          	nop
    1748:	00000013          	nop
    174c:	00000013          	nop
    1750:	00000013          	nop
    1754:	00000013          	nop
    1758:	00000013          	nop
    175c:	00000013          	nop
    1760:	00000013          	nop
    1764:	00000013          	nop
    1768:	00000013          	nop
    176c:	00000013          	nop
    1770:	00000013          	nop
    1774:	00000013          	nop
    1778:	00000013          	nop
    177c:	00000013          	nop
    1780:	00000013          	nop
    1784:	00000013          	nop
    1788:	00000013          	nop
    178c:	00000013          	nop
    1790:	00000013          	nop
    1794:	00000013          	nop
    1798:	00000013          	nop
    179c:	00000013          	nop
    17a0:	00000013          	nop
    17a4:	00000013          	nop
    17a8:	00000013          	nop
    17ac:	00000013          	nop
    17b0:	00000013          	nop
    17b4:	00000013          	nop
    17b8:	00000013          	nop
    17bc:	00000013          	nop
    17c0:	00000013          	nop
    17c4:	00000013          	nop
    17c8:	00000013          	nop
    17cc:	00000013          	nop
    17d0:	00000013          	nop
    17d4:	00000013          	nop
    17d8:	00000013          	nop
    17dc:	00000013          	nop
    17e0:	00000013          	nop
    17e4:	00000013          	nop
    17e8:	00000013          	nop
    17ec:	00000013          	nop
    17f0:	00000013          	nop
    17f4:	00000013          	nop
    17f8:	00000013          	nop
    17fc:	00000013          	nop
    1800:	00000013          	nop
    1804:	00000013          	nop
    1808:	00000013          	nop
    180c:	00000013          	nop
    1810:	00000013          	nop
    1814:	00000013          	nop
    1818:	00000013          	nop
    181c:	00000013          	nop
    1820:	00000013          	nop
    1824:	00000013          	nop
    1828:	00000013          	nop
    182c:	00000013          	nop
    1830:	00000013          	nop
    1834:	00000013          	nop
    1838:	00000013          	nop
    183c:	00000013          	nop
    1840:	00000013          	nop
    1844:	00000013          	nop
    1848:	00000013          	nop
    184c:	00000013          	nop
    1850:	00000013          	nop
    1854:	00000013          	nop
    1858:	00000013          	nop
    185c:	00000013          	nop
    1860:	00000013          	nop
    1864:	00000013          	nop
    1868:	00000013          	nop
    186c:	00000013          	nop
    1870:	00000013          	nop
    1874:	00000013          	nop
    1878:	00000013          	nop
    187c:	00000013          	nop
    1880:	00000013          	nop
    1884:	00000013          	nop
    1888:	00000013          	nop
    188c:	00000013          	nop
    1890:	00000013          	nop
    1894:	00000013          	nop
    1898:	00000013          	nop
    189c:	00000013          	nop
    18a0:	00000013          	nop
    18a4:	00000013          	nop
    18a8:	00000013          	nop
    18ac:	00000013          	nop
    18b0:	00000013          	nop
    18b4:	00000013          	nop
    18b8:	00000013          	nop
    18bc:	00000013          	nop
    18c0:	00000013          	nop
    18c4:	00000013          	nop
    18c8:	00000013          	nop
    18cc:	00000013          	nop
    18d0:	00000013          	nop
    18d4:	00000013          	nop
    18d8:	00000013          	nop
    18dc:	00000013          	nop
    18e0:	00000013          	nop
    18e4:	00000013          	nop
    18e8:	00000013          	nop
    18ec:	00000013          	nop
    18f0:	00000013          	nop
    18f4:	00000013          	nop
    18f8:	00000013          	nop
    18fc:	00000013          	nop
    1900:	00000013          	nop
    1904:	00000013          	nop
    1908:	00000013          	nop
    190c:	00000013          	nop
    1910:	00000013          	nop
    1914:	00000013          	nop
    1918:	00000013          	nop
    191c:	00000013          	nop
    1920:	00000013          	nop
    1924:	00000013          	nop
    1928:	00000013          	nop
    192c:	00000013          	nop
    1930:	00000013          	nop
    1934:	00000013          	nop
    1938:	00000013          	nop
    193c:	00000013          	nop
    1940:	00000013          	nop
    1944:	00000013          	nop
    1948:	00000013          	nop
    194c:	00000013          	nop
    1950:	00000013          	nop
    1954:	00000013          	nop
    1958:	00000013          	nop
    195c:	00000013          	nop
    1960:	00000013          	nop
    1964:	00000013          	nop
    1968:	00000013          	nop
    196c:	00000013          	nop
    1970:	00000013          	nop
    1974:	00000013          	nop
    1978:	00000013          	nop
    197c:	00000013          	nop
    1980:	00000013          	nop
    1984:	00000013          	nop
    1988:	00000013          	nop
    198c:	00000013          	nop
    1990:	00000013          	nop
    1994:	00000013          	nop
    1998:	00000013          	nop
    199c:	00000013          	nop
    19a0:	00000013          	nop
    19a4:	00000013          	nop
    19a8:	00000013          	nop
    19ac:	00000013          	nop
    19b0:	00000013          	nop
    19b4:	00000013          	nop
    19b8:	00000013          	nop
    19bc:	00000013          	nop
    19c0:	00000013          	nop
    19c4:	00000013          	nop
    19c8:	00000013          	nop
    19cc:	00000013          	nop
    19d0:	00000013          	nop
    19d4:	00000013          	nop
    19d8:	00000013          	nop
    19dc:	00000013          	nop
    19e0:	00000013          	nop
    19e4:	00000013          	nop
    19e8:	00000013          	nop
    19ec:	00000013          	nop
    19f0:	00000013          	nop
    19f4:	00000013          	nop
    19f8:	00000013          	nop
    19fc:	00000013          	nop
    1a00:	00000013          	nop
    1a04:	00000013          	nop
    1a08:	00000013          	nop
    1a0c:	00000013          	nop
    1a10:	00000013          	nop
    1a14:	00000013          	nop
    1a18:	00000013          	nop
    1a1c:	00000013          	nop
    1a20:	00000013          	nop
    1a24:	00000013          	nop
    1a28:	00000013          	nop
    1a2c:	00000013          	nop
    1a30:	00000013          	nop
    1a34:	00000013          	nop
    1a38:	00000013          	nop
    1a3c:	00000013          	nop
    1a40:	00000013          	nop
    1a44:	00000013          	nop
    1a48:	00000013          	nop
    1a4c:	00000013          	nop
    1a50:	00000013          	nop
    1a54:	00000013          	nop
    1a58:	00000013          	nop
    1a5c:	00000013          	nop
    1a60:	00000013          	nop
    1a64:	00000013          	nop
    1a68:	00000013          	nop
    1a6c:	00000013          	nop
    1a70:	00000013          	nop
    1a74:	00000013          	nop
    1a78:	00000013          	nop
    1a7c:	00000013          	nop
    1a80:	00000013          	nop
    1a84:	00000013          	nop
    1a88:	00000013          	nop
    1a8c:	00000013          	nop
    1a90:	00000013          	nop
    1a94:	00000013          	nop
    1a98:	00000013          	nop
    1a9c:	00000013          	nop
    1aa0:	00000013          	nop
    1aa4:	00000013          	nop
    1aa8:	00000013          	nop
    1aac:	00000013          	nop
    1ab0:	00000013          	nop
    1ab4:	00000013          	nop
    1ab8:	00000013          	nop
    1abc:	00000013          	nop
    1ac0:	00000013          	nop
    1ac4:	00000013          	nop
    1ac8:	00000013          	nop
    1acc:	00000013          	nop
    1ad0:	00000013          	nop
    1ad4:	00000013          	nop
    1ad8:	00000013          	nop
    1adc:	00000013          	nop
    1ae0:	00000013          	nop
    1ae4:	00000013          	nop
    1ae8:	00000013          	nop
    1aec:	00000013          	nop
    1af0:	00000013          	nop
    1af4:	00000013          	nop
    1af8:	00000013          	nop
    1afc:	00000013          	nop
    1b00:	00000013          	nop
    1b04:	00000013          	nop
    1b08:	00000013          	nop
    1b0c:	00000013          	nop
    1b10:	00000013          	nop
    1b14:	00000013          	nop
    1b18:	00000013          	nop
    1b1c:	00000013          	nop
    1b20:	00000013          	nop
    1b24:	00000013          	nop
    1b28:	00000013          	nop
    1b2c:	00000013          	nop
    1b30:	00000013          	nop
    1b34:	00000013          	nop
    1b38:	00000013          	nop
    1b3c:	00000013          	nop
    1b40:	00000013          	nop
    1b44:	00000013          	nop
    1b48:	00000013          	nop
    1b4c:	00000013          	nop
    1b50:	00000013          	nop
    1b54:	00000013          	nop
    1b58:	00000013          	nop
    1b5c:	00000013          	nop
    1b60:	00000013          	nop
    1b64:	00000013          	nop
    1b68:	00000013          	nop
    1b6c:	00000013          	nop
    1b70:	00000013          	nop
    1b74:	00000013          	nop
    1b78:	00000013          	nop
    1b7c:	00000013          	nop
    1b80:	00000013          	nop
    1b84:	00000013          	nop
    1b88:	00000013          	nop
    1b8c:	00000013          	nop
    1b90:	00000013          	nop
    1b94:	00000013          	nop
    1b98:	00000013          	nop
    1b9c:	00000013          	nop
    1ba0:	00000013          	nop
    1ba4:	00000013          	nop
    1ba8:	00000013          	nop
    1bac:	00000013          	nop
    1bb0:	00000013          	nop
    1bb4:	00000013          	nop
    1bb8:	00000013          	nop
    1bbc:	00000013          	nop
    1bc0:	00000013          	nop
    1bc4:	00000013          	nop
    1bc8:	00000013          	nop
    1bcc:	00000013          	nop
    1bd0:	00000013          	nop
    1bd4:	00000013          	nop
    1bd8:	00000013          	nop
    1bdc:	00000013          	nop
    1be0:	00000013          	nop
    1be4:	00000013          	nop
    1be8:	00000013          	nop
    1bec:	00000013          	nop
    1bf0:	00000013          	nop
    1bf4:	00000013          	nop
    1bf8:	00000013          	nop
    1bfc:	00000013          	nop
    1c00:	00000013          	nop
    1c04:	00000013          	nop
    1c08:	00000013          	nop
    1c0c:	00000013          	nop
    1c10:	00000013          	nop
    1c14:	00000013          	nop
    1c18:	00000013          	nop
    1c1c:	00000013          	nop
    1c20:	00000013          	nop
    1c24:	00000013          	nop
    1c28:	00000013          	nop
    1c2c:	00000013          	nop
    1c30:	00000013          	nop
    1c34:	00000013          	nop
    1c38:	00000013          	nop
    1c3c:	00000013          	nop
    1c40:	00000013          	nop
    1c44:	00000013          	nop
    1c48:	00000013          	nop
    1c4c:	00000013          	nop
    1c50:	00000013          	nop
    1c54:	00000013          	nop
    1c58:	00000013          	nop
    1c5c:	00000013          	nop
    1c60:	00000013          	nop
    1c64:	00000013          	nop
    1c68:	00000013          	nop
    1c6c:	00000013          	nop
    1c70:	00000013          	nop
    1c74:	00000013          	nop
    1c78:	00000013          	nop
    1c7c:	00000013          	nop
    1c80:	00000013          	nop
    1c84:	00000013          	nop
    1c88:	00000013          	nop
    1c8c:	00000013          	nop
    1c90:	00000013          	nop
    1c94:	00000013          	nop
    1c98:	00000013          	nop
    1c9c:	00000013          	nop
    1ca0:	00000013          	nop
    1ca4:	00000013          	nop
    1ca8:	00000013          	nop
    1cac:	00000013          	nop
    1cb0:	00000013          	nop
    1cb4:	00000013          	nop
    1cb8:	00000013          	nop
    1cbc:	00000013          	nop
    1cc0:	00000013          	nop
    1cc4:	00000013          	nop
    1cc8:	00000013          	nop
    1ccc:	00000013          	nop
    1cd0:	00000013          	nop
    1cd4:	00000013          	nop
    1cd8:	00000013          	nop
    1cdc:	00000013          	nop
    1ce0:	00000013          	nop
    1ce4:	00000013          	nop
    1ce8:	00000013          	nop
    1cec:	00000013          	nop
    1cf0:	00000013          	nop
    1cf4:	00000013          	nop
    1cf8:	00000013          	nop
    1cfc:	00000013          	nop
    1d00:	00000013          	nop
    1d04:	00000013          	nop
    1d08:	00000013          	nop
    1d0c:	00000013          	nop
    1d10:	00000013          	nop
    1d14:	00000013          	nop
    1d18:	00000013          	nop
    1d1c:	00000013          	nop
    1d20:	00000013          	nop
    1d24:	00000013          	nop
    1d28:	00000013          	nop
    1d2c:	00000013          	nop
    1d30:	00000013          	nop
    1d34:	00000013          	nop
    1d38:	00000013          	nop
    1d3c:	00000013          	nop
    1d40:	00000013          	nop
    1d44:	00000013          	nop
    1d48:	00000013          	nop
    1d4c:	00000013          	nop
    1d50:	00000013          	nop
    1d54:	00000013          	nop
    1d58:	00000013          	nop
    1d5c:	00000013          	nop
    1d60:	00000013          	nop
    1d64:	00000013          	nop
    1d68:	00000013          	nop
    1d6c:	00000013          	nop
    1d70:	00000013          	nop
    1d74:	00000013          	nop
    1d78:	00000013          	nop
    1d7c:	00000013          	nop
    1d80:	00000013          	nop
    1d84:	00000013          	nop
    1d88:	00000013          	nop
    1d8c:	00000013          	nop
    1d90:	00000013          	nop
    1d94:	00000013          	nop
    1d98:	00000013          	nop
    1d9c:	00000013          	nop
    1da0:	00000013          	nop
    1da4:	00000013          	nop
    1da8:	00000013          	nop
    1dac:	00000013          	nop
    1db0:	00000013          	nop
    1db4:	00000013          	nop
    1db8:	00000013          	nop
    1dbc:	00000013          	nop
    1dc0:	00000013          	nop
    1dc4:	00000013          	nop
    1dc8:	00000013          	nop
    1dcc:	00000013          	nop
    1dd0:	00000013          	nop
    1dd4:	00000013          	nop
    1dd8:	00000013          	nop
    1ddc:	00000013          	nop
    1de0:	00000013          	nop
    1de4:	00000013          	nop
    1de8:	00000013          	nop
    1dec:	00000013          	nop
    1df0:	00000013          	nop
    1df4:	00000013          	nop
    1df8:	00000013          	nop
    1dfc:	00000013          	nop
    1e00:	00000013          	nop
    1e04:	00000013          	nop
    1e08:	00000013          	nop
    1e0c:	00000013          	nop
    1e10:	00000013          	nop
    1e14:	00000013          	nop
    1e18:	00000013          	nop
    1e1c:	00000013          	nop
    1e20:	00000013          	nop
    1e24:	00000013          	nop
    1e28:	00000013          	nop
    1e2c:	00000013          	nop
    1e30:	00000013          	nop
    1e34:	00000013          	nop
    1e38:	00000013          	nop
    1e3c:	00000013          	nop
    1e40:	00000013          	nop
    1e44:	00000013          	nop
    1e48:	00000013          	nop
    1e4c:	00000013          	nop
    1e50:	00000013          	nop
    1e54:	00000013          	nop
    1e58:	00000013          	nop
    1e5c:	00000013          	nop
    1e60:	00000013          	nop
    1e64:	00000013          	nop
    1e68:	00000013          	nop
    1e6c:	00000013          	nop
    1e70:	00000013          	nop
    1e74:	00000013          	nop
    1e78:	00000013          	nop
    1e7c:	00000013          	nop
    1e80:	00000013          	nop
    1e84:	00000013          	nop
    1e88:	00000013          	nop
    1e8c:	00000013          	nop
    1e90:	00000013          	nop
    1e94:	00000013          	nop
    1e98:	00000013          	nop
    1e9c:	00000013          	nop
    1ea0:	00000013          	nop
    1ea4:	00000013          	nop
    1ea8:	00000013          	nop
    1eac:	00000013          	nop
    1eb0:	00000013          	nop
    1eb4:	00000013          	nop
    1eb8:	00000013          	nop
    1ebc:	00000013          	nop
    1ec0:	00000013          	nop
    1ec4:	00000013          	nop
    1ec8:	00000013          	nop
    1ecc:	00000013          	nop
    1ed0:	00000013          	nop
    1ed4:	00000013          	nop
    1ed8:	00000013          	nop
    1edc:	00000013          	nop
    1ee0:	00000013          	nop
    1ee4:	00000013          	nop
    1ee8:	00000013          	nop
    1eec:	00000013          	nop
    1ef0:	00000013          	nop
    1ef4:	00000013          	nop
    1ef8:	00000013          	nop
    1efc:	00000013          	nop
    1f00:	00000013          	nop
    1f04:	00000013          	nop
    1f08:	00000013          	nop
    1f0c:	00000013          	nop
    1f10:	00000013          	nop
    1f14:	00000013          	nop
    1f18:	00000013          	nop
    1f1c:	00000013          	nop
    1f20:	00000013          	nop
    1f24:	00000013          	nop
    1f28:	00000013          	nop
    1f2c:	00000013          	nop
    1f30:	00000013          	nop
    1f34:	00000013          	nop
    1f38:	00000013          	nop
    1f3c:	00000013          	nop
    1f40:	00000013          	nop
    1f44:	00000013          	nop
    1f48:	00000013          	nop
    1f4c:	00000013          	nop
    1f50:	00000013          	nop
    1f54:	00000013          	nop
    1f58:	00000013          	nop
    1f5c:	00000013          	nop
    1f60:	00000013          	nop
    1f64:	00000013          	nop
    1f68:	00000013          	nop
    1f6c:	00000013          	nop
    1f70:	00000013          	nop
    1f74:	00000013          	nop
    1f78:	00000013          	nop
    1f7c:	00000013          	nop
    1f80:	00000013          	nop
    1f84:	00000013          	nop
    1f88:	00000013          	nop
    1f8c:	00000013          	nop
    1f90:	00000013          	nop
    1f94:	00000013          	nop
    1f98:	00000013          	nop
    1f9c:	00000013          	nop
    1fa0:	00000013          	nop
    1fa4:	00000013          	nop
    1fa8:	00000013          	nop
    1fac:	00000013          	nop
    1fb0:	00000013          	nop
    1fb4:	00000013          	nop
    1fb8:	00000013          	nop
    1fbc:	00000013          	nop
    1fc0:	00000013          	nop
    1fc4:	00000013          	nop
    1fc8:	00000013          	nop
    1fcc:	00000013          	nop
    1fd0:	00000013          	nop
    1fd4:	00000013          	nop
    1fd8:	00000013          	nop
    1fdc:	00000013          	nop
    1fe0:	00000013          	nop
    1fe4:	00000013          	nop
    1fe8:	00000013          	nop
    1fec:	00000013          	nop
    1ff0:	00000013          	nop
    1ff4:	00000013          	nop
    1ff8:	00000013          	nop
    1ffc:	00000013          	nop
	...
    2ffc:	0000                	unimp
    2ffe:	00158593          	addi	a1,a1,1
    3002:	29b00e93          	li	t4,667
    3006:	00200193          	li	gp,2
    300a:	00001e17          	auipc	t3,0x1
    300e:	036e0e13          	addi	t3,t3,54 # 4040 <begin_signature>
    3012:	00be2423          	sw	a1,8(t3)
    3016:	35d59f63          	bne	a1,t4,3374 <fail>
    301a:	00001137          	lui	sp,0x1
    301e:	23410113          	addi	sp,sp,564 # 1234 <data+0x224>

00003022 <test_3>:
    3022:	1fe8                	addi	a0,sp,1020
    3024:	00001eb7          	lui	t4,0x1
    3028:	630e8e93          	addi	t4,t4,1584 # 1630 <data+0x620>
    302c:	00300193          	li	gp,3
    3030:	00001e17          	auipc	t3,0x1
    3034:	010e0e13          	addi	t3,t3,16 # 4040 <begin_signature>
    3038:	00ae2623          	sw	a0,12(t3)
    303c:	33d51c63          	bne	a0,t4,3374 <fail>

00003040 <test_4>:
    3040:	617d                	addi	sp,sp,496
    3042:	0001                	nop
    3044:	00001eb7          	lui	t4,0x1
    3048:	424e8e93          	addi	t4,t4,1060 # 1424 <data+0x414>
    304c:	00400193          	li	gp,4
    3050:	00001e17          	auipc	t3,0x1
    3054:	ff0e0e13          	addi	t3,t3,-16 # 4040 <begin_signature>
    3058:	002e2823          	sw	sp,16(t3)
    305c:	31d11c63          	bne	sp,t4,3374 <fail>

00003060 <test_5>:
    3060:	7101                	addi	sp,sp,-512
    3062:	0001                	nop
    3064:	00001eb7          	lui	t4,0x1
    3068:	224e8e93          	addi	t4,t4,548 # 1224 <data+0x214>
    306c:	00500193          	li	gp,5
    3070:	00001e17          	auipc	t3,0x1
    3074:	fd0e0e13          	addi	t3,t3,-48 # 4040 <begin_signature>
    3078:	002e2a23          	sw	sp,20(t3)
    307c:	2fd11c63          	bne	sp,t4,3374 <fail>
    3080:	ffffe597          	auipc	a1,0xffffe
    3084:	f9058593          	addi	a1,a1,-112 # 1010 <data>

00003088 <test_6>:
    3088:	41c8                	lw	a0,4(a1)
    308a:	0505                	addi	a0,a0,1
    308c:	c1c8                	sw	a0,4(a1)
    308e:	41d0                	lw	a2,4(a1)
    3090:	fedcceb7          	lui	t4,0xfedcc
    3094:	a99e8e93          	addi	t4,t4,-1383 # fedcba99 <__global_pointer$+0xfedc7151>
    3098:	00600193          	li	gp,6
    309c:	00001e17          	auipc	t3,0x1
    30a0:	fa4e0e13          	addi	t3,t3,-92 # 4040 <begin_signature>
    30a4:	00ce2c23          	sw	a2,24(t3)
    30a8:	2dd61663          	bne	a2,t4,3374 <fail>

000030ac <test_8>:
    30ac:	00106513          	ori	a0,zero,1
    30b0:	1541                	addi	a0,a0,-16
    30b2:	0001                	nop
    30b4:	ff100e93          	li	t4,-15
    30b8:	00800193          	li	gp,8
    30bc:	00001e17          	auipc	t3,0x1
    30c0:	f84e0e13          	addi	t3,t3,-124 # 4040 <begin_signature>
    30c4:	02ae2023          	sw	a0,32(t3)
    30c8:	2bd51663          	bne	a0,t4,3374 <fail>

000030cc <test_9>:
    30cc:	00106793          	ori	a5,zero,1
    30d0:	57c1                	li	a5,-16
    30d2:	0001                	nop
    30d4:	ff000e93          	li	t4,-16
    30d8:	00900193          	li	gp,9
    30dc:	00001e17          	auipc	t3,0x1
    30e0:	f64e0e13          	addi	t3,t3,-156 # 4040 <begin_signature>
    30e4:	02fe2223          	sw	a5,36(t3)
    30e8:	29d79663          	bne	a5,t4,3374 <fail>

000030ec <test_11>:
    30ec:	7405                	lui	s0,0xfffe1
    30ee:	8431                	srai	s0,s0,0xc
    30f0:	fe100e93          	li	t4,-31
    30f4:	00b00193          	li	gp,11
    30f8:	00001e17          	auipc	t3,0x1
    30fc:	f48e0e13          	addi	t3,t3,-184 # 4040 <begin_signature>
    3100:	028e2623          	sw	s0,44(t3)
    3104:	27d41863          	bne	s0,t4,3374 <fail>

00003108 <test_12>:
    3108:	7405                	lui	s0,0xfffe1
    310a:	8031                	srli	s0,s0,0xc
    310c:	00100eb7          	lui	t4,0x100
    3110:	fe1e8e93          	addi	t4,t4,-31 # fffe1 <__global_pointer$+0xfb699>
    3114:	00c00193          	li	gp,12
    3118:	00001e17          	auipc	t3,0x1
    311c:	f28e0e13          	addi	t3,t3,-216 # 4040 <begin_signature>
    3120:	028e2823          	sw	s0,48(t3)
    3124:	25d41863          	bne	s0,t4,3374 <fail>

00003128 <test_14>:
    3128:	5479                	li	s0,-2
    312a:	983d                	andi	s0,s0,-17
    312c:	fee00e93          	li	t4,-18
    3130:	00e00193          	li	gp,14
    3134:	00001e17          	auipc	t3,0x1
    3138:	f0ce0e13          	addi	t3,t3,-244 # 4040 <begin_signature>
    313c:	028e2c23          	sw	s0,56(t3)
    3140:	23d41a63          	bne	s0,t4,3374 <fail>

00003144 <test_15>:
    3144:	44d1                	li	s1,20
    3146:	4519                	li	a0,6
    3148:	8c89                	sub	s1,s1,a0
    314a:	0001                	nop
    314c:	00e00e93          	li	t4,14
    3150:	00f00193          	li	gp,15
    3154:	00001e17          	auipc	t3,0x1
    3158:	eece0e13          	addi	t3,t3,-276 # 4040 <begin_signature>
    315c:	029e2e23          	sw	s1,60(t3)
    3160:	21d49a63          	bne	s1,t4,3374 <fail>

00003164 <test_16>:
    3164:	44d1                	li	s1,20
    3166:	4519                	li	a0,6
    3168:	8ca9                	xor	s1,s1,a0
    316a:	0001                	nop
    316c:	01200e93          	li	t4,18
    3170:	01000193          	li	gp,16
    3174:	00001e17          	auipc	t3,0x1
    3178:	ecce0e13          	addi	t3,t3,-308 # 4040 <begin_signature>
    317c:	049e2023          	sw	s1,64(t3)
    3180:	1fd49a63          	bne	s1,t4,3374 <fail>

00003184 <test_17>:
    3184:	44d1                	li	s1,20
    3186:	4519                	li	a0,6
    3188:	8cc9                	or	s1,s1,a0
    318a:	0001                	nop
    318c:	01600e93          	li	t4,22
    3190:	01100193          	li	gp,17
    3194:	00001e17          	auipc	t3,0x1
    3198:	eace0e13          	addi	t3,t3,-340 # 4040 <begin_signature>
    319c:	049e2223          	sw	s1,68(t3)
    31a0:	1dd49a63          	bne	s1,t4,3374 <fail>

000031a4 <test_18>:
    31a4:	44d1                	li	s1,20
    31a6:	4519                	li	a0,6
    31a8:	8ce9                	and	s1,s1,a0
    31aa:	0001                	nop
    31ac:	00400e93          	li	t4,4
    31b0:	01200193          	li	gp,18
    31b4:	00001e17          	auipc	t3,0x1
    31b8:	e8ce0e13          	addi	t3,t3,-372 # 4040 <begin_signature>
    31bc:	049e2423          	sw	s1,72(t3)
    31c0:	1bd49a63          	bne	s1,t4,3374 <fail>

000031c4 <test_21>:
    31c4:	00001437          	lui	s0,0x1
    31c8:	23440413          	addi	s0,s0,564 # 1234 <data+0x224>
    31cc:	0412                	slli	s0,s0,0x4
    31ce:	0001                	nop
    31d0:	00012eb7          	lui	t4,0x12
    31d4:	340e8e93          	addi	t4,t4,832 # 12340 <__global_pointer$+0xd9f8>
    31d8:	01500193          	li	gp,21
    31dc:	00001e17          	auipc	t3,0x1
    31e0:	e64e0e13          	addi	t3,t3,-412 # 4040 <begin_signature>
    31e4:	048e2a23          	sw	s0,84(t3)
    31e8:	19d41663          	bne	s0,t4,3374 <fail>

000031ec <test_30>:
    31ec:	4081                	li	ra,0
    31ee:	a011                	j	31f2 <test_30+0x6>
    31f0:	a011                	j	31f4 <test_30+0x8>
    31f2:	a011                	j	31f6 <test_30+0xa>
    31f4:	a241                	j	3374 <fail>
    31f6:	0001                	nop
    31f8:	00000e93          	li	t4,0
    31fc:	01e00193          	li	gp,30
    3200:	00001e17          	auipc	t3,0x1
    3204:	e40e0e13          	addi	t3,t3,-448 # 4040 <begin_signature>
    3208:	061e2c23          	sw	ra,120(t3)
    320c:	17d09463          	bne	ra,t4,3374 <fail>

00003210 <test_31>:
    3210:	4501                	li	a0,0
    3212:	c111                	beqz	a0,3216 <test_31+0x6>
    3214:	a011                	j	3218 <test_31+0x8>
    3216:	a011                	j	321a <test_31+0xa>
    3218:	aab1                	j	3374 <fail>
    321a:	0001                	nop
    321c:	00000e93          	li	t4,0
    3220:	01f00193          	li	gp,31
    3224:	00001e17          	auipc	t3,0x1
    3228:	e1ce0e13          	addi	t3,t3,-484 # 4040 <begin_signature>
    322c:	060e2e23          	sw	zero,124(t3)
    3230:	15d01263          	bne	zero,t4,3374 <fail>

00003234 <test_32>:
    3234:	4505                	li	a0,1
    3236:	e111                	bnez	a0,323a <test_32+0x6>
    3238:	a011                	j	323c <test_32+0x8>
    323a:	a011                	j	323e <test_32+0xa>
    323c:	aa25                	j	3374 <fail>
    323e:	0001                	nop
    3240:	00000e93          	li	t4,0
    3244:	02000193          	li	gp,32
    3248:	00001e17          	auipc	t3,0x1
    324c:	df8e0e13          	addi	t3,t3,-520 # 4040 <begin_signature>
    3250:	080e2023          	sw	zero,128(t3)
    3254:	13d01063          	bne	zero,t4,3374 <fail>

00003258 <test_33>:
    3258:	4505                	li	a0,1
    325a:	c111                	beqz	a0,325e <test_33+0x6>
    325c:	a011                	j	3260 <test_33+0x8>
    325e:	aa19                	j	3374 <fail>
    3260:	00000e93          	li	t4,0
    3264:	02100193          	li	gp,33
    3268:	00001e17          	auipc	t3,0x1
    326c:	dd8e0e13          	addi	t3,t3,-552 # 4040 <begin_signature>
    3270:	080e2223          	sw	zero,132(t3)
    3274:	11d01063          	bne	zero,t4,3374 <fail>

00003278 <test_34>:
    3278:	4501                	li	a0,0
    327a:	e111                	bnez	a0,327e <test_34+0x6>
    327c:	a011                	j	3280 <test_34+0x8>
    327e:	a8dd                	j	3374 <fail>
    3280:	00000e93          	li	t4,0
    3284:	02200193          	li	gp,34
    3288:	00001e17          	auipc	t3,0x1
    328c:	db8e0e13          	addi	t3,t3,-584 # 4040 <begin_signature>
    3290:	080e2423          	sw	zero,136(t3)
    3294:	0fd01063          	bne	zero,t4,3374 <fail>

00003298 <test_35>:
    3298:	00000297          	auipc	t0,0x0
    329c:	00e28293          	addi	t0,t0,14 # 32a6 <test_35+0xe>
    32a0:	4081                	li	ra,0
    32a2:	8282                	jr	t0
    32a4:	a011                	j	32a8 <test_35+0x10>
    32a6:	a011                	j	32aa <test_35+0x12>
    32a8:	a0f1                	j	3374 <fail>
    32aa:	0001                	nop
    32ac:	00000e93          	li	t4,0
    32b0:	02300193          	li	gp,35
    32b4:	00001e17          	auipc	t3,0x1
    32b8:	d8ce0e13          	addi	t3,t3,-628 # 4040 <begin_signature>
    32bc:	081e2623          	sw	ra,140(t3)
    32c0:	0bd09a63          	bne	ra,t4,3374 <fail>

000032c4 <test_36>:
    32c4:	00000297          	auipc	t0,0x0
    32c8:	00e28293          	addi	t0,t0,14 # 32d2 <test_36+0xe>
    32cc:	4081                	li	ra,0
    32ce:	9282                	jalr	t0
    32d0:	a011                	j	32d4 <test_36+0x10>
    32d2:	a011                	j	32d6 <test_36+0x12>
    32d4:	a045                	j	3374 <fail>
    32d6:	405080b3          	sub	ra,ra,t0
    32da:	0001                	nop
    32dc:	ffe00e93          	li	t4,-2
    32e0:	02400193          	li	gp,36
    32e4:	00001e17          	auipc	t3,0x1
    32e8:	d5ce0e13          	addi	t3,t3,-676 # 4040 <begin_signature>
    32ec:	081e2823          	sw	ra,144(t3)
    32f0:	09d09263          	bne	ra,t4,3374 <fail>

000032f4 <test_37>:
    32f4:	00000297          	auipc	t0,0x0
    32f8:	00e28293          	addi	t0,t0,14 # 3302 <test_37+0xe>
    32fc:	4081                	li	ra,0
    32fe:	2011                	jal	3302 <test_37+0xe>
    3300:	a011                	j	3304 <test_37+0x10>
    3302:	a011                	j	3306 <test_37+0x12>
    3304:	a885                	j	3374 <fail>
    3306:	405080b3          	sub	ra,ra,t0
    330a:	0001                	nop
    330c:	ffe00e93          	li	t4,-2
    3310:	02500193          	li	gp,37
    3314:	00001e17          	auipc	t3,0x1
    3318:	d2ce0e13          	addi	t3,t3,-724 # 4040 <begin_signature>
    331c:	081e2a23          	sw	ra,148(t3)
    3320:	05d09a63          	bne	ra,t4,3374 <fail>
    3324:	ffffe117          	auipc	sp,0xffffe
    3328:	cec10113          	addi	sp,sp,-788 # 1010 <data>

0000332c <test_40>:
    332c:	4532                	lw	a0,12(sp)
    332e:	0505                	addi	a0,a0,1
    3330:	c62a                	sw	a0,12(sp)
    3332:	4632                	lw	a2,12(sp)
    3334:	fedcceb7          	lui	t4,0xfedcc
    3338:	a99e8e93          	addi	t4,t4,-1383 # fedcba99 <__global_pointer$+0xfedc7151>
    333c:	02800193          	li	gp,40
    3340:	00001e17          	auipc	t3,0x1
    3344:	d00e0e13          	addi	t3,t3,-768 # 4040 <begin_signature>
    3348:	0ace2023          	sw	a2,160(t3)
    334c:	03d61463          	bne	a2,t4,3374 <fail>

00003350 <test_42>:
    3350:	12300513          	li	a0,291
    3354:	82aa                	mv	t0,a0
    3356:	92aa                	add	t0,t0,a0
    3358:	24600e93          	li	t4,582
    335c:	02a00193          	li	gp,42
    3360:	00001e17          	auipc	t3,0x1
    3364:	ce0e0e13          	addi	t3,t3,-800 # 4040 <begin_signature>
    3368:	0a5e2423          	sw	t0,168(t3)
    336c:	01d29463          	bne	t0,t4,3374 <fail>
    3370:	00301863          	bne	zero,gp,3380 <pass>

00003374 <fail>:
    3374:	0ff0000f          	fence
    3378:	858e                	mv	a1,gp
    337a:	4505                	li	a0,1
    337c:	00000073          	ecall

00003380 <pass>:
    3380:	0ff0000f          	fence
    3384:	858e                	mv	a1,gp
    3386:	4501                	li	a0,0
    3388:	00000073          	ecall

0000338c <ecall>:
    338c:	00000073          	ecall
	...

00003fe0 <sc_exit>:
    3fe0:	914fc06f          	j	f4 <SIM_EXIT>
    3fe4:	00000013          	nop
    3fe8:	00000013          	nop
    3fec:	00000013          	nop
    3ff0:	00000013          	nop
    3ff4:	00000013          	nop
    3ff8:	00000013          	nop
    3ffc:	00000013          	nop
	...

Дизассемблирование раздела .data:

00004020 <begin_regstate>:
	...

00004040 <begin_signature>:
    4040:	ffff                	0xffff
    4042:	ffff                	0xffff
    4044:	ffff                	0xffff
    4046:	ffff                	0xffff
    4048:	ffff                	0xffff
    404a:	ffff                	0xffff
    404c:	ffff                	0xffff
    404e:	ffff                	0xffff
    4050:	ffff                	0xffff
    4052:	ffff                	0xffff
    4054:	ffff                	0xffff
    4056:	ffff                	0xffff
    4058:	ffff                	0xffff
    405a:	ffff                	0xffff
    405c:	ffff                	0xffff
    405e:	ffff                	0xffff
    4060:	ffff                	0xffff
    4062:	ffff                	0xffff
    4064:	ffff                	0xffff
    4066:	ffff                	0xffff
    4068:	ffff                	0xffff
    406a:	ffff                	0xffff
    406c:	ffff                	0xffff
    406e:	ffff                	0xffff
    4070:	ffff                	0xffff
    4072:	ffff                	0xffff
    4074:	ffff                	0xffff
    4076:	ffff                	0xffff
    4078:	ffff                	0xffff
    407a:	ffff                	0xffff
    407c:	ffff                	0xffff
    407e:	ffff                	0xffff
    4080:	ffff                	0xffff
    4082:	ffff                	0xffff
    4084:	ffff                	0xffff
    4086:	ffff                	0xffff
    4088:	ffff                	0xffff
    408a:	ffff                	0xffff
    408c:	ffff                	0xffff
    408e:	ffff                	0xffff
    4090:	ffff                	0xffff
    4092:	ffff                	0xffff
    4094:	ffff                	0xffff
    4096:	ffff                	0xffff
    4098:	ffff                	0xffff
    409a:	ffff                	0xffff
    409c:	ffff                	0xffff
    409e:	ffff                	0xffff
    40a0:	ffff                	0xffff
    40a2:	ffff                	0xffff
    40a4:	ffff                	0xffff
    40a6:	ffff                	0xffff
    40a8:	ffff                	0xffff
    40aa:	ffff                	0xffff
    40ac:	ffff                	0xffff
    40ae:	ffff                	0xffff
    40b0:	ffff                	0xffff
    40b2:	ffff                	0xffff
    40b4:	ffff                	0xffff
    40b6:	ffff                	0xffff
    40b8:	ffff                	0xffff
    40ba:	ffff                	0xffff
    40bc:	ffff                	0xffff
    40be:	ffff                	0xffff
    40c0:	ffff                	0xffff
    40c2:	ffff                	0xffff
    40c4:	ffff                	0xffff
    40c6:	ffff                	0xffff
    40c8:	ffff                	0xffff
    40ca:	ffff                	0xffff
    40cc:	ffff                	0xffff
    40ce:	ffff                	0xffff
    40d0:	ffff                	0xffff
    40d2:	ffff                	0xffff
    40d4:	ffff                	0xffff
    40d6:	ffff                	0xffff
    40d8:	ffff                	0xffff
    40da:	ffff                	0xffff
    40dc:	ffff                	0xffff
    40de:	ffff                	0xffff
    40e0:	ffff                	0xffff
    40e2:	ffff                	0xffff
    40e4:	ffff                	0xffff
    40e6:	ffff                	0xffff
    40e8:	ffff                	0xffff
    40ea:	ffff                	0xffff
    40ec:	ffff                	0xffff
    40ee:	ffff                	0xffff
    40f0:	ffff                	0xffff
    40f2:	ffff                	0xffff
    40f4:	ffff                	0xffff
    40f6:	ffff                	0xffff
    40f8:	ffff                	0xffff
    40fa:	ffff                	0xffff
    40fc:	ffff                	0xffff
    40fe:	ffff                	0xffff

Дизассемблирование раздела .tohost:

00004100 <tohost>:
	...

00004140 <fromhost>:
	...

Дизассемблирование раздела .sdata:

00004148 <__global_pointer$-0x800>:
	...

Дизассемблирование раздела .stack:

0000fc00 <.stack>:
	...
