
/home/oleg/scr1/build/verilator_wf_AHB_IMC/compliance_I-JAL-01.elf:     формат файла elf32-littleriscv
/home/oleg/scr1/build/verilator_wf_AHB_IMC/compliance_I-JAL-01.elf
архитектура: riscv:rv32, флаги 0x00000112:
EXEC_P, HAS_SYMS, D_PAGED
начальный адрес 0x00000200

Заголовок программы:
    LOAD off    0x00001000 vaddr 0x00000000 paddr 0x00000000 align 2**12
         filesz 0x000009c8 memsz 0x000009e0 flags rwx
    LOAD off    0x00001c00 vaddr 0x0000fc00 paddr 0x0000fc00 align 2**12
         filesz 0x00000000 memsz 0x00000400 flags rw-

Разделы:
Idx Name          Size      VMA       LMA       File off  Algn  Флаги
  0 .text.init    00000284  00000000  00000000  00001000  2**6  CONTENTS, ALLOC, LOAD, READONLY, CODE
  1 .text         00000520  000002a0  000002a0  000012a0  2**5  CONTENTS, ALLOC, LOAD, READONLY, CODE
  2 .data         000001c0  000007c0  000007c0  000017c0  2**4  CONTENTS, ALLOC, LOAD, DATA
  3 .tohost       00000048  00000980  00000980  00001980  2**6  CONTENTS, ALLOC, LOAD, DATA
  4 .sdata        00000018  000009c8  000009c8  000019c8  2**0  ALLOC
  5 .tdata        00000000  000009e0  000009e0  000019c8  2**0  CONTENTS, ALLOC, LOAD, DATA, THREAD_LOCAL
  6 .tbss         00000000  000009e0  000009e0  00000000  2**0  ALLOC, THREAD_LOCAL
  7 .bss          00000000  000009e0  000009e0  000019c8  2**0  ALLOC
  8 .stack        00000400  0000fc00  0000fc00  00001c00  2**0  ALLOC
SYMBOL TABLE:
00000000 l    d  .text.init	00000000 .text.init
000002a0 l    d  .text	00000000 .text
000007c0 l    d  .data	00000000 .data
00000980 l    d  .tohost	00000000 .tohost
000009c8 l    d  .sdata	00000000 .sdata
000009e0 l    d  .tdata	00000000 .tdata
000009e0 l    d  .tbss	00000000 .tbss
000009e0 l    d  .bss	00000000 .bss
0000fc00 l    d  .stack	00000000 .stack
00000000 l    df *ABS*	00000000 /home/oleg/scr1/build/verilator_wf_AHB_IMC/riscv_compliance/riscv_compliance_objs/I-JAL-01.o
00000780 l       .text	00000000 sc_exit
000001c0 l       .text.init	00000000 trap_vector
000001fc l       .text.init	00000000 _report
000001f8 l       .text.init	00000000 handle_exception
000001f8 l       .text.init	00000000 other_exception
000002a0 l       .text	00000000 _run_test
000007f0 l       .data	00000000 test_A1_res
000007f8 l       .data	00000000 test_A2_res
000007c0 l       .data	00000000 test_B1_data
00000808 l       .data	00000000 test_B1_res
0000050c l       .text	00000000 B1a_link
00000518 l       .text	00000000 B1b_link
000007c8 l       .data	00000000 test_B2_data
00000824 l       .data	00000000 test_B2_res
00000674 l       .text	00000000 B2b_link
00000680 l       .text	00000000 B2c_link
00000760 l       .text	00000000 ecall
00000400 g       *ABS*	00000000 STACK_SIZE
000011c8 g       .sdata	00000000 __global_pointer$
00000840 g       .data	00000000 end_signature
000007d0 g       .data	00000000 begin_regstate
000007f0 g       .data	00000000 begin_signature
00000200 g       .text.init	00000000 _start
00000020 g       *ABS*	00000000 CL_SIZE
000000f8 g       .text.init	00000000 SIM_STOP
000009e0 g       .bss	00000000 _end
000009c0 g       .tohost	00000000 fromhost
00000980 g       .tohost	00000000 tohost
000000f4 g       .text.init	00000000 SIM_EXIT



Дизассемблирование раздела .text.init:

00000000 <SIM_EXIT-0xf4>:
	...

000000f4 <SIM_EXIT>:
  f4:	00000013          	nop

000000f8 <SIM_STOP>:
  f8:	0000006f          	j	f8 <SIM_STOP>
  fc:	ffff                	0xffff
  fe:	ffff                	0xffff
	...

000001c0 <trap_vector>:
 1c0:	34202773          	csrr	a4,mcause
 1c4:	00800793          	li	a5,8
 1c8:	02f70a63          	beq	a4,a5,1fc <_report>
 1cc:	00900793          	li	a5,9
 1d0:	02f70663          	beq	a4,a5,1fc <_report>
 1d4:	00b00793          	li	a5,11
 1d8:	02f70263          	beq	a4,a5,1fc <_report>
 1dc:	00000717          	auipc	a4,0x0
 1e0:	e2470713          	addi	a4,a4,-476 # 0 <CL_SIZE-0x20>
 1e4:	00070463          	beqz	a4,1ec <trap_vector+0x2c>
 1e8:	00070067          	jr	a4
 1ec:	34202773          	csrr	a4,mcause
 1f0:	00075463          	bgez	a4,1f8 <handle_exception>
 1f4:	0040006f          	j	1f8 <handle_exception>

000001f8 <handle_exception>:
 1f8:	00100513          	li	a0,1

000001fc <_report>:
 1fc:	5840006f          	j	780 <sc_exit>

00000200 <_start>:
 200:	f1402573          	csrr	a0,mhartid
 204:	00051063          	bnez	a0,204 <_start+0x4>
 208:	00000e13          	li	t3,0
 20c:	00000297          	auipc	t0,0x0
 210:	fb428293          	addi	t0,t0,-76 # 1c0 <trap_vector>
 214:	30529073          	csrw	mtvec,t0
 218:	00100513          	li	a0,1
 21c:	01f51513          	slli	a0,a0,0x1f
 220:	00054a63          	bltz	a0,234 <_start+0x34>
 224:	0ff0000f          	fence
 228:	000e0593          	mv	a1,t3
 22c:	00000513          	li	a0,0
 230:	00000073          	ecall
 234:	00000297          	auipc	t0,0x0
 238:	dcc28293          	addi	t0,t0,-564 # 0 <CL_SIZE-0x20>
 23c:	00028e63          	beqz	t0,258 <_start+0x58>
 240:	10529073          	csrw	stvec,t0
 244:	0000b2b7          	lui	t0,0xb
 248:	10928293          	addi	t0,t0,265 # b109 <__global_pointer$+0x9f41>
 24c:	30229073          	csrw	medeleg,t0
 250:	30202373          	csrr	t1,medeleg
 254:	fa6292e3          	bne	t0,t1,1f8 <handle_exception>
 258:	30005073          	csrwi	mstatus,0
 25c:	00002537          	lui	a0,0x2
 260:	80050513          	addi	a0,a0,-2048 # 1800 <__global_pointer$+0x638>
 264:	30052073          	csrs	mstatus,a0
 268:	00000297          	auipc	t0,0x0
 26c:	03828293          	addi	t0,t0,56 # 2a0 <_run_test>
 270:	34129073          	csrw	mepc,t0
 274:	f1402573          	csrr	a0,mhartid
 278:	30200073          	mret
	...

Дизассемблирование раздела .text:

000002a0 <_run_test>:
 2a0:	00000f97          	auipc	t6,0x0
 2a4:	530f8f93          	addi	t6,t6,1328 # 7d0 <begin_regstate>
 2a8:	003fa023          	sw	gp,0(t6)
 2ac:	004fa223          	sw	tp,4(t6)
 2b0:	005fa423          	sw	t0,8(t6)
 2b4:	f00001b7          	lui	gp,0xf0000
 2b8:	00000217          	auipc	tp,0x0
 2bc:	58820213          	addi	tp,tp,1416 # 840 <end_signature>
 2c0:	00020283          	lb	t0,0(tp) # 0 <CL_SIZE-0x20>
 2c4:	00518023          	sb	t0,0(gp) # f0000000 <__global_pointer$+0xefffee38>
 2c8:	00028663          	beqz	t0,2d4 <_run_test+0x34>
 2cc:	00120213          	addi	tp,tp,1 # 1 <CL_SIZE-0x1f>
 2d0:	ff1ff06f          	j	2c0 <_run_test+0x20>
 2d4:	00000f97          	auipc	t6,0x0
 2d8:	4fcf8f93          	addi	t6,t6,1276 # 7d0 <begin_regstate>
 2dc:	000fa183          	lw	gp,0(t6)
 2e0:	004fa203          	lw	tp,4(t6)
 2e4:	008fa283          	lw	t0,8(t6)
 2e8:	00000f97          	auipc	t6,0x0
 2ec:	4e8f8f93          	addi	t6,t6,1256 # 7d0 <begin_regstate>
 2f0:	003fa023          	sw	gp,0(t6)
 2f4:	004fa223          	sw	tp,4(t6)
 2f8:	005fa423          	sw	t0,8(t6)
 2fc:	f00001b7          	lui	gp,0xf0000
 300:	00000217          	auipc	tp,0x0
 304:	54e20213          	addi	tp,tp,1358 # 84e <end_signature+0xe>
 308:	00020283          	lb	t0,0(tp) # 0 <CL_SIZE-0x20>
 30c:	00518023          	sb	t0,0(gp) # f0000000 <__global_pointer$+0xefffee38>
 310:	00028663          	beqz	t0,31c <_run_test+0x7c>
 314:	00120213          	addi	tp,tp,1 # 1 <CL_SIZE-0x1f>
 318:	ff1ff06f          	j	308 <_run_test+0x68>
 31c:	00000f97          	auipc	t6,0x0
 320:	4b4f8f93          	addi	t6,t6,1204 # 7d0 <begin_regstate>
 324:	000fa183          	lw	gp,0(t6)
 328:	004fa203          	lw	tp,4(t6)
 32c:	008fa283          	lw	t0,8(t6)
 330:	00000097          	auipc	ra,0x0
 334:	4c008093          	addi	ra,ra,1216 # 7f0 <begin_signature>
 338:	12345137          	lui	sp,0x12345
 33c:	67810113          	addi	sp,sp,1656 # 12345678 <__global_pointer$+0x123444b0>
 340:	0080006f          	j	348 <_run_test+0xa8>
 344:	00000113          	li	sp,0
 348:	0000a023          	sw	zero,0(ra)
 34c:	0020a223          	sw	sp,4(ra)
 350:	00000f97          	auipc	t6,0x0
 354:	480f8f93          	addi	t6,t6,1152 # 7d0 <begin_regstate>
 358:	003fa023          	sw	gp,0(t6)
 35c:	004fa223          	sw	tp,4(t6)
 360:	005fa423          	sw	t0,8(t6)
 364:	f00001b7          	lui	gp,0xf0000
 368:	00000217          	auipc	tp,0x0
 36c:	50c20213          	addi	tp,tp,1292 # 874 <end_signature+0x34>
 370:	00020283          	lb	t0,0(tp) # 0 <CL_SIZE-0x20>
 374:	00518023          	sb	t0,0(gp) # f0000000 <__global_pointer$+0xefffee38>
 378:	00028663          	beqz	t0,384 <_run_test+0xe4>
 37c:	00120213          	addi	tp,tp,1 # 1 <CL_SIZE-0x1f>
 380:	ff1ff06f          	j	370 <_run_test+0xd0>
 384:	00000f97          	auipc	t6,0x0
 388:	44cf8f93          	addi	t6,t6,1100 # 7d0 <begin_regstate>
 38c:	000fa183          	lw	gp,0(t6)
 390:	004fa203          	lw	tp,4(t6)
 394:	008fa283          	lw	t0,8(t6)
 398:	00000f97          	auipc	t6,0x0
 39c:	438f8f93          	addi	t6,t6,1080 # 7d0 <begin_regstate>
 3a0:	003fa023          	sw	gp,0(t6)
 3a4:	004fa223          	sw	tp,4(t6)
 3a8:	005fa423          	sw	t0,8(t6)
 3ac:	f00001b7          	lui	gp,0xf0000
 3b0:	00000217          	auipc	tp,0x0
 3b4:	4e020213          	addi	tp,tp,1248 # 890 <end_signature+0x50>
 3b8:	00020283          	lb	t0,0(tp) # 0 <CL_SIZE-0x20>
 3bc:	00518023          	sb	t0,0(gp) # f0000000 <__global_pointer$+0xefffee38>
 3c0:	00028663          	beqz	t0,3cc <_run_test+0x12c>
 3c4:	00120213          	addi	tp,tp,1 # 1 <CL_SIZE-0x1f>
 3c8:	ff1ff06f          	j	3b8 <_run_test+0x118>
 3cc:	00000f97          	auipc	t6,0x0
 3d0:	404f8f93          	addi	t6,t6,1028 # 7d0 <begin_regstate>
 3d4:	000fa183          	lw	gp,0(t6)
 3d8:	004fa203          	lw	tp,4(t6)
 3dc:	008fa283          	lw	t0,8(t6)
 3e0:	00000097          	auipc	ra,0x0
 3e4:	41808093          	addi	ra,ra,1048 # 7f8 <test_A2_res>
 3e8:	fff00113          	li	sp,-1
 3ec:	fff00193          	li	gp,-1
 3f0:	0fedd237          	lui	tp,0xfedd
 3f4:	ba920213          	addi	tp,tp,-1111 # fedcba9 <__global_pointer$+0xfedb9e1>
 3f8:	0280006f          	j	420 <STACK_SIZE+0x20>
 3fc:	00000113          	li	sp,0
 400:	00000193          	li	gp,0
 404:	00000213          	li	tp,0
 408:	876541b7          	lui	gp,0x87654
 40c:	32118193          	addi	gp,gp,801 # 87654321 <__global_pointer$+0x87653159>
 410:	0280006f          	j	438 <STACK_SIZE+0x38>
 414:	00000113          	li	sp,0
 418:	00000193          	li	gp,0
 41c:	00000213          	li	tp,0
 420:	9abce137          	lui	sp,0x9abce
 424:	ef010113          	addi	sp,sp,-272 # 9abcdef0 <__global_pointer$+0x9abccd28>
 428:	fe1ff06f          	j	408 <STACK_SIZE+0x8>
 42c:	00000113          	li	sp,0
 430:	00000193          	li	gp,0
 434:	00000213          	li	tp,0
 438:	0000a023          	sw	zero,0(ra)
 43c:	0020a223          	sw	sp,4(ra)
 440:	0030a423          	sw	gp,8(ra)
 444:	0040a623          	sw	tp,12(ra)
 448:	00000f97          	auipc	t6,0x0
 44c:	388f8f93          	addi	t6,t6,904 # 7d0 <begin_regstate>
 450:	003fa023          	sw	gp,0(t6)
 454:	004fa223          	sw	tp,4(t6)
 458:	005fa423          	sw	t0,8(t6)
 45c:	f00001b7          	lui	gp,0xf0000
 460:	00000217          	auipc	tp,0x0
 464:	46820213          	addi	tp,tp,1128 # 8c8 <end_signature+0x88>
 468:	00020283          	lb	t0,0(tp) # 0 <CL_SIZE-0x20>
 46c:	00518023          	sb	t0,0(gp) # f0000000 <__global_pointer$+0xefffee38>
 470:	00028663          	beqz	t0,47c <STACK_SIZE+0x7c>
 474:	00120213          	addi	tp,tp,1 # 1 <CL_SIZE-0x1f>
 478:	ff1ff06f          	j	468 <STACK_SIZE+0x68>
 47c:	00000f97          	auipc	t6,0x0
 480:	354f8f93          	addi	t6,t6,852 # 7d0 <begin_regstate>
 484:	000fa183          	lw	gp,0(t6)
 488:	004fa203          	lw	tp,4(t6)
 48c:	008fa283          	lw	t0,8(t6)
 490:	00000f97          	auipc	t6,0x0
 494:	340f8f93          	addi	t6,t6,832 # 7d0 <begin_regstate>
 498:	003fa023          	sw	gp,0(t6)
 49c:	004fa223          	sw	tp,4(t6)
 4a0:	005fa423          	sw	t0,8(t6)
 4a4:	f00001b7          	lui	gp,0xf0000
 4a8:	00000217          	auipc	tp,0x0
 4ac:	43c20213          	addi	tp,tp,1084 # 8e4 <end_signature+0xa4>
 4b0:	00020283          	lb	t0,0(tp) # 0 <CL_SIZE-0x20>
 4b4:	00518023          	sb	t0,0(gp) # f0000000 <__global_pointer$+0xefffee38>
 4b8:	00028663          	beqz	t0,4c4 <STACK_SIZE+0xc4>
 4bc:	00120213          	addi	tp,tp,1 # 1 <CL_SIZE-0x1f>
 4c0:	ff1ff06f          	j	4b0 <STACK_SIZE+0xb0>
 4c4:	00000f97          	auipc	t6,0x0
 4c8:	30cf8f93          	addi	t6,t6,780 # 7d0 <begin_regstate>
 4cc:	000fa183          	lw	gp,0(t6)
 4d0:	004fa203          	lw	tp,4(t6)
 4d4:	008fa283          	lw	t0,8(t6)
 4d8:	00000497          	auipc	s1,0x0
 4dc:	2e848493          	addi	s1,s1,744 # 7c0 <test_B1_data>
 4e0:	00000517          	auipc	a0,0x0
 4e4:	32850513          	addi	a0,a0,808 # 808 <test_B1_res>
 4e8:	fff00113          	li	sp,-1
 4ec:	fff00193          	li	gp,-1
 4f0:	fff00213          	li	tp,-1
 4f4:	fff00293          	li	t0,-1
 4f8:	55555337          	lui	t1,0x55555
 4fc:	55530313          	addi	t1,t1,1365 # 55555555 <__global_pointer$+0x5555438d>
 500:	0004ac83          	lw	s9,0(s1)
 504:	0044ac03          	lw	s8,4(s1)
 508:	01c000ef          	jal	ra,524 <B1b_link+0xc>

0000050c <B1a_link>:
 50c:	222221b7          	lui	gp,0x22222
 510:	22218193          	addi	gp,gp,546 # 22222222 <__global_pointer$+0x2222105a>
 514:	03000fef          	jal	t6,544 <B1b_link+0x2c>

00000518 <B1b_link>:
 518:	444442b7          	lui	t0,0x44444
 51c:	44428293          	addi	t0,t0,1092 # 44444444 <__global_pointer$+0x4444327c>
 520:	0440006f          	j	564 <B1b_link+0x4c>
 524:	11111137          	lui	sp,0x11111
 528:	11110113          	addi	sp,sp,273 # 11111111 <__global_pointer$+0x1110ff49>
 52c:	00008067          	ret
 530:	00000113          	li	sp,0
 534:	00000193          	li	gp,0
 538:	00000213          	li	tp,0
 53c:	00000293          	li	t0,0
 540:	00000313          	li	t1,0
 544:	33333237          	lui	tp,0x33333
 548:	33320213          	addi	tp,tp,819 # 33333333 <__global_pointer$+0x3333216b>
 54c:	000f8067          	jr	t6
 550:	00000113          	li	sp,0
 554:	00000193          	li	gp,0
 558:	00000213          	li	tp,0
 55c:	00000293          	li	t0,0
 560:	00000313          	li	t1,0
 564:	0190c3b3          	xor	t2,ra,s9
 568:	018fc433          	xor	s0,t6,s8
 56c:	00252023          	sw	sp,0(a0)
 570:	00352223          	sw	gp,4(a0)
 574:	00452423          	sw	tp,8(a0)
 578:	00552623          	sw	t0,12(a0)
 57c:	00652823          	sw	t1,16(a0)
 580:	00752a23          	sw	t2,20(a0)
 584:	00852c23          	sw	s0,24(a0)
 588:	00000f97          	auipc	t6,0x0
 58c:	248f8f93          	addi	t6,t6,584 # 7d0 <begin_regstate>
 590:	003fa023          	sw	gp,0(t6)
 594:	004fa223          	sw	tp,4(t6)
 598:	005fa423          	sw	t0,8(t6)
 59c:	f00001b7          	lui	gp,0xf0000
 5a0:	00000217          	auipc	tp,0x0
 5a4:	36c20213          	addi	tp,tp,876 # 90c <end_signature+0xcc>
 5a8:	00020283          	lb	t0,0(tp) # 0 <CL_SIZE-0x20>
 5ac:	00518023          	sb	t0,0(gp) # f0000000 <__global_pointer$+0xefffee38>
 5b0:	00028663          	beqz	t0,5bc <B1b_link+0xa4>
 5b4:	00120213          	addi	tp,tp,1 # 1 <CL_SIZE-0x1f>
 5b8:	ff1ff06f          	j	5a8 <B1b_link+0x90>
 5bc:	00000f97          	auipc	t6,0x0
 5c0:	214f8f93          	addi	t6,t6,532 # 7d0 <begin_regstate>
 5c4:	000fa183          	lw	gp,0(t6)
 5c8:	004fa203          	lw	tp,4(t6)
 5cc:	008fa283          	lw	t0,8(t6)
 5d0:	00000f97          	auipc	t6,0x0
 5d4:	200f8f93          	addi	t6,t6,512 # 7d0 <begin_regstate>
 5d8:	003fa023          	sw	gp,0(t6)
 5dc:	004fa223          	sw	tp,4(t6)
 5e0:	005fa423          	sw	t0,8(t6)
 5e4:	f00001b7          	lui	gp,0xf0000
 5e8:	00000217          	auipc	tp,0x0
 5ec:	34020213          	addi	tp,tp,832 # 928 <end_signature+0xe8>
 5f0:	00020283          	lb	t0,0(tp) # 0 <CL_SIZE-0x20>
 5f4:	00518023          	sb	t0,0(gp) # f0000000 <__global_pointer$+0xefffee38>
 5f8:	00028663          	beqz	t0,604 <B1b_link+0xec>
 5fc:	00120213          	addi	tp,tp,1 # 1 <CL_SIZE-0x1f>
 600:	ff1ff06f          	j	5f0 <B1b_link+0xd8>
 604:	00000f97          	auipc	t6,0x0
 608:	1ccf8f93          	addi	t6,t6,460 # 7d0 <begin_regstate>
 60c:	000fa183          	lw	gp,0(t6)
 610:	004fa203          	lw	tp,4(t6)
 614:	008fa283          	lw	t0,8(t6)
 618:	00000497          	auipc	s1,0x0
 61c:	1b048493          	addi	s1,s1,432 # 7c8 <test_B2_data>
 620:	00000517          	auipc	a0,0x0
 624:	20450513          	addi	a0,a0,516 # 824 <test_B2_res>
 628:	fff00113          	li	sp,-1
 62c:	fff00193          	li	gp,-1
 630:	fff00213          	li	tp,-1
 634:	fff00293          	li	t0,-1
 638:	fff00313          	li	t1,-1
 63c:	0004ac03          	lw	s8,0(s1)
 640:	0044ac83          	lw	s9,4(s1)
 644:	0240006f          	j	668 <B1b_link+0x150>
 648:	777771b7          	lui	gp,0x77777
 64c:	77718193          	addi	gp,gp,1911 # 77777777 <__global_pointer$+0x777765af>
 650:	000f8067          	jr	t6
 654:	00000113          	li	sp,0
 658:	00000193          	li	gp,0
 65c:	00000213          	li	tp,0
 660:	00000293          	li	t0,0
 664:	00000313          	li	t1,0
 668:	66666137          	lui	sp,0x66666
 66c:	66610113          	addi	sp,sp,1638 # 66666666 <__global_pointer$+0x6666549e>
 670:	fd9fffef          	jal	t6,648 <B1b_link+0x130>

00000674 <B2b_link>:
 674:	88889237          	lui	tp,0x88889
 678:	88820213          	addi	tp,tp,-1912 # 88888888 <__global_pointer$+0x888876c0>
 67c:	010000ef          	jal	ra,68c <B2c_link+0xc>

00000680 <B2c_link>:
 680:	aaaab337          	lui	t1,0xaaaab
 684:	aaa30313          	addi	t1,t1,-1366 # aaaaaaaa <__global_pointer$+0xaaaa98e2>
 688:	0240006f          	j	6ac <B2c_link+0x2c>
 68c:	9999a2b7          	lui	t0,0x9999a
 690:	99928293          	addi	t0,t0,-1639 # 99999999 <__global_pointer$+0x999987d1>
 694:	00008067          	ret
 698:	00000113          	li	sp,0
 69c:	00000193          	li	gp,0
 6a0:	00000213          	li	tp,0
 6a4:	00000293          	li	t0,0
 6a8:	00000313          	li	t1,0
 6ac:	018fc3b3          	xor	t2,t6,s8
 6b0:	0190c433          	xor	s0,ra,s9
 6b4:	00252023          	sw	sp,0(a0)
 6b8:	00352223          	sw	gp,4(a0)
 6bc:	00452423          	sw	tp,8(a0)
 6c0:	00552623          	sw	t0,12(a0)
 6c4:	00652823          	sw	t1,16(a0)
 6c8:	00752a23          	sw	t2,20(a0)
 6cc:	00852c23          	sw	s0,24(a0)
 6d0:	00000f97          	auipc	t6,0x0
 6d4:	100f8f93          	addi	t6,t6,256 # 7d0 <begin_regstate>
 6d8:	003fa023          	sw	gp,0(t6)
 6dc:	004fa223          	sw	tp,4(t6)
 6e0:	005fa423          	sw	t0,8(t6)
 6e4:	f00001b7          	lui	gp,0xf0000
 6e8:	00000217          	auipc	tp,0x0
 6ec:	26820213          	addi	tp,tp,616 # 950 <end_signature+0x110>
 6f0:	00020283          	lb	t0,0(tp) # 0 <CL_SIZE-0x20>
 6f4:	00518023          	sb	t0,0(gp) # f0000000 <__global_pointer$+0xefffee38>
 6f8:	00028663          	beqz	t0,704 <B2c_link+0x84>
 6fc:	00120213          	addi	tp,tp,1 # 1 <CL_SIZE-0x1f>
 700:	ff1ff06f          	j	6f0 <B2c_link+0x70>
 704:	00000f97          	auipc	t6,0x0
 708:	0ccf8f93          	addi	t6,t6,204 # 7d0 <begin_regstate>
 70c:	000fa183          	lw	gp,0(t6)
 710:	004fa203          	lw	tp,4(t6)
 714:	008fa283          	lw	t0,8(t6)
 718:	00000f97          	auipc	t6,0x0
 71c:	0b8f8f93          	addi	t6,t6,184 # 7d0 <begin_regstate>
 720:	003fa023          	sw	gp,0(t6)
 724:	004fa223          	sw	tp,4(t6)
 728:	005fa423          	sw	t0,8(t6)
 72c:	f00001b7          	lui	gp,0xf0000
 730:	00000217          	auipc	tp,0x0
 734:	23c20213          	addi	tp,tp,572 # 96c <end_signature+0x12c>
 738:	00020283          	lb	t0,0(tp) # 0 <CL_SIZE-0x20>
 73c:	00518023          	sb	t0,0(gp) # f0000000 <__global_pointer$+0xefffee38>
 740:	00028663          	beqz	t0,74c <B2c_link+0xcc>
 744:	00120213          	addi	tp,tp,1 # 1 <CL_SIZE-0x1f>
 748:	ff1ff06f          	j	738 <B2c_link+0xb8>
 74c:	00000f97          	auipc	t6,0x0
 750:	084f8f93          	addi	t6,t6,132 # 7d0 <begin_regstate>
 754:	000fa183          	lw	gp,0(t6)
 758:	004fa203          	lw	tp,4(t6)
 75c:	008fa283          	lw	t0,8(t6)

00000760 <ecall>:
 760:	00000073          	ecall
	...

00000780 <sc_exit>:
 780:	975ff06f          	j	f4 <SIM_EXIT>
 784:	00000013          	nop
 788:	00000013          	nop
 78c:	00000013          	nop
 790:	00000013          	nop
 794:	00000013          	nop
 798:	00000013          	nop
 79c:	00000013          	nop
	...

Дизассемблирование раздела .data:

000007c0 <test_B1_data>:
 7c0:	050c                	addi	a1,sp,640
 7c2:	0000                	unimp
 7c4:	0518                	addi	a4,sp,640
	...

000007c8 <test_B2_data>:
 7c8:	0674                	addi	a3,sp,780
 7ca:	0000                	unimp
 7cc:	0680                	addi	s0,sp,832
	...

000007d0 <begin_regstate>:
	...

000007f0 <begin_signature>:
 7f0:	ffff                	0xffff
 7f2:	ffff                	0xffff
 7f4:	ffff                	0xffff
 7f6:	ffff                	0xffff

000007f8 <test_A2_res>:
 7f8:	ffff                	0xffff
 7fa:	ffff                	0xffff
 7fc:	ffff                	0xffff
 7fe:	ffff                	0xffff
 800:	ffff                	0xffff
 802:	ffff                	0xffff
 804:	ffff                	0xffff
 806:	ffff                	0xffff

00000808 <test_B1_res>:
 808:	ffff                	0xffff
 80a:	ffff                	0xffff
 80c:	ffff                	0xffff
 80e:	ffff                	0xffff
 810:	ffff                	0xffff
 812:	ffff                	0xffff
 814:	ffff                	0xffff
 816:	ffff                	0xffff
 818:	ffff                	0xffff
 81a:	ffff                	0xffff
 81c:	ffff                	0xffff
 81e:	ffff                	0xffff
 820:	ffff                	0xffff
 822:	ffff                	0xffff

00000824 <test_B2_res>:
 824:	ffff                	0xffff
 826:	ffff                	0xffff
 828:	ffff                	0xffff
 82a:	ffff                	0xffff
 82c:	ffff                	0xffff
 82e:	ffff                	0xffff
 830:	ffff                	0xffff
 832:	ffff                	0xffff
 834:	ffff                	0xffff
 836:	ffff                	0xffff
 838:	ffff                	0xffff
 83a:	ffff                	0xffff
 83c:	ffff                	0xffff
 83e:	ffff                	0xffff

00000840 <end_signature>:
 840:	65542023          	sw	s5,1600(s0)
 844:	42207473          	csrrci	s0,0x422,0
 848:	6765                	lui	a4,0x19
 84a:	6e69                	lui	t3,0x1a
 84c:	000a                	0xa
 84e:	65542023          	sw	s5,1600(s0)
 852:	70207473          	csrrci	s0,0x702,0
 856:	7261                	lui	tp,0xffff8
 858:	2074                	fld	fa3,192(s0)
 85a:	3141                	jal	4da <STACK_SIZE+0xda>
 85c:	2d20                	fld	fs0,88(a0)
 85e:	6720                	flw	fs0,72(a4)
 860:	6e65                	lui	t3,0x19
 862:	7265                	lui	tp,0xffff9
 864:	6c61                	lui	s8,0x18
 866:	7420                	flw	fs0,104(s0)
 868:	7365                	lui	t1,0xffff9
 86a:	2074                	fld	fa3,192(s0)
 86c:	4a20666f          	jal	a2,6d0e <__global_pointer$+0x5b46>
 870:	4c41                	li	s8,16
 872:	000a                	0xa
 874:	65542023          	sw	s5,1600(s0)
 878:	70207473          	csrrci	s0,0x702,0
 87c:	7261                	lui	tp,0xffff8
 87e:	2074                	fld	fa3,192(s0)
 880:	3141                	jal	500 <STACK_SIZE+0x100>
 882:	2020                	fld	fs0,64(s0)
 884:	202d                	jal	8ae <end_signature+0x6e>
 886:	706d6f43          	fmadd.s	ft10,fs10,ft6,fa4,unknown
 88a:	656c                	flw	fa1,76(a0)
 88c:	6574                	flw	fa3,76(a0)
 88e:	000a                	0xa
 890:	65542023          	sw	s5,1600(s0)
 894:	70207473          	csrrci	s0,0x702,0
 898:	7261                	lui	tp,0xffff8
 89a:	2074                	fld	fa3,192(s0)
 89c:	3241                	jal	21c <_start+0x1c>
 89e:	2d20                	fld	fs0,88(a0)
 8a0:	7420                	flw	fs0,104(s0)
 8a2:	7365                	lui	t1,0xffff9
 8a4:	2074                	fld	fa3,192(s0)
 8a6:	4a20666f          	jal	a2,6d48 <__global_pointer$+0x5b80>
 8aa:	4c41                	li	s8,16
 8ac:	2d20                	fld	fs0,88(a0)
 8ae:	6a20                	flw	fs0,80(a2)
 8b0:	6d75                	lui	s10,0x1d
 8b2:	7370                	flw	fa2,100(a4)
 8b4:	6620                	flw	fs0,72(a2)
 8b6:	6177726f          	jal	tp,786cc <__global_pointer$+0x77504>
 8ba:	6472                	flw	fs0,28(sp)
 8bc:	202c                	fld	fa1,64(s0)
 8be:	6162                	flw	ft2,24(sp)
 8c0:	61776b63          	bltu	a4,s7,ed6 <_end+0x4f6>
 8c4:	6472                	flw	fs0,28(sp)
 8c6:	000a                	0xa
 8c8:	65542023          	sw	s5,1600(s0)
 8cc:	70207473          	csrrci	s0,0x702,0
 8d0:	7261                	lui	tp,0xffff8
 8d2:	2074                	fld	fa3,192(s0)
 8d4:	3241                	jal	254 <_start+0x54>
 8d6:	2020                	fld	fs0,64(s0)
 8d8:	202d                	jal	902 <end_signature+0xc2>
 8da:	706d6f43          	fmadd.s	ft10,fs10,ft6,fa4,unknown
 8de:	656c                	flw	fa1,76(a0)
 8e0:	6574                	flw	fa3,76(a0)
 8e2:	000a                	0xa
 8e4:	65542023          	sw	s5,1600(s0)
 8e8:	70207473          	csrrci	s0,0x702,0
 8ec:	7261                	lui	tp,0xffff8
 8ee:	2074                	fld	fa3,192(s0)
 8f0:	3142                	fld	ft2,48(sp)
 8f2:	2d20                	fld	fs0,88(a0)
 8f4:	7420                	flw	fs0,104(s0)
 8f6:	7365                	lui	t1,0xffff9
 8f8:	2074                	fld	fa3,192(s0)
 8fa:	4a20666f          	jal	a2,6d9c <__global_pointer$+0x5bd4>
 8fe:	4c41                	li	s8,16
 900:	2d20                	fld	fs0,88(a0)
 902:	6c20                	flw	fs0,88(s0)
 904:	6e69                	lui	t3,0x1a
 906:	676e696b          	0x676e696b
 90a:	000a                	0xa
 90c:	65542023          	sw	s5,1600(s0)
 910:	70207473          	csrrci	s0,0x702,0
 914:	7261                	lui	tp,0xffff8
 916:	2074                	fld	fa3,192(s0)
 918:	3341                	jal	698 <B2c_link+0x18>
 91a:	2020                	fld	fs0,64(s0)
 91c:	202d                	jal	946 <end_signature+0x106>
 91e:	706d6f43          	fmadd.s	ft10,fs10,ft6,fa4,unknown
 922:	656c                	flw	fa1,76(a0)
 924:	6574                	flw	fa3,76(a0)
 926:	000a                	0xa
 928:	65542023          	sw	s5,1600(s0)
 92c:	70207473          	csrrci	s0,0x702,0
 930:	7261                	lui	tp,0xffff8
 932:	2074                	fld	fa3,192(s0)
 934:	3242                	fld	ft4,48(sp)
 936:	2d20                	fld	fs0,88(a0)
 938:	7420                	flw	fs0,104(s0)
 93a:	7365                	lui	t1,0xffff9
 93c:	2074                	fld	fa3,192(s0)
 93e:	4a20666f          	jal	a2,6de0 <__global_pointer$+0x5c18>
 942:	4c41                	li	s8,16
 944:	2d20                	fld	fs0,88(a0)
 946:	6c20                	flw	fs0,88(s0)
 948:	6e69                	lui	t3,0x1a
 94a:	676e696b          	0x676e696b
 94e:	000a                	0xa
 950:	65542023          	sw	s5,1600(s0)
 954:	70207473          	csrrci	s0,0x702,0
 958:	7261                	lui	tp,0xffff8
 95a:	2074                	fld	fa3,192(s0)
 95c:	3441                	jal	3dc <_run_test+0x13c>
 95e:	2020                	fld	fs0,64(s0)
 960:	202d                	jal	98a <tohost+0xa>
 962:	706d6f43          	fmadd.s	ft10,fs10,ft6,fa4,unknown
 966:	656c                	flw	fa1,76(a0)
 968:	6574                	flw	fa3,76(a0)
 96a:	000a                	0xa
 96c:	65542023          	sw	s5,1600(s0)
 970:	45207473          	csrrci	s0,0x452,0
 974:	646e                	flw	fs0,216(sp)
 976:	000a                	0xa
	...

Дизассемблирование раздела .tohost:

00000980 <tohost>:
	...

000009c0 <fromhost>:
	...

Дизассемблирование раздела .sdata:

000009c8 <__global_pointer$-0x800>:
	...

Дизассемблирование раздела .stack:

0000fc00 <.stack>:
	...
