
/home/oleg/scr1/build/verilator_wf_AHB_IMC/compliance_breakpoint.elf:     формат файла elf32-littleriscv
/home/oleg/scr1/build/verilator_wf_AHB_IMC/compliance_breakpoint.elf
архитектура: riscv:rv32, флаги 0x00000112:
EXEC_P, HAS_SYMS, D_PAGED
начальный адрес 0x00000200

Заголовок программы:
    LOAD off    0x00001000 vaddr 0x00000000 paddr 0x00000000 align 2**12
         filesz 0x00000688 memsz 0x000006a0 flags rwx
    LOAD off    0x00001c00 vaddr 0x0000fc00 paddr 0x0000fc00 align 2**12
         filesz 0x00000000 memsz 0x00000400 flags rw-

Разделы:
Idx Name          Size      VMA       LMA       File off  Algn  Флаги
  0 .text.init    000002c4  00000000  00000000  00001000  2**6  CONTENTS, ALLOC, LOAD, READONLY, CODE
  1 .text         00000280  000002e0  000002e0  000012e0  2**5  CONTENTS, ALLOC, LOAD, READONLY, CODE
  2 .data         000000c0  00000560  00000560  00001560  2**4  CONTENTS, ALLOC, LOAD, DATA
  3 .tohost       00000048  00000640  00000640  00001640  2**6  CONTENTS, ALLOC, LOAD, DATA
  4 .sdata        00000018  00000688  00000688  00001688  2**0  ALLOC
  5 .tdata        00000000  000006a0  000006a0  00001688  2**0  CONTENTS, ALLOC, LOAD, DATA, THREAD_LOCAL
  6 .tbss         00000000  000006a0  000006a0  00000000  2**0  ALLOC, THREAD_LOCAL
  7 .bss          00000000  000006a0  000006a0  00001688  2**0  ALLOC
  8 .stack        00000400  0000fc00  0000fc00  00001c00  2**0  ALLOC
SYMBOL TABLE:
00000000 l    d  .text.init	00000000 .text.init
000002e0 l    d  .text	00000000 .text
00000560 l    d  .data	00000000 .data
00000640 l    d  .tohost	00000000 .tohost
00000688 l    d  .sdata	00000000 .sdata
000006a0 l    d  .tdata	00000000 .tdata
000006a0 l    d  .tbss	00000000 .tbss
000006a0 l    d  .bss	00000000 .bss
0000fc00 l    d  .stack	00000000 .stack
00000000 l    df *ABS*	00000000 /home/oleg/scr1/build/verilator_wf_AHB_IMC/riscv_compliance/riscv_compliance_objs/breakpoint.o
00000520 l       .text	00000000 sc_exit
000001c0 l       .text.init	00000000 trap_vector
000001fc l       .text.init	00000000 _report
000001f8 l       .text.init	00000000 handle_exception
000001f8 l       .text.init	00000000 other_exception
000002e0 l       .text	00000000 _run_test
00000590 l       .data	00000000 test_res
00000474 l       .text	00000000 sign_pass
00000454 l       .text	00000000 fail
00000560 l       .data	00000000 data1
00000564 l       .data	00000000 data2
00000464 l       .text	00000000 pass
0000051c l       .text	00000000 ecall
00000400 g       *ABS*	00000000 STACK_SIZE
00000e88 g       .sdata	00000000 __global_pointer$
00000610 g       .data	00000000 end_signature
00000570 g       .data	00000000 begin_regstate
00000590 g       .data	00000000 begin_signature
00000200 g       .text.init	00000000 _start
00000020 g       *ABS*	00000000 CL_SIZE
000000f8 g       .text.init	00000000 SIM_STOP
000004f8  w      .text	00000000 mtvec_handler
000006a0 g       .bss	00000000 _end
00000680 g       .tohost	00000000 fromhost
00000640 g       .tohost	00000000 tohost
000000f4 g       .text.init	00000000 SIM_EXIT



Дизассемблирование раздела .text.init:

00000000 <SIM_EXIT-0xf4>:
	...

000000f4 <SIM_EXIT>:
  f4:	00000013          	nop

000000f8 <SIM_STOP>:
  f8:	0000006f          	j	f8 <SIM_STOP>
  fc:	ffff                	0xffff
  fe:	ffff                	0xffff
	...

000001c0 <trap_vector>:
 1c0:	34202773          	csrr	a4,mcause
 1c4:	00800793          	li	a5,8
 1c8:	02f70a63          	beq	a4,a5,1fc <_report>
 1cc:	00900793          	li	a5,9
 1d0:	02f70663          	beq	a4,a5,1fc <_report>
 1d4:	00b00793          	li	a5,11
 1d8:	02f70263          	beq	a4,a5,1fc <_report>
 1dc:	00000717          	auipc	a4,0x0
 1e0:	31c70713          	addi	a4,a4,796 # 4f8 <mtvec_handler>
 1e4:	00070463          	beqz	a4,1ec <trap_vector+0x2c>
 1e8:	00070067          	jr	a4
 1ec:	34202773          	csrr	a4,mcause
 1f0:	00075463          	bgez	a4,1f8 <handle_exception>
 1f4:	0040006f          	j	1f8 <handle_exception>

000001f8 <handle_exception>:
 1f8:	00100513          	li	a0,1

000001fc <_report>:
 1fc:	3240006f          	j	520 <sc_exit>

00000200 <_start>:
 200:	f1402573          	csrr	a0,mhartid
 204:	00051063          	bnez	a0,204 <_start+0x4>
 208:	00000193          	li	gp,0
 20c:	00000297          	auipc	t0,0x0
 210:	fb428293          	addi	t0,t0,-76 # 1c0 <trap_vector>
 214:	30529073          	csrw	mtvec,t0
 218:	00100513          	li	a0,1
 21c:	01f51513          	slli	a0,a0,0x1f
 220:	00054a63          	bltz	a0,234 <_start+0x34>
 224:	0ff0000f          	fence
 228:	00018593          	mv	a1,gp
 22c:	00000513          	li	a0,0
 230:	00000073          	ecall
 234:	01f55513          	srli	a0,a0,0x1f
 238:	00000297          	auipc	t0,0x0
 23c:	35828293          	addi	t0,t0,856 # 590 <begin_signature>
 240:	00a2a023          	sw	a0,0(t0)
 244:	00000297          	auipc	t0,0x0
 248:	dbc28293          	addi	t0,t0,-580 # 0 <CL_SIZE-0x20>
 24c:	00028e63          	beqz	t0,268 <_start+0x68>
 250:	10529073          	csrw	stvec,t0
 254:	0000b2b7          	lui	t0,0xb
 258:	10928293          	addi	t0,t0,265 # b109 <__global_pointer$+0xa281>
 25c:	30229073          	csrw	medeleg,t0
 260:	30202373          	csrr	t1,medeleg
 264:	f8629ae3          	bne	t0,t1,1f8 <handle_exception>
 268:	30005073          	csrwi	mstatus,0
 26c:	00002537          	lui	a0,0x2
 270:	80050513          	addi	a0,a0,-2048 # 1800 <__global_pointer$+0x978>
 274:	30052073          	csrs	mstatus,a0
 278:	00000297          	auipc	t0,0x0
 27c:	06828293          	addi	t0,t0,104 # 2e0 <_run_test>
 280:	34129073          	csrw	mepc,t0
 284:	f1402573          	csrr	a0,mhartid
 288:	30200073          	mret
	...

Дизассемблирование раздела .text:

000002e0 <_run_test>:
 2e0:	00200193          	li	gp,2
 2e4:	00000e17          	auipc	t3,0x0
 2e8:	2ace0e13          	addi	t3,t3,684 # 590 <begin_signature>
 2ec:	003e2423          	sw	gp,8(t3)
 2f0:	7a001073          	csrw	tselect,zero
 2f4:	7a0025f3          	csrr	a1,tselect
 2f8:	16b01e63          	bne	zero,a1,474 <sign_pass>
 2fc:	7a102573          	csrr	a0,tdata1
 300:	01c55513          	srli	a0,a0,0x1c
 304:	00200593          	li	a1,2
 308:	16b51663          	bne	a0,a1,474 <sign_pass>
 30c:	00000617          	auipc	a2,0x0
 310:	02060613          	addi	a2,a2,32 # 32c <_run_test+0x4c>
 314:	7a261073          	csrw	tdata2,a2
 318:	04400513          	li	a0,68
 31c:	7a151073          	csrw	tdata1,a0
 320:	7a1025f3          	csrr	a1,tdata1
 324:	7ff5f593          	andi	a1,a1,2047
 328:	00b51e63          	bne	a0,a1,344 <_run_test+0x64>
 32c:	12000463          	beqz	zero,454 <fail>
 330:	00300193          	li	gp,3
 334:	00000e17          	auipc	t3,0x0
 338:	25ce0e13          	addi	t3,t3,604 # 590 <begin_signature>
 33c:	003e2623          	sw	gp,12(t3)
 340:	00062503          	lw	a0,0(a2)
 344:	00400193          	li	gp,4
 348:	00000e17          	auipc	t3,0x0
 34c:	248e0e13          	addi	t3,t3,584 # 590 <begin_signature>
 350:	003e2823          	sw	gp,16(t3)
 354:	04100513          	li	a0,65
 358:	7a151073          	csrw	tdata1,a0
 35c:	7a1025f3          	csrr	a1,tdata1
 360:	7ff5f593          	andi	a1,a1,2047
 364:	02b51663          	bne	a0,a1,390 <_run_test+0xb0>
 368:	00000617          	auipc	a2,0x0
 36c:	1f860613          	addi	a2,a2,504 # 560 <data1>
 370:	7a261073          	csrw	tdata2,a2
 374:	00062603          	lw	a2,0(a2)
 378:	0c060e63          	beqz	a2,454 <fail>
 37c:	00500193          	li	gp,5
 380:	00000e17          	auipc	t3,0x0
 384:	210e0e13          	addi	t3,t3,528 # 590 <begin_signature>
 388:	003e2a23          	sw	gp,20(t3)
 38c:	00062023          	sw	zero,0(a2)
 390:	00600193          	li	gp,6
 394:	00000e17          	auipc	t3,0x0
 398:	1fce0e13          	addi	t3,t3,508 # 590 <begin_signature>
 39c:	003e2c23          	sw	gp,24(t3)
 3a0:	04200513          	li	a0,66
 3a4:	7a151073          	csrw	tdata1,a0
 3a8:	7a1025f3          	csrr	a1,tdata1
 3ac:	7ff5f593          	andi	a1,a1,2047
 3b0:	0ab51063          	bne	a0,a1,450 <STACK_SIZE+0x50>
 3b4:	00c62023          	sw	a2,0(a2)
 3b8:	00700193          	li	gp,7
 3bc:	00000e17          	auipc	t3,0x0
 3c0:	1d4e0e13          	addi	t3,t3,468 # 590 <begin_signature>
 3c4:	003e2e23          	sw	gp,28(t3)
 3c8:	00062603          	lw	a2,0(a2)
 3cc:	08061463          	bnez	a2,454 <fail>
 3d0:	00100513          	li	a0,1
 3d4:	7a051073          	csrw	tselect,a0
 3d8:	7a0025f3          	csrr	a1,tselect
 3dc:	08b51c63          	bne	a0,a1,474 <sign_pass>
 3e0:	7a102573          	csrr	a0,tdata1
 3e4:	01c55513          	srli	a0,a0,0x1c
 3e8:	00200593          	li	a1,2
 3ec:	08b51463          	bne	a0,a1,474 <sign_pass>
 3f0:	04100513          	li	a0,65
 3f4:	7a151073          	csrw	tdata1,a0
 3f8:	00000697          	auipc	a3,0x0
 3fc:	16c68693          	addi	a3,a3,364 # 564 <data2>
 400:	7a269073          	csrw	tdata2,a3
 404:	00800193          	li	gp,8
 408:	00000e17          	auipc	t3,0x0
 40c:	188e0e13          	addi	t3,t3,392 # 590 <begin_signature>
 410:	023e2023          	sw	gp,32(t3)
 414:	0006a683          	lw	a3,0(a3)
 418:	02068e63          	beqz	a3,454 <fail>
 41c:	00a00193          	li	gp,10
 420:	00000e17          	auipc	t3,0x0
 424:	170e0e13          	addi	t3,t3,368 # 590 <begin_signature>
 428:	023e2423          	sw	gp,40(t3)
 42c:	00000617          	auipc	a2,0x0
 430:	13460613          	addi	a2,a2,308 # 560 <data1>
 434:	00c62023          	sw	a2,0(a2)
 438:	00b00193          	li	gp,11
 43c:	00000e17          	auipc	t3,0x0
 440:	154e0e13          	addi	t3,t3,340 # 590 <begin_signature>
 444:	023e2623          	sw	gp,44(t3)
 448:	00062603          	lw	a2,0(a2)
 44c:	00061463          	bnez	a2,454 <fail>
 450:	00301a63          	bne	zero,gp,464 <pass>

00000454 <fail>:
 454:	0ff0000f          	fence
 458:	00018593          	mv	a1,gp
 45c:	00100513          	li	a0,1
 460:	00000073          	ecall

00000464 <pass>:
 464:	0ff0000f          	fence
 468:	00018593          	mv	a1,gp
 46c:	00000513          	li	a0,0
 470:	00000073          	ecall

00000474 <sign_pass>:
 474:	00300193          	li	gp,3
 478:	00000e17          	auipc	t3,0x0
 47c:	118e0e13          	addi	t3,t3,280 # 590 <begin_signature>
 480:	003e2623          	sw	gp,12(t3)
 484:	00400193          	li	gp,4
 488:	00000e17          	auipc	t3,0x0
 48c:	108e0e13          	addi	t3,t3,264 # 590 <begin_signature>
 490:	003e2823          	sw	gp,16(t3)
 494:	00500193          	li	gp,5
 498:	00000e17          	auipc	t3,0x0
 49c:	0f8e0e13          	addi	t3,t3,248 # 590 <begin_signature>
 4a0:	003e2a23          	sw	gp,20(t3)
 4a4:	00600193          	li	gp,6
 4a8:	00000e17          	auipc	t3,0x0
 4ac:	0e8e0e13          	addi	t3,t3,232 # 590 <begin_signature>
 4b0:	003e2c23          	sw	gp,24(t3)
 4b4:	00700193          	li	gp,7
 4b8:	00000e17          	auipc	t3,0x0
 4bc:	0d8e0e13          	addi	t3,t3,216 # 590 <begin_signature>
 4c0:	003e2e23          	sw	gp,28(t3)
 4c4:	00800193          	li	gp,8
 4c8:	00000e17          	auipc	t3,0x0
 4cc:	0c8e0e13          	addi	t3,t3,200 # 590 <begin_signature>
 4d0:	023e2023          	sw	gp,32(t3)
 4d4:	00a00193          	li	gp,10
 4d8:	00000e17          	auipc	t3,0x0
 4dc:	0b8e0e13          	addi	t3,t3,184 # 590 <begin_signature>
 4e0:	023e2423          	sw	gp,40(t3)
 4e4:	00b00193          	li	gp,11
 4e8:	00000e17          	auipc	t3,0x0
 4ec:	0a8e0e13          	addi	t3,t3,168 # 590 <begin_signature>
 4f0:	023e2623          	sw	gp,44(t3)
 4f4:	f71ff06f          	j	464 <pass>

000004f8 <mtvec_handler>:
 4f8:	0011f293          	andi	t0,gp,1
 4fc:	f4029ce3          	bnez	t0,454 <fail>
 500:	00300293          	li	t0,3
 504:	34202373          	csrr	t1,mcause
 508:	f46296e3          	bne	t0,t1,454 <fail>
 50c:	341022f3          	csrr	t0,mepc
 510:	00428293          	addi	t0,t0,4
 514:	34129073          	csrw	mepc,t0
 518:	30200073          	mret

0000051c <ecall>:
 51c:	00000073          	ecall

00000520 <sc_exit>:
 520:	bd5ff06f          	j	f4 <SIM_EXIT>
 524:	00000013          	nop
 528:	00000013          	nop
 52c:	00000013          	nop
 530:	00000013          	nop
 534:	00000013          	nop
 538:	00000013          	nop
 53c:	00000013          	nop
	...

Дизассемблирование раздела .data:

00000560 <data1>:
 560:	0000                	unimp
	...

00000564 <data2>:
	...

00000570 <begin_regstate>:
	...

00000590 <begin_signature>:
 590:	ffff                	0xffff
 592:	ffff                	0xffff
 594:	ffff                	0xffff
 596:	ffff                	0xffff
 598:	ffff                	0xffff
 59a:	ffff                	0xffff
 59c:	ffff                	0xffff
 59e:	ffff                	0xffff
 5a0:	ffff                	0xffff
 5a2:	ffff                	0xffff
 5a4:	ffff                	0xffff
 5a6:	ffff                	0xffff
 5a8:	ffff                	0xffff
 5aa:	ffff                	0xffff
 5ac:	ffff                	0xffff
 5ae:	ffff                	0xffff
 5b0:	ffff                	0xffff
 5b2:	ffff                	0xffff
 5b4:	ffff                	0xffff
 5b6:	ffff                	0xffff
 5b8:	ffff                	0xffff
 5ba:	ffff                	0xffff
 5bc:	ffff                	0xffff
 5be:	ffff                	0xffff
 5c0:	ffff                	0xffff
 5c2:	ffff                	0xffff
 5c4:	ffff                	0xffff
 5c6:	ffff                	0xffff
 5c8:	ffff                	0xffff
 5ca:	ffff                	0xffff
 5cc:	ffff                	0xffff
 5ce:	ffff                	0xffff
 5d0:	ffff                	0xffff
 5d2:	ffff                	0xffff
 5d4:	ffff                	0xffff
 5d6:	ffff                	0xffff
 5d8:	ffff                	0xffff
 5da:	ffff                	0xffff
 5dc:	ffff                	0xffff
 5de:	ffff                	0xffff
 5e0:	ffff                	0xffff
 5e2:	ffff                	0xffff
 5e4:	ffff                	0xffff
 5e6:	ffff                	0xffff
 5e8:	ffff                	0xffff
 5ea:	ffff                	0xffff
 5ec:	ffff                	0xffff
 5ee:	ffff                	0xffff
 5f0:	ffff                	0xffff
 5f2:	ffff                	0xffff
 5f4:	ffff                	0xffff
 5f6:	ffff                	0xffff
 5f8:	ffff                	0xffff
 5fa:	ffff                	0xffff
 5fc:	ffff                	0xffff
 5fe:	ffff                	0xffff
 600:	ffff                	0xffff
 602:	ffff                	0xffff
 604:	ffff                	0xffff
 606:	ffff                	0xffff
 608:	ffff                	0xffff
 60a:	ffff                	0xffff
 60c:	ffff                	0xffff
 60e:	ffff                	0xffff

00000610 <end_signature>:
	...

Дизассемблирование раздела .tohost:

00000640 <tohost>:
	...

00000680 <fromhost>:
	...

Дизассемблирование раздела .sdata:

00000688 <__global_pointer$-0x800>:
	...

Дизассемблирование раздела .stack:

0000fc00 <.stack>:
	...
