
/home/oleg/scr1/build/verilator_wf_AHB_IMC/compliance_I-LB-01.elf:     формат файла elf32-littleriscv
/home/oleg/scr1/build/verilator_wf_AHB_IMC/compliance_I-LB-01.elf
архитектура: riscv:rv32, флаги 0x00000112:
EXEC_P, HAS_SYMS, D_PAGED
начальный адрес 0x00000200

Заголовок программы:
    LOAD off    0x00001000 vaddr 0x00000000 paddr 0x00000000 align 2**12
         filesz 0x00000f48 memsz 0x00000f60 flags rwx
    LOAD off    0x00002c00 vaddr 0x0000fc00 paddr 0x0000fc00 align 2**12
         filesz 0x00000000 memsz 0x00000400 flags rw-

Разделы:
Idx Name          Size      VMA       LMA       File off  Algn  Флаги
  0 .text.init    00000284  00000000  00000000  00001000  2**6  CONTENTS, ALLOC, LOAD, READONLY, CODE
  1 .text         00000840  000002a0  000002a0  000012a0  2**5  CONTENTS, ALLOC, LOAD, READONLY, CODE
  2 .data         00000420  00000ae0  00000ae0  00001ae0  2**4  CONTENTS, ALLOC, LOAD, DATA
  3 .tohost       00000048  00000f00  00000f00  00001f00  2**6  CONTENTS, ALLOC, LOAD, DATA
  4 .sdata        00000018  00000f48  00000f48  00001f48  2**0  ALLOC
  5 .tdata        00000000  00000f60  00000f60  00001f48  2**0  CONTENTS, ALLOC, LOAD, DATA, THREAD_LOCAL
  6 .tbss         00000000  00000f60  00000f60  00000000  2**0  ALLOC, THREAD_LOCAL
  7 .bss          00000000  00000f60  00000f60  00001f48  2**0  ALLOC
  8 .stack        00000400  0000fc00  0000fc00  00002c00  2**0  ALLOC
SYMBOL TABLE:
00000000 l    d  .text.init	00000000 .text.init
000002a0 l    d  .text	00000000 .text
00000ae0 l    d  .data	00000000 .data
00000f00 l    d  .tohost	00000000 .tohost
00000f48 l    d  .sdata	00000000 .sdata
00000f60 l    d  .tdata	00000000 .tdata
00000f60 l    d  .tbss	00000000 .tbss
00000f60 l    d  .bss	00000000 .bss
0000fc00 l    d  .stack	00000000 .stack
00000000 l    df *ABS*	00000000 /home/oleg/scr1/build/verilator_wf_AHB_IMC/riscv_compliance/riscv_compliance_objs/I-LB-01.o
00000aa0 l       .text	00000000 sc_exit
000001c0 l       .text.init	00000000 trap_vector
000001fc l       .text.init	00000000 _report
000001f8 l       .text.init	00000000 handle_exception
000001f8 l       .text.init	00000000 other_exception
000002a0 l       .text	00000000 _run_test
00000ae0 l       .data	00000000 test_A1_data
00000b40 l       .data	00000000 test_A1_res
00000ae4 l       .data	00000000 test_A2_data
00000b50 l       .data	00000000 test_A2_res
00000ae8 l       .data	00000000 test_A3_data
00000b60 l       .data	00000000 test_A3_res
00000aec l       .data	00000000 test_A4_data
00000b70 l       .data	00000000 test_A4_res
00000af0 l       .data	00000000 test_A5_data
00000b80 l       .data	00000000 test_A5_res
00000af8 l       .data	00000000 test_B_data
00000b90 l       .data	00000000 test_B_res
00000b00 l       .data	00000000 test_C_data
00000bc0 l       .data	00000000 test_C_res
00000b04 l       .data	00000000 test_D_data
00000bc4 l       .data	00000000 test_D_res
00000b0c l       .data	00000000 test_E1_data
00000bc8 l       .data	00000000 test_E1_res
00000b10 l       .data	00000000 test_E2_data
00000bcc l       .data	00000000 test_E2_res
00000a98 l       .text	00000000 ecall
00000b08 l       .data	00000000 test_D_data2_label
00000400 g       *ABS*	00000000 STACK_SIZE
00001748 g       .sdata	00000000 __global_pointer$
00000bd0 g       .data	00000000 end_signature
00000b20 g       .data	00000000 begin_regstate
00000b40 g       .data	00000000 begin_signature
00000200 g       .text.init	00000000 _start
00000020 g       *ABS*	00000000 CL_SIZE
000000f8 g       .text.init	00000000 SIM_STOP
00000f60 g       .bss	00000000 _end
00000f40 g       .tohost	00000000 fromhost
00000f00 g       .tohost	00000000 tohost
000000f4 g       .text.init	00000000 SIM_EXIT



Дизассемблирование раздела .text.init:

00000000 <SIM_EXIT-0xf4>:
	...

000000f4 <SIM_EXIT>:
  f4:	00000013          	nop

000000f8 <SIM_STOP>:
  f8:	0000006f          	j	f8 <SIM_STOP>
  fc:	ffff                	0xffff
  fe:	ffff                	0xffff
	...

000001c0 <trap_vector>:
 1c0:	34202773          	csrr	a4,mcause
 1c4:	00800793          	li	a5,8
 1c8:	02f70a63          	beq	a4,a5,1fc <_report>
 1cc:	00900793          	li	a5,9
 1d0:	02f70663          	beq	a4,a5,1fc <_report>
 1d4:	00b00793          	li	a5,11
 1d8:	02f70263          	beq	a4,a5,1fc <_report>
 1dc:	00000717          	auipc	a4,0x0
 1e0:	e2470713          	addi	a4,a4,-476 # 0 <CL_SIZE-0x20>
 1e4:	00070463          	beqz	a4,1ec <trap_vector+0x2c>
 1e8:	00070067          	jr	a4
 1ec:	34202773          	csrr	a4,mcause
 1f0:	00075463          	bgez	a4,1f8 <handle_exception>
 1f4:	0040006f          	j	1f8 <handle_exception>

000001f8 <handle_exception>:
 1f8:	00100513          	li	a0,1

000001fc <_report>:
 1fc:	0a50006f          	j	aa0 <sc_exit>

00000200 <_start>:
 200:	f1402573          	csrr	a0,mhartid
 204:	00051063          	bnez	a0,204 <_start+0x4>
 208:	00000e13          	li	t3,0
 20c:	00000297          	auipc	t0,0x0
 210:	fb428293          	addi	t0,t0,-76 # 1c0 <trap_vector>
 214:	30529073          	csrw	mtvec,t0
 218:	00100513          	li	a0,1
 21c:	01f51513          	slli	a0,a0,0x1f
 220:	00054a63          	bltz	a0,234 <_start+0x34>
 224:	0ff0000f          	fence
 228:	000e0593          	mv	a1,t3
 22c:	00000513          	li	a0,0
 230:	00000073          	ecall
 234:	00000297          	auipc	t0,0x0
 238:	dcc28293          	addi	t0,t0,-564 # 0 <CL_SIZE-0x20>
 23c:	00028e63          	beqz	t0,258 <_start+0x58>
 240:	10529073          	csrw	stvec,t0
 244:	0000b2b7          	lui	t0,0xb
 248:	10928293          	addi	t0,t0,265 # b109 <__global_pointer$+0x99c1>
 24c:	30229073          	csrw	medeleg,t0
 250:	30202373          	csrr	t1,medeleg
 254:	fa6292e3          	bne	t0,t1,1f8 <handle_exception>
 258:	30005073          	csrwi	mstatus,0
 25c:	00002537          	lui	a0,0x2
 260:	80050513          	addi	a0,a0,-2048 # 1800 <__global_pointer$+0xb8>
 264:	30052073          	csrs	mstatus,a0
 268:	00000297          	auipc	t0,0x0
 26c:	03828293          	addi	t0,t0,56 # 2a0 <_run_test>
 270:	34129073          	csrw	mepc,t0
 274:	f1402573          	csrr	a0,mhartid
 278:	30200073          	mret
	...

Дизассемблирование раздела .text:

000002a0 <_run_test>:
 2a0:	00001f97          	auipc	t6,0x1
 2a4:	880f8f93          	addi	t6,t6,-1920 # b20 <begin_regstate>
 2a8:	003fa023          	sw	gp,0(t6)
 2ac:	004fa223          	sw	tp,4(t6)
 2b0:	005fa423          	sw	t0,8(t6)
 2b4:	f00001b7          	lui	gp,0xf0000
 2b8:	00001217          	auipc	tp,0x1
 2bc:	91820213          	addi	tp,tp,-1768 # bd0 <end_signature>
 2c0:	00020283          	lb	t0,0(tp) # 0 <CL_SIZE-0x20>
 2c4:	00518023          	sb	t0,0(gp) # f0000000 <__global_pointer$+0xefffe8b8>
 2c8:	00028663          	beqz	t0,2d4 <_run_test+0x34>
 2cc:	00120213          	addi	tp,tp,1 # 1 <CL_SIZE-0x1f>
 2d0:	ff1ff06f          	j	2c0 <_run_test+0x20>
 2d4:	00001f97          	auipc	t6,0x1
 2d8:	84cf8f93          	addi	t6,t6,-1972 # b20 <begin_regstate>
 2dc:	000fa183          	lw	gp,0(t6)
 2e0:	004fa203          	lw	tp,4(t6)
 2e4:	008fa283          	lw	t0,8(t6)
 2e8:	00001f97          	auipc	t6,0x1
 2ec:	838f8f93          	addi	t6,t6,-1992 # b20 <begin_regstate>
 2f0:	003fa023          	sw	gp,0(t6)
 2f4:	004fa223          	sw	tp,4(t6)
 2f8:	005fa423          	sw	t0,8(t6)
 2fc:	f00001b7          	lui	gp,0xf0000
 300:	00001217          	auipc	tp,0x1
 304:	8de20213          	addi	tp,tp,-1826 # bde <end_signature+0xe>
 308:	00020283          	lb	t0,0(tp) # 0 <CL_SIZE-0x20>
 30c:	00518023          	sb	t0,0(gp) # f0000000 <__global_pointer$+0xefffe8b8>
 310:	00028663          	beqz	t0,31c <_run_test+0x7c>
 314:	00120213          	addi	tp,tp,1 # 1 <CL_SIZE-0x1f>
 318:	ff1ff06f          	j	308 <_run_test+0x68>
 31c:	00001f97          	auipc	t6,0x1
 320:	804f8f93          	addi	t6,t6,-2044 # b20 <begin_regstate>
 324:	000fa183          	lw	gp,0(t6)
 328:	004fa203          	lw	tp,4(t6)
 32c:	008fa283          	lw	t0,8(t6)
 330:	00000f97          	auipc	t6,0x0
 334:	7b0f8f93          	addi	t6,t6,1968 # ae0 <test_A1_data>
 338:	00001117          	auipc	sp,0x1
 33c:	80810113          	addi	sp,sp,-2040 # b40 <begin_signature>
 340:	000f8183          	lb	gp,0(t6)
 344:	001f8203          	lb	tp,1(t6)
 348:	002f8283          	lb	t0,2(t6)
 34c:	003f8303          	lb	t1,3(t6)
 350:	00312023          	sw	gp,0(sp)
 354:	00412223          	sw	tp,4(sp)
 358:	00512423          	sw	t0,8(sp)
 35c:	00612623          	sw	t1,12(sp)
 360:	00000f97          	auipc	t6,0x0
 364:	7c0f8f93          	addi	t6,t6,1984 # b20 <begin_regstate>
 368:	003fa023          	sw	gp,0(t6)
 36c:	004fa223          	sw	tp,4(t6)
 370:	005fa423          	sw	t0,8(t6)
 374:	f00001b7          	lui	gp,0xf0000
 378:	00001217          	auipc	tp,0x1
 37c:	88e20213          	addi	tp,tp,-1906 # c06 <end_signature+0x36>
 380:	00020283          	lb	t0,0(tp) # 0 <CL_SIZE-0x20>
 384:	00518023          	sb	t0,0(gp) # f0000000 <__global_pointer$+0xefffe8b8>
 388:	00028663          	beqz	t0,394 <_run_test+0xf4>
 38c:	00120213          	addi	tp,tp,1 # 1 <CL_SIZE-0x1f>
 390:	ff1ff06f          	j	380 <_run_test+0xe0>
 394:	00000f97          	auipc	t6,0x0
 398:	78cf8f93          	addi	t6,t6,1932 # b20 <begin_regstate>
 39c:	000fa183          	lw	gp,0(t6)
 3a0:	004fa203          	lw	tp,4(t6)
 3a4:	008fa283          	lw	t0,8(t6)
 3a8:	00000f97          	auipc	t6,0x0
 3ac:	778f8f93          	addi	t6,t6,1912 # b20 <begin_regstate>
 3b0:	003fa023          	sw	gp,0(t6)
 3b4:	004fa223          	sw	tp,4(t6)
 3b8:	005fa423          	sw	t0,8(t6)
 3bc:	f00001b7          	lui	gp,0xf0000
 3c0:	00001217          	auipc	tp,0x1
 3c4:	86220213          	addi	tp,tp,-1950 # c22 <end_signature+0x52>
 3c8:	00020283          	lb	t0,0(tp) # 0 <CL_SIZE-0x20>
 3cc:	00518023          	sb	t0,0(gp) # f0000000 <__global_pointer$+0xefffe8b8>
 3d0:	00028663          	beqz	t0,3dc <_run_test+0x13c>
 3d4:	00120213          	addi	tp,tp,1 # 1 <CL_SIZE-0x1f>
 3d8:	ff1ff06f          	j	3c8 <_run_test+0x128>
 3dc:	00000f97          	auipc	t6,0x0
 3e0:	744f8f93          	addi	t6,t6,1860 # b20 <begin_regstate>
 3e4:	000fa183          	lw	gp,0(t6)
 3e8:	004fa203          	lw	tp,4(t6)
 3ec:	008fa283          	lw	t0,8(t6)
 3f0:	00000c17          	auipc	s8,0x0
 3f4:	6f5c0c13          	addi	s8,s8,1781 # ae5 <test_A2_data+0x1>
 3f8:	00000297          	auipc	t0,0x0
 3fc:	75828293          	addi	t0,t0,1880 # b50 <test_A2_res>
 400:	fffc0c83          	lb	s9,-1(s8)
 404:	000c0d03          	lb	s10,0(s8)
 408:	001c0d83          	lb	s11,1(s8)
 40c:	002c0e03          	lb	t3,2(s8)
 410:	0192a023          	sw	s9,0(t0)
 414:	01a2a223          	sw	s10,4(t0)
 418:	01b2a423          	sw	s11,8(t0)
 41c:	01c2a623          	sw	t3,12(t0)
 420:	00000f97          	auipc	t6,0x0
 424:	700f8f93          	addi	t6,t6,1792 # b20 <begin_regstate>
 428:	003fa023          	sw	gp,0(t6)
 42c:	004fa223          	sw	tp,4(t6)
 430:	005fa423          	sw	t0,8(t6)
 434:	f00001b7          	lui	gp,0xf0000
 438:	00001217          	auipc	tp,0x1
 43c:	81220213          	addi	tp,tp,-2030 # c4a <end_signature+0x7a>
 440:	00020283          	lb	t0,0(tp) # 0 <CL_SIZE-0x20>
 444:	00518023          	sb	t0,0(gp) # f0000000 <__global_pointer$+0xefffe8b8>
 448:	00028663          	beqz	t0,454 <STACK_SIZE+0x54>
 44c:	00120213          	addi	tp,tp,1 # 1 <CL_SIZE-0x1f>
 450:	ff1ff06f          	j	440 <STACK_SIZE+0x40>
 454:	00000f97          	auipc	t6,0x0
 458:	6ccf8f93          	addi	t6,t6,1740 # b20 <begin_regstate>
 45c:	000fa183          	lw	gp,0(t6)
 460:	004fa203          	lw	tp,4(t6)
 464:	008fa283          	lw	t0,8(t6)
 468:	00000f97          	auipc	t6,0x0
 46c:	6b8f8f93          	addi	t6,t6,1720 # b20 <begin_regstate>
 470:	003fa023          	sw	gp,0(t6)
 474:	004fa223          	sw	tp,4(t6)
 478:	005fa423          	sw	t0,8(t6)
 47c:	f00001b7          	lui	gp,0xf0000
 480:	00000217          	auipc	tp,0x0
 484:	7e620213          	addi	tp,tp,2022 # c66 <end_signature+0x96>
 488:	00020283          	lb	t0,0(tp) # 0 <CL_SIZE-0x20>
 48c:	00518023          	sb	t0,0(gp) # f0000000 <__global_pointer$+0xefffe8b8>
 490:	00028663          	beqz	t0,49c <STACK_SIZE+0x9c>
 494:	00120213          	addi	tp,tp,1 # 1 <CL_SIZE-0x1f>
 498:	ff1ff06f          	j	488 <STACK_SIZE+0x88>
 49c:	00000f97          	auipc	t6,0x0
 4a0:	684f8f93          	addi	t6,t6,1668 # b20 <begin_regstate>
 4a4:	000fa183          	lw	gp,0(t6)
 4a8:	004fa203          	lw	tp,4(t6)
 4ac:	008fa283          	lw	t0,8(t6)
 4b0:	00000397          	auipc	t2,0x0
 4b4:	63738393          	addi	t2,t2,1591 # ae7 <test_A2_data+0x3>
 4b8:	00000417          	auipc	s0,0x0
 4bc:	6a840413          	addi	s0,s0,1704 # b60 <test_A3_res>
 4c0:	00138f03          	lb	t5,1(t2)
 4c4:	00238f83          	lb	t6,2(t2)
 4c8:	00338083          	lb	ra,3(t2)
 4cc:	00438103          	lb	sp,4(t2)
 4d0:	01e42023          	sw	t5,0(s0)
 4d4:	01f42223          	sw	t6,4(s0)
 4d8:	00142423          	sw	ra,8(s0)
 4dc:	00242623          	sw	sp,12(s0)
 4e0:	00000f97          	auipc	t6,0x0
 4e4:	640f8f93          	addi	t6,t6,1600 # b20 <begin_regstate>
 4e8:	003fa023          	sw	gp,0(t6)
 4ec:	004fa223          	sw	tp,4(t6)
 4f0:	005fa423          	sw	t0,8(t6)
 4f4:	f00001b7          	lui	gp,0xf0000
 4f8:	00000217          	auipc	tp,0x0
 4fc:	79620213          	addi	tp,tp,1942 # c8e <end_signature+0xbe>
 500:	00020283          	lb	t0,0(tp) # 0 <CL_SIZE-0x20>
 504:	00518023          	sb	t0,0(gp) # f0000000 <__global_pointer$+0xefffe8b8>
 508:	00028663          	beqz	t0,514 <STACK_SIZE+0x114>
 50c:	00120213          	addi	tp,tp,1 # 1 <CL_SIZE-0x1f>
 510:	ff1ff06f          	j	500 <STACK_SIZE+0x100>
 514:	00000f97          	auipc	t6,0x0
 518:	60cf8f93          	addi	t6,t6,1548 # b20 <begin_regstate>
 51c:	000fa183          	lw	gp,0(t6)
 520:	004fa203          	lw	tp,4(t6)
 524:	008fa283          	lw	t0,8(t6)
 528:	00000f97          	auipc	t6,0x0
 52c:	5f8f8f93          	addi	t6,t6,1528 # b20 <begin_regstate>
 530:	003fa023          	sw	gp,0(t6)
 534:	004fa223          	sw	tp,4(t6)
 538:	005fa423          	sw	t0,8(t6)
 53c:	f00001b7          	lui	gp,0xf0000
 540:	00000217          	auipc	tp,0x0
 544:	76a20213          	addi	tp,tp,1898 # caa <end_signature+0xda>
 548:	00020283          	lb	t0,0(tp) # 0 <CL_SIZE-0x20>
 54c:	00518023          	sb	t0,0(gp) # f0000000 <__global_pointer$+0xefffe8b8>
 550:	00028663          	beqz	t0,55c <STACK_SIZE+0x15c>
 554:	00120213          	addi	tp,tp,1 # 1 <CL_SIZE-0x1f>
 558:	ff1ff06f          	j	548 <STACK_SIZE+0x148>
 55c:	00000f97          	auipc	t6,0x0
 560:	5c4f8f93          	addi	t6,t6,1476 # b20 <begin_regstate>
 564:	000fa183          	lw	gp,0(t6)
 568:	004fa203          	lw	tp,4(t6)
 56c:	008fa283          	lw	t0,8(t6)
 570:	00001517          	auipc	a0,0x1
 574:	d7c50513          	addi	a0,a0,-644 # 12ec <_end+0x38c>
 578:	00000597          	auipc	a1,0x0
 57c:	5f858593          	addi	a1,a1,1528 # b70 <test_A4_res>
 580:	80050603          	lb	a2,-2048(a0)
 584:	80150683          	lb	a3,-2047(a0)
 588:	80250703          	lb	a4,-2046(a0)
 58c:	80350783          	lb	a5,-2045(a0)
 590:	00c5a023          	sw	a2,0(a1)
 594:	00d5a223          	sw	a3,4(a1)
 598:	00e5a423          	sw	a4,8(a1)
 59c:	00f5a623          	sw	a5,12(a1)
 5a0:	00000f97          	auipc	t6,0x0
 5a4:	580f8f93          	addi	t6,t6,1408 # b20 <begin_regstate>
 5a8:	003fa023          	sw	gp,0(t6)
 5ac:	004fa223          	sw	tp,4(t6)
 5b0:	005fa423          	sw	t0,8(t6)
 5b4:	f00001b7          	lui	gp,0xf0000
 5b8:	00000217          	auipc	tp,0x0
 5bc:	71d20213          	addi	tp,tp,1821 # cd5 <end_signature+0x105>
 5c0:	00020283          	lb	t0,0(tp) # 0 <CL_SIZE-0x20>
 5c4:	00518023          	sb	t0,0(gp) # f0000000 <__global_pointer$+0xefffe8b8>
 5c8:	00028663          	beqz	t0,5d4 <STACK_SIZE+0x1d4>
 5cc:	00120213          	addi	tp,tp,1 # 1 <CL_SIZE-0x1f>
 5d0:	ff1ff06f          	j	5c0 <STACK_SIZE+0x1c0>
 5d4:	00000f97          	auipc	t6,0x0
 5d8:	54cf8f93          	addi	t6,t6,1356 # b20 <begin_regstate>
 5dc:	000fa183          	lw	gp,0(t6)
 5e0:	004fa203          	lw	tp,4(t6)
 5e4:	008fa283          	lw	t0,8(t6)
 5e8:	00000f97          	auipc	t6,0x0
 5ec:	538f8f93          	addi	t6,t6,1336 # b20 <begin_regstate>
 5f0:	003fa023          	sw	gp,0(t6)
 5f4:	004fa223          	sw	tp,4(t6)
 5f8:	005fa423          	sw	t0,8(t6)
 5fc:	f00001b7          	lui	gp,0xf0000
 600:	00000217          	auipc	tp,0x0
 604:	6f120213          	addi	tp,tp,1777 # cf1 <end_signature+0x121>
 608:	00020283          	lb	t0,0(tp) # 0 <CL_SIZE-0x20>
 60c:	00518023          	sb	t0,0(gp) # f0000000 <__global_pointer$+0xefffe8b8>
 610:	00028663          	beqz	t0,61c <STACK_SIZE+0x21c>
 614:	00120213          	addi	tp,tp,1 # 1 <CL_SIZE-0x1f>
 618:	ff1ff06f          	j	608 <STACK_SIZE+0x208>
 61c:	00000f97          	auipc	t6,0x0
 620:	504f8f93          	addi	t6,t6,1284 # b20 <begin_regstate>
 624:	000fa183          	lw	gp,0(t6)
 628:	004fa203          	lw	tp,4(t6)
 62c:	008fa283          	lw	t0,8(t6)
 630:	00000697          	auipc	a3,0x0
 634:	cc468693          	addi	a3,a3,-828 # 2f4 <_run_test+0x54>
 638:	00000717          	auipc	a4,0x0
 63c:	54870713          	addi	a4,a4,1352 # b80 <test_A5_res>
 640:	7fc68783          	lb	a5,2044(a3)
 644:	7fd68803          	lb	a6,2045(a3)
 648:	7fe68883          	lb	a7,2046(a3)
 64c:	7ff68903          	lb	s2,2047(a3)
 650:	00f72023          	sw	a5,0(a4)
 654:	01072223          	sw	a6,4(a4)
 658:	01172423          	sw	a7,8(a4)
 65c:	01272623          	sw	s2,12(a4)
 660:	00000f97          	auipc	t6,0x0
 664:	4c0f8f93          	addi	t6,t6,1216 # b20 <begin_regstate>
 668:	003fa023          	sw	gp,0(t6)
 66c:	004fa223          	sw	tp,4(t6)
 670:	005fa423          	sw	t0,8(t6)
 674:	f00001b7          	lui	gp,0xf0000
 678:	00000217          	auipc	tp,0x0
 67c:	6a420213          	addi	tp,tp,1700 # d1c <end_signature+0x14c>
 680:	00020283          	lb	t0,0(tp) # 0 <CL_SIZE-0x20>
 684:	00518023          	sb	t0,0(gp) # f0000000 <__global_pointer$+0xefffe8b8>
 688:	00028663          	beqz	t0,694 <STACK_SIZE+0x294>
 68c:	00120213          	addi	tp,tp,1 # 1 <CL_SIZE-0x1f>
 690:	ff1ff06f          	j	680 <STACK_SIZE+0x280>
 694:	00000f97          	auipc	t6,0x0
 698:	48cf8f93          	addi	t6,t6,1164 # b20 <begin_regstate>
 69c:	000fa183          	lw	gp,0(t6)
 6a0:	004fa203          	lw	tp,4(t6)
 6a4:	008fa283          	lw	t0,8(t6)
 6a8:	00000f97          	auipc	t6,0x0
 6ac:	478f8f93          	addi	t6,t6,1144 # b20 <begin_regstate>
 6b0:	003fa023          	sw	gp,0(t6)
 6b4:	004fa223          	sw	tp,4(t6)
 6b8:	005fa423          	sw	t0,8(t6)
 6bc:	f00001b7          	lui	gp,0xf0000
 6c0:	00000217          	auipc	tp,0x0
 6c4:	67820213          	addi	tp,tp,1656 # d38 <end_signature+0x168>
 6c8:	00020283          	lb	t0,0(tp) # 0 <CL_SIZE-0x20>
 6cc:	00518023          	sb	t0,0(gp) # f0000000 <__global_pointer$+0xefffe8b8>
 6d0:	00028663          	beqz	t0,6dc <STACK_SIZE+0x2dc>
 6d4:	00120213          	addi	tp,tp,1 # 1 <CL_SIZE-0x1f>
 6d8:	ff1ff06f          	j	6c8 <STACK_SIZE+0x2c8>
 6dc:	00000f97          	auipc	t6,0x0
 6e0:	444f8f93          	addi	t6,t6,1092 # b20 <begin_regstate>
 6e4:	000fa183          	lw	gp,0(t6)
 6e8:	004fa203          	lw	tp,4(t6)
 6ec:	008fa283          	lw	t0,8(t6)
 6f0:	00000817          	auipc	a6,0x0
 6f4:	40880813          	addi	a6,a6,1032 # af8 <test_B_data>
 6f8:	00000897          	auipc	a7,0x0
 6fc:	49888893          	addi	a7,a7,1176 # b90 <test_B_res>
 700:	ffc80903          	lb	s2,-4(a6)
 704:	ffd80983          	lb	s3,-3(a6)
 708:	ffe80a03          	lb	s4,-2(a6)
 70c:	fff80a83          	lb	s5,-1(a6)
 710:	00080b03          	lb	s6,0(a6)
 714:	00180b83          	lb	s7,1(a6)
 718:	00280c03          	lb	s8,2(a6)
 71c:	00380c83          	lb	s9,3(a6)
 720:	00480d03          	lb	s10,4(a6)
 724:	00580d83          	lb	s11,5(a6)
 728:	00680e03          	lb	t3,6(a6)
 72c:	00780e83          	lb	t4,7(a6)
 730:	0128a023          	sw	s2,0(a7)
 734:	0138a223          	sw	s3,4(a7)
 738:	0148a423          	sw	s4,8(a7)
 73c:	0158a623          	sw	s5,12(a7)
 740:	0168a823          	sw	s6,16(a7)
 744:	0178aa23          	sw	s7,20(a7)
 748:	0188ac23          	sw	s8,24(a7)
 74c:	0198ae23          	sw	s9,28(a7)
 750:	03a8a023          	sw	s10,32(a7)
 754:	03b8a223          	sw	s11,36(a7)
 758:	03c8a423          	sw	t3,40(a7)
 75c:	03d8a623          	sw	t4,44(a7)
 760:	00000f97          	auipc	t6,0x0
 764:	3c0f8f93          	addi	t6,t6,960 # b20 <begin_regstate>
 768:	003fa023          	sw	gp,0(t6)
 76c:	004fa223          	sw	tp,4(t6)
 770:	005fa423          	sw	t0,8(t6)
 774:	f00001b7          	lui	gp,0xf0000
 778:	00000217          	auipc	tp,0x0
 77c:	5f620213          	addi	tp,tp,1526 # d6e <end_signature+0x19e>
 780:	00020283          	lb	t0,0(tp) # 0 <CL_SIZE-0x20>
 784:	00518023          	sb	t0,0(gp) # f0000000 <__global_pointer$+0xefffe8b8>
 788:	00028663          	beqz	t0,794 <STACK_SIZE+0x394>
 78c:	00120213          	addi	tp,tp,1 # 1 <CL_SIZE-0x1f>
 790:	ff1ff06f          	j	780 <STACK_SIZE+0x380>
 794:	00000f97          	auipc	t6,0x0
 798:	38cf8f93          	addi	t6,t6,908 # b20 <begin_regstate>
 79c:	000fa183          	lw	gp,0(t6)
 7a0:	004fa203          	lw	tp,4(t6)
 7a4:	008fa283          	lw	t0,8(t6)
 7a8:	00000f97          	auipc	t6,0x0
 7ac:	378f8f93          	addi	t6,t6,888 # b20 <begin_regstate>
 7b0:	003fa023          	sw	gp,0(t6)
 7b4:	004fa223          	sw	tp,4(t6)
 7b8:	005fa423          	sw	t0,8(t6)
 7bc:	f00001b7          	lui	gp,0xf0000
 7c0:	00000217          	auipc	tp,0x0
 7c4:	5c920213          	addi	tp,tp,1481 # d89 <end_signature+0x1b9>
 7c8:	00020283          	lb	t0,0(tp) # 0 <CL_SIZE-0x20>
 7cc:	00518023          	sb	t0,0(gp) # f0000000 <__global_pointer$+0xefffe8b8>
 7d0:	00028663          	beqz	t0,7dc <STACK_SIZE+0x3dc>
 7d4:	00120213          	addi	tp,tp,1 # 1 <CL_SIZE-0x1f>
 7d8:	ff1ff06f          	j	7c8 <STACK_SIZE+0x3c8>
 7dc:	00000f97          	auipc	t6,0x0
 7e0:	344f8f93          	addi	t6,t6,836 # b20 <begin_regstate>
 7e4:	000fa183          	lw	gp,0(t6)
 7e8:	004fa203          	lw	tp,4(t6)
 7ec:	008fa283          	lw	t0,8(t6)
 7f0:	00000a97          	auipc	s5,0x0
 7f4:	310a8a93          	addi	s5,s5,784 # b00 <test_C_data>
 7f8:	00000b17          	auipc	s6,0x0
 7fc:	3c8b0b13          	addi	s6,s6,968 # bc0 <test_C_res>
 800:	000a8003          	lb	zero,0(s5)
 804:	000b2023          	sw	zero,0(s6)
 808:	00000f97          	auipc	t6,0x0
 80c:	318f8f93          	addi	t6,t6,792 # b20 <begin_regstate>
 810:	003fa023          	sw	gp,0(t6)
 814:	004fa223          	sw	tp,4(t6)
 818:	005fa423          	sw	t0,8(t6)
 81c:	f00001b7          	lui	gp,0xf0000
 820:	00000217          	auipc	tp,0x0
 824:	58a20213          	addi	tp,tp,1418 # daa <end_signature+0x1da>
 828:	00020283          	lb	t0,0(tp) # 0 <CL_SIZE-0x20>
 82c:	00518023          	sb	t0,0(gp) # f0000000 <__global_pointer$+0xefffe8b8>
 830:	00028663          	beqz	t0,83c <STACK_SIZE+0x43c>
 834:	00120213          	addi	tp,tp,1 # 1 <CL_SIZE-0x1f>
 838:	ff1ff06f          	j	828 <STACK_SIZE+0x428>
 83c:	00000f97          	auipc	t6,0x0
 840:	2e4f8f93          	addi	t6,t6,740 # b20 <begin_regstate>
 844:	000fa183          	lw	gp,0(t6)
 848:	004fa203          	lw	tp,4(t6)
 84c:	008fa283          	lw	t0,8(t6)
 850:	00000f97          	auipc	t6,0x0
 854:	2d0f8f93          	addi	t6,t6,720 # b20 <begin_regstate>
 858:	003fa023          	sw	gp,0(t6)
 85c:	004fa223          	sw	tp,4(t6)
 860:	005fa423          	sw	t0,8(t6)
 864:	f00001b7          	lui	gp,0xf0000
 868:	00000217          	auipc	tp,0x0
 86c:	55d20213          	addi	tp,tp,1373 # dc5 <end_signature+0x1f5>
 870:	00020283          	lb	t0,0(tp) # 0 <CL_SIZE-0x20>
 874:	00518023          	sb	t0,0(gp) # f0000000 <__global_pointer$+0xefffe8b8>
 878:	00028663          	beqz	t0,884 <STACK_SIZE+0x484>
 87c:	00120213          	addi	tp,tp,1 # 1 <CL_SIZE-0x1f>
 880:	ff1ff06f          	j	870 <STACK_SIZE+0x470>
 884:	00000f97          	auipc	t6,0x0
 888:	29cf8f93          	addi	t6,t6,668 # b20 <begin_regstate>
 88c:	000fa183          	lw	gp,0(t6)
 890:	004fa203          	lw	tp,4(t6)
 894:	008fa283          	lw	t0,8(t6)
 898:	00000a97          	auipc	s5,0x0
 89c:	26ca8a93          	addi	s5,s5,620 # b04 <test_D_data>
 8a0:	00000b17          	auipc	s6,0x0
 8a4:	324b0b13          	addi	s6,s6,804 # bc4 <test_D_res>
 8a8:	000aab83          	lw	s7,0(s5)
 8ac:	000b8c03          	lb	s8,0(s7)
 8b0:	000c0c93          	mv	s9,s8
 8b4:	019b2023          	sw	s9,0(s6)
 8b8:	00000f97          	auipc	t6,0x0
 8bc:	268f8f93          	addi	t6,t6,616 # b20 <begin_regstate>
 8c0:	003fa023          	sw	gp,0(t6)
 8c4:	004fa223          	sw	tp,4(t6)
 8c8:	005fa423          	sw	t0,8(t6)
 8cc:	f00001b7          	lui	gp,0xf0000
 8d0:	00000217          	auipc	tp,0x0
 8d4:	51a20213          	addi	tp,tp,1306 # dea <end_signature+0x21a>
 8d8:	00020283          	lb	t0,0(tp) # 0 <CL_SIZE-0x20>
 8dc:	00518023          	sb	t0,0(gp) # f0000000 <__global_pointer$+0xefffe8b8>
 8e0:	00028663          	beqz	t0,8ec <STACK_SIZE+0x4ec>
 8e4:	00120213          	addi	tp,tp,1 # 1 <CL_SIZE-0x1f>
 8e8:	ff1ff06f          	j	8d8 <STACK_SIZE+0x4d8>
 8ec:	00000f97          	auipc	t6,0x0
 8f0:	234f8f93          	addi	t6,t6,564 # b20 <begin_regstate>
 8f4:	000fa183          	lw	gp,0(t6)
 8f8:	004fa203          	lw	tp,4(t6)
 8fc:	008fa283          	lw	t0,8(t6)
 900:	00000f97          	auipc	t6,0x0
 904:	220f8f93          	addi	t6,t6,544 # b20 <begin_regstate>
 908:	003fa023          	sw	gp,0(t6)
 90c:	004fa223          	sw	tp,4(t6)
 910:	005fa423          	sw	t0,8(t6)
 914:	f00001b7          	lui	gp,0xf0000
 918:	00000217          	auipc	tp,0x0
 91c:	4ed20213          	addi	tp,tp,1261 # e05 <end_signature+0x235>
 920:	00020283          	lb	t0,0(tp) # 0 <CL_SIZE-0x20>
 924:	00518023          	sb	t0,0(gp) # f0000000 <__global_pointer$+0xefffe8b8>
 928:	00028663          	beqz	t0,934 <STACK_SIZE+0x534>
 92c:	00120213          	addi	tp,tp,1 # 1 <CL_SIZE-0x1f>
 930:	ff1ff06f          	j	920 <STACK_SIZE+0x520>
 934:	00000f97          	auipc	t6,0x0
 938:	1ecf8f93          	addi	t6,t6,492 # b20 <begin_regstate>
 93c:	000fa183          	lw	gp,0(t6)
 940:	004fa203          	lw	tp,4(t6)
 944:	008fa283          	lw	t0,8(t6)
 948:	00000c97          	auipc	s9,0x0
 94c:	1c4c8c93          	addi	s9,s9,452 # b0c <test_E1_data>
 950:	00000d17          	auipc	s10,0x0
 954:	278d0d13          	addi	s10,s10,632 # bc8 <test_E1_res>
 958:	000c8c83          	lb	s9,0(s9)
 95c:	019d2023          	sw	s9,0(s10)
 960:	00000f97          	auipc	t6,0x0
 964:	1c0f8f93          	addi	t6,t6,448 # b20 <begin_regstate>
 968:	003fa023          	sw	gp,0(t6)
 96c:	004fa223          	sw	tp,4(t6)
 970:	005fa423          	sw	t0,8(t6)
 974:	f00001b7          	lui	gp,0xf0000
 978:	00000217          	auipc	tp,0x0
 97c:	4d120213          	addi	tp,tp,1233 # e49 <end_signature+0x279>
 980:	00020283          	lb	t0,0(tp) # 0 <CL_SIZE-0x20>
 984:	00518023          	sb	t0,0(gp) # f0000000 <__global_pointer$+0xefffe8b8>
 988:	00028663          	beqz	t0,994 <STACK_SIZE+0x594>
 98c:	00120213          	addi	tp,tp,1 # 1 <CL_SIZE-0x1f>
 990:	ff1ff06f          	j	980 <STACK_SIZE+0x580>
 994:	00000f97          	auipc	t6,0x0
 998:	18cf8f93          	addi	t6,t6,396 # b20 <begin_regstate>
 99c:	000fa183          	lw	gp,0(t6)
 9a0:	004fa203          	lw	tp,4(t6)
 9a4:	008fa283          	lw	t0,8(t6)
 9a8:	00000f97          	auipc	t6,0x0
 9ac:	178f8f93          	addi	t6,t6,376 # b20 <begin_regstate>
 9b0:	003fa023          	sw	gp,0(t6)
 9b4:	004fa223          	sw	tp,4(t6)
 9b8:	005fa423          	sw	t0,8(t6)
 9bc:	f00001b7          	lui	gp,0xf0000
 9c0:	00000217          	auipc	tp,0x0
 9c4:	4a420213          	addi	tp,tp,1188 # e64 <end_signature+0x294>
 9c8:	00020283          	lb	t0,0(tp) # 0 <CL_SIZE-0x20>
 9cc:	00518023          	sb	t0,0(gp) # f0000000 <__global_pointer$+0xefffe8b8>
 9d0:	00028663          	beqz	t0,9dc <STACK_SIZE+0x5dc>
 9d4:	00120213          	addi	tp,tp,1 # 1 <CL_SIZE-0x1f>
 9d8:	ff1ff06f          	j	9c8 <STACK_SIZE+0x5c8>
 9dc:	00000f97          	auipc	t6,0x0
 9e0:	144f8f93          	addi	t6,t6,324 # b20 <begin_regstate>
 9e4:	000fa183          	lw	gp,0(t6)
 9e8:	004fa203          	lw	tp,4(t6)
 9ec:	008fa283          	lw	t0,8(t6)
 9f0:	00000d97          	auipc	s11,0x0
 9f4:	121d8d93          	addi	s11,s11,289 # b11 <test_E2_data+0x1>
 9f8:	00000e17          	auipc	t3,0x0
 9fc:	1d4e0e13          	addi	t3,t3,468 # bcc <test_E2_res>
 a00:	fffd8d83          	lb	s11,-1(s11)
 a04:	01be2023          	sw	s11,0(t3)
 a08:	00000f97          	auipc	t6,0x0
 a0c:	118f8f93          	addi	t6,t6,280 # b20 <begin_regstate>
 a10:	003fa023          	sw	gp,0(t6)
 a14:	004fa223          	sw	tp,4(t6)
 a18:	005fa423          	sw	t0,8(t6)
 a1c:	f00001b7          	lui	gp,0xf0000
 a20:	00000217          	auipc	tp,0x0
 a24:	49a20213          	addi	tp,tp,1178 # eba <end_signature+0x2ea>
 a28:	00020283          	lb	t0,0(tp) # 0 <CL_SIZE-0x20>
 a2c:	00518023          	sb	t0,0(gp) # f0000000 <__global_pointer$+0xefffe8b8>
 a30:	00028663          	beqz	t0,a3c <STACK_SIZE+0x63c>
 a34:	00120213          	addi	tp,tp,1 # 1 <CL_SIZE-0x1f>
 a38:	ff1ff06f          	j	a28 <STACK_SIZE+0x628>
 a3c:	00000f97          	auipc	t6,0x0
 a40:	0e4f8f93          	addi	t6,t6,228 # b20 <begin_regstate>
 a44:	000fa183          	lw	gp,0(t6)
 a48:	004fa203          	lw	tp,4(t6)
 a4c:	008fa283          	lw	t0,8(t6)
 a50:	00000f97          	auipc	t6,0x0
 a54:	0d0f8f93          	addi	t6,t6,208 # b20 <begin_regstate>
 a58:	003fa023          	sw	gp,0(t6)
 a5c:	004fa223          	sw	tp,4(t6)
 a60:	005fa423          	sw	t0,8(t6)
 a64:	f00001b7          	lui	gp,0xf0000
 a68:	00000217          	auipc	tp,0x0
 a6c:	46e20213          	addi	tp,tp,1134 # ed6 <end_signature+0x306>
 a70:	00020283          	lb	t0,0(tp) # 0 <CL_SIZE-0x20>
 a74:	00518023          	sb	t0,0(gp) # f0000000 <__global_pointer$+0xefffe8b8>
 a78:	00028663          	beqz	t0,a84 <STACK_SIZE+0x684>
 a7c:	00120213          	addi	tp,tp,1 # 1 <CL_SIZE-0x1f>
 a80:	ff1ff06f          	j	a70 <STACK_SIZE+0x670>
 a84:	00000f97          	auipc	t6,0x0
 a88:	09cf8f93          	addi	t6,t6,156 # b20 <begin_regstate>
 a8c:	000fa183          	lw	gp,0(t6)
 a90:	004fa203          	lw	tp,4(t6)
 a94:	008fa283          	lw	t0,8(t6)

00000a98 <ecall>:
 a98:	00000073          	ecall
 a9c:	0000                	unimp
	...

00000aa0 <sc_exit>:
 aa0:	e54ff06f          	j	f4 <SIM_EXIT>
 aa4:	00000013          	nop
 aa8:	00000013          	nop
 aac:	00000013          	nop
 ab0:	00000013          	nop
 ab4:	00000013          	nop
 ab8:	00000013          	nop
 abc:	00000013          	nop
	...

Дизассемблирование раздела .data:

00000ae0 <test_A1_data>:
 ae0:	f222                	fsw	fs0,36(sp)
 ae2:	11f1                	addi	gp,gp,-4

00000ae4 <test_A2_data>:
 ae4:	44f4                	lw	a3,76(s1)
 ae6:	          	0xf666f333

00000ae8 <test_A3_data>:
 ae8:	f666                	fsw	fs9,44(sp)
 aea:	55f5                	li	a1,-3

00000aec <test_A4_data>:
 aec:	88f8                	0x88f8
 aee:	          	0xaaaf777

00000af0 <test_A5_data>:
 af0:	0aaa                	slli	s5,s5,0xa
 af2:	9909                	andi	a0,a0,-30
 af4:	cc0c                	sw	a1,24(s0)
 af6:	          	0xeee0bbb

00000af8 <test_B_data>:
 af8:	0eee                	slli	t4,t4,0x1b
 afa:	dd0d                	beqz	a0,a34 <STACK_SIZE+0x634>
 afc:	00f0                	addi	a2,sp,76
 afe:	0fff                	0xfff

00000b00 <test_C_data>:
 b00:	5678                	lw	a4,108(a2)
 b02:	1234                	addi	a3,sp,296

00000b04 <test_D_data>:
 b04:	0b08                	addi	a0,sp,400
	...

00000b08 <test_D_data2_label>:
 b08:	def0                	sw	a2,124(a3)
 b0a:	9abc                	0x9abc

00000b0c <test_E1_data>:
 b0c:	3210                	fld	fa2,32(a2)
 b0e:	7654                	flw	fa3,44(a2)

00000b10 <test_E2_data>:
 b10:	ba98                	fsd	fa4,48(a3)
 b12:	fedc                	fsw	fa5,60(a3)
	...

00000b20 <begin_regstate>:
	...

00000b40 <begin_signature>:
 b40:	ffff                	0xffff
 b42:	ffff                	0xffff
 b44:	ffff                	0xffff
 b46:	ffff                	0xffff
 b48:	ffff                	0xffff
 b4a:	ffff                	0xffff
 b4c:	ffff                	0xffff
 b4e:	ffff                	0xffff

00000b50 <test_A2_res>:
 b50:	ffff                	0xffff
 b52:	ffff                	0xffff
 b54:	ffff                	0xffff
 b56:	ffff                	0xffff
 b58:	ffff                	0xffff
 b5a:	ffff                	0xffff
 b5c:	ffff                	0xffff
 b5e:	ffff                	0xffff

00000b60 <test_A3_res>:
 b60:	ffff                	0xffff
 b62:	ffff                	0xffff
 b64:	ffff                	0xffff
 b66:	ffff                	0xffff
 b68:	ffff                	0xffff
 b6a:	ffff                	0xffff
 b6c:	ffff                	0xffff
 b6e:	ffff                	0xffff

00000b70 <test_A4_res>:
 b70:	ffff                	0xffff
 b72:	ffff                	0xffff
 b74:	ffff                	0xffff
 b76:	ffff                	0xffff
 b78:	ffff                	0xffff
 b7a:	ffff                	0xffff
 b7c:	ffff                	0xffff
 b7e:	ffff                	0xffff

00000b80 <test_A5_res>:
 b80:	ffff                	0xffff
 b82:	ffff                	0xffff
 b84:	ffff                	0xffff
 b86:	ffff                	0xffff
 b88:	ffff                	0xffff
 b8a:	ffff                	0xffff
 b8c:	ffff                	0xffff
 b8e:	ffff                	0xffff

00000b90 <test_B_res>:
 b90:	ffff                	0xffff
 b92:	ffff                	0xffff
 b94:	ffff                	0xffff
 b96:	ffff                	0xffff
 b98:	ffff                	0xffff
 b9a:	ffff                	0xffff
 b9c:	ffff                	0xffff
 b9e:	ffff                	0xffff
 ba0:	ffff                	0xffff
 ba2:	ffff                	0xffff
 ba4:	ffff                	0xffff
 ba6:	ffff                	0xffff
 ba8:	ffff                	0xffff
 baa:	ffff                	0xffff
 bac:	ffff                	0xffff
 bae:	ffff                	0xffff
 bb0:	ffff                	0xffff
 bb2:	ffff                	0xffff
 bb4:	ffff                	0xffff
 bb6:	ffff                	0xffff
 bb8:	ffff                	0xffff
 bba:	ffff                	0xffff
 bbc:	ffff                	0xffff
 bbe:	ffff                	0xffff

00000bc0 <test_C_res>:
 bc0:	ffff                	0xffff
 bc2:	ffff                	0xffff

00000bc4 <test_D_res>:
 bc4:	ffff                	0xffff
 bc6:	ffff                	0xffff

00000bc8 <test_E1_res>:
 bc8:	ffff                	0xffff
 bca:	ffff                	0xffff

00000bcc <test_E2_res>:
 bcc:	ffff                	0xffff
 bce:	ffff                	0xffff

00000bd0 <end_signature>:
 bd0:	65542023          	sw	s5,1600(s0)
 bd4:	42207473          	csrrci	s0,0x422,0
 bd8:	6765                	lui	a4,0x19
 bda:	6e69                	lui	t3,0x1a
 bdc:	000a                	0xa
 bde:	65542023          	sw	s5,1600(s0)
 be2:	70207473          	csrrci	s0,0x702,0
 be6:	7261                	lui	tp,0xffff8
 be8:	2074                	fld	fa3,192(s0)
 bea:	3141                	jal	86a <STACK_SIZE+0x46a>
 bec:	2d20                	fld	fs0,88(a0)
 bee:	7420                	flw	fs0,104(s0)
 bf0:	7365                	lui	t1,0xffff9
 bf2:	2074                	fld	fa3,192(s0)
 bf4:	6162                	flw	ft2,24(sp)
 bf6:	61206573          	csrrsi	a0,0x612,0
 bfa:	6464                	flw	fs1,76(s0)
 bfc:	6572                	flw	fa0,28(sp)
 bfe:	2b207373          	csrrci	t1,0x2b2,0
 c02:	3020                	fld	fs0,96(s0)
 c04:	000a                	0xa
 c06:	65542023          	sw	s5,1600(s0)
 c0a:	70207473          	csrrci	s0,0x702,0
 c0e:	7261                	lui	tp,0xffff8
 c10:	2074                	fld	fa3,192(s0)
 c12:	3141                	jal	892 <STACK_SIZE+0x492>
 c14:	2020                	fld	fs0,64(s0)
 c16:	202d                	jal	c40 <end_signature+0x70>
 c18:	706d6f43          	fmadd.s	ft10,fs10,ft6,fa4,unknown
 c1c:	656c                	flw	fa1,76(a0)
 c1e:	6574                	flw	fa3,76(a0)
 c20:	000a                	0xa
 c22:	65542023          	sw	s5,1600(s0)
 c26:	70207473          	csrrci	s0,0x702,0
 c2a:	7261                	lui	tp,0xffff8
 c2c:	2074                	fld	fa3,192(s0)
 c2e:	3241                	jal	5ae <STACK_SIZE+0x1ae>
 c30:	2d20                	fld	fs0,88(a0)
 c32:	7420                	flw	fs0,104(s0)
 c34:	7365                	lui	t1,0xffff9
 c36:	2074                	fld	fa3,192(s0)
 c38:	6162                	flw	ft2,24(sp)
 c3a:	61206573          	csrrsi	a0,0x612,0
 c3e:	6464                	flw	fs1,76(s0)
 c40:	6572                	flw	fa0,28(sp)
 c42:	2d207373          	csrrci	t1,0x2d2,0
 c46:	3120                	fld	fs0,96(a0)
 c48:	000a                	0xa
 c4a:	65542023          	sw	s5,1600(s0)
 c4e:	70207473          	csrrci	s0,0x702,0
 c52:	7261                	lui	tp,0xffff8
 c54:	2074                	fld	fa3,192(s0)
 c56:	3241                	jal	5d6 <STACK_SIZE+0x1d6>
 c58:	2020                	fld	fs0,64(s0)
 c5a:	202d                	jal	c84 <end_signature+0xb4>
 c5c:	706d6f43          	fmadd.s	ft10,fs10,ft6,fa4,unknown
 c60:	656c                	flw	fa1,76(a0)
 c62:	6574                	flw	fa3,76(a0)
 c64:	000a                	0xa
 c66:	65542023          	sw	s5,1600(s0)
 c6a:	70207473          	csrrci	s0,0x702,0
 c6e:	7261                	lui	tp,0xffff8
 c70:	2074                	fld	fa3,192(s0)
 c72:	3341                	jal	9f2 <STACK_SIZE+0x5f2>
 c74:	2d20                	fld	fs0,88(a0)
 c76:	7420                	flw	fs0,104(s0)
 c78:	7365                	lui	t1,0xffff9
 c7a:	2074                	fld	fa3,192(s0)
 c7c:	6162                	flw	ft2,24(sp)
 c7e:	61206573          	csrrsi	a0,0x612,0
 c82:	6464                	flw	fs1,76(s0)
 c84:	6572                	flw	fa0,28(sp)
 c86:	2b207373          	csrrci	t1,0x2b2,0
 c8a:	3120                	fld	fs0,96(a0)
 c8c:	000a                	0xa
 c8e:	65542023          	sw	s5,1600(s0)
 c92:	70207473          	csrrci	s0,0x702,0
 c96:	7261                	lui	tp,0xffff8
 c98:	2074                	fld	fa3,192(s0)
 c9a:	3341                	jal	a1a <STACK_SIZE+0x61a>
 c9c:	2020                	fld	fs0,64(s0)
 c9e:	202d                	jal	cc8 <end_signature+0xf8>
 ca0:	706d6f43          	fmadd.s	ft10,fs10,ft6,fa4,unknown
 ca4:	656c                	flw	fa1,76(a0)
 ca6:	6574                	flw	fa3,76(a0)
 ca8:	000a                	0xa
 caa:	65542023          	sw	s5,1600(s0)
 cae:	70207473          	csrrci	s0,0x702,0
 cb2:	7261                	lui	tp,0xffff8
 cb4:	2074                	fld	fa3,192(s0)
 cb6:	3441                	jal	736 <STACK_SIZE+0x336>
 cb8:	2d20                	fld	fs0,88(a0)
 cba:	7420                	flw	fs0,104(s0)
 cbc:	7365                	lui	t1,0xffff9
 cbe:	2074                	fld	fa3,192(s0)
 cc0:	6162                	flw	ft2,24(sp)
 cc2:	61206573          	csrrsi	a0,0x612,0
 cc6:	6464                	flw	fs1,76(s0)
 cc8:	6572                	flw	fa0,28(sp)
 cca:	2d207373          	csrrci	t1,0x2d2,0
 cce:	3220                	fld	fs0,96(a2)
 cd0:	3430                	fld	fa2,104(s0)
 cd2:	0a38                	addi	a4,sp,280
 cd4:	2300                	fld	fs0,0(a4)
 cd6:	5420                	lw	s0,104(s0)
 cd8:	7365                	lui	t1,0xffff9
 cda:	2074                	fld	fa3,192(s0)
 cdc:	6170                	flw	fa2,68(a0)
 cde:	7472                	flw	fs0,60(sp)
 ce0:	4120                	lw	s0,64(a0)
 ce2:	2034                	fld	fa3,64(s0)
 ce4:	2d20                	fld	fs0,88(a0)
 ce6:	4320                	lw	s0,64(a4)
 ce8:	6c706d6f          	jal	s10,7bae <__global_pointer$+0x6466>
 cec:	7465                	lui	s0,0xffff9
 cee:	0a65                	addi	s4,s4,25
 cf0:	2300                	fld	fs0,0(a4)
 cf2:	5420                	lw	s0,104(s0)
 cf4:	7365                	lui	t1,0xffff9
 cf6:	2074                	fld	fa3,192(s0)
 cf8:	6170                	flw	fa2,68(a0)
 cfa:	7472                	flw	fs0,60(sp)
 cfc:	4120                	lw	s0,64(a0)
 cfe:	2035                	jal	d2a <end_signature+0x15a>
 d00:	202d                	jal	d2a <end_signature+0x15a>
 d02:	6574                	flw	fa3,76(a0)
 d04:	62207473          	csrrci	s0,0x622,0
 d08:	7361                	lui	t1,0xffff8
 d0a:	2065                	jal	db2 <end_signature+0x1e2>
 d0c:	6461                	lui	s0,0x18
 d0e:	7264                	flw	fs1,100(a2)
 d10:	7365                	lui	t1,0xffff9
 d12:	202b2073          	csrs	0x202,s6
 d16:	3032                	fld	ft0,296(sp)
 d18:	3734                	fld	fa3,104(a4)
 d1a:	000a                	0xa
 d1c:	65542023          	sw	s5,1600(s0) # 18640 <__global_pointer$+0x16ef8>
 d20:	70207473          	csrrci	s0,0x702,0
 d24:	7261                	lui	tp,0xffff8
 d26:	2074                	fld	fa3,192(s0)
 d28:	3541                	jal	ba8 <test_B_res+0x18>
 d2a:	2020                	fld	fs0,64(s0)
 d2c:	202d                	jal	d56 <end_signature+0x186>
 d2e:	706d6f43          	fmadd.s	ft10,fs10,ft6,fa4,unknown
 d32:	656c                	flw	fa1,76(a0)
 d34:	6574                	flw	fa3,76(a0)
 d36:	000a                	0xa
 d38:	65542023          	sw	s5,1600(s0)
 d3c:	70207473          	csrrci	s0,0x702,0
 d40:	7261                	lui	tp,0xffff8
 d42:	2074                	fld	fa3,192(s0)
 d44:	2042                	fld	ft0,16(sp)
 d46:	202d                	jal	d70 <end_signature+0x1a0>
 d48:	6574                	flw	fa3,76(a0)
 d4a:	62207473          	csrrci	s0,0x622,0
 d4e:	7361                	lui	t1,0xffff8
 d50:	2065                	jal	df8 <end_signature+0x228>
 d52:	6461                	lui	s0,0x18
 d54:	7264                	flw	fs1,100(a2)
 d56:	7365                	lui	t1,0xffff9
 d58:	202b2073          	csrs	0x202,s6
 d5c:	342d                	jal	786 <STACK_SIZE+0x386>
 d5e:	2d2c                	fld	fa1,88(a0)
 d60:	2c31                	jal	f7c <_end+0x1c>
 d62:	2e20                	fld	fs0,88(a2)
 d64:	2e2e                	fld	ft8,200(sp)
 d66:	202c                	fld	fa1,64(s0)
 d68:	2c36                	fld	fs8,328(sp)
 d6a:	3720                	fld	fs0,104(a4)
 d6c:	000a                	0xa
 d6e:	65542023          	sw	s5,1600(s0) # 18640 <__global_pointer$+0x16ef8>
 d72:	70207473          	csrrci	s0,0x702,0
 d76:	7261                	lui	tp,0xffff8
 d78:	2074                	fld	fa3,192(s0)
 d7a:	2042                	fld	ft0,16(sp)
 d7c:	2d20                	fld	fs0,88(a0)
 d7e:	4320                	lw	s0,64(a4)
 d80:	6c706d6f          	jal	s10,7c46 <__global_pointer$+0x64fe>
 d84:	7465                	lui	s0,0xffff9
 d86:	0a65                	addi	s4,s4,25
 d88:	2300                	fld	fs0,0(a4)
 d8a:	5420                	lw	s0,104(s0)
 d8c:	7365                	lui	t1,0xffff9
 d8e:	2074                	fld	fa3,192(s0)
 d90:	6170                	flw	fa2,68(a0)
 d92:	7472                	flw	fs0,60(sp)
 d94:	4320                	lw	s0,64(a4)
 d96:	2d20                	fld	fs0,88(a0)
 d98:	7420                	flw	fs0,104(s0)
 d9a:	7365                	lui	t1,0xffff9
 d9c:	2074                	fld	fa3,192(s0)
 d9e:	6f6c                	flw	fa1,92(a4)
 da0:	6461                	lui	s0,0x18
 da2:	7420                	flw	fs0,104(s0)
 da4:	3078206f          	j	838aa <__global_pointer$+0x82162>
 da8:	000a                	0xa
 daa:	65542023          	sw	s5,1600(s0) # 18640 <__global_pointer$+0x16ef8>
 dae:	70207473          	csrrci	s0,0x702,0
 db2:	7261                	lui	tp,0xffff8
 db4:	2074                	fld	fa3,192(s0)
 db6:	2d202043          	0x2d202043
 dba:	4320                	lw	s0,64(a4)
 dbc:	6c706d6f          	jal	s10,7c82 <__global_pointer$+0x653a>
 dc0:	7465                	lui	s0,0xffff9
 dc2:	0a65                	addi	s4,s4,25
 dc4:	2300                	fld	fs0,0(a4)
 dc6:	5420                	lw	s0,104(s0)
 dc8:	7365                	lui	t1,0xffff9
 dca:	2074                	fld	fa3,192(s0)
 dcc:	6170                	flw	fa2,68(a0)
 dce:	7472                	flw	fs0,60(sp)
 dd0:	4420                	lw	s0,72(s0)
 dd2:	2d20                	fld	fs0,88(a0)
 dd4:	7420                	flw	fs0,104(s0)
 dd6:	7365                	lui	t1,0xffff9
 dd8:	2074                	fld	fa3,192(s0)
 dda:	6f66                	flw	ft10,88(sp)
 ddc:	2072                	fld	ft0,280(sp)
 dde:	6f66                	flw	ft10,88(sp)
 de0:	7772                	flw	fa4,60(sp)
 de2:	7261                	lui	tp,0xffff8
 de4:	6964                	flw	fs1,84(a0)
 de6:	676e                	flw	fa4,216(sp)
 de8:	000a                	0xa
 dea:	65542023          	sw	s5,1600(s0) # ffff9640 <__global_pointer$+0xffff7ef8>
 dee:	70207473          	csrrci	s0,0x702,0
 df2:	7261                	lui	tp,0xffff8
 df4:	2074                	fld	fa3,192(s0)
 df6:	2044                	fld	fs1,128(s0)
 df8:	2d20                	fld	fs0,88(a0)
 dfa:	4320                	lw	s0,64(a4)
 dfc:	6c706d6f          	jal	s10,7cc2 <__global_pointer$+0x657a>
 e00:	7465                	lui	s0,0xffff9
 e02:	0a65                	addi	s4,s4,25
 e04:	2300                	fld	fs0,0(a4)
 e06:	5420                	lw	s0,104(s0)
 e08:	7365                	lui	t1,0xffff9
 e0a:	2074                	fld	fa3,192(s0)
 e0c:	6170                	flw	fa2,68(a0)
 e0e:	7472                	flw	fs0,60(sp)
 e10:	4520                	lw	s0,72(a0)
 e12:	2031                	jal	e1e <end_signature+0x24e>
 e14:	202d                	jal	e3e <end_signature+0x26e>
 e16:	6574                	flw	fa3,76(a0)
 e18:	73207473          	csrrci	s0,0x732,0
 e1c:	6f74                	flw	fa3,92(a4)
 e1e:	6572                	flw	fa0,28(sp)
 e20:	7720                	flw	fs0,104(a4)
 e22:	7469                	lui	s0,0xffffa
 e24:	2068                	fld	fa0,192(s0)
 e26:	656d6173          	csrrsi	sp,0x656,26
 e2a:	6220                	flw	fs0,64(a2)
 e2c:	7361                	lui	t1,0xffff8
 e2e:	2065                	jal	ed6 <end_signature+0x306>
 e30:	6e61                	lui	t3,0x18
 e32:	2064                	fld	fs1,192(s0)
 e34:	6564                	flw	fs1,76(a0)
 e36:	6e697473          	csrrci	s0,0x6e6,18
 e3a:	7461                	lui	s0,0xffff8
 e3c:	6f69                	lui	t5,0x1a
 e3e:	206e                	fld	ft0,216(sp)
 e40:	6461                	lui	s0,0x18
 e42:	7264                	flw	fs1,100(a2)
 e44:	7365                	lui	t1,0xffff9
 e46:	23000a73          	0x23000a73
 e4a:	5420                	lw	s0,104(s0)
 e4c:	7365                	lui	t1,0xffff9
 e4e:	2074                	fld	fa3,192(s0)
 e50:	6170                	flw	fa2,68(a0)
 e52:	7472                	flw	fs0,60(sp)
 e54:	4520                	lw	s0,72(a0)
 e56:	2020                	fld	fs0,64(s0)
 e58:	202d                	jal	e82 <end_signature+0x2b2>
 e5a:	706d6f43          	fmadd.s	ft10,fs10,ft6,fa4,unknown
 e5e:	656c                	flw	fa1,76(a0)
 e60:	6574                	flw	fa3,76(a0)
 e62:	000a                	0xa
 e64:	65542023          	sw	s5,1600(s0) # 18640 <__global_pointer$+0x16ef8>
 e68:	70207473          	csrrci	s0,0x702,0
 e6c:	7261                	lui	tp,0xffff8
 e6e:	2074                	fld	fa3,192(s0)
 e70:	3245                	jal	810 <STACK_SIZE+0x410>
 e72:	2d20                	fld	fs0,88(a0)
 e74:	7420                	flw	fs0,104(s0)
 e76:	7365                	lui	t1,0xffff9
 e78:	2074                	fld	fa3,192(s0)
 e7a:	726f7473          	csrrci	s0,0x726,30
 e7e:	2065                	jal	f26 <tohost+0x26>
 e80:	68746977          	0x68746977
 e84:	7320                	flw	fs0,96(a4)
 e86:	6d61                	lui	s10,0x18
 e88:	2065                	jal	f30 <tohost+0x30>
 e8a:	6162                	flw	ft2,24(sp)
 e8c:	61206573          	csrrsi	a0,0x612,0
 e90:	646e                	flw	fs0,216(sp)
 e92:	6420                	flw	fs0,72(s0)
 e94:	7365                	lui	t1,0xffff9
 e96:	6974                	flw	fa3,84(a0)
 e98:	616e                	flw	ft2,216(sp)
 e9a:	6974                	flw	fa3,84(a0)
 e9c:	61206e6f          	jal	t3,74ae <__global_pointer$+0x5d66>
 ea0:	6464                	flw	fs1,76(s0)
 ea2:	6572                	flw	fa0,28(sp)
 ea4:	202c7373          	csrrci	t1,0x202,24
 ea8:	6162                	flw	ft2,24(sp)
 eaa:	77206573          	csrrsi	a0,0x772,0
 eae:	7469                	lui	s0,0xffffa
 eb0:	2068                	fld	fa0,192(s0)
 eb2:	7366666f          	jal	a2,675e8 <__global_pointer$+0x65ea0>
 eb6:	7465                	lui	s0,0xffff9
 eb8:	000a                	0xa
 eba:	65542023          	sw	s5,1600(s0) # ffff9640 <__global_pointer$+0xffff7ef8>
 ebe:	70207473          	csrrci	s0,0x702,0
 ec2:	7261                	lui	tp,0xffff8
 ec4:	2074                	fld	fa3,192(s0)
 ec6:	3141                	jal	b46 <begin_signature+0x6>
 ec8:	2020                	fld	fs0,64(s0)
 eca:	202d                	jal	ef4 <end_signature+0x324>
 ecc:	706d6f43          	fmadd.s	ft10,fs10,ft6,fa4,unknown
 ed0:	656c                	flw	fa1,76(a0)
 ed2:	6574                	flw	fa3,76(a0)
 ed4:	000a                	0xa
 ed6:	65542023          	sw	s5,1600(s0)
 eda:	45207473          	csrrci	s0,0x452,0
 ede:	646e                	flw	fs0,216(sp)
 ee0:	000a                	0xa
	...

Дизассемблирование раздела .tohost:

00000f00 <tohost>:
	...

00000f40 <fromhost>:
	...

Дизассемблирование раздела .sdata:

00000f48 <__global_pointer$-0x800>:
	...

Дизассемблирование раздела .stack:

0000fc00 <.stack>:
	...
