
/home/oleg/scr1/build/verilator_wf_AHB_IMC/compliance_I-CSRRCI-01.elf:     формат файла elf32-littleriscv
/home/oleg/scr1/build/verilator_wf_AHB_IMC/compliance_I-CSRRCI-01.elf
архитектура: riscv:rv32, флаги 0x00000112:
EXEC_P, HAS_SYMS, D_PAGED
начальный адрес 0x00000200

Заголовок программы:
    LOAD off    0x00001000 vaddr 0x00000000 paddr 0x00000000 align 2**12
         filesz 0x00000788 memsz 0x000007a0 flags rwx
    LOAD off    0x00001c00 vaddr 0x0000fc00 paddr 0x0000fc00 align 2**12
         filesz 0x00000000 memsz 0x00000400 flags rw-

Разделы:
Idx Name          Size      VMA       LMA       File off  Algn  Флаги
  0 .text.init    00000284  00000000  00000000  00001000  2**6  CONTENTS, ALLOC, LOAD, READONLY, CODE
  1 .text         00000340  000002a0  000002a0  000012a0  2**5  CONTENTS, ALLOC, LOAD, READONLY, CODE
  2 .data         00000160  000005e0  000005e0  000015e0  2**4  CONTENTS, ALLOC, LOAD, DATA
  3 .tohost       00000048  00000740  00000740  00001740  2**6  CONTENTS, ALLOC, LOAD, DATA
  4 .sdata        00000018  00000788  00000788  00001788  2**0  ALLOC
  5 .tdata        00000000  000007a0  000007a0  00001788  2**0  CONTENTS, ALLOC, LOAD, DATA, THREAD_LOCAL
  6 .tbss         00000000  000007a0  000007a0  00000000  2**0  ALLOC, THREAD_LOCAL
  7 .bss          00000000  000007a0  000007a0  00001788  2**0  ALLOC
  8 .stack        00000400  0000fc00  0000fc00  00001c00  2**0  ALLOC
SYMBOL TABLE:
00000000 l    d  .text.init	00000000 .text.init
000002a0 l    d  .text	00000000 .text
000005e0 l    d  .data	00000000 .data
00000740 l    d  .tohost	00000000 .tohost
00000788 l    d  .sdata	00000000 .sdata
000007a0 l    d  .tdata	00000000 .tdata
000007a0 l    d  .tbss	00000000 .tbss
000007a0 l    d  .bss	00000000 .bss
0000fc00 l    d  .stack	00000000 .stack
00000000 l    df *ABS*	00000000 /home/oleg/scr1/build/verilator_wf_AHB_IMC/riscv_compliance/riscv_compliance_objs/I-CSRRCI-01.o
000005a0 l       .text	00000000 sc_exit
000001c0 l       .text.init	00000000 trap_vector
000001fc l       .text.init	00000000 _report
000001f8 l       .text.init	00000000 handle_exception
000001f8 l       .text.init	00000000 other_exception
000002a0 l       .text	00000000 _run_test
00000600 l       .data	00000000 test_A1_res
0000061c l       .data	00000000 test_A2_res
00000638 l       .data	00000000 test_B_res
0000059c l       .text	00000000 ecall
00000400 g       *ABS*	00000000 STACK_SIZE
00000f88 g       .sdata	00000000 __global_pointer$
00000640 g       .data	00000000 end_signature
000005e0 g       .data	00000000 begin_regstate
00000600 g       .data	00000000 begin_signature
00000200 g       .text.init	00000000 _start
00000020 g       *ABS*	00000000 CL_SIZE
000000f8 g       .text.init	00000000 SIM_STOP
000007a0 g       .bss	00000000 _end
00000780 g       .tohost	00000000 fromhost
00000740 g       .tohost	00000000 tohost
000000f4 g       .text.init	00000000 SIM_EXIT



Дизассемблирование раздела .text.init:

00000000 <SIM_EXIT-0xf4>:
	...

000000f4 <SIM_EXIT>:
  f4:	00000013          	nop

000000f8 <SIM_STOP>:
  f8:	0000006f          	j	f8 <SIM_STOP>
  fc:	ffff                	0xffff
  fe:	ffff                	0xffff
	...

000001c0 <trap_vector>:
 1c0:	34202773          	csrr	a4,mcause
 1c4:	00800793          	li	a5,8
 1c8:	02f70a63          	beq	a4,a5,1fc <_report>
 1cc:	00900793          	li	a5,9
 1d0:	02f70663          	beq	a4,a5,1fc <_report>
 1d4:	00b00793          	li	a5,11
 1d8:	02f70263          	beq	a4,a5,1fc <_report>
 1dc:	00000717          	auipc	a4,0x0
 1e0:	e2470713          	addi	a4,a4,-476 # 0 <CL_SIZE-0x20>
 1e4:	00070463          	beqz	a4,1ec <trap_vector+0x2c>
 1e8:	00070067          	jr	a4
 1ec:	34202773          	csrr	a4,mcause
 1f0:	00075463          	bgez	a4,1f8 <handle_exception>
 1f4:	0040006f          	j	1f8 <handle_exception>

000001f8 <handle_exception>:
 1f8:	00100513          	li	a0,1

000001fc <_report>:
 1fc:	3a40006f          	j	5a0 <sc_exit>

00000200 <_start>:
 200:	f1402573          	csrr	a0,mhartid
 204:	00051063          	bnez	a0,204 <_start+0x4>
 208:	00000e13          	li	t3,0
 20c:	00000297          	auipc	t0,0x0
 210:	fb428293          	addi	t0,t0,-76 # 1c0 <trap_vector>
 214:	30529073          	csrw	mtvec,t0
 218:	00100513          	li	a0,1
 21c:	01f51513          	slli	a0,a0,0x1f
 220:	00054a63          	bltz	a0,234 <_start+0x34>
 224:	0ff0000f          	fence
 228:	000e0593          	mv	a1,t3
 22c:	00000513          	li	a0,0
 230:	00000073          	ecall
 234:	00000297          	auipc	t0,0x0
 238:	dcc28293          	addi	t0,t0,-564 # 0 <CL_SIZE-0x20>
 23c:	00028e63          	beqz	t0,258 <_start+0x58>
 240:	10529073          	csrw	stvec,t0
 244:	0000b2b7          	lui	t0,0xb
 248:	10928293          	addi	t0,t0,265 # b109 <__global_pointer$+0xa181>
 24c:	30229073          	csrw	medeleg,t0
 250:	30202373          	csrr	t1,medeleg
 254:	fa6292e3          	bne	t0,t1,1f8 <handle_exception>
 258:	30005073          	csrwi	mstatus,0
 25c:	00002537          	lui	a0,0x2
 260:	80050513          	addi	a0,a0,-2048 # 1800 <__global_pointer$+0x878>
 264:	30052073          	csrs	mstatus,a0
 268:	00000297          	auipc	t0,0x0
 26c:	03828293          	addi	t0,t0,56 # 2a0 <_run_test>
 270:	34129073          	csrw	mepc,t0
 274:	f1402573          	csrr	a0,mhartid
 278:	30200073          	mret
	...

Дизассемблирование раздела .text:

000002a0 <_run_test>:
 2a0:	00000f97          	auipc	t6,0x0
 2a4:	340f8f93          	addi	t6,t6,832 # 5e0 <begin_regstate>
 2a8:	003fa023          	sw	gp,0(t6)
 2ac:	004fa223          	sw	tp,4(t6)
 2b0:	005fa423          	sw	t0,8(t6)
 2b4:	f00001b7          	lui	gp,0xf0000
 2b8:	00000217          	auipc	tp,0x0
 2bc:	38820213          	addi	tp,tp,904 # 640 <end_signature>
 2c0:	00020283          	lb	t0,0(tp) # 0 <CL_SIZE-0x20>
 2c4:	00518023          	sb	t0,0(gp) # f0000000 <__global_pointer$+0xeffff078>
 2c8:	00028663          	beqz	t0,2d4 <_run_test+0x34>
 2cc:	00120213          	addi	tp,tp,1 # 1 <CL_SIZE-0x1f>
 2d0:	ff1ff06f          	j	2c0 <_run_test+0x20>
 2d4:	00000f97          	auipc	t6,0x0
 2d8:	30cf8f93          	addi	t6,t6,780 # 5e0 <begin_regstate>
 2dc:	000fa183          	lw	gp,0(t6)
 2e0:	004fa203          	lw	tp,4(t6)
 2e4:	008fa283          	lw	t0,8(t6)
 2e8:	00000f97          	auipc	t6,0x0
 2ec:	2f8f8f93          	addi	t6,t6,760 # 5e0 <begin_regstate>
 2f0:	003fa023          	sw	gp,0(t6)
 2f4:	004fa223          	sw	tp,4(t6)
 2f8:	005fa423          	sw	t0,8(t6)
 2fc:	f00001b7          	lui	gp,0xf0000
 300:	00000217          	auipc	tp,0x0
 304:	34e20213          	addi	tp,tp,846 # 64e <end_signature+0xe>
 308:	00020283          	lb	t0,0(tp) # 0 <CL_SIZE-0x20>
 30c:	00518023          	sb	t0,0(gp) # f0000000 <__global_pointer$+0xeffff078>
 310:	00028663          	beqz	t0,31c <_run_test+0x7c>
 314:	00120213          	addi	tp,tp,1 # 1 <CL_SIZE-0x1f>
 318:	ff1ff06f          	j	308 <_run_test+0x68>
 31c:	00000f97          	auipc	t6,0x0
 320:	2c4f8f93          	addi	t6,t6,708 # 5e0 <begin_regstate>
 324:	000fa183          	lw	gp,0(t6)
 328:	004fa203          	lw	tp,4(t6)
 32c:	008fa283          	lw	t0,8(t6)
 330:	00000797          	auipc	a5,0x0
 334:	2d078793          	addi	a5,a5,720 # 600 <begin_signature>
 338:	fff00413          	li	s0,-1
 33c:	34041073          	csrw	mscratch,s0
 340:	3400f0f3          	csrrci	ra,mscratch,1
 344:	340410f3          	csrrw	ra,mscratch,s0
 348:	34007173          	csrrci	sp,mscratch,0
 34c:	34041173          	csrrw	sp,mscratch,s0
 350:	340ff1f3          	csrrci	gp,mscratch,31
 354:	340411f3          	csrrw	gp,mscratch,s0
 358:	34087273          	csrrci	tp,mscratch,16
 35c:	34041273          	csrrw	tp,mscratch,s0
 360:	3407f2f3          	csrrci	t0,mscratch,15
 364:	340412f3          	csrrw	t0,mscratch,s0
 368:	0007a023          	sw	zero,0(a5)
 36c:	0017a223          	sw	ra,4(a5)
 370:	0027a423          	sw	sp,8(a5)
 374:	0037a623          	sw	gp,12(a5)
 378:	0047a823          	sw	tp,16(a5)
 37c:	0057aa23          	sw	t0,20(a5)
 380:	0087ac23          	sw	s0,24(a5)
 384:	00000f97          	auipc	t6,0x0
 388:	25cf8f93          	addi	t6,t6,604 # 5e0 <begin_regstate>
 38c:	003fa023          	sw	gp,0(t6)
 390:	004fa223          	sw	tp,4(t6)
 394:	005fa423          	sw	t0,8(t6)
 398:	f00001b7          	lui	gp,0xf0000
 39c:	00000217          	auipc	tp,0x0
 3a0:	2db20213          	addi	tp,tp,731 # 677 <end_signature+0x37>
 3a4:	00020283          	lb	t0,0(tp) # 0 <CL_SIZE-0x20>
 3a8:	00518023          	sb	t0,0(gp) # f0000000 <__global_pointer$+0xeffff078>
 3ac:	00028663          	beqz	t0,3b8 <_run_test+0x118>
 3b0:	00120213          	addi	tp,tp,1 # 1 <CL_SIZE-0x1f>
 3b4:	ff1ff06f          	j	3a4 <_run_test+0x104>
 3b8:	00000f97          	auipc	t6,0x0
 3bc:	228f8f93          	addi	t6,t6,552 # 5e0 <begin_regstate>
 3c0:	000fa183          	lw	gp,0(t6)
 3c4:	004fa203          	lw	tp,4(t6)
 3c8:	008fa283          	lw	t0,8(t6)
 3cc:	00000f97          	auipc	t6,0x0
 3d0:	214f8f93          	addi	t6,t6,532 # 5e0 <begin_regstate>
 3d4:	003fa023          	sw	gp,0(t6)
 3d8:	004fa223          	sw	tp,4(t6)
 3dc:	005fa423          	sw	t0,8(t6)
 3e0:	f00001b7          	lui	gp,0xf0000
 3e4:	00000217          	auipc	tp,0x0
 3e8:	2af20213          	addi	tp,tp,687 # 693 <end_signature+0x53>
 3ec:	00020283          	lb	t0,0(tp) # 0 <CL_SIZE-0x20>
 3f0:	00518023          	sb	t0,0(gp) # f0000000 <__global_pointer$+0xeffff078>
 3f4:	00028663          	beqz	t0,400 <STACK_SIZE>
 3f8:	00120213          	addi	tp,tp,1 # 1 <CL_SIZE-0x1f>
 3fc:	ff1ff06f          	j	3ec <_run_test+0x14c>
 400:	00000f97          	auipc	t6,0x0
 404:	1e0f8f93          	addi	t6,t6,480 # 5e0 <begin_regstate>
 408:	000fa183          	lw	gp,0(t6)
 40c:	004fa203          	lw	tp,4(t6)
 410:	008fa283          	lw	t0,8(t6)
 414:	00000297          	auipc	t0,0x0
 418:	20828293          	addi	t0,t0,520 # 61c <test_A2_res>
 41c:	fff00413          	li	s0,-1
 420:	34041073          	csrw	mscratch,s0
 424:	3400f5f3          	csrrci	a1,mscratch,1
 428:	34007673          	csrrci	a2,mscratch,0
 42c:	340ff6f3          	csrrci	a3,mscratch,31
 430:	34087773          	csrrci	a4,mscratch,16
 434:	3407f7f3          	csrrci	a5,mscratch,15
 438:	34007873          	csrrci	a6,mscratch,0
 43c:	00b2a023          	sw	a1,0(t0)
 440:	00c2a223          	sw	a2,4(t0)
 444:	00d2a423          	sw	a3,8(t0)
 448:	00e2a623          	sw	a4,12(t0)
 44c:	00f2a823          	sw	a5,16(t0)
 450:	0102aa23          	sw	a6,20(t0)
 454:	0082ac23          	sw	s0,24(t0)
 458:	00000f97          	auipc	t6,0x0
 45c:	188f8f93          	addi	t6,t6,392 # 5e0 <begin_regstate>
 460:	003fa023          	sw	gp,0(t6)
 464:	004fa223          	sw	tp,4(t6)
 468:	005fa423          	sw	t0,8(t6)
 46c:	f00001b7          	lui	gp,0xf0000
 470:	00000217          	auipc	tp,0x0
 474:	24c20213          	addi	tp,tp,588 # 6bc <end_signature+0x7c>
 478:	00020283          	lb	t0,0(tp) # 0 <CL_SIZE-0x20>
 47c:	00518023          	sb	t0,0(gp) # f0000000 <__global_pointer$+0xeffff078>
 480:	00028663          	beqz	t0,48c <STACK_SIZE+0x8c>
 484:	00120213          	addi	tp,tp,1 # 1 <CL_SIZE-0x1f>
 488:	ff1ff06f          	j	478 <STACK_SIZE+0x78>
 48c:	00000f97          	auipc	t6,0x0
 490:	154f8f93          	addi	t6,t6,340 # 5e0 <begin_regstate>
 494:	000fa183          	lw	gp,0(t6)
 498:	004fa203          	lw	tp,4(t6)
 49c:	008fa283          	lw	t0,8(t6)
 4a0:	00000f97          	auipc	t6,0x0
 4a4:	140f8f93          	addi	t6,t6,320 # 5e0 <begin_regstate>
 4a8:	003fa023          	sw	gp,0(t6)
 4ac:	004fa223          	sw	tp,4(t6)
 4b0:	005fa423          	sw	t0,8(t6)
 4b4:	f00001b7          	lui	gp,0xf0000
 4b8:	00000217          	auipc	tp,0x0
 4bc:	22020213          	addi	tp,tp,544 # 6d8 <end_signature+0x98>
 4c0:	00020283          	lb	t0,0(tp) # 0 <CL_SIZE-0x20>
 4c4:	00518023          	sb	t0,0(gp) # f0000000 <__global_pointer$+0xeffff078>
 4c8:	00028663          	beqz	t0,4d4 <STACK_SIZE+0xd4>
 4cc:	00120213          	addi	tp,tp,1 # 1 <CL_SIZE-0x1f>
 4d0:	ff1ff06f          	j	4c0 <STACK_SIZE+0xc0>
 4d4:	00000f97          	auipc	t6,0x0
 4d8:	10cf8f93          	addi	t6,t6,268 # 5e0 <begin_regstate>
 4dc:	000fa183          	lw	gp,0(t6)
 4e0:	004fa203          	lw	tp,4(t6)
 4e4:	008fa283          	lw	t0,8(t6)
 4e8:	00000097          	auipc	ra,0x0
 4ec:	15008093          	addi	ra,ra,336 # 638 <test_B_res>
 4f0:	32165a37          	lui	s4,0x32165
 4f4:	498a0a13          	addi	s4,s4,1176 # 32165498 <__global_pointer$+0x32164510>
 4f8:	340a1073          	csrw	mscratch,s4
 4fc:	3407f073          	csrci	mscratch,15
 500:	340a1a73          	csrrw	s4,mscratch,s4
 504:	0000a023          	sw	zero,0(ra)
 508:	0140a223          	sw	s4,4(ra)
 50c:	00000f97          	auipc	t6,0x0
 510:	0d4f8f93          	addi	t6,t6,212 # 5e0 <begin_regstate>
 514:	003fa023          	sw	gp,0(t6)
 518:	004fa223          	sw	tp,4(t6)
 51c:	005fa423          	sw	t0,8(t6)
 520:	f00001b7          	lui	gp,0xf0000
 524:	00000217          	auipc	tp,0x0
 528:	1db20213          	addi	tp,tp,475 # 6ff <end_signature+0xbf>
 52c:	00020283          	lb	t0,0(tp) # 0 <CL_SIZE-0x20>
 530:	00518023          	sb	t0,0(gp) # f0000000 <__global_pointer$+0xeffff078>
 534:	00028663          	beqz	t0,540 <STACK_SIZE+0x140>
 538:	00120213          	addi	tp,tp,1 # 1 <CL_SIZE-0x1f>
 53c:	ff1ff06f          	j	52c <STACK_SIZE+0x12c>
 540:	00000f97          	auipc	t6,0x0
 544:	0a0f8f93          	addi	t6,t6,160 # 5e0 <begin_regstate>
 548:	000fa183          	lw	gp,0(t6)
 54c:	004fa203          	lw	tp,4(t6)
 550:	008fa283          	lw	t0,8(t6)
 554:	00000f97          	auipc	t6,0x0
 558:	08cf8f93          	addi	t6,t6,140 # 5e0 <begin_regstate>
 55c:	003fa023          	sw	gp,0(t6)
 560:	004fa223          	sw	tp,4(t6)
 564:	005fa423          	sw	t0,8(t6)
 568:	f00001b7          	lui	gp,0xf0000
 56c:	00000217          	auipc	tp,0x0
 570:	1af20213          	addi	tp,tp,431 # 71b <end_signature+0xdb>
 574:	00020283          	lb	t0,0(tp) # 0 <CL_SIZE-0x20>
 578:	00518023          	sb	t0,0(gp) # f0000000 <__global_pointer$+0xeffff078>
 57c:	00028663          	beqz	t0,588 <STACK_SIZE+0x188>
 580:	00120213          	addi	tp,tp,1 # 1 <CL_SIZE-0x1f>
 584:	ff1ff06f          	j	574 <STACK_SIZE+0x174>
 588:	00000f97          	auipc	t6,0x0
 58c:	058f8f93          	addi	t6,t6,88 # 5e0 <begin_regstate>
 590:	000fa183          	lw	gp,0(t6)
 594:	004fa203          	lw	tp,4(t6)
 598:	008fa283          	lw	t0,8(t6)

0000059c <ecall>:
 59c:	00000073          	ecall

000005a0 <sc_exit>:
 5a0:	b55ff06f          	j	f4 <SIM_EXIT>
 5a4:	00000013          	nop
 5a8:	00000013          	nop
 5ac:	00000013          	nop
 5b0:	00000013          	nop
 5b4:	00000013          	nop
 5b8:	00000013          	nop
 5bc:	00000013          	nop
	...

Дизассемблирование раздела .data:

000005e0 <begin_regstate>:
	...

00000600 <begin_signature>:
 600:	ffff                	0xffff
 602:	ffff                	0xffff
 604:	ffff                	0xffff
 606:	ffff                	0xffff
 608:	ffff                	0xffff
 60a:	ffff                	0xffff
 60c:	ffff                	0xffff
 60e:	ffff                	0xffff
 610:	ffff                	0xffff
 612:	ffff                	0xffff
 614:	ffff                	0xffff
 616:	ffff                	0xffff
 618:	ffff                	0xffff
 61a:	ffff                	0xffff

0000061c <test_A2_res>:
 61c:	ffff                	0xffff
 61e:	ffff                	0xffff
 620:	ffff                	0xffff
 622:	ffff                	0xffff
 624:	ffff                	0xffff
 626:	ffff                	0xffff
 628:	ffff                	0xffff
 62a:	ffff                	0xffff
 62c:	ffff                	0xffff
 62e:	ffff                	0xffff
 630:	ffff                	0xffff
 632:	ffff                	0xffff
 634:	ffff                	0xffff
 636:	ffff                	0xffff

00000638 <test_B_res>:
 638:	ffff                	0xffff
 63a:	ffff                	0xffff
 63c:	ffff                	0xffff
 63e:	ffff                	0xffff

00000640 <end_signature>:
 640:	65542023          	sw	s5,1600(s0)
 644:	42207473          	csrrci	s0,0x422,0
 648:	6765                	lui	a4,0x19
 64a:	6e69                	lui	t3,0x1a
 64c:	000a                	0xa
 64e:	65542023          	sw	s5,1600(s0)
 652:	70207473          	csrrci	s0,0x702,0
 656:	7261                	lui	tp,0xffff8
 658:	2074                	fld	fa3,192(s0)
 65a:	3141                	jal	2da <_run_test+0x3a>
 65c:	2d20                	fld	fs0,88(a0)
 65e:	6720                	flw	fs0,72(a4)
 660:	6e65                	lui	t3,0x19
 662:	7265                	lui	tp,0xffff9
 664:	6c61                	lui	s8,0x18
 666:	7420                	flw	fs0,104(s0)
 668:	7365                	lui	t1,0xffff9
 66a:	2074                	fld	fa3,192(s0)
 66c:	6320666f          	jal	a2,6c9e <__global_pointer$+0x5d16>
 670:	63727273          	csrrci	tp,0x637,4
 674:	0a69                	addi	s4,s4,26
 676:	2300                	fld	fs0,0(a4)
 678:	5420                	lw	s0,104(s0)
 67a:	7365                	lui	t1,0xffff9
 67c:	2074                	fld	fa3,192(s0)
 67e:	6170                	flw	fa2,68(a0)
 680:	7472                	flw	fs0,60(sp)
 682:	4120                	lw	s0,64(a0)
 684:	2031                	jal	690 <end_signature+0x50>
 686:	2d20                	fld	fs0,88(a0)
 688:	4320                	lw	s0,64(a4)
 68a:	6c706d6f          	jal	s10,7550 <__global_pointer$+0x65c8>
 68e:	7465                	lui	s0,0xffff9
 690:	0a65                	addi	s4,s4,25
 692:	2300                	fld	fs0,0(a4)
 694:	5420                	lw	s0,104(s0)
 696:	7365                	lui	t1,0xffff9
 698:	2074                	fld	fa3,192(s0)
 69a:	6170                	flw	fa2,68(a0)
 69c:	7472                	flw	fs0,60(sp)
 69e:	4120                	lw	s0,64(a0)
 6a0:	2032                	fld	ft0,264(sp)
 6a2:	202d                	jal	6cc <end_signature+0x8c>
 6a4:	656e6567          	0x656e6567
 6a8:	6172                	flw	ft2,28(sp)
 6aa:	206c                	fld	fa1,192(s0)
 6ac:	6574                	flw	fa3,76(a0)
 6ae:	6f207473          	csrrci	s0,0x6f2,0
 6b2:	2066                	fld	ft0,88(sp)
 6b4:	72727363          	bleu	t2,tp,dda <_end+0x63a>
 6b8:	000a6963          	bltu	s4,zero,6ca <end_signature+0x8a>
 6bc:	65542023          	sw	s5,1600(s0) # ffff9640 <__global_pointer$+0xffff86b8>
 6c0:	70207473          	csrrci	s0,0x702,0
 6c4:	7261                	lui	tp,0xffff8
 6c6:	2074                	fld	fa3,192(s0)
 6c8:	3241                	jal	48 <CL_SIZE+0x28>
 6ca:	2020                	fld	fs0,64(s0)
 6cc:	202d                	jal	6f6 <end_signature+0xb6>
 6ce:	706d6f43          	fmadd.s	ft10,fs10,ft6,fa4,unknown
 6d2:	656c                	flw	fa1,76(a0)
 6d4:	6574                	flw	fa3,76(a0)
 6d6:	000a                	0xa
 6d8:	65542023          	sw	s5,1600(s0)
 6dc:	70207473          	csrrci	s0,0x702,0
 6e0:	7261                	lui	tp,0xffff8
 6e2:	2074                	fld	fa3,192(s0)
 6e4:	2042                	fld	ft0,16(sp)
 6e6:	202d                	jal	710 <end_signature+0xd0>
 6e8:	6574                	flw	fa3,76(a0)
 6ea:	6e697473          	csrrci	s0,0x6e6,18
 6ee:	72772067          	0x72772067
 6f2:	7469                	lui	s0,0xffffa
 6f4:	6e69                	lui	t3,0x1a
 6f6:	6f742067          	0x6f742067
 6fa:	7820                	flw	fs0,112(s0)
 6fc:	0a30                	addi	a2,sp,280
 6fe:	2300                	fld	fs0,0(a4)
 700:	5420                	lw	s0,104(s0)
 702:	7365                	lui	t1,0xffff9
 704:	2074                	fld	fa3,192(s0)
 706:	6170                	flw	fa2,68(a0)
 708:	7472                	flw	fs0,60(sp)
 70a:	4120                	lw	s0,64(a0)
 70c:	2d202033          	0x2d202033
 710:	4320                	lw	s0,64(a4)
 712:	6c706d6f          	jal	s10,75d8 <__global_pointer$+0x6650>
 716:	7465                	lui	s0,0xffff9
 718:	0a65                	addi	s4,s4,25
 71a:	2300                	fld	fs0,0(a4)
 71c:	5420                	lw	s0,104(s0)
 71e:	7365                	lui	t1,0xffff9
 720:	2074                	fld	fa3,192(s0)
 722:	6e45                	lui	t3,0x11
 724:	0a64                	addi	s1,sp,284
	...

Дизассемблирование раздела .tohost:

00000740 <tohost>:
	...

00000780 <fromhost>:
	...

Дизассемблирование раздела .sdata:

00000788 <__global_pointer$-0x800>:
	...

Дизассемблирование раздела .stack:

0000fc00 <.stack>:
	...
