
/home/oleg/scr1/build/verilator_wf_AHB_IMC/compliance_I-SB-01.elf:     формат файла elf32-littleriscv
/home/oleg/scr1/build/verilator_wf_AHB_IMC/compliance_I-SB-01.elf
архитектура: riscv:rv32, флаги 0x00000112:
EXEC_P, HAS_SYMS, D_PAGED
начальный адрес 0x00000200

Заголовок программы:
    LOAD off    0x00001000 vaddr 0x00000000 paddr 0x00000000 align 2**12
         filesz 0x00001188 memsz 0x000011a0 flags rwx
    LOAD off    0x00002c00 vaddr 0x0000fc00 paddr 0x0000fc00 align 2**12
         filesz 0x00000000 memsz 0x00000400 flags rw-

Разделы:
Idx Name          Size      VMA       LMA       File off  Algn  Флаги
  0 .text.init    00000284  00000000  00000000  00001000  2**6  CONTENTS, ALLOC, LOAD, READONLY, CODE
  1 .text         00000a20  000002a0  000002a0  000012a0  2**5  CONTENTS, ALLOC, LOAD, READONLY, CODE
  2 .data         00000460  00000cc0  00000cc0  00001cc0  2**4  CONTENTS, ALLOC, LOAD, DATA
  3 .tohost       00000048  00001140  00001140  00002140  2**6  CONTENTS, ALLOC, LOAD, DATA
  4 .sdata        00000018  00001188  00001188  00002188  2**0  ALLOC
  5 .tdata        00000000  000011a0  000011a0  00002188  2**0  CONTENTS, ALLOC, LOAD, DATA, THREAD_LOCAL
  6 .tbss         00000000  000011a0  000011a0  00000000  2**0  ALLOC, THREAD_LOCAL
  7 .bss          00000000  000011a0  000011a0  00002188  2**0  ALLOC
  8 .stack        00000400  0000fc00  0000fc00  00002c00  2**0  ALLOC
SYMBOL TABLE:
00000000 l    d  .text.init	00000000 .text.init
000002a0 l    d  .text	00000000 .text
00000cc0 l    d  .data	00000000 .data
00001140 l    d  .tohost	00000000 .tohost
00001188 l    d  .sdata	00000000 .sdata
000011a0 l    d  .tdata	00000000 .tdata
000011a0 l    d  .tbss	00000000 .tbss
000011a0 l    d  .bss	00000000 .bss
0000fc00 l    d  .stack	00000000 .stack
00000000 l    df *ABS*	00000000 /home/oleg/scr1/build/verilator_wf_AHB_IMC/riscv_compliance/riscv_compliance_objs/I-SB-01.o
00000c80 l       .text	00000000 sc_exit
000001c0 l       .text.init	00000000 trap_vector
000001fc l       .text.init	00000000 _report
000001f8 l       .text.init	00000000 handle_exception
000001f8 l       .text.init	00000000 other_exception
000002a0 l       .text	00000000 _run_test
00000cf0 l       .data	00000000 test_A1_res
00000cf4 l       .data	00000000 test_A2_res
00000cf8 l       .data	00000000 test_A3_res
00000cfc l       .data	00000000 test_A4_res
00000d00 l       .data	00000000 test_A5_res
00000d08 l       .data	00000000 test_B_res
00000d10 l       .data	00000000 test_C_res
00000cc0 l       .data	00000000 test_D1_data
00000cc4 l       .data	00000000 test_D2_data
00000d18 l       .data	00000000 test_D2_res
00000d1c l       .data	00000000 test_E1_res
00000d20 l       .data	00000000 test_E2_res
00000d24 l       .data	00000000 test_F_res
00000d2c l       .data	00000000 test_G_res
00000c74 l       .text	00000000 ecall
00000d14 l       .data	00000000 test_D1_res
00000400 g       *ABS*	00000000 STACK_SIZE
00001988 g       .sdata	00000000 __global_pointer$
00000d30 g       .data	00000000 end_signature
00000cd0 g       .data	00000000 begin_regstate
00000cf0 g       .data	00000000 begin_signature
00000200 g       .text.init	00000000 _start
00000020 g       *ABS*	00000000 CL_SIZE
000000f8 g       .text.init	00000000 SIM_STOP
000011a0 g       .bss	00000000 _end
00001180 g       .tohost	00000000 fromhost
00001140 g       .tohost	00000000 tohost
000000f4 g       .text.init	00000000 SIM_EXIT



Дизассемблирование раздела .text.init:

00000000 <SIM_EXIT-0xf4>:
	...

000000f4 <SIM_EXIT>:
  f4:	00000013          	nop

000000f8 <SIM_STOP>:
  f8:	0000006f          	j	f8 <SIM_STOP>
  fc:	ffff                	0xffff
  fe:	ffff                	0xffff
	...

000001c0 <trap_vector>:
 1c0:	34202773          	csrr	a4,mcause
 1c4:	00800793          	li	a5,8
 1c8:	02f70a63          	beq	a4,a5,1fc <_report>
 1cc:	00900793          	li	a5,9
 1d0:	02f70663          	beq	a4,a5,1fc <_report>
 1d4:	00b00793          	li	a5,11
 1d8:	02f70263          	beq	a4,a5,1fc <_report>
 1dc:	00000717          	auipc	a4,0x0
 1e0:	e2470713          	addi	a4,a4,-476 # 0 <CL_SIZE-0x20>
 1e4:	00070463          	beqz	a4,1ec <trap_vector+0x2c>
 1e8:	00070067          	jr	a4
 1ec:	34202773          	csrr	a4,mcause
 1f0:	00075463          	bgez	a4,1f8 <handle_exception>
 1f4:	0040006f          	j	1f8 <handle_exception>

000001f8 <handle_exception>:
 1f8:	00100513          	li	a0,1

000001fc <_report>:
 1fc:	2850006f          	j	c80 <sc_exit>

00000200 <_start>:
 200:	f1402573          	csrr	a0,mhartid
 204:	00051063          	bnez	a0,204 <_start+0x4>
 208:	00000e13          	li	t3,0
 20c:	00000297          	auipc	t0,0x0
 210:	fb428293          	addi	t0,t0,-76 # 1c0 <trap_vector>
 214:	30529073          	csrw	mtvec,t0
 218:	00100513          	li	a0,1
 21c:	01f51513          	slli	a0,a0,0x1f
 220:	00054a63          	bltz	a0,234 <_start+0x34>
 224:	0ff0000f          	fence
 228:	000e0593          	mv	a1,t3
 22c:	00000513          	li	a0,0
 230:	00000073          	ecall
 234:	00000297          	auipc	t0,0x0
 238:	dcc28293          	addi	t0,t0,-564 # 0 <CL_SIZE-0x20>
 23c:	00028e63          	beqz	t0,258 <_start+0x58>
 240:	10529073          	csrw	stvec,t0
 244:	0000b2b7          	lui	t0,0xb
 248:	10928293          	addi	t0,t0,265 # b109 <__global_pointer$+0x9781>
 24c:	30229073          	csrw	medeleg,t0
 250:	30202373          	csrr	t1,medeleg
 254:	fa6292e3          	bne	t0,t1,1f8 <handle_exception>
 258:	30005073          	csrwi	mstatus,0
 25c:	00002537          	lui	a0,0x2
 260:	80050513          	addi	a0,a0,-2048 # 1800 <_end+0x660>
 264:	30052073          	csrs	mstatus,a0
 268:	00000297          	auipc	t0,0x0
 26c:	03828293          	addi	t0,t0,56 # 2a0 <_run_test>
 270:	34129073          	csrw	mepc,t0
 274:	f1402573          	csrr	a0,mhartid
 278:	30200073          	mret
	...

Дизассемблирование раздела .text:

000002a0 <_run_test>:
 2a0:	00001f97          	auipc	t6,0x1
 2a4:	a30f8f93          	addi	t6,t6,-1488 # cd0 <begin_regstate>
 2a8:	003fa023          	sw	gp,0(t6)
 2ac:	004fa223          	sw	tp,4(t6)
 2b0:	005fa423          	sw	t0,8(t6)
 2b4:	f00001b7          	lui	gp,0xf0000
 2b8:	00001217          	auipc	tp,0x1
 2bc:	a7820213          	addi	tp,tp,-1416 # d30 <end_signature>
 2c0:	00020283          	lb	t0,0(tp) # 0 <CL_SIZE-0x20>
 2c4:	00518023          	sb	t0,0(gp) # f0000000 <__global_pointer$+0xefffe678>
 2c8:	00028663          	beqz	t0,2d4 <_run_test+0x34>
 2cc:	00120213          	addi	tp,tp,1 # 1 <CL_SIZE-0x1f>
 2d0:	ff1ff06f          	j	2c0 <_run_test+0x20>
 2d4:	00001f97          	auipc	t6,0x1
 2d8:	9fcf8f93          	addi	t6,t6,-1540 # cd0 <begin_regstate>
 2dc:	000fa183          	lw	gp,0(t6)
 2e0:	004fa203          	lw	tp,4(t6)
 2e4:	008fa283          	lw	t0,8(t6)
 2e8:	00001f97          	auipc	t6,0x1
 2ec:	9e8f8f93          	addi	t6,t6,-1560 # cd0 <begin_regstate>
 2f0:	003fa023          	sw	gp,0(t6)
 2f4:	004fa223          	sw	tp,4(t6)
 2f8:	005fa423          	sw	t0,8(t6)
 2fc:	f00001b7          	lui	gp,0xf0000
 300:	00001217          	auipc	tp,0x1
 304:	a3c20213          	addi	tp,tp,-1476 # d3c <end_signature+0xc>
 308:	00020283          	lb	t0,0(tp) # 0 <CL_SIZE-0x20>
 30c:	00518023          	sb	t0,0(gp) # f0000000 <__global_pointer$+0xefffe678>
 310:	00028663          	beqz	t0,31c <_run_test+0x7c>
 314:	00120213          	addi	tp,tp,1 # 1 <CL_SIZE-0x1f>
 318:	ff1ff06f          	j	308 <_run_test+0x68>
 31c:	00001f97          	auipc	t6,0x1
 320:	9b4f8f93          	addi	t6,t6,-1612 # cd0 <begin_regstate>
 324:	000fa183          	lw	gp,0(t6)
 328:	004fa203          	lw	tp,4(t6)
 32c:	008fa283          	lw	t0,8(t6)
 330:	00001097          	auipc	ra,0x1
 334:	9c008093          	addi	ra,ra,-1600 # cf0 <begin_signature>
 338:	aaaacfb7          	lui	t6,0xaaaac
 33c:	bbbf8f93          	addi	t6,t6,-1093 # aaaabbbb <__global_pointer$+0xaaaaa233>
 340:	01f0a023          	sw	t6,0(ra)
 344:	11f1f137          	lui	sp,0x11f1f
 348:	22210113          	addi	sp,sp,546 # 11f1f222 <__global_pointer$+0x11f1d89a>
 34c:	00208023          	sb	sp,0(ra)
 350:	00001f97          	auipc	t6,0x1
 354:	980f8f93          	addi	t6,t6,-1664 # cd0 <begin_regstate>
 358:	003fa023          	sw	gp,0(t6)
 35c:	004fa223          	sw	tp,4(t6)
 360:	005fa423          	sw	t0,8(t6)
 364:	f00001b7          	lui	gp,0xf0000
 368:	00001217          	auipc	tp,0x1
 36c:	9fc20213          	addi	tp,tp,-1540 # d64 <end_signature+0x34>
 370:	00020283          	lb	t0,0(tp) # 0 <CL_SIZE-0x20>
 374:	00518023          	sb	t0,0(gp) # f0000000 <__global_pointer$+0xefffe678>
 378:	00028663          	beqz	t0,384 <_run_test+0xe4>
 37c:	00120213          	addi	tp,tp,1 # 1 <CL_SIZE-0x1f>
 380:	ff1ff06f          	j	370 <_run_test+0xd0>
 384:	00001f97          	auipc	t6,0x1
 388:	94cf8f93          	addi	t6,t6,-1716 # cd0 <begin_regstate>
 38c:	000fa183          	lw	gp,0(t6)
 390:	004fa203          	lw	tp,4(t6)
 394:	008fa283          	lw	t0,8(t6)
 398:	00001f97          	auipc	t6,0x1
 39c:	938f8f93          	addi	t6,t6,-1736 # cd0 <begin_regstate>
 3a0:	003fa023          	sw	gp,0(t6)
 3a4:	004fa223          	sw	tp,4(t6)
 3a8:	005fa423          	sw	t0,8(t6)
 3ac:	f00001b7          	lui	gp,0xf0000
 3b0:	00001217          	auipc	tp,0x1
 3b4:	9d020213          	addi	tp,tp,-1584 # d80 <end_signature+0x50>
 3b8:	00020283          	lb	t0,0(tp) # 0 <CL_SIZE-0x20>
 3bc:	00518023          	sb	t0,0(gp) # f0000000 <__global_pointer$+0xefffe678>
 3c0:	00028663          	beqz	t0,3cc <_run_test+0x12c>
 3c4:	00120213          	addi	tp,tp,1 # 1 <CL_SIZE-0x1f>
 3c8:	ff1ff06f          	j	3b8 <_run_test+0x118>
 3cc:	00001f97          	auipc	t6,0x1
 3d0:	904f8f93          	addi	t6,t6,-1788 # cd0 <begin_regstate>
 3d4:	000fa183          	lw	gp,0(t6)
 3d8:	004fa203          	lw	tp,4(t6)
 3dc:	008fa283          	lw	t0,8(t6)
 3e0:	00001297          	auipc	t0,0x1
 3e4:	91528293          	addi	t0,t0,-1771 # cf5 <test_A2_res+0x1>
 3e8:	fe02afa3          	sw	zero,-1(t0)
 3ec:	f3334cb7          	lui	s9,0xf3334
 3f0:	4f4c8c93          	addi	s9,s9,1268 # f33344f4 <__global_pointer$+0xf3332b6c>
 3f4:	ff928fa3          	sb	s9,-1(t0)
 3f8:	00001f97          	auipc	t6,0x1
 3fc:	8d8f8f93          	addi	t6,t6,-1832 # cd0 <begin_regstate>
 400:	003fa023          	sw	gp,0(t6)
 404:	004fa223          	sw	tp,4(t6)
 408:	005fa423          	sw	t0,8(t6)
 40c:	f00001b7          	lui	gp,0xf0000
 410:	00001217          	auipc	tp,0x1
 414:	99820213          	addi	tp,tp,-1640 # da8 <end_signature+0x78>
 418:	00020283          	lb	t0,0(tp) # 0 <CL_SIZE-0x20>
 41c:	00518023          	sb	t0,0(gp) # f0000000 <__global_pointer$+0xefffe678>
 420:	00028663          	beqz	t0,42c <STACK_SIZE+0x2c>
 424:	00120213          	addi	tp,tp,1 # 1 <CL_SIZE-0x1f>
 428:	ff1ff06f          	j	418 <STACK_SIZE+0x18>
 42c:	00001f97          	auipc	t6,0x1
 430:	8a4f8f93          	addi	t6,t6,-1884 # cd0 <begin_regstate>
 434:	000fa183          	lw	gp,0(t6)
 438:	004fa203          	lw	tp,4(t6)
 43c:	008fa283          	lw	t0,8(t6)
 440:	00001f97          	auipc	t6,0x1
 444:	890f8f93          	addi	t6,t6,-1904 # cd0 <begin_regstate>
 448:	003fa023          	sw	gp,0(t6)
 44c:	004fa223          	sw	tp,4(t6)
 450:	005fa423          	sw	t0,8(t6)
 454:	f00001b7          	lui	gp,0xf0000
 458:	00001217          	auipc	tp,0x1
 45c:	96c20213          	addi	tp,tp,-1684 # dc4 <end_signature+0x94>
 460:	00020283          	lb	t0,0(tp) # 0 <CL_SIZE-0x20>
 464:	00518023          	sb	t0,0(gp) # f0000000 <__global_pointer$+0xefffe678>
 468:	00028663          	beqz	t0,474 <STACK_SIZE+0x74>
 46c:	00120213          	addi	tp,tp,1 # 1 <CL_SIZE-0x1f>
 470:	ff1ff06f          	j	460 <STACK_SIZE+0x60>
 474:	00001f97          	auipc	t6,0x1
 478:	85cf8f93          	addi	t6,t6,-1956 # cd0 <begin_regstate>
 47c:	000fa183          	lw	gp,0(t6)
 480:	004fa203          	lw	tp,4(t6)
 484:	008fa283          	lw	t0,8(t6)
 488:	00001417          	auipc	s0,0x1
 48c:	86f40413          	addi	s0,s0,-1937 # cf7 <test_A2_res+0x3>
 490:	000420a3          	sw	zero,1(s0)
 494:	55f5ffb7          	lui	t6,0x55f5f
 498:	666f8f93          	addi	t6,t6,1638 # 55f5f666 <__global_pointer$+0x55f5dcde>
 49c:	01f400a3          	sb	t6,1(s0)
 4a0:	00001f97          	auipc	t6,0x1
 4a4:	830f8f93          	addi	t6,t6,-2000 # cd0 <begin_regstate>
 4a8:	003fa023          	sw	gp,0(t6)
 4ac:	004fa223          	sw	tp,4(t6)
 4b0:	005fa423          	sw	t0,8(t6)
 4b4:	f00001b7          	lui	gp,0xf0000
 4b8:	00001217          	auipc	tp,0x1
 4bc:	93420213          	addi	tp,tp,-1740 # dec <end_signature+0xbc>
 4c0:	00020283          	lb	t0,0(tp) # 0 <CL_SIZE-0x20>
 4c4:	00518023          	sb	t0,0(gp) # f0000000 <__global_pointer$+0xefffe678>
 4c8:	00028663          	beqz	t0,4d4 <STACK_SIZE+0xd4>
 4cc:	00120213          	addi	tp,tp,1 # 1 <CL_SIZE-0x1f>
 4d0:	ff1ff06f          	j	4c0 <STACK_SIZE+0xc0>
 4d4:	00000f97          	auipc	t6,0x0
 4d8:	7fcf8f93          	addi	t6,t6,2044 # cd0 <begin_regstate>
 4dc:	000fa183          	lw	gp,0(t6)
 4e0:	004fa203          	lw	tp,4(t6)
 4e4:	008fa283          	lw	t0,8(t6)
 4e8:	00000f97          	auipc	t6,0x0
 4ec:	7e8f8f93          	addi	t6,t6,2024 # cd0 <begin_regstate>
 4f0:	003fa023          	sw	gp,0(t6)
 4f4:	004fa223          	sw	tp,4(t6)
 4f8:	005fa423          	sw	t0,8(t6)
 4fc:	f00001b7          	lui	gp,0xf0000
 500:	00001217          	auipc	tp,0x1
 504:	90820213          	addi	tp,tp,-1784 # e08 <end_signature+0xd8>
 508:	00020283          	lb	t0,0(tp) # 0 <CL_SIZE-0x20>
 50c:	00518023          	sb	t0,0(gp) # f0000000 <__global_pointer$+0xefffe678>
 510:	00028663          	beqz	t0,51c <STACK_SIZE+0x11c>
 514:	00120213          	addi	tp,tp,1 # 1 <CL_SIZE-0x1f>
 518:	ff1ff06f          	j	508 <STACK_SIZE+0x108>
 51c:	00000f97          	auipc	t6,0x0
 520:	7b4f8f93          	addi	t6,t6,1972 # cd0 <begin_regstate>
 524:	000fa183          	lw	gp,0(t6)
 528:	004fa203          	lw	tp,4(t6)
 52c:	008fa283          	lw	t0,8(t6)
 530:	00001597          	auipc	a1,0x1
 534:	fcc58593          	addi	a1,a1,-52 # 14fc <_end+0x35c>
 538:	8005a023          	sw	zero,-2048(a1)
 53c:	f7779637          	lui	a2,0xf7779
 540:	8f860613          	addi	a2,a2,-1800 # f77788f8 <__global_pointer$+0xf7776f70>
 544:	80c58023          	sb	a2,-2048(a1)
 548:	00000f97          	auipc	t6,0x0
 54c:	788f8f93          	addi	t6,t6,1928 # cd0 <begin_regstate>
 550:	003fa023          	sw	gp,0(t6)
 554:	004fa223          	sw	tp,4(t6)
 558:	005fa423          	sw	t0,8(t6)
 55c:	f00001b7          	lui	gp,0xf0000
 560:	00001217          	auipc	tp,0x1
 564:	8d320213          	addi	tp,tp,-1837 # e33 <end_signature+0x103>
 568:	00020283          	lb	t0,0(tp) # 0 <CL_SIZE-0x20>
 56c:	00518023          	sb	t0,0(gp) # f0000000 <__global_pointer$+0xefffe678>
 570:	00028663          	beqz	t0,57c <STACK_SIZE+0x17c>
 574:	00120213          	addi	tp,tp,1 # 1 <CL_SIZE-0x1f>
 578:	ff1ff06f          	j	568 <STACK_SIZE+0x168>
 57c:	00000f97          	auipc	t6,0x0
 580:	754f8f93          	addi	t6,t6,1876 # cd0 <begin_regstate>
 584:	000fa183          	lw	gp,0(t6)
 588:	004fa203          	lw	tp,4(t6)
 58c:	008fa283          	lw	t0,8(t6)
 590:	00000f97          	auipc	t6,0x0
 594:	740f8f93          	addi	t6,t6,1856 # cd0 <begin_regstate>
 598:	003fa023          	sw	gp,0(t6)
 59c:	004fa223          	sw	tp,4(t6)
 5a0:	005fa423          	sw	t0,8(t6)
 5a4:	f00001b7          	lui	gp,0xf0000
 5a8:	00001217          	auipc	tp,0x1
 5ac:	8a720213          	addi	tp,tp,-1881 # e4f <end_signature+0x11f>
 5b0:	00020283          	lb	t0,0(tp) # 0 <CL_SIZE-0x20>
 5b4:	00518023          	sb	t0,0(gp) # f0000000 <__global_pointer$+0xefffe678>
 5b8:	00028663          	beqz	t0,5c4 <STACK_SIZE+0x1c4>
 5bc:	00120213          	addi	tp,tp,1 # 1 <CL_SIZE-0x1f>
 5c0:	ff1ff06f          	j	5b0 <STACK_SIZE+0x1b0>
 5c4:	00000f97          	auipc	t6,0x0
 5c8:	70cf8f93          	addi	t6,t6,1804 # cd0 <begin_regstate>
 5cc:	000fa183          	lw	gp,0(t6)
 5d0:	004fa203          	lw	tp,4(t6)
 5d4:	008fa283          	lw	t0,8(t6)
 5d8:	00000717          	auipc	a4,0x0
 5dc:	f2970713          	addi	a4,a4,-215 # 501 <STACK_SIZE+0x101>
 5e0:	7e072fa3          	sw	zero,2047(a4)
 5e4:	990917b7          	lui	a5,0x99091
 5e8:	aaa78793          	addi	a5,a5,-1366 # 99090aaa <__global_pointer$+0x9908f122>
 5ec:	7ef70fa3          	sb	a5,2047(a4)
 5f0:	00000f97          	auipc	t6,0x0
 5f4:	6e0f8f93          	addi	t6,t6,1760 # cd0 <begin_regstate>
 5f8:	003fa023          	sw	gp,0(t6)
 5fc:	004fa223          	sw	tp,4(t6)
 600:	005fa423          	sw	t0,8(t6)
 604:	f00001b7          	lui	gp,0xf0000
 608:	00001217          	auipc	tp,0x1
 60c:	87220213          	addi	tp,tp,-1934 # e7a <end_signature+0x14a>
 610:	00020283          	lb	t0,0(tp) # 0 <CL_SIZE-0x20>
 614:	00518023          	sb	t0,0(gp) # f0000000 <__global_pointer$+0xefffe678>
 618:	00028663          	beqz	t0,624 <STACK_SIZE+0x224>
 61c:	00120213          	addi	tp,tp,1 # 1 <CL_SIZE-0x1f>
 620:	ff1ff06f          	j	610 <STACK_SIZE+0x210>
 624:	00000f97          	auipc	t6,0x0
 628:	6acf8f93          	addi	t6,t6,1708 # cd0 <begin_regstate>
 62c:	000fa183          	lw	gp,0(t6)
 630:	004fa203          	lw	tp,4(t6)
 634:	008fa283          	lw	t0,8(t6)
 638:	00000f97          	auipc	t6,0x0
 63c:	698f8f93          	addi	t6,t6,1688 # cd0 <begin_regstate>
 640:	003fa023          	sw	gp,0(t6)
 644:	004fa223          	sw	tp,4(t6)
 648:	005fa423          	sw	t0,8(t6)
 64c:	f00001b7          	lui	gp,0xf0000
 650:	00001217          	auipc	tp,0x1
 654:	84620213          	addi	tp,tp,-1978 # e96 <end_signature+0x166>
 658:	00020283          	lb	t0,0(tp) # 0 <CL_SIZE-0x20>
 65c:	00518023          	sb	t0,0(gp) # f0000000 <__global_pointer$+0xefffe678>
 660:	00028663          	beqz	t0,66c <STACK_SIZE+0x26c>
 664:	00120213          	addi	tp,tp,1 # 1 <CL_SIZE-0x1f>
 668:	ff1ff06f          	j	658 <STACK_SIZE+0x258>
 66c:	00000f97          	auipc	t6,0x0
 670:	664f8f93          	addi	t6,t6,1636 # cd0 <begin_regstate>
 674:	000fa183          	lw	gp,0(t6)
 678:	004fa203          	lw	tp,4(t6)
 67c:	008fa283          	lw	t0,8(t6)
 680:	00000897          	auipc	a7,0x0
 684:	68888893          	addi	a7,a7,1672 # d08 <test_B_res>
 688:	11111937          	lui	s2,0x11111
 68c:	10c90913          	addi	s2,s2,268 # 1111110c <__global_pointer$+0x1110f784>
 690:	222229b7          	lui	s3,0x22222
 694:	2cc98993          	addi	s3,s3,716 # 222222cc <__global_pointer$+0x22220944>
 698:	33333a37          	lui	s4,0x33333
 69c:	3bba0a13          	addi	s4,s4,955 # 333333bb <__global_pointer$+0x33331a33>
 6a0:	44444ab7          	lui	s5,0x44444
 6a4:	40ba8a93          	addi	s5,s5,1035 # 4444440b <__global_pointer$+0x44442a83>
 6a8:	55555b37          	lui	s6,0x55555
 6ac:	5eeb0b13          	addi	s6,s6,1518 # 555555ee <__global_pointer$+0x55553c66>
 6b0:	66666bb7          	lui	s7,0x66666
 6b4:	60eb8b93          	addi	s7,s7,1550 # 6666660e <__global_pointer$+0x66664c86>
 6b8:	77777c37          	lui	s8,0x77777
 6bc:	70dc0c13          	addi	s8,s8,1805 # 7777770d <__global_pointer$+0x77775d85>
 6c0:	88889cb7          	lui	s9,0x88889
 6c4:	8ddc8c93          	addi	s9,s9,-1827 # 888888dd <__global_pointer$+0x88886f55>
 6c8:	9999ad37          	lui	s10,0x9999a
 6cc:	9f0d0d13          	addi	s10,s10,-1552 # 999999f0 <__global_pointer$+0x99998068>
 6d0:	aaaabdb7          	lui	s11,0xaaaab
 6d4:	a00d8d93          	addi	s11,s11,-1536 # aaaaaa00 <__global_pointer$+0xaaaa9078>
 6d8:	bbbbce37          	lui	t3,0xbbbbc
 6dc:	bffe0e13          	addi	t3,t3,-1025 # bbbbbbff <__global_pointer$+0xbbbba277>
 6e0:	ccccdeb7          	lui	t4,0xccccd
 6e4:	c0fe8e93          	addi	t4,t4,-1009 # cccccc0f <__global_pointer$+0xccccb287>
 6e8:	ff288e23          	sb	s2,-4(a7)
 6ec:	ff388ea3          	sb	s3,-3(a7)
 6f0:	ff488f23          	sb	s4,-2(a7)
 6f4:	ff588fa3          	sb	s5,-1(a7)
 6f8:	01688023          	sb	s6,0(a7)
 6fc:	017880a3          	sb	s7,1(a7)
 700:	01888123          	sb	s8,2(a7)
 704:	019881a3          	sb	s9,3(a7)
 708:	01a88223          	sb	s10,4(a7)
 70c:	01b882a3          	sb	s11,5(a7)
 710:	01c88323          	sb	t3,6(a7)
 714:	01d883a3          	sb	t4,7(a7)
 718:	00000f97          	auipc	t6,0x0
 71c:	5b8f8f93          	addi	t6,t6,1464 # cd0 <begin_regstate>
 720:	003fa023          	sw	gp,0(t6)
 724:	004fa223          	sw	tp,4(t6)
 728:	005fa423          	sw	t0,8(t6)
 72c:	f00001b7          	lui	gp,0xf0000
 730:	00000217          	auipc	tp,0x0
 734:	79b20213          	addi	tp,tp,1947 # ecb <end_signature+0x19b>
 738:	00020283          	lb	t0,0(tp) # 0 <CL_SIZE-0x20>
 73c:	00518023          	sb	t0,0(gp) # f0000000 <__global_pointer$+0xefffe678>
 740:	00028663          	beqz	t0,74c <STACK_SIZE+0x34c>
 744:	00120213          	addi	tp,tp,1 # 1 <CL_SIZE-0x1f>
 748:	ff1ff06f          	j	738 <STACK_SIZE+0x338>
 74c:	00000f97          	auipc	t6,0x0
 750:	584f8f93          	addi	t6,t6,1412 # cd0 <begin_regstate>
 754:	000fa183          	lw	gp,0(t6)
 758:	004fa203          	lw	tp,4(t6)
 75c:	008fa283          	lw	t0,8(t6)
 760:	00000f97          	auipc	t6,0x0
 764:	570f8f93          	addi	t6,t6,1392 # cd0 <begin_regstate>
 768:	003fa023          	sw	gp,0(t6)
 76c:	004fa223          	sw	tp,4(t6)
 770:	005fa423          	sw	t0,8(t6)
 774:	f00001b7          	lui	gp,0xf0000
 778:	00000217          	auipc	tp,0x0
 77c:	76e20213          	addi	tp,tp,1902 # ee6 <end_signature+0x1b6>
 780:	00020283          	lb	t0,0(tp) # 0 <CL_SIZE-0x20>
 784:	00518023          	sb	t0,0(gp) # f0000000 <__global_pointer$+0xefffe678>
 788:	00028663          	beqz	t0,794 <STACK_SIZE+0x394>
 78c:	00120213          	addi	tp,tp,1 # 1 <CL_SIZE-0x1f>
 790:	ff1ff06f          	j	780 <STACK_SIZE+0x380>
 794:	00000f97          	auipc	t6,0x0
 798:	53cf8f93          	addi	t6,t6,1340 # cd0 <begin_regstate>
 79c:	000fa183          	lw	gp,0(t6)
 7a0:	004fa203          	lw	tp,4(t6)
 7a4:	008fa283          	lw	t0,8(t6)
 7a8:	00000b17          	auipc	s6,0x0
 7ac:	568b0b13          	addi	s6,s6,1384 # d10 <test_C_res>
 7b0:	876540b7          	lui	ra,0x87654
 7b4:	32108093          	addi	ra,ra,801 # 87654321 <__global_pointer$+0x87652999>
 7b8:	001b2023          	sw	ra,0(s6)
 7bc:	12345037          	lui	zero,0x12345
 7c0:	67800013          	li	zero,1656
 7c4:	000b0023          	sb	zero,0(s6)
 7c8:	00000f97          	auipc	t6,0x0
 7cc:	508f8f93          	addi	t6,t6,1288 # cd0 <begin_regstate>
 7d0:	003fa023          	sw	gp,0(t6)
 7d4:	004fa223          	sw	tp,4(t6)
 7d8:	005fa423          	sw	t0,8(t6)
 7dc:	f00001b7          	lui	gp,0xf0000
 7e0:	00000217          	auipc	tp,0x0
 7e4:	72520213          	addi	tp,tp,1829 # f05 <end_signature+0x1d5>
 7e8:	00020283          	lb	t0,0(tp) # 0 <CL_SIZE-0x20>
 7ec:	00518023          	sb	t0,0(gp) # f0000000 <__global_pointer$+0xefffe678>
 7f0:	00028663          	beqz	t0,7fc <STACK_SIZE+0x3fc>
 7f4:	00120213          	addi	tp,tp,1 # 1 <CL_SIZE-0x1f>
 7f8:	ff1ff06f          	j	7e8 <STACK_SIZE+0x3e8>
 7fc:	00000f97          	auipc	t6,0x0
 800:	4d4f8f93          	addi	t6,t6,1236 # cd0 <begin_regstate>
 804:	000fa183          	lw	gp,0(t6)
 808:	004fa203          	lw	tp,4(t6)
 80c:	008fa283          	lw	t0,8(t6)
 810:	00000f97          	auipc	t6,0x0
 814:	4c0f8f93          	addi	t6,t6,1216 # cd0 <begin_regstate>
 818:	003fa023          	sw	gp,0(t6)
 81c:	004fa223          	sw	tp,4(t6)
 820:	005fa423          	sw	t0,8(t6)
 824:	f00001b7          	lui	gp,0xf0000
 828:	00000217          	auipc	tp,0x0
 82c:	6f820213          	addi	tp,tp,1784 # f20 <end_signature+0x1f0>
 830:	00020283          	lb	t0,0(tp) # 0 <CL_SIZE-0x20>
 834:	00518023          	sb	t0,0(gp) # f0000000 <__global_pointer$+0xefffe678>
 838:	00028663          	beqz	t0,844 <STACK_SIZE+0x444>
 83c:	00120213          	addi	tp,tp,1 # 1 <CL_SIZE-0x1f>
 840:	ff1ff06f          	j	830 <STACK_SIZE+0x430>
 844:	00000f97          	auipc	t6,0x0
 848:	48cf8f93          	addi	t6,t6,1164 # cd0 <begin_regstate>
 84c:	000fa183          	lw	gp,0(t6)
 850:	004fa203          	lw	tp,4(t6)
 854:	008fa283          	lw	t0,8(t6)
 858:	00000a97          	auipc	s5,0x0
 85c:	468a8a93          	addi	s5,s5,1128 # cc0 <test_D1_data>
 860:	000aa083          	lw	ra,0(s5)
 864:	0000a023          	sw	zero,0(ra)
 868:	112239b7          	lui	s3,0x11223
 86c:	34498993          	addi	s3,s3,836 # 11223344 <__global_pointer$+0x112219bc>
 870:	000aab83          	lw	s7,0(s5)
 874:	013b8023          	sb	s3,0(s7)
 878:	00000f97          	auipc	t6,0x0
 87c:	458f8f93          	addi	t6,t6,1112 # cd0 <begin_regstate>
 880:	003fa023          	sw	gp,0(t6)
 884:	004fa223          	sw	tp,4(t6)
 888:	005fa423          	sw	t0,8(t6)
 88c:	f00001b7          	lui	gp,0xf0000
 890:	00000217          	auipc	tp,0x0
 894:	6cc20213          	addi	tp,tp,1740 # f5c <end_signature+0x22c>
 898:	00020283          	lb	t0,0(tp) # 0 <CL_SIZE-0x20>
 89c:	00518023          	sb	t0,0(gp) # f0000000 <__global_pointer$+0xefffe678>
 8a0:	00028663          	beqz	t0,8ac <STACK_SIZE+0x4ac>
 8a4:	00120213          	addi	tp,tp,1 # 1 <CL_SIZE-0x1f>
 8a8:	ff1ff06f          	j	898 <STACK_SIZE+0x498>
 8ac:	00000f97          	auipc	t6,0x0
 8b0:	424f8f93          	addi	t6,t6,1060 # cd0 <begin_regstate>
 8b4:	000fa183          	lw	gp,0(t6)
 8b8:	004fa203          	lw	tp,4(t6)
 8bc:	008fa283          	lw	t0,8(t6)
 8c0:	00000f97          	auipc	t6,0x0
 8c4:	410f8f93          	addi	t6,t6,1040 # cd0 <begin_regstate>
 8c8:	003fa023          	sw	gp,0(t6)
 8cc:	004fa223          	sw	tp,4(t6)
 8d0:	005fa423          	sw	t0,8(t6)
 8d4:	f00001b7          	lui	gp,0xf0000
 8d8:	00000217          	auipc	tp,0x0
 8dc:	69f20213          	addi	tp,tp,1695 # f77 <end_signature+0x247>
 8e0:	00020283          	lb	t0,0(tp) # 0 <CL_SIZE-0x20>
 8e4:	00518023          	sb	t0,0(gp) # f0000000 <__global_pointer$+0xefffe678>
 8e8:	00028663          	beqz	t0,8f4 <STACK_SIZE+0x4f4>
 8ec:	00120213          	addi	tp,tp,1 # 1 <CL_SIZE-0x1f>
 8f0:	ff1ff06f          	j	8e0 <STACK_SIZE+0x4e0>
 8f4:	00000f97          	auipc	t6,0x0
 8f8:	3dcf8f93          	addi	t6,t6,988 # cd0 <begin_regstate>
 8fc:	000fa183          	lw	gp,0(t6)
 900:	004fa203          	lw	tp,4(t6)
 904:	008fa283          	lw	t0,8(t6)
 908:	00000b97          	auipc	s7,0x0
 90c:	3bcb8b93          	addi	s7,s7,956 # cc4 <test_D2_data>
 910:	00000c17          	auipc	s8,0x0
 914:	408c0c13          	addi	s8,s8,1032 # d18 <test_D2_res>
 918:	000c2023          	sw	zero,0(s8)
 91c:	000bac83          	lw	s9,0(s7)
 920:	019c0023          	sb	s9,0(s8)
 924:	00000f97          	auipc	t6,0x0
 928:	3acf8f93          	addi	t6,t6,940 # cd0 <begin_regstate>
 92c:	003fa023          	sw	gp,0(t6)
 930:	004fa223          	sw	tp,4(t6)
 934:	005fa423          	sw	t0,8(t6)
 938:	f00001b7          	lui	gp,0xf0000
 93c:	00000217          	auipc	tp,0x0
 940:	67420213          	addi	tp,tp,1652 # fb0 <end_signature+0x280>
 944:	00020283          	lb	t0,0(tp) # 0 <CL_SIZE-0x20>
 948:	00518023          	sb	t0,0(gp) # f0000000 <__global_pointer$+0xefffe678>
 94c:	00028663          	beqz	t0,958 <STACK_SIZE+0x558>
 950:	00120213          	addi	tp,tp,1 # 1 <CL_SIZE-0x1f>
 954:	ff1ff06f          	j	944 <STACK_SIZE+0x544>
 958:	00000f97          	auipc	t6,0x0
 95c:	378f8f93          	addi	t6,t6,888 # cd0 <begin_regstate>
 960:	000fa183          	lw	gp,0(t6)
 964:	004fa203          	lw	tp,4(t6)
 968:	008fa283          	lw	t0,8(t6)
 96c:	00000f97          	auipc	t6,0x0
 970:	364f8f93          	addi	t6,t6,868 # cd0 <begin_regstate>
 974:	003fa023          	sw	gp,0(t6)
 978:	004fa223          	sw	tp,4(t6)
 97c:	005fa423          	sw	t0,8(t6)
 980:	f00001b7          	lui	gp,0xf0000
 984:	00000217          	auipc	tp,0x0
 988:	64720213          	addi	tp,tp,1607 # fcb <end_signature+0x29b>
 98c:	00020283          	lb	t0,0(tp) # 0 <CL_SIZE-0x20>
 990:	00518023          	sb	t0,0(gp) # f0000000 <__global_pointer$+0xefffe678>
 994:	00028663          	beqz	t0,9a0 <STACK_SIZE+0x5a0>
 998:	00120213          	addi	tp,tp,1 # 1 <CL_SIZE-0x1f>
 99c:	ff1ff06f          	j	98c <STACK_SIZE+0x58c>
 9a0:	00000f97          	auipc	t6,0x0
 9a4:	330f8f93          	addi	t6,t6,816 # cd0 <begin_regstate>
 9a8:	000fa183          	lw	gp,0(t6)
 9ac:	004fa203          	lw	tp,4(t6)
 9b0:	008fa283          	lw	t0,8(t6)
 9b4:	00000d17          	auipc	s10,0x0
 9b8:	368d0d13          	addi	s10,s10,872 # d1c <test_E1_res>
 9bc:	000d2023          	sw	zero,0(s10)
 9c0:	76543cb7          	lui	s9,0x76543
 9c4:	210c8c93          	addi	s9,s9,528 # 76543210 <__global_pointer$+0x76541888>
 9c8:	019d0023          	sb	s9,0(s10)
 9cc:	00000c93          	li	s9,0
 9d0:	00000f97          	auipc	t6,0x0
 9d4:	300f8f93          	addi	t6,t6,768 # cd0 <begin_regstate>
 9d8:	003fa023          	sw	gp,0(t6)
 9dc:	004fa223          	sw	tp,4(t6)
 9e0:	005fa423          	sw	t0,8(t6)
 9e4:	f00001b7          	lui	gp,0xf0000
 9e8:	00000217          	auipc	tp,0x0
 9ec:	61520213          	addi	tp,tp,1557 # ffd <end_signature+0x2cd>
 9f0:	00020283          	lb	t0,0(tp) # 0 <CL_SIZE-0x20>
 9f4:	00518023          	sb	t0,0(gp) # f0000000 <__global_pointer$+0xefffe678>
 9f8:	00028663          	beqz	t0,a04 <STACK_SIZE+0x604>
 9fc:	00120213          	addi	tp,tp,1 # 1 <CL_SIZE-0x1f>
 a00:	ff1ff06f          	j	9f0 <STACK_SIZE+0x5f0>
 a04:	00000f97          	auipc	t6,0x0
 a08:	2ccf8f93          	addi	t6,t6,716 # cd0 <begin_regstate>
 a0c:	000fa183          	lw	gp,0(t6)
 a10:	004fa203          	lw	tp,4(t6)
 a14:	008fa283          	lw	t0,8(t6)
 a18:	00000f97          	auipc	t6,0x0
 a1c:	2b8f8f93          	addi	t6,t6,696 # cd0 <begin_regstate>
 a20:	003fa023          	sw	gp,0(t6)
 a24:	004fa223          	sw	tp,4(t6)
 a28:	005fa423          	sw	t0,8(t6)
 a2c:	f00001b7          	lui	gp,0xf0000
 a30:	00000217          	auipc	tp,0x0
 a34:	5e920213          	addi	tp,tp,1513 # 1019 <end_signature+0x2e9>
 a38:	00020283          	lb	t0,0(tp) # 0 <CL_SIZE-0x20>
 a3c:	00518023          	sb	t0,0(gp) # f0000000 <__global_pointer$+0xefffe678>
 a40:	00028663          	beqz	t0,a4c <STACK_SIZE+0x64c>
 a44:	00120213          	addi	tp,tp,1 # 1 <CL_SIZE-0x1f>
 a48:	ff1ff06f          	j	a38 <STACK_SIZE+0x638>
 a4c:	00000f97          	auipc	t6,0x0
 a50:	284f8f93          	addi	t6,t6,644 # cd0 <begin_regstate>
 a54:	000fa183          	lw	gp,0(t6)
 a58:	004fa203          	lw	tp,4(t6)
 a5c:	008fa283          	lw	t0,8(t6)
 a60:	00000e17          	auipc	t3,0x0
 a64:	2c0e0e13          	addi	t3,t3,704 # d20 <test_E2_res>
 a68:	000e2023          	sw	zero,0(t3)
 a6c:	89abddb7          	lui	s11,0x89abd
 a70:	defd8d93          	addi	s11,s11,-529 # 89abcdef <__global_pointer$+0x89abb467>
 a74:	01be0023          	sb	s11,0(t3)
 a78:	ffce0e13          	addi	t3,t3,-4
 a7c:	00000f97          	auipc	t6,0x0
 a80:	254f8f93          	addi	t6,t6,596 # cd0 <begin_regstate>
 a84:	003fa023          	sw	gp,0(t6)
 a88:	004fa223          	sw	tp,4(t6)
 a8c:	005fa423          	sw	t0,8(t6)
 a90:	f00001b7          	lui	gp,0xf0000
 a94:	00000217          	auipc	tp,0x0
 a98:	5ba20213          	addi	tp,tp,1466 # 104e <end_signature+0x31e>
 a9c:	00020283          	lb	t0,0(tp) # 0 <CL_SIZE-0x20>
 aa0:	00518023          	sb	t0,0(gp) # f0000000 <__global_pointer$+0xefffe678>
 aa4:	00028663          	beqz	t0,ab0 <STACK_SIZE+0x6b0>
 aa8:	00120213          	addi	tp,tp,1 # 1 <CL_SIZE-0x1f>
 aac:	ff1ff06f          	j	a9c <STACK_SIZE+0x69c>
 ab0:	00000f97          	auipc	t6,0x0
 ab4:	220f8f93          	addi	t6,t6,544 # cd0 <begin_regstate>
 ab8:	000fa183          	lw	gp,0(t6)
 abc:	004fa203          	lw	tp,4(t6)
 ac0:	008fa283          	lw	t0,8(t6)
 ac4:	00000f97          	auipc	t6,0x0
 ac8:	20cf8f93          	addi	t6,t6,524 # cd0 <begin_regstate>
 acc:	003fa023          	sw	gp,0(t6)
 ad0:	004fa223          	sw	tp,4(t6)
 ad4:	005fa423          	sw	t0,8(t6)
 ad8:	f00001b7          	lui	gp,0xf0000
 adc:	00000217          	auipc	tp,0x0
 ae0:	58e20213          	addi	tp,tp,1422 # 106a <end_signature+0x33a>
 ae4:	00020283          	lb	t0,0(tp) # 0 <CL_SIZE-0x20>
 ae8:	00518023          	sb	t0,0(gp) # f0000000 <__global_pointer$+0xefffe678>
 aec:	00028663          	beqz	t0,af8 <STACK_SIZE+0x6f8>
 af0:	00120213          	addi	tp,tp,1 # 1 <CL_SIZE-0x1f>
 af4:	ff1ff06f          	j	ae4 <STACK_SIZE+0x6e4>
 af8:	00000f97          	auipc	t6,0x0
 afc:	1d8f8f93          	addi	t6,t6,472 # cd0 <begin_regstate>
 b00:	000fa183          	lw	gp,0(t6)
 b04:	004fa203          	lw	tp,4(t6)
 b08:	008fa283          	lw	t0,8(t6)
 b0c:	00000e97          	auipc	t4,0x0
 b10:	218e8e93          	addi	t4,t4,536 # d24 <test_F_res>
 b14:	000ea023          	sw	zero,0(t4)
 b18:	000ea223          	sw	zero,4(t4)
 b1c:	14726db7          	lui	s11,0x14726
 b20:	836d8d93          	addi	s11,s11,-1994 # 14725836 <__global_pointer$+0x14723eae>
 b24:	01be8023          	sb	s11,0(t4)
 b28:	000eaf03          	lw	t5,0(t4)
 b2c:	01ee8223          	sb	t5,4(t4)
 b30:	00000f97          	auipc	t6,0x0
 b34:	1a0f8f93          	addi	t6,t6,416 # cd0 <begin_regstate>
 b38:	003fa023          	sw	gp,0(t6)
 b3c:	004fa223          	sw	tp,4(t6)
 b40:	005fa423          	sw	t0,8(t6)
 b44:	f00001b7          	lui	gp,0xf0000
 b48:	00000217          	auipc	tp,0x0
 b4c:	54d20213          	addi	tp,tp,1357 # 1095 <end_signature+0x365>
 b50:	00020283          	lb	t0,0(tp) # 0 <CL_SIZE-0x20>
 b54:	00518023          	sb	t0,0(gp) # f0000000 <__global_pointer$+0xefffe678>
 b58:	00028663          	beqz	t0,b64 <STACK_SIZE+0x764>
 b5c:	00120213          	addi	tp,tp,1 # 1 <CL_SIZE-0x1f>
 b60:	ff1ff06f          	j	b50 <STACK_SIZE+0x750>
 b64:	00000f97          	auipc	t6,0x0
 b68:	16cf8f93          	addi	t6,t6,364 # cd0 <begin_regstate>
 b6c:	000fa183          	lw	gp,0(t6)
 b70:	004fa203          	lw	tp,4(t6)
 b74:	008fa283          	lw	t0,8(t6)
 b78:	00000f97          	auipc	t6,0x0
 b7c:	158f8f93          	addi	t6,t6,344 # cd0 <begin_regstate>
 b80:	003fa023          	sw	gp,0(t6)
 b84:	004fa223          	sw	tp,4(t6)
 b88:	005fa423          	sw	t0,8(t6)
 b8c:	f00001b7          	lui	gp,0xf0000
 b90:	00000217          	auipc	tp,0x0
 b94:	52120213          	addi	tp,tp,1313 # 10b1 <end_signature+0x381>
 b98:	00020283          	lb	t0,0(tp) # 0 <CL_SIZE-0x20>
 b9c:	00518023          	sb	t0,0(gp) # f0000000 <__global_pointer$+0xefffe678>
 ba0:	00028663          	beqz	t0,bac <STACK_SIZE+0x7ac>
 ba4:	00120213          	addi	tp,tp,1 # 1 <CL_SIZE-0x1f>
 ba8:	ff1ff06f          	j	b98 <STACK_SIZE+0x798>
 bac:	00000f97          	auipc	t6,0x0
 bb0:	124f8f93          	addi	t6,t6,292 # cd0 <begin_regstate>
 bb4:	000fa183          	lw	gp,0(t6)
 bb8:	004fa203          	lw	tp,4(t6)
 bbc:	008fa283          	lw	t0,8(t6)
 bc0:	00000097          	auipc	ra,0x0
 bc4:	16c08093          	addi	ra,ra,364 # d2c <test_G_res>
 bc8:	0000a023          	sw	zero,0(ra)
 bcc:	96385137          	lui	sp,0x96385
 bd0:	20110113          	addi	sp,sp,513 # 96385201 <__global_pointer$+0x96383879>
 bd4:	258151b7          	lui	gp,0x25815
 bd8:	96318193          	addi	gp,gp,-1693 # 25814963 <__global_pointer$+0x25812fdb>
 bdc:	00208023          	sb	sp,0(ra)
 be0:	00308023          	sb	gp,0(ra)
 be4:	00000f97          	auipc	t6,0x0
 be8:	0ecf8f93          	addi	t6,t6,236 # cd0 <begin_regstate>
 bec:	003fa023          	sw	gp,0(t6)
 bf0:	004fa223          	sw	tp,4(t6)
 bf4:	005fa423          	sw	t0,8(t6)
 bf8:	f00001b7          	lui	gp,0xf0000
 bfc:	00000217          	auipc	tp,0x0
 c00:	4e020213          	addi	tp,tp,1248 # 10dc <end_signature+0x3ac>
 c04:	00020283          	lb	t0,0(tp) # 0 <CL_SIZE-0x20>
 c08:	00518023          	sb	t0,0(gp) # f0000000 <__global_pointer$+0xefffe678>
 c0c:	00028663          	beqz	t0,c18 <STACK_SIZE+0x818>
 c10:	00120213          	addi	tp,tp,1 # 1 <CL_SIZE-0x1f>
 c14:	ff1ff06f          	j	c04 <STACK_SIZE+0x804>
 c18:	00000f97          	auipc	t6,0x0
 c1c:	0b8f8f93          	addi	t6,t6,184 # cd0 <begin_regstate>
 c20:	000fa183          	lw	gp,0(t6)
 c24:	004fa203          	lw	tp,4(t6)
 c28:	008fa283          	lw	t0,8(t6)
 c2c:	00000f97          	auipc	t6,0x0
 c30:	0a4f8f93          	addi	t6,t6,164 # cd0 <begin_regstate>
 c34:	003fa023          	sw	gp,0(t6)
 c38:	004fa223          	sw	tp,4(t6)
 c3c:	005fa423          	sw	t0,8(t6)
 c40:	f00001b7          	lui	gp,0xf0000
 c44:	00000217          	auipc	tp,0x0
 c48:	4b420213          	addi	tp,tp,1204 # 10f8 <end_signature+0x3c8>
 c4c:	00020283          	lb	t0,0(tp) # 0 <CL_SIZE-0x20>
 c50:	00518023          	sb	t0,0(gp) # f0000000 <__global_pointer$+0xefffe678>
 c54:	00028663          	beqz	t0,c60 <STACK_SIZE+0x860>
 c58:	00120213          	addi	tp,tp,1 # 1 <CL_SIZE-0x1f>
 c5c:	ff1ff06f          	j	c4c <STACK_SIZE+0x84c>
 c60:	00000f97          	auipc	t6,0x0
 c64:	070f8f93          	addi	t6,t6,112 # cd0 <begin_regstate>
 c68:	000fa183          	lw	gp,0(t6)
 c6c:	004fa203          	lw	tp,4(t6)
 c70:	008fa283          	lw	t0,8(t6)

00000c74 <ecall>:
 c74:	00000073          	ecall
	...

00000c80 <sc_exit>:
 c80:	c74ff06f          	j	f4 <SIM_EXIT>
 c84:	00000013          	nop
 c88:	00000013          	nop
 c8c:	00000013          	nop
 c90:	00000013          	nop
 c94:	00000013          	nop
 c98:	00000013          	nop
 c9c:	00000013          	nop
	...

Дизассемблирование раздела .data:

00000cc0 <test_D1_data>:
     cc0:	0d14                	addi	a3,sp,656
	...

00000cc4 <test_D2_data>:
     cc4:	def0                	sw	a2,124(a3)
     cc6:	9abc                	0x9abc
	...

00000cd0 <begin_regstate>:
	...

00000cf0 <begin_signature>:
     cf0:	ffff                	0xffff
     cf2:	ffff                	0xffff

00000cf4 <test_A2_res>:
     cf4:	ffff                	0xffff
     cf6:	ffff                	0xffff

00000cf8 <test_A3_res>:
     cf8:	ffff                	0xffff
     cfa:	ffff                	0xffff

00000cfc <test_A4_res>:
     cfc:	ffff                	0xffff
     cfe:	ffff                	0xffff

00000d00 <test_A5_res>:
     d00:	ffff                	0xffff
     d02:	ffff                	0xffff
     d04:	ffff                	0xffff
     d06:	ffff                	0xffff

00000d08 <test_B_res>:
     d08:	ffff                	0xffff
     d0a:	ffff                	0xffff
     d0c:	ffff                	0xffff
     d0e:	ffff                	0xffff

00000d10 <test_C_res>:
     d10:	ffff                	0xffff
     d12:	ffff                	0xffff

00000d14 <test_D1_res>:
     d14:	ffff                	0xffff
     d16:	ffff                	0xffff

00000d18 <test_D2_res>:
     d18:	ffff                	0xffff
     d1a:	ffff                	0xffff

00000d1c <test_E1_res>:
     d1c:	ffff                	0xffff
     d1e:	ffff                	0xffff

00000d20 <test_E2_res>:
     d20:	ffff                	0xffff
     d22:	ffff                	0xffff

00000d24 <test_F_res>:
     d24:	ffff                	0xffff
     d26:	ffff                	0xffff
     d28:	ffff                	0xffff
     d2a:	ffff                	0xffff

00000d2c <test_G_res>:
     d2c:	ffff                	0xffff
     d2e:	ffff                	0xffff

00000d30 <end_signature>:
     d30:	6554                	flw	fa3,12(a0)
     d32:	42207473          	csrrci	s0,0x422,0
     d36:	6765                	lui	a4,0x19
     d38:	6e69                	lui	t3,0x1a
     d3a:	000a                	0xa
     d3c:	65542023          	sw	s5,1600(s0)
     d40:	70207473          	csrrci	s0,0x702,0
     d44:	7261                	lui	tp,0xffff8
     d46:	2074                	fld	fa3,192(s0)
     d48:	3141                	jal	9c8 <STACK_SIZE+0x5c8>
     d4a:	2d20                	fld	fs0,88(a0)
     d4c:	7420                	flw	fs0,104(s0)
     d4e:	7365                	lui	t1,0xffff9
     d50:	2074                	fld	fa3,192(s0)
     d52:	6162                	flw	ft2,24(sp)
     d54:	61206573          	csrrsi	a0,0x612,0
     d58:	6464                	flw	fs1,76(s0)
     d5a:	6572                	flw	fa0,28(sp)
     d5c:	2b207373          	csrrci	t1,0x2b2,0
     d60:	3020                	fld	fs0,96(s0)
     d62:	000a                	0xa
     d64:	65542023          	sw	s5,1600(s0)
     d68:	70207473          	csrrci	s0,0x702,0
     d6c:	7261                	lui	tp,0xffff8
     d6e:	2074                	fld	fa3,192(s0)
     d70:	3141                	jal	9f0 <STACK_SIZE+0x5f0>
     d72:	2020                	fld	fs0,64(s0)
     d74:	202d                	jal	d9e <end_signature+0x6e>
     d76:	706d6f43          	fmadd.s	ft10,fs10,ft6,fa4,unknown
     d7a:	656c                	flw	fa1,76(a0)
     d7c:	6574                	flw	fa3,76(a0)
     d7e:	000a                	0xa
     d80:	65542023          	sw	s5,1600(s0)
     d84:	70207473          	csrrci	s0,0x702,0
     d88:	7261                	lui	tp,0xffff8
     d8a:	2074                	fld	fa3,192(s0)
     d8c:	3241                	jal	70c <STACK_SIZE+0x30c>
     d8e:	2d20                	fld	fs0,88(a0)
     d90:	7420                	flw	fs0,104(s0)
     d92:	7365                	lui	t1,0xffff9
     d94:	2074                	fld	fa3,192(s0)
     d96:	6162                	flw	ft2,24(sp)
     d98:	61206573          	csrrsi	a0,0x612,0
     d9c:	6464                	flw	fs1,76(s0)
     d9e:	6572                	flw	fa0,28(sp)
     da0:	2d207373          	csrrci	t1,0x2d2,0
     da4:	3120                	fld	fs0,96(a0)
     da6:	000a                	0xa
     da8:	65542023          	sw	s5,1600(s0)
     dac:	70207473          	csrrci	s0,0x702,0
     db0:	7261                	lui	tp,0xffff8
     db2:	2074                	fld	fa3,192(s0)
     db4:	3241                	jal	734 <STACK_SIZE+0x334>
     db6:	2020                	fld	fs0,64(s0)
     db8:	202d                	jal	de2 <end_signature+0xb2>
     dba:	706d6f43          	fmadd.s	ft10,fs10,ft6,fa4,unknown
     dbe:	656c                	flw	fa1,76(a0)
     dc0:	6574                	flw	fa3,76(a0)
     dc2:	000a                	0xa
     dc4:	65542023          	sw	s5,1600(s0)
     dc8:	70207473          	csrrci	s0,0x702,0
     dcc:	7261                	lui	tp,0xffff8
     dce:	2074                	fld	fa3,192(s0)
     dd0:	3341                	jal	b50 <STACK_SIZE+0x750>
     dd2:	2d20                	fld	fs0,88(a0)
     dd4:	7420                	flw	fs0,104(s0)
     dd6:	7365                	lui	t1,0xffff9
     dd8:	2074                	fld	fa3,192(s0)
     dda:	6162                	flw	ft2,24(sp)
     ddc:	61206573          	csrrsi	a0,0x612,0
     de0:	6464                	flw	fs1,76(s0)
     de2:	6572                	flw	fa0,28(sp)
     de4:	2b207373          	csrrci	t1,0x2b2,0
     de8:	3120                	fld	fs0,96(a0)
     dea:	000a                	0xa
     dec:	65542023          	sw	s5,1600(s0)
     df0:	70207473          	csrrci	s0,0x702,0
     df4:	7261                	lui	tp,0xffff8
     df6:	2074                	fld	fa3,192(s0)
     df8:	3341                	jal	b78 <STACK_SIZE+0x778>
     dfa:	2020                	fld	fs0,64(s0)
     dfc:	202d                	jal	e26 <end_signature+0xf6>
     dfe:	706d6f43          	fmadd.s	ft10,fs10,ft6,fa4,unknown
     e02:	656c                	flw	fa1,76(a0)
     e04:	6574                	flw	fa3,76(a0)
     e06:	000a                	0xa
     e08:	65542023          	sw	s5,1600(s0)
     e0c:	70207473          	csrrci	s0,0x702,0
     e10:	7261                	lui	tp,0xffff8
     e12:	2074                	fld	fa3,192(s0)
     e14:	3441                	jal	894 <STACK_SIZE+0x494>
     e16:	2d20                	fld	fs0,88(a0)
     e18:	7420                	flw	fs0,104(s0)
     e1a:	7365                	lui	t1,0xffff9
     e1c:	2074                	fld	fa3,192(s0)
     e1e:	6162                	flw	ft2,24(sp)
     e20:	61206573          	csrrsi	a0,0x612,0
     e24:	6464                	flw	fs1,76(s0)
     e26:	6572                	flw	fa0,28(sp)
     e28:	2d207373          	csrrci	t1,0x2d2,0
     e2c:	3220                	fld	fs0,96(a2)
     e2e:	3430                	fld	fa2,104(s0)
     e30:	0a38                	addi	a4,sp,280
     e32:	2300                	fld	fs0,0(a4)
     e34:	5420                	lw	s0,104(s0)
     e36:	7365                	lui	t1,0xffff9
     e38:	2074                	fld	fa3,192(s0)
     e3a:	6170                	flw	fa2,68(a0)
     e3c:	7472                	flw	fs0,60(sp)
     e3e:	4120                	lw	s0,64(a0)
     e40:	2034                	fld	fa3,64(s0)
     e42:	2d20                	fld	fs0,88(a0)
     e44:	4320                	lw	s0,64(a4)
     e46:	6c706d6f          	jal	s10,7d0c <__global_pointer$+0x6384>
     e4a:	7465                	lui	s0,0xffff9
     e4c:	0a65                	addi	s4,s4,25
     e4e:	2300                	fld	fs0,0(a4)
     e50:	5420                	lw	s0,104(s0)
     e52:	7365                	lui	t1,0xffff9
     e54:	2074                	fld	fa3,192(s0)
     e56:	6170                	flw	fa2,68(a0)
     e58:	7472                	flw	fs0,60(sp)
     e5a:	4120                	lw	s0,64(a0)
     e5c:	2035                	jal	e88 <end_signature+0x158>
     e5e:	202d                	jal	e88 <end_signature+0x158>
     e60:	6574                	flw	fa3,76(a0)
     e62:	62207473          	csrrci	s0,0x622,0
     e66:	7361                	lui	t1,0xffff8
     e68:	2065                	jal	f10 <end_signature+0x1e0>
     e6a:	6461                	lui	s0,0x18
     e6c:	7264                	flw	fs1,100(a2)
     e6e:	7365                	lui	t1,0xffff9
     e70:	202b2073          	csrs	0x202,s6
     e74:	3032                	fld	ft0,296(sp)
     e76:	3734                	fld	fa3,104(a4)
     e78:	000a                	0xa
     e7a:	65542023          	sw	s5,1600(s0) # 18640 <__global_pointer$+0x16cb8>
     e7e:	70207473          	csrrci	s0,0x702,0
     e82:	7261                	lui	tp,0xffff8
     e84:	2074                	fld	fa3,192(s0)
     e86:	3541                	jal	d06 <test_A5_res+0x6>
     e88:	2020                	fld	fs0,64(s0)
     e8a:	202d                	jal	eb4 <end_signature+0x184>
     e8c:	706d6f43          	fmadd.s	ft10,fs10,ft6,fa4,unknown
     e90:	656c                	flw	fa1,76(a0)
     e92:	6574                	flw	fa3,76(a0)
     e94:	000a                	0xa
     e96:	65542023          	sw	s5,1600(s0)
     e9a:	70207473          	csrrci	s0,0x702,0
     e9e:	7261                	lui	tp,0xffff8
     ea0:	2074                	fld	fa3,192(s0)
     ea2:	2042                	fld	ft0,16(sp)
     ea4:	202d                	jal	ece <end_signature+0x19e>
     ea6:	6574                	flw	fa3,76(a0)
     ea8:	62207473          	csrrci	s0,0x622,0
     eac:	7361                	lui	t1,0xffff8
     eae:	2065                	jal	f56 <end_signature+0x226>
     eb0:	6461                	lui	s0,0x18
     eb2:	7264                	flw	fs1,100(a2)
     eb4:	7365                	lui	t1,0xffff9
     eb6:	202b2073          	csrs	0x202,s6
     eba:	342d                	jal	8e4 <STACK_SIZE+0x4e4>
     ebc:	202c                	fld	fa1,64(s0)
     ebe:	332d                	jal	be8 <STACK_SIZE+0x7e8>
     ec0:	202c                	fld	fa1,64(s0)
     ec2:	2e2e                	fld	ft8,200(sp)
     ec4:	202e                	fld	ft0,200(sp)
     ec6:	202c                	fld	fa1,64(s0)
     ec8:	23000a37          	lui	s4,0x23000
     ecc:	5420                	lw	s0,104(s0)
     ece:	7365                	lui	t1,0xffff9
     ed0:	2074                	fld	fa3,192(s0)
     ed2:	6170                	flw	fa2,68(a0)
     ed4:	7472                	flw	fs0,60(sp)
     ed6:	4220                	lw	s0,64(a2)
     ed8:	2020                	fld	fs0,64(s0)
     eda:	202d                	jal	f04 <end_signature+0x1d4>
     edc:	706d6f43          	fmadd.s	ft10,fs10,ft6,fa4,unknown
     ee0:	656c                	flw	fa1,76(a0)
     ee2:	6574                	flw	fa3,76(a0)
     ee4:	000a                	0xa
     ee6:	65542023          	sw	s5,1600(s0) # 18640 <__global_pointer$+0x16cb8>
     eea:	70207473          	csrrci	s0,0x702,0
     eee:	7261                	lui	tp,0xffff8
     ef0:	2074                	fld	fa3,192(s0)
     ef2:	202d2043          	fmadd.s	ft0,fs10,ft2,ft4,rdn
     ef6:	6574                	flw	fa3,76(a0)
     ef8:	73207473          	csrrci	s0,0x732,0
     efc:	6f74                	flw	fa3,92(a4)
     efe:	6572                	flw	fa0,28(sp)
     f00:	7820                	flw	fs0,112(s0)
     f02:	0a30                	addi	a2,sp,280
     f04:	2300                	fld	fs0,0(a4)
     f06:	5420                	lw	s0,104(s0)
     f08:	7365                	lui	t1,0xffff9
     f0a:	2074                	fld	fa3,192(s0)
     f0c:	6170                	flw	fa2,68(a0)
     f0e:	7472                	flw	fs0,60(sp)
     f10:	4320                	lw	s0,64(a4)
     f12:	2020                	fld	fs0,64(s0)
     f14:	202d                	jal	f3e <end_signature+0x20e>
     f16:	706d6f43          	fmadd.s	ft10,fs10,ft6,fa4,unknown
     f1a:	656c                	flw	fa1,76(a0)
     f1c:	6574                	flw	fa3,76(a0)
     f1e:	000a                	0xa
     f20:	65542023          	sw	s5,1600(s0)
     f24:	70207473          	csrrci	s0,0x702,0
     f28:	7261                	lui	tp,0xffff8
     f2a:	2074                	fld	fa3,192(s0)
     f2c:	3144                	fld	fs1,160(a0)
     f2e:	2d20                	fld	fs0,88(a0)
     f30:	7420                	flw	fs0,104(s0)
     f32:	7365                	lui	t1,0xffff9
     f34:	2074                	fld	fa3,192(s0)
     f36:	6f66                	flw	ft10,88(sp)
     f38:	2072                	fld	ft0,280(sp)
     f3a:	6f66                	flw	ft10,88(sp)
     f3c:	7772                	flw	fa4,60(sp)
     f3e:	7261                	lui	tp,0xffff8
     f40:	6964                	flw	fs1,84(a0)
     f42:	676e                	flw	fa4,216(sp)
     f44:	2820                	fld	fs0,80(s0)
     f46:	6f74                	flw	fa3,92(a4)
     f48:	6120                	flw	fs0,64(a0)
     f4a:	6464                	flw	fs1,76(s0)
     f4c:	6572                	flw	fa0,28(sp)
     f4e:	72207373          	csrrci	t1,0x722,0
     f52:	6765                	lui	a4,0x19
     f54:	7369                	lui	t1,0xffffa
     f56:	6574                	flw	fa3,76(a0)
     f58:	2972                	fld	fs2,280(sp)
     f5a:	000a                	0xa
     f5c:	65542023          	sw	s5,1600(s0)
     f60:	70207473          	csrrci	s0,0x702,0
     f64:	7261                	lui	tp,0xffff8
     f66:	2074                	fld	fa3,192(s0)
     f68:	2044                	fld	fs1,128(s0)
     f6a:	2d20                	fld	fs0,88(a0)
     f6c:	4320                	lw	s0,64(a4)
     f6e:	6c706d6f          	jal	s10,7e34 <__global_pointer$+0x64ac>
     f72:	7465                	lui	s0,0xffff9
     f74:	0a65                	addi	s4,s4,25
     f76:	2300                	fld	fs0,0(a4)
     f78:	5420                	lw	s0,104(s0)
     f7a:	7365                	lui	t1,0xffff9
     f7c:	2074                	fld	fa3,192(s0)
     f7e:	6170                	flw	fa2,68(a0)
     f80:	7472                	flw	fs0,60(sp)
     f82:	4420                	lw	s0,72(s0)
     f84:	2032                	fld	ft0,264(sp)
     f86:	202d                	jal	fb0 <end_signature+0x280>
     f88:	6574                	flw	fa3,76(a0)
     f8a:	66207473          	csrrci	s0,0x662,0
     f8e:	6620726f          	jal	tp,85f0 <__global_pointer$+0x6c68>
     f92:	6177726f          	jal	tp,78da8 <__global_pointer$+0x77420>
     f96:	6472                	flw	fs0,28(sp)
     f98:	6e69                	lui	t3,0x1a
     f9a:	74282067          	0x74282067
     f9e:	6164206f          	j	435b4 <__global_pointer$+0x41c2c>
     fa2:	6174                	flw	fa3,68(a0)
     fa4:	7220                	flw	fs0,96(a2)
     fa6:	6765                	lui	a4,0x19
     fa8:	7369                	lui	t1,0xffffa
     faa:	6574                	flw	fa3,76(a0)
     fac:	2972                	fld	fs2,280(sp)
     fae:	000a                	0xa
     fb0:	65542023          	sw	s5,1600(s0) # ffff9640 <__global_pointer$+0xffff7cb8>
     fb4:	70207473          	csrrci	s0,0x702,0
     fb8:	7261                	lui	tp,0xffff8
     fba:	2074                	fld	fa3,192(s0)
     fbc:	2045                	jal	105c <end_signature+0x32c>
     fbe:	2d20                	fld	fs0,88(a0)
     fc0:	4320                	lw	s0,64(a4)
     fc2:	6c706d6f          	jal	s10,7e88 <__global_pointer$+0x6500>
     fc6:	7465                	lui	s0,0xffff9
     fc8:	0a65                	addi	s4,s4,25
     fca:	2300                	fld	fs0,0(a4)
     fcc:	5420                	lw	s0,104(s0)
     fce:	7365                	lui	t1,0xffff9
     fd0:	2074                	fld	fa3,192(s0)
     fd2:	6170                	flw	fa2,68(a0)
     fd4:	7472                	flw	fs0,60(sp)
     fd6:	4520                	lw	s0,72(a0)
     fd8:	2031                	jal	fe4 <end_signature+0x2b4>
     fda:	202d                	jal	1004 <end_signature+0x2d4>
     fdc:	6574                	flw	fa3,76(a0)
     fde:	77207473          	csrrci	s0,0x772,0
     fe2:	7261                	lui	tp,0xffff8
     fe4:	6820                	flw	fs0,80(s0)
     fe6:	7a61                	lui	s4,0xffff8
     fe8:	7261                	lui	tp,0xffff8
     fea:	2064                	fld	fs1,192(s0)
     fec:	6428                	flw	fa0,72(s0)
     fee:	7461                	lui	s0,0xffff8
     ff0:	2061                	jal	1078 <end_signature+0x348>
     ff2:	6572                	flw	fa0,28(sp)
     ff4:	74736967          	0x74736967
     ff8:	7265                	lui	tp,0xffff9
     ffa:	0a29                	addi	s4,s4,10
     ffc:	2300                	fld	fs0,0(a4)
     ffe:	5420                	lw	s0,104(s0)
    1000:	7365                	lui	t1,0xffff9
    1002:	2074                	fld	fa3,192(s0)
    1004:	6170                	flw	fa2,68(a0)
    1006:	7472                	flw	fs0,60(sp)
    1008:	4120                	lw	s0,64(a0)
    100a:	2031                	jal	1016 <end_signature+0x2e6>
    100c:	2d20                	fld	fs0,88(a0)
    100e:	4320                	lw	s0,64(a4)
    1010:	6c706d6f          	jal	s10,7ed6 <__global_pointer$+0x654e>
    1014:	7465                	lui	s0,0xffff9
    1016:	0a65                	addi	s4,s4,25
    1018:	2300                	fld	fs0,0(a4)
    101a:	5420                	lw	s0,104(s0)
    101c:	7365                	lui	t1,0xffff9
    101e:	2074                	fld	fa3,192(s0)
    1020:	6170                	flw	fa2,68(a0)
    1022:	7472                	flw	fs0,60(sp)
    1024:	4520                	lw	s0,72(a0)
    1026:	2032                	fld	ft0,264(sp)
    1028:	202d                	jal	1052 <end_signature+0x322>
    102a:	6574                	flw	fa3,76(a0)
    102c:	77207473          	csrrci	s0,0x772,0
    1030:	7261                	lui	tp,0xffff8
    1032:	6820                	flw	fs0,80(s0)
    1034:	7a61                	lui	s4,0xffff8
    1036:	7261                	lui	tp,0xffff8
    1038:	2064                	fld	fs1,192(s0)
    103a:	6128                	flw	fa0,64(a0)
    103c:	6464                	flw	fs1,76(s0)
    103e:	6572                	flw	fa0,28(sp)
    1040:	72207373          	csrrci	t1,0x722,0
    1044:	6765                	lui	a4,0x19
    1046:	7369                	lui	t1,0xffffa
    1048:	6574                	flw	fa3,76(a0)
    104a:	2972                	fld	fs2,280(sp)
    104c:	000a                	0xa
    104e:	65542023          	sw	s5,1600(s0) # ffff9640 <__global_pointer$+0xffff7cb8>
    1052:	70207473          	csrrci	s0,0x702,0
    1056:	7261                	lui	tp,0xffff8
    1058:	2074                	fld	fa3,192(s0)
    105a:	3241                	jal	9da <STACK_SIZE+0x5da>
    105c:	2020                	fld	fs0,64(s0)
    105e:	202d                	jal	1088 <end_signature+0x358>
    1060:	706d6f43          	fmadd.s	ft10,fs10,ft6,fa4,unknown
    1064:	656c                	flw	fa1,76(a0)
    1066:	6574                	flw	fa3,76(a0)
    1068:	000a                	0xa
    106a:	65542023          	sw	s5,1600(s0)
    106e:	70207473          	csrrci	s0,0x702,0
    1072:	7261                	lui	tp,0xffff8
    1074:	2074                	fld	fa3,192(s0)
    1076:	2046                	fld	ft0,80(sp)
    1078:	202d                	jal	10a2 <end_signature+0x372>
    107a:	6574                	flw	fa3,76(a0)
    107c:	72207473          	csrrci	s0,0x722,0
    1080:	7761                	lui	a4,0xffff8
    1082:	6820                	flw	fs0,80(s0)
    1084:	7a61                	lui	s4,0xffff8
    1086:	7261                	lui	tp,0xffff8
    1088:	2064                	fld	fs1,192(s0)
    108a:	6e69                	lui	t3,0x1a
    108c:	6d20                	flw	fs0,88(a0)
    108e:	6d65                	lui	s10,0x19
    1090:	0a79726f          	jal	tp,98936 <__global_pointer$+0x96fae>
    1094:	2300                	fld	fs0,0(a4)
    1096:	5420                	lw	s0,104(s0)
    1098:	7365                	lui	t1,0xffff9
    109a:	2074                	fld	fa3,192(s0)
    109c:	6170                	flw	fa2,68(a0)
    109e:	7472                	flw	fs0,60(sp)
    10a0:	4120                	lw	s0,64(a0)
    10a2:	2d202033          	0x2d202033
    10a6:	4320                	lw	s0,64(a4)
    10a8:	6c706d6f          	jal	s10,7f6e <__global_pointer$+0x65e6>
    10ac:	7465                	lui	s0,0xffff9
    10ae:	0a65                	addi	s4,s4,25
    10b0:	2300                	fld	fs0,0(a4)
    10b2:	5420                	lw	s0,104(s0)
    10b4:	7365                	lui	t1,0xffff9
    10b6:	2074                	fld	fa3,192(s0)
    10b8:	6170                	flw	fa2,68(a0)
    10ba:	7472                	flw	fs0,60(sp)
    10bc:	4720                	lw	s0,72(a4)
    10be:	2d20                	fld	fs0,88(a0)
    10c0:	7420                	flw	fs0,104(s0)
    10c2:	7365                	lui	t1,0xffff9
    10c4:	2074                	fld	fa3,192(s0)
    10c6:	20776177          	0x20776177
    10ca:	6168                	flw	fa0,68(a0)
    10cc:	617a                	flw	ft2,156(sp)
    10ce:	6472                	flw	fs0,28(sp)
    10d0:	6920                	flw	fs0,80(a0)
    10d2:	206e                	fld	ft0,216(sp)
    10d4:	656d                	lui	a0,0x1b
    10d6:	6f6d                	lui	t5,0x1b
    10d8:	7972                	flw	fs2,60(sp)
    10da:	000a                	0xa
    10dc:	65542023          	sw	s5,1600(s0) # ffff9640 <__global_pointer$+0xffff7cb8>
    10e0:	70207473          	csrrci	s0,0x702,0
    10e4:	7261                	lui	tp,0xffff8
    10e6:	2074                	fld	fa3,192(s0)
    10e8:	3441                	jal	b68 <STACK_SIZE+0x768>
    10ea:	2020                	fld	fs0,64(s0)
    10ec:	202d                	jal	1116 <end_signature+0x3e6>
    10ee:	706d6f43          	fmadd.s	ft10,fs10,ft6,fa4,unknown
    10f2:	656c                	flw	fa1,76(a0)
    10f4:	6574                	flw	fa3,76(a0)
    10f6:	000a                	0xa
    10f8:	6554                	flw	fa3,12(a0)
    10fa:	45207473          	csrrci	s0,0x452,0
    10fe:	646e                	flw	fs0,216(sp)
    1100:	000a                	0xa
	...

Дизассемблирование раздела .tohost:

00001140 <tohost>:
	...

00001180 <fromhost>:
	...

Дизассемблирование раздела .sdata:

00001188 <__global_pointer$-0x800>:
	...

Дизассемблирование раздела .stack:

0000fc00 <.stack>:
	...
