
/home/oleg/scr1/build/verilator_wf_AHB_IMC/compliance_ma_fetch.elf:     формат файла elf32-littleriscv
/home/oleg/scr1/build/verilator_wf_AHB_IMC/compliance_ma_fetch.elf
архитектура: riscv:rv32, флаги 0x00000112:
EXEC_P, HAS_SYMS, D_PAGED
начальный адрес 0x00000200

Заголовок программы:
    LOAD off    0x00001000 vaddr 0x00000000 paddr 0x00000000 align 2**12
         filesz 0x00000608 memsz 0x00000620 flags rwx
    LOAD off    0x00001c00 vaddr 0x0000fc00 paddr 0x0000fc00 align 2**12
         filesz 0x00000000 memsz 0x00000400 flags rw-

Разделы:
Idx Name          Size      VMA       LMA       File off  Algn  Флаги
  0 .text.init    000002c4  00000000  00000000  00001000  2**6  CONTENTS, ALLOC, LOAD, READONLY, CODE
  1 .text         00000220  000002e0  000002e0  000012e0  2**5  CONTENTS, ALLOC, LOAD, READONLY, CODE
  2 .data         000000c0  00000500  00000500  00001500  2**4  CONTENTS, ALLOC, LOAD, DATA
  3 .tohost       00000048  000005c0  000005c0  000015c0  2**6  CONTENTS, ALLOC, LOAD, DATA
  4 .sdata        00000018  00000608  00000608  00001608  2**0  ALLOC
  5 .tdata        00000000  00000620  00000620  00001608  2**0  CONTENTS, ALLOC, LOAD, DATA, THREAD_LOCAL
  6 .tbss         00000000  00000620  00000620  00000000  2**0  ALLOC, THREAD_LOCAL
  7 .bss          00000000  00000620  00000620  00001608  2**0  ALLOC
  8 .stack        00000400  0000fc00  0000fc00  00001c00  2**0  ALLOC
SYMBOL TABLE:
00000000 l    d  .text.init	00000000 .text.init
000002e0 l    d  .text	00000000 .text
00000500 l    d  .data	00000000 .data
000005c0 l    d  .tohost	00000000 .tohost
00000608 l    d  .sdata	00000000 .sdata
00000620 l    d  .tdata	00000000 .tdata
00000620 l    d  .tbss	00000000 .tbss
00000620 l    d  .bss	00000000 .bss
0000fc00 l    d  .stack	00000000 .stack
00000000 l    df *ABS*	00000000 /home/oleg/scr1/build/verilator_wf_AHB_IMC/riscv_compliance/riscv_compliance_objs/ma_fetch.o
000004c0 l       .text	00000000 sc_exit
000001c0 l       .text.init	00000000 trap_vector
000001fc l       .text.init	00000000 _report
000001f8 l       .text.init	00000000 handle_exception
000001f8 l       .text.init	00000000 other_exception
000002e0 l       .text	00000000 _run_test
00000520 l       .data	00000000 test_res
00000434 l       .text	00000000 fail
00000444 l       .text	00000000 pass
000004b0 l       .text	00000000 ecall
00000400 g       *ABS*	00000000 STACK_SIZE
00000e08 g       .sdata	00000000 __global_pointer$
000005c0 g       .data	00000000 end_signature
00000500 g       .data	00000000 begin_regstate
00000520 g       .data	00000000 begin_signature
00000200 g       .text.init	00000000 _start
00000020 g       *ABS*	00000000 CL_SIZE
000000f8 g       .text.init	00000000 SIM_STOP
00000454  w      .text	00000000 mtvec_handler
00000620 g       .bss	00000000 _end
00000600 g       .tohost	00000000 fromhost
000005c0 g       .tohost	00000000 tohost
000000f4 g       .text.init	00000000 SIM_EXIT



Дизассемблирование раздела .text.init:

00000000 <SIM_EXIT-0xf4>:
	...

000000f4 <SIM_EXIT>:
  f4:	00000013          	nop

000000f8 <SIM_STOP>:
  f8:	0000006f          	j	f8 <SIM_STOP>
  fc:	ffff                	0xffff
  fe:	ffff                	0xffff
	...

000001c0 <trap_vector>:
 1c0:	34202773          	csrr	a4,mcause
 1c4:	00800793          	li	a5,8
 1c8:	02f70a63          	beq	a4,a5,1fc <_report>
 1cc:	00900793          	li	a5,9
 1d0:	02f70663          	beq	a4,a5,1fc <_report>
 1d4:	00b00793          	li	a5,11
 1d8:	02f70263          	beq	a4,a5,1fc <_report>
 1dc:	00000717          	auipc	a4,0x0
 1e0:	27870713          	addi	a4,a4,632 # 454 <mtvec_handler>
 1e4:	00070463          	beqz	a4,1ec <trap_vector+0x2c>
 1e8:	00070067          	jr	a4
 1ec:	34202773          	csrr	a4,mcause
 1f0:	00075463          	bgez	a4,1f8 <handle_exception>
 1f4:	0040006f          	j	1f8 <handle_exception>

000001f8 <handle_exception>:
 1f8:	00100513          	li	a0,1

000001fc <_report>:
 1fc:	2c40006f          	j	4c0 <sc_exit>

00000200 <_start>:
 200:	f1402573          	csrr	a0,mhartid
 204:	00051063          	bnez	a0,204 <_start+0x4>
 208:	00000193          	li	gp,0
 20c:	00000297          	auipc	t0,0x0
 210:	fb428293          	addi	t0,t0,-76 # 1c0 <trap_vector>
 214:	30529073          	csrw	mtvec,t0
 218:	00100513          	li	a0,1
 21c:	01f51513          	slli	a0,a0,0x1f
 220:	00054a63          	bltz	a0,234 <_start+0x34>
 224:	0ff0000f          	fence
 228:	00018593          	mv	a1,gp
 22c:	00000513          	li	a0,0
 230:	00000073          	ecall
 234:	01f55513          	srli	a0,a0,0x1f
 238:	00000297          	auipc	t0,0x0
 23c:	2e828293          	addi	t0,t0,744 # 520 <begin_signature>
 240:	00a2a023          	sw	a0,0(t0)
 244:	00000297          	auipc	t0,0x0
 248:	dbc28293          	addi	t0,t0,-580 # 0 <CL_SIZE-0x20>
 24c:	00028e63          	beqz	t0,268 <_start+0x68>
 250:	10529073          	csrw	stvec,t0
 254:	0000b2b7          	lui	t0,0xb
 258:	10928293          	addi	t0,t0,265 # b109 <__global_pointer$+0xa301>
 25c:	30229073          	csrw	medeleg,t0
 260:	30202373          	csrr	t1,medeleg
 264:	f8629ae3          	bne	t0,t1,1f8 <handle_exception>
 268:	30005073          	csrwi	mstatus,0
 26c:	00002537          	lui	a0,0x2
 270:	80050513          	addi	a0,a0,-2048 # 1800 <__global_pointer$+0x9f8>
 274:	30052073          	csrs	mstatus,a0
 278:	00000297          	auipc	t0,0x0
 27c:	06828293          	addi	t0,t0,104 # 2e0 <_run_test>
 280:	34129073          	csrw	mepc,t0
 284:	f1402573          	csrr	a0,mhartid
 288:	30200073          	mret
	...

Дизассемблирование раздела .text:

000002e0 <_run_test>:
 2e0:	00200193          	li	gp,2
 2e4:	00000e17          	auipc	t3,0x0
 2e8:	23ce0e13          	addi	t3,t3,572 # 520 <begin_signature>
 2ec:	003e2423          	sw	gp,8(t3)
 2f0:	00000313          	li	t1,0
 2f4:	00000297          	auipc	t0,0x0
 2f8:	00c28293          	addi	t0,t0,12 # 300 <_run_test+0x20>
 2fc:	00228367          	jalr	t1,2(t0)
 300:	a011                	j	304 <_run_test+0x24>
 302:	a019                	j	308 <_run_test+0x28>
 304:	1300006f          	j	434 <fail>
 308:	00300193          	li	gp,3
 30c:	00000e17          	auipc	t3,0x0
 310:	214e0e13          	addi	t3,t3,532 # 520 <begin_signature>
 314:	003e2623          	sw	gp,12(t3)
 318:	00000297          	auipc	t0,0x0
 31c:	00c28293          	addi	t0,t0,12 # 324 <_run_test+0x44>
 320:	00128367          	jalr	t1,1(t0)
 324:	0080006f          	j	32c <_run_test+0x4c>
 328:	10c0006f          	j	434 <fail>
 32c:	00400193          	li	gp,4
 330:	00000e17          	auipc	t3,0x0
 334:	1f0e0e13          	addi	t3,t3,496 # 520 <begin_signature>
 338:	003e2823          	sw	gp,16(t3)
 33c:	00000313          	li	t1,0
 340:	00000297          	auipc	t0,0x0
 344:	00c28293          	addi	t0,t0,12 # 34c <_run_test+0x6c>
 348:	00328367          	jalr	t1,3(t0)
 34c:	a011                	j	350 <_run_test+0x70>
 34e:	a019                	j	354 <_run_test+0x74>
 350:	0e40006f          	j	434 <fail>
 354:	00500193          	li	gp,5
 358:	00000e17          	auipc	t3,0x0
 35c:	1c8e0e13          	addi	t3,t3,456 # 520 <begin_signature>
 360:	003e2a23          	sw	gp,20(t3)
 364:	00000313          	li	t1,0
 368:	00000297          	auipc	t0,0x0
 36c:	00c28293          	addi	t0,t0,12 # 374 <_run_test+0x94>
 370:	0060036f          	jal	t1,376 <_run_test+0x96>
 374:	a011                	j	378 <_run_test+0x98>
 376:	a019                	j	37c <_run_test+0x9c>
 378:	0bc0006f          	j	434 <fail>
 37c:	00600193          	li	gp,6
 380:	00000e17          	auipc	t3,0x0
 384:	1a0e0e13          	addi	t3,t3,416 # 520 <begin_signature>
 388:	003e2c23          	sw	gp,24(t3)
 38c:	00000313          	li	t1,0
 390:	00000297          	auipc	t0,0x0
 394:	00c28293          	addi	t0,t0,12 # 39c <_run_test+0xbc>
 398:	00000363          	beqz	zero,39e <_run_test+0xbe>
 39c:	a011                	j	3a0 <_run_test+0xc0>
 39e:	a019                	j	3a4 <_run_test+0xc4>
 3a0:	0940006f          	j	434 <fail>
 3a4:	00700193          	li	gp,7
 3a8:	00000e17          	auipc	t3,0x0
 3ac:	178e0e13          	addi	t3,t3,376 # 520 <begin_signature>
 3b0:	003e2e23          	sw	gp,28(t3)
 3b4:	00001563          	bnez	zero,3be <_run_test+0xde>
 3b8:	00c0006f          	j	3c4 <_run_test+0xe4>
 3bc:	a009                	j	3be <_run_test+0xde>
 3be:	a009                	j	3c0 <_run_test+0xe0>
 3c0:	0740006f          	j	434 <fail>
 3c4:	00800193          	li	gp,8
 3c8:	00000e17          	auipc	t3,0x0
 3cc:	158e0e13          	addi	t3,t3,344 # 520 <begin_signature>
 3d0:	023e2023          	sw	gp,32(t3)
 3d4:	301023f3          	csrr	t2,misa
 3d8:	0043f393          	andi	t2,t2,4
 3dc:	04038863          	beqz	t2,42c <STACK_SIZE+0x2c>
 3e0:	0001                	nop
 3e2:	30127073          	csrci	misa,4
 3e6:	0001                	nop
 3e8:	301023f3          	csrr	t2,misa
 3ec:	0043f393          	andi	t2,t2,4
 3f0:	04038263          	beqz	t2,434 <fail>
 3f4:	00000297          	auipc	t0,0x0
 3f8:	03428293          	addi	t0,t0,52 # 428 <STACK_SIZE+0x28>
 3fc:	ffe28293          	addi	t0,t0,-2
 400:	34129073          	csrw	mepc,t0
 404:	30127073          	csrci	misa,4
 408:	301023f3          	csrr	t2,misa
 40c:	0043f393          	andi	t2,t2,4
 410:	00039e63          	bnez	t2,42c <STACK_SIZE+0x2c>
 414:	000023b7          	lui	t2,0x2
 418:	80038393          	addi	t2,t2,-2048 # 1800 <__global_pointer$+0x9f8>
 41c:	3003a073          	csrs	mstatus,t2
 420:	30200073          	mret
 424:	00000263          	beqz	zero,428 <STACK_SIZE+0x28>
 428:	30126073          	csrsi	misa,4
 42c:	0180006f          	j	444 <pass>
 430:	00301a63          	bne	zero,gp,444 <pass>

00000434 <fail>:
 434:	0ff0000f          	fence
 438:	00018593          	mv	a1,gp
 43c:	00100513          	li	a0,1
 440:	00000073          	ecall

00000444 <pass>:
 444:	0ff0000f          	fence
 448:	00018593          	mv	a1,gp
 44c:	00000513          	li	a0,0
 450:	00000073          	ecall

00000454 <mtvec_handler>:
 454:	00200513          	li	a0,2
 458:	02a18063          	beq	gp,a0,478 <mtvec_handler+0x24>
 45c:	00400513          	li	a0,4
 460:	00a18c63          	beq	gp,a0,478 <mtvec_handler+0x24>
 464:	00500513          	li	a0,5
 468:	00a18863          	beq	gp,a0,478 <mtvec_handler+0x24>
 46c:	00600513          	li	a0,6
 470:	00a18463          	beq	gp,a0,478 <mtvec_handler+0x24>
 474:	fc1ff06f          	j	434 <fail>
 478:	fa031ee3          	bnez	t1,434 <fail>
 47c:	00000593          	li	a1,0
 480:	34202573          	csrr	a0,mcause
 484:	fab518e3          	bne	a0,a1,434 <fail>
 488:	341025f3          	csrr	a1,mepc
 48c:	00458593          	addi	a1,a1,4
 490:	fab292e3          	bne	t0,a1,434 <fail>
 494:	34302573          	csrr	a0,mbadaddr
 498:	00050663          	beqz	a0,4a4 <mtvec_handler+0x50>
 49c:	ffe50513          	addi	a0,a0,-2
 4a0:	f8551ae3          	bne	a0,t0,434 <fail>
 4a4:	00858593          	addi	a1,a1,8
 4a8:	34159073          	csrw	mepc,a1
 4ac:	30200073          	mret

000004b0 <ecall>:
 4b0:	00000073          	ecall
	...

000004c0 <sc_exit>:
 4c0:	c35ff06f          	j	f4 <SIM_EXIT>
 4c4:	00000013          	nop
 4c8:	00000013          	nop
 4cc:	00000013          	nop
 4d0:	00000013          	nop
 4d4:	00000013          	nop
 4d8:	00000013          	nop
 4dc:	00000013          	nop
	...

Дизассемблирование раздела .data:

00000500 <begin_regstate>:
	...

00000520 <begin_signature>:
 520:	ffff                	0xffff
 522:	ffff                	0xffff
 524:	ffff                	0xffff
 526:	ffff                	0xffff
 528:	ffff                	0xffff
 52a:	ffff                	0xffff
 52c:	ffff                	0xffff
 52e:	ffff                	0xffff
 530:	ffff                	0xffff
 532:	ffff                	0xffff
 534:	ffff                	0xffff
 536:	ffff                	0xffff
 538:	ffff                	0xffff
 53a:	ffff                	0xffff
 53c:	ffff                	0xffff
 53e:	ffff                	0xffff
 540:	ffff                	0xffff
 542:	ffff                	0xffff
 544:	ffff                	0xffff
 546:	ffff                	0xffff
 548:	ffff                	0xffff
 54a:	ffff                	0xffff
 54c:	ffff                	0xffff
 54e:	ffff                	0xffff
 550:	ffff                	0xffff
 552:	ffff                	0xffff
 554:	ffff                	0xffff
 556:	ffff                	0xffff
 558:	ffff                	0xffff
 55a:	ffff                	0xffff
 55c:	ffff                	0xffff
 55e:	ffff                	0xffff
 560:	ffff                	0xffff
 562:	ffff                	0xffff
 564:	ffff                	0xffff
 566:	ffff                	0xffff
 568:	ffff                	0xffff
 56a:	ffff                	0xffff
 56c:	ffff                	0xffff
 56e:	ffff                	0xffff
 570:	ffff                	0xffff
 572:	ffff                	0xffff
 574:	ffff                	0xffff
 576:	ffff                	0xffff
 578:	ffff                	0xffff
 57a:	ffff                	0xffff
 57c:	ffff                	0xffff
 57e:	ffff                	0xffff
 580:	ffff                	0xffff
 582:	ffff                	0xffff
 584:	ffff                	0xffff
 586:	ffff                	0xffff
 588:	ffff                	0xffff
 58a:	ffff                	0xffff
 58c:	ffff                	0xffff
 58e:	ffff                	0xffff
 590:	ffff                	0xffff
 592:	ffff                	0xffff
 594:	ffff                	0xffff
 596:	ffff                	0xffff
 598:	ffff                	0xffff
 59a:	ffff                	0xffff
 59c:	ffff                	0xffff
 59e:	ffff                	0xffff
 5a0:	ffff                	0xffff
 5a2:	ffff                	0xffff
 5a4:	ffff                	0xffff
 5a6:	ffff                	0xffff
 5a8:	ffff                	0xffff
 5aa:	ffff                	0xffff
 5ac:	ffff                	0xffff
 5ae:	ffff                	0xffff
 5b0:	ffff                	0xffff
 5b2:	ffff                	0xffff
 5b4:	ffff                	0xffff
 5b6:	ffff                	0xffff
 5b8:	ffff                	0xffff
 5ba:	ffff                	0xffff
 5bc:	ffff                	0xffff
 5be:	ffff                	0xffff

Дизассемблирование раздела .tohost:

000005c0 <tohost>:
	...

00000600 <fromhost>:
	...

Дизассемблирование раздела .sdata:

00000608 <__global_pointer$-0x800>:
	...

Дизассемблирование раздела .stack:

0000fc00 <.stack>:
	...
