
/home/oleg/scr1/build/verilator_wf_AHB_IMC/coremark.elf:     формат файла elf32-littleriscv


Дизассемблирование раздела .text.init:

00000000 <SIM_EXIT-0xf4>:
	...

000000f4 <SIM_EXIT>:
  f4:	00000013          	nop

000000f8 <SIM_STOP>:
  f8:	0000006f          	j	f8 <SIM_STOP>
  fc:	ffff                	0xffff
  fe:	ffff                	0xffff

Дизассемблирование раздела .text:

00000100 <machine_trap_entry-0xc0>:
	...

000001c0 <machine_trap_entry>:
     1c0:	0a40006f          	j	264 <trap_entry>
     1c4:	00000013          	nop
     1c8:	00000013          	nop
     1cc:	00000013          	nop
     1d0:	00000013          	nop
     1d4:	00000013          	nop
     1d8:	00000013          	nop
     1dc:	00000013          	nop
     1e0:	00000013          	nop
     1e4:	00000013          	nop
     1e8:	00000013          	nop
     1ec:	00000013          	nop
     1f0:	00000013          	nop
     1f4:	00000013          	nop
     1f8:	00000013          	nop
     1fc:	00000013          	nop

00000200 <_start>:
     200:	00006197          	auipc	gp,0x6
     204:	42018193          	addi	gp,gp,1056 # 6620 <__global_pointer$>
     208:	00006597          	auipc	a1,0x6
     20c:	c3858593          	addi	a1,a1,-968 # 5e40 <__BSS_START__>
     210:	00006617          	auipc	a2,0x6
     214:	43060613          	addi	a2,a2,1072 # 6640 <__BSS_END__>
     218:	a021                	j	220 <_start+0x20>
     21a:	0005a023          	sw	zero,0(a1)
     21e:	0591                	addi	a1,a1,4
     220:	fec59de3          	bne	a1,a2,21a <_start+0x1a>
     224:	00010117          	auipc	sp,0x10
     228:	ddc10113          	addi	sp,sp,-548 # 10000 <__C_STACK_TOP__>
     22c:	004902b7          	lui	t0,0x490
     230:	4305                	li	t1,1
     232:	0062a023          	sw	t1,0(t0) # 490000 <__C_STACK_TOP__+0x480000>
     236:	004902b7          	lui	t0,0x490
     23a:	00428293          	addi	t0,t0,4 # 490004 <__C_STACK_TOP__+0x480004>
     23e:	06300313          	li	t1,99
     242:	0062a023          	sw	t1,0(t0)
     246:	004902b7          	lui	t0,0x490
     24a:	01028293          	addi	t0,t0,16 # 490010 <__C_STACK_TOP__+0x480010>
     24e:	537d                	li	t1,-1
     250:	0062a023          	sw	t1,0(t0)
     254:	0062a223          	sw	t1,4(t0)
     258:	4501                	li	a0,0
     25a:	4581                	li	a1,0
     25c:	74a030ef          	jal	ra,39a6 <main>
     260:	0960006f          	j	2f6 <handle_trap>

00000264 <trap_entry>:
     264:	716d                	addi	sp,sp,-272
     266:	c206                	sw	ra,4(sp)
     268:	c40a                	sw	sp,8(sp)
     26a:	c60e                	sw	gp,12(sp)
     26c:	c812                	sw	tp,16(sp)
     26e:	ca16                	sw	t0,20(sp)
     270:	cc1a                	sw	t1,24(sp)
     272:	ce1e                	sw	t2,28(sp)
     274:	d022                	sw	s0,32(sp)
     276:	d226                	sw	s1,36(sp)
     278:	d42a                	sw	a0,40(sp)
     27a:	d62e                	sw	a1,44(sp)
     27c:	d832                	sw	a2,48(sp)
     27e:	da36                	sw	a3,52(sp)
     280:	dc3a                	sw	a4,56(sp)
     282:	de3e                	sw	a5,60(sp)
     284:	c0c2                	sw	a6,64(sp)
     286:	c2c6                	sw	a7,68(sp)
     288:	c4ca                	sw	s2,72(sp)
     28a:	c6ce                	sw	s3,76(sp)
     28c:	c8d2                	sw	s4,80(sp)
     28e:	cad6                	sw	s5,84(sp)
     290:	ccda                	sw	s6,88(sp)
     292:	cede                	sw	s7,92(sp)
     294:	d0e2                	sw	s8,96(sp)
     296:	d2e6                	sw	s9,100(sp)
     298:	d4ea                	sw	s10,104(sp)
     29a:	d6ee                	sw	s11,108(sp)
     29c:	d8f2                	sw	t3,112(sp)
     29e:	daf6                	sw	t4,116(sp)
     2a0:	dcfa                	sw	t5,120(sp)
     2a2:	defe                	sw	t6,124(sp)
     2a4:	34202573          	csrr	a0,mcause
     2a8:	341025f3          	csrr	a1,mepc
     2ac:	860a                	mv	a2,sp
     2ae:	048000ef          	jal	ra,2f6 <handle_trap>
     2b2:	4092                	lw	ra,4(sp)
     2b4:	4122                	lw	sp,8(sp)
     2b6:	41b2                	lw	gp,12(sp)
     2b8:	4242                	lw	tp,16(sp)
     2ba:	42d2                	lw	t0,20(sp)
     2bc:	4362                	lw	t1,24(sp)
     2be:	43f2                	lw	t2,28(sp)
     2c0:	5402                	lw	s0,32(sp)
     2c2:	5492                	lw	s1,36(sp)
     2c4:	5522                	lw	a0,40(sp)
     2c6:	55b2                	lw	a1,44(sp)
     2c8:	5642                	lw	a2,48(sp)
     2ca:	56d2                	lw	a3,52(sp)
     2cc:	5762                	lw	a4,56(sp)
     2ce:	57f2                	lw	a5,60(sp)
     2d0:	4806                	lw	a6,64(sp)
     2d2:	4896                	lw	a7,68(sp)
     2d4:	4926                	lw	s2,72(sp)
     2d6:	49b6                	lw	s3,76(sp)
     2d8:	4a46                	lw	s4,80(sp)
     2da:	4ad6                	lw	s5,84(sp)
     2dc:	4b66                	lw	s6,88(sp)
     2de:	4bf6                	lw	s7,92(sp)
     2e0:	5c06                	lw	s8,96(sp)
     2e2:	5c96                	lw	s9,100(sp)
     2e4:	5d26                	lw	s10,104(sp)
     2e6:	5db6                	lw	s11,108(sp)
     2e8:	5e46                	lw	t3,112(sp)
     2ea:	5ed6                	lw	t4,116(sp)
     2ec:	5f66                	lw	t5,120(sp)
     2ee:	5ff6                	lw	t6,124(sp)
     2f0:	6151                	addi	sp,sp,272
     2f2:	30200073          	mret

000002f6 <handle_trap>:
     2f6:	dffff06f          	j	f4 <SIM_EXIT>
     2fa:	0000                	unimp
     2fc:	0000                	unimp
	...

00000300 <barebones_clock>:
     300:	c0102573          	rdtime	a0
     304:	8082                	ret

00000306 <start_time>:
     306:	c01027f3          	rdtime	a5
     30a:	82f1a223          	sw	a5,-2012(gp) # 5e44 <start_time_val>
     30e:	8082                	ret

00000310 <stop_time>:
     310:	c01027f3          	rdtime	a5
     314:	6719                	lui	a4,0x6
     316:	e4f72023          	sw	a5,-448(a4) # 5e40 <__BSS_START__>
     31a:	8082                	ret

0000031c <get_time>:
     31c:	6799                	lui	a5,0x6
     31e:	e407a503          	lw	a0,-448(a5) # 5e40 <__BSS_START__>
     322:	8241a303          	lw	t1,-2012(gp) # 5e44 <start_time_val>
     326:	40650533          	sub	a0,a0,t1
     32a:	8082                	ret

0000032c <time_in_secs>:
     32c:	009897b7          	lui	a5,0x989
     330:	68078293          	addi	t0,a5,1664 # 989680 <__C_STACK_TOP__+0x979680>
     334:	02555533          	divu	a0,a0,t0
     338:	8082                	ret

0000033a <portable_init>:
     33a:	1141                	addi	sp,sp,-16
     33c:	c422                	sw	s0,8(sp)
     33e:	842a                	mv	s0,a0
     340:	00005537          	lui	a0,0x5
     344:	62050513          	addi	a0,a0,1568 # 5620 <__umoddi3+0x414>
     348:	c606                	sw	ra,12(sp)
     34a:	13f000ef          	jal	ra,c88 <sc_printf>
     34e:	4785                	li	a5,1
     350:	00f40023          	sb	a5,0(s0)
     354:	40b2                	lw	ra,12(sp)
     356:	4422                	lw	s0,8(sp)
     358:	0141                	addi	sp,sp,16
     35a:	8082                	ret

0000035c <portable_fini>:
     35c:	1141                	addi	sp,sp,-16
     35e:	c606                	sw	ra,12(sp)
     360:	00050023          	sb	zero,0(a0)
     364:	4701                	li	a4,0
     366:	4681                	li	a3,0
     368:	4601                	li	a2,0
     36a:	4581                	li	a1,0
     36c:	4501                	li	a0,0
     36e:	3761                	jal	2f6 <handle_trap>

00000370 <printf_putch>:
     370:	04022803          	lw	a6,64(tp) # 40 <buflen.1776>
     374:	00020293          	mv	t0,tp
     378:	00180713          	addi	a4,a6,1
     37c:	01028333          	add	t1,t0,a6
     380:	04e22023          	sw	a4,64(tp) # 40 <buflen.1776>
     384:	00a30023          	sb	a0,0(t1)
     388:	43a9                	li	t2,10
     38a:	00750763          	beq	a0,t2,398 <printf_putch+0x28>
     38e:	04000513          	li	a0,64
     392:	00a70563          	beq	a4,a0,39c <printf_putch+0x2c>
     396:	8082                	ret
     398:	0ce05c63          	blez	a4,470 <STACK_SIZE+0x70>
     39c:	00777e13          	andi	t3,a4,7
     3a0:	00020793          	mv	a5,tp
     3a4:	f0000eb7          	lui	t4,0xf0000
     3a8:	fff70f13          	addi	t5,a4,-1
     3ac:	060e0f63          	beqz	t3,42a <STACK_SIZE+0x2a>
     3b0:	4f85                	li	t6,1
     3b2:	07fe0563          	beq	t3,t6,41c <STACK_SIZE+0x1c>
     3b6:	4589                	li	a1,2
     3b8:	04be0c63          	beq	t3,a1,410 <STACK_SIZE+0x10>
     3bc:	480d                	li	a6,3
     3be:	050e0363          	beq	t3,a6,404 <STACK_SIZE+0x4>
     3c2:	4691                	li	a3,4
     3c4:	02de0a63          	beq	t3,a3,3f8 <printf_putch+0x88>
     3c8:	4295                	li	t0,5
     3ca:	025e0163          	beq	t3,t0,3ec <printf_putch+0x7c>
     3ce:	4319                	li	t1,6
     3d0:	006e0863          	beq	t3,t1,3e0 <printf_putch+0x70>
     3d4:	0007c383          	lbu	t2,0(a5)
     3d8:	877a                	mv	a4,t5
     3da:	0785                	addi	a5,a5,1
     3dc:	007e8023          	sb	t2,0(t4) # f0000000 <__C_STACK_TOP__+0xefff0000>
     3e0:	0007c503          	lbu	a0,0(a5)
     3e4:	177d                	addi	a4,a4,-1
     3e6:	0785                	addi	a5,a5,1
     3e8:	00ae8023          	sb	a0,0(t4)
     3ec:	0007c883          	lbu	a7,0(a5)
     3f0:	177d                	addi	a4,a4,-1
     3f2:	0785                	addi	a5,a5,1
     3f4:	011e8023          	sb	a7,0(t4)
     3f8:	0007ce03          	lbu	t3,0(a5)
     3fc:	177d                	addi	a4,a4,-1
     3fe:	0785                	addi	a5,a5,1
     400:	01ce8023          	sb	t3,0(t4)
     404:	0007cf03          	lbu	t5,0(a5)
     408:	177d                	addi	a4,a4,-1
     40a:	0785                	addi	a5,a5,1
     40c:	01ee8023          	sb	t5,0(t4)
     410:	0007cf83          	lbu	t6,0(a5)
     414:	177d                	addi	a4,a4,-1
     416:	0785                	addi	a5,a5,1
     418:	01fe8023          	sb	t6,0(t4)
     41c:	0785                	addi	a5,a5,1
     41e:	fff7c583          	lbu	a1,-1(a5)
     422:	177d                	addi	a4,a4,-1
     424:	00be8023          	sb	a1,0(t4)
     428:	c721                	beqz	a4,470 <STACK_SIZE+0x70>
     42a:	0007c803          	lbu	a6,0(a5)
     42e:	07a1                	addi	a5,a5,8
     430:	1761                	addi	a4,a4,-8
     432:	010e8023          	sb	a6,0(t4)
     436:	ff97c683          	lbu	a3,-7(a5)
     43a:	00de8023          	sb	a3,0(t4)
     43e:	ffa7c283          	lbu	t0,-6(a5)
     442:	005e8023          	sb	t0,0(t4)
     446:	ffb7c303          	lbu	t1,-5(a5)
     44a:	006e8023          	sb	t1,0(t4)
     44e:	ffc7c383          	lbu	t2,-4(a5)
     452:	007e8023          	sb	t2,0(t4)
     456:	ffd7c503          	lbu	a0,-3(a5)
     45a:	00ae8023          	sb	a0,0(t4)
     45e:	ffe7c883          	lbu	a7,-2(a5)
     462:	011e8023          	sb	a7,0(t4)
     466:	fff7ce03          	lbu	t3,-1(a5)
     46a:	01ce8023          	sb	t3,0(t4)
     46e:	ff55                	bnez	a4,42a <STACK_SIZE+0x2a>
     470:	04022023          	sw	zero,64(tp) # 40 <buflen.1776>
     474:	8082                	ret

00000476 <vprintfmt.constprop.0>:
     476:	714d                	addi	sp,sp,-336
     478:	13712623          	sw	s7,300(sp)
     47c:	13912223          	sw	s9,292(sp)
     480:	6b99                	lui	s7,0x6
     482:	40000cb7          	lui	s9,0x40000
     486:	14112623          	sw	ra,332(sp)
     48a:	06100793          	li	a5,97
     48e:	b24b8093          	addi	ra,s7,-1244 # 5b24 <__umoddi3+0x918>
     492:	fffc8293          	addi	t0,s9,-1 # 3fffffff <__C_STACK_TOP__+0x3ffeffff>
     496:	14812423          	sw	s0,328(sp)
     49a:	13512a23          	sw	s5,308(sp)
     49e:	13812423          	sw	s8,296(sp)
     4a2:	14912223          	sw	s1,324(sp)
     4a6:	15212023          	sw	s2,320(sp)
     4aa:	13312e23          	sw	s3,316(sp)
     4ae:	13412c23          	sw	s4,312(sp)
     4b2:	13612823          	sw	s6,304(sp)
     4b6:	13a12023          	sw	s10,288(sp)
     4ba:	11b12e23          	sw	s11,284(sp)
     4be:	842a                	mv	s0,a0
     4c0:	8c2e                	mv	s8,a1
     4c2:	c43e                	sw	a5,8(sp)
     4c4:	02500a93          	li	s5,37
     4c8:	c206                	sw	ra,4(sp)
     4ca:	c616                	sw	t0,12(sp)
     4cc:	00044503          	lbu	a0,0(s0)
     4d0:	01550a63          	beq	a0,s5,4e4 <vprintfmt.constprop.0+0x6e>
     4d4:	c529                	beqz	a0,51e <vprintfmt.constprop.0+0xa8>
     4d6:	4581                	li	a1,0
     4d8:	0405                	addi	s0,s0,1
     4da:	3d59                	jal	370 <printf_putch>
     4dc:	00044503          	lbu	a0,0(s0)
     4e0:	ff551ae3          	bne	a0,s5,4d4 <vprintfmt.constprop.0+0x5e>
     4e4:	00144683          	lbu	a3,1(s0)
     4e8:	00140493          	addi	s1,s0,1
     4ec:	8726                	mv	a4,s1
     4ee:	02000a13          	li	s4,32
     4f2:	5dfd                	li	s11,-1
     4f4:	59fd                	li	s3,-1
     4f6:	4501                	li	a0,0
     4f8:	05500593          	li	a1,85
     4fc:	4825                	li	a6,9
     4fe:	fdd68313          	addi	t1,a3,-35
     502:	0ff37393          	andi	t2,t1,255
     506:	00170413          	addi	s0,a4,1
     50a:	5675e163          	bltu	a1,t2,a6c <vprintfmt.constprop.0+0x5f6>
     50e:	4612                	lw	a2,4(sp)
     510:	00239893          	slli	a7,t2,0x2
     514:	00c88b33          	add	s6,a7,a2
     518:	000b2d03          	lw	s10,0(s6)
     51c:	8d02                	jr	s10
     51e:	14c12083          	lw	ra,332(sp)
     522:	14812403          	lw	s0,328(sp)
     526:	14412483          	lw	s1,324(sp)
     52a:	14012903          	lw	s2,320(sp)
     52e:	13c12983          	lw	s3,316(sp)
     532:	13812a03          	lw	s4,312(sp)
     536:	13412a83          	lw	s5,308(sp)
     53a:	13012b03          	lw	s6,304(sp)
     53e:	12c12b83          	lw	s7,300(sp)
     542:	12812c03          	lw	s8,296(sp)
     546:	12412c83          	lw	s9,292(sp)
     54a:	12012d03          	lw	s10,288(sp)
     54e:	11c12d83          	lw	s11,284(sp)
     552:	6171                	addi	sp,sp,336
     554:	8082                	ret
     556:	06100493          	li	s1,97
     55a:	4941                	li	s2,16
     55c:	4b01                	li	s6,0
     55e:	c426                	sw	s1,8(sp)
     560:	4f05                	li	t5,1
     562:	50af5b63          	ble	a0,t5,a78 <vprintfmt.constprop.0+0x602>
     566:	007c0793          	addi	a5,s8,7
     56a:	ff87f093          	andi	ra,a5,-8
     56e:	0000ad03          	lw	s10,0(ra)
     572:	0040ab83          	lw	s7,4(ra)
     576:	00808c13          	addi	s8,ra,8
     57a:	864a                	mv	a2,s2
     57c:	4681                	li	a3,0
     57e:	856a                	mv	a0,s10
     580:	85de                	mv	a1,s7
     582:	48b040ef          	jal	ra,520c <__umoddi3>
     586:	c82a                	sw	a0,16(sp)
     588:	2f7b0363          	beq	s6,s7,86e <vprintfmt.constprop.0+0x3f8>
     58c:	01410c93          	addi	s9,sp,20
     590:	4485                	li	s1,1
     592:	864a                	mv	a2,s2
     594:	4681                	li	a3,0
     596:	856a                	mv	a0,s10
     598:	85de                	mv	a1,s7
     59a:	03b040ef          	jal	ra,4dd4 <__udivdi3>
     59e:	864a                	mv	a2,s2
     5a0:	4681                	li	a3,0
     5a2:	8d2a                	mv	s10,a0
     5a4:	8bae                	mv	s7,a1
     5a6:	467040ef          	jal	ra,520c <__umoddi3>
     5aa:	00aca023          	sw	a0,0(s9)
     5ae:	00148d93          	addi	s11,s1,1
     5b2:	0c91                	addi	s9,s9,4
     5b4:	017b0463          	beq	s6,s7,5bc <vprintfmt.constprop.0+0x146>
     5b8:	84ee                	mv	s1,s11
     5ba:	bfe1                	j	592 <vprintfmt.constprop.0+0x11c>
     5bc:	ff2d7ee3          	bleu	s2,s10,5b8 <vprintfmt.constprop.0+0x142>
     5c0:	0b3ddd63          	ble	s3,s11,67a <vprintfmt.constprop.0+0x204>
     5c4:	fffdc293          	not	t0,s11
     5c8:	01328333          	add	t1,t0,s3
     5cc:	fff98913          	addi	s2,s3,-1
     5d0:	4581                	li	a1,0
     5d2:	8552                	mv	a0,s4
     5d4:	00737b13          	andi	s6,t1,7
     5d8:	3b61                	jal	370 <printf_putch>
     5da:	0b2dd063          	ble	s2,s11,67a <vprintfmt.constprop.0+0x204>
     5de:	060b0363          	beqz	s6,644 <vprintfmt.constprop.0+0x1ce>
     5e2:	4385                	li	t2,1
     5e4:	047b0a63          	beq	s6,t2,638 <vprintfmt.constprop.0+0x1c2>
     5e8:	4889                	li	a7,2
     5ea:	051b0363          	beq	s6,a7,630 <vprintfmt.constprop.0+0x1ba>
     5ee:	460d                	li	a2,3
     5f0:	02cb0c63          	beq	s6,a2,628 <vprintfmt.constprop.0+0x1b2>
     5f4:	4691                	li	a3,4
     5f6:	02db0563          	beq	s6,a3,620 <vprintfmt.constprop.0+0x1aa>
     5fa:	4515                	li	a0,5
     5fc:	00ab0e63          	beq	s6,a0,618 <vprintfmt.constprop.0+0x1a2>
     600:	4719                	li	a4,6
     602:	00eb0763          	beq	s6,a4,610 <vprintfmt.constprop.0+0x19a>
     606:	4581                	li	a1,0
     608:	8552                	mv	a0,s4
     60a:	339d                	jal	370 <printf_putch>
     60c:	ffe98913          	addi	s2,s3,-2
     610:	4581                	li	a1,0
     612:	8552                	mv	a0,s4
     614:	3bb1                	jal	370 <printf_putch>
     616:	197d                	addi	s2,s2,-1
     618:	4581                	li	a1,0
     61a:	8552                	mv	a0,s4
     61c:	3b91                	jal	370 <printf_putch>
     61e:	197d                	addi	s2,s2,-1
     620:	4581                	li	a1,0
     622:	8552                	mv	a0,s4
     624:	33b1                	jal	370 <printf_putch>
     626:	197d                	addi	s2,s2,-1
     628:	4581                	li	a1,0
     62a:	8552                	mv	a0,s4
     62c:	3391                	jal	370 <printf_putch>
     62e:	197d                	addi	s2,s2,-1
     630:	4581                	li	a1,0
     632:	8552                	mv	a0,s4
     634:	3b35                	jal	370 <printf_putch>
     636:	197d                	addi	s2,s2,-1
     638:	197d                	addi	s2,s2,-1
     63a:	4581                	li	a1,0
     63c:	8552                	mv	a0,s4
     63e:	3b0d                	jal	370 <printf_putch>
     640:	032ddd63          	ble	s2,s11,67a <vprintfmt.constprop.0+0x204>
     644:	4581                	li	a1,0
     646:	8552                	mv	a0,s4
     648:	3325                	jal	370 <printf_putch>
     64a:	4581                	li	a1,0
     64c:	8552                	mv	a0,s4
     64e:	330d                	jal	370 <printf_putch>
     650:	4581                	li	a1,0
     652:	8552                	mv	a0,s4
     654:	3b31                	jal	370 <printf_putch>
     656:	4581                	li	a1,0
     658:	8552                	mv	a0,s4
     65a:	3b19                	jal	370 <printf_putch>
     65c:	4581                	li	a1,0
     65e:	8552                	mv	a0,s4
     660:	3b01                	jal	370 <printf_putch>
     662:	4581                	li	a1,0
     664:	8552                	mv	a0,s4
     666:	3329                	jal	370 <printf_putch>
     668:	4581                	li	a1,0
     66a:	8552                	mv	a0,s4
     66c:	3311                	jal	370 <printf_putch>
     66e:	1961                	addi	s2,s2,-8
     670:	4581                	li	a1,0
     672:	8552                	mv	a0,s4
     674:	39f5                	jal	370 <printf_putch>
     676:	fd2dc7e3          	blt	s11,s2,644 <vprintfmt.constprop.0+0x1ce>
     67a:	00249993          	slli	s3,s1,0x2
     67e:	0a0c                	addi	a1,sp,272
     680:	01358833          	add	a6,a1,s3
     684:	f0082503          	lw	a0,-256(a6)
     688:	4e32                	lw	t3,12(sp)
     68a:	47a2                	lw	a5,8(sp)
     68c:	01010f93          	addi	t6,sp,16
     690:	01c48eb3          	add	t4,s1,t3
     694:	002e9f13          	slli	t5,t4,0x2
     698:	0074fd13          	andi	s10,s1,7
     69c:	8da6                	mv	s11,s1
     69e:	01ef8933          	add	s2,t6,t5
     6a2:	4ba5                	li	s7,9
     6a4:	ff678c93          	addi	s9,a5,-10
     6a8:	3a0d0763          	beqz	s10,a56 <vprintfmt.constprop.0+0x5e0>
     6ac:	03000093          	li	ra,48
     6b0:	00abf363          	bleu	a0,s7,6b6 <vprintfmt.constprop.0+0x240>
     6b4:	80e6                	mv	ra,s9
     6b6:	4581                	li	a1,0
     6b8:	9506                	add	a0,a0,ra
     6ba:	395d                	jal	370 <printf_putch>
     6bc:	e09058e3          	blez	s1,4cc <vprintfmt.constprop.0+0x56>
     6c0:	4a05                	li	s4,1
     6c2:	00092503          	lw	a0,0(s2)
     6c6:	fff48d93          	addi	s11,s1,-1
     6ca:	1971                	addi	s2,s2,-4
     6cc:	394d0563          	beq	s10,s4,a56 <vprintfmt.constprop.0+0x5e0>
     6d0:	4289                	li	t0,2
     6d2:	085d0963          	beq	s10,t0,764 <vprintfmt.constprop.0+0x2ee>
     6d6:	430d                	li	t1,3
     6d8:	066d0a63          	beq	s10,t1,74c <vprintfmt.constprop.0+0x2d6>
     6dc:	4b11                	li	s6,4
     6de:	056d0b63          	beq	s10,s6,734 <vprintfmt.constprop.0+0x2be>
     6e2:	4395                	li	t2,5
     6e4:	027d0c63          	beq	s10,t2,71c <vprintfmt.constprop.0+0x2a6>
     6e8:	4899                	li	a7,6
     6ea:	011d0d63          	beq	s10,a7,704 <vprintfmt.constprop.0+0x28e>
     6ee:	03000613          	li	a2,48
     6f2:	46abe663          	bltu	s7,a0,b5e <vprintfmt.constprop.0+0x6e8>
     6f6:	9532                	add	a0,a0,a2
     6f8:	4581                	li	a1,0
     6fa:	399d                	jal	370 <printf_putch>
     6fc:	00092503          	lw	a0,0(s2)
     700:	1dfd                	addi	s11,s11,-1
     702:	1971                	addi	s2,s2,-4
     704:	03000693          	li	a3,48
     708:	00abf363          	bleu	a0,s7,70e <vprintfmt.constprop.0+0x298>
     70c:	86e6                	mv	a3,s9
     70e:	9536                	add	a0,a0,a3
     710:	4581                	li	a1,0
     712:	39b9                	jal	370 <printf_putch>
     714:	00092503          	lw	a0,0(s2)
     718:	1dfd                	addi	s11,s11,-1
     71a:	1971                	addi	s2,s2,-4
     71c:	03000713          	li	a4,48
     720:	00abf363          	bleu	a0,s7,726 <vprintfmt.constprop.0+0x2b0>
     724:	8766                	mv	a4,s9
     726:	953a                	add	a0,a0,a4
     728:	4581                	li	a1,0
     72a:	3199                	jal	370 <printf_putch>
     72c:	00092503          	lw	a0,0(s2)
     730:	1dfd                	addi	s11,s11,-1
     732:	1971                	addi	s2,s2,-4
     734:	03000493          	li	s1,48
     738:	00abf363          	bleu	a0,s7,73e <vprintfmt.constprop.0+0x2c8>
     73c:	84e6                	mv	s1,s9
     73e:	9526                	add	a0,a0,s1
     740:	4581                	li	a1,0
     742:	313d                	jal	370 <printf_putch>
     744:	00092503          	lw	a0,0(s2)
     748:	1dfd                	addi	s11,s11,-1
     74a:	1971                	addi	s2,s2,-4
     74c:	03000993          	li	s3,48
     750:	00abf363          	bleu	a0,s7,756 <vprintfmt.constprop.0+0x2e0>
     754:	89e6                	mv	s3,s9
     756:	954e                	add	a0,a0,s3
     758:	4581                	li	a1,0
     75a:	3919                	jal	370 <printf_putch>
     75c:	00092503          	lw	a0,0(s2)
     760:	1dfd                	addi	s11,s11,-1
     762:	1971                	addi	s2,s2,-4
     764:	03000593          	li	a1,48
     768:	00abf363          	bleu	a0,s7,76e <vprintfmt.constprop.0+0x2f8>
     76c:	85e6                	mv	a1,s9
     76e:	952e                	add	a0,a0,a1
     770:	4581                	li	a1,0
     772:	3efd                	jal	370 <printf_putch>
     774:	00092503          	lw	a0,0(s2)
     778:	1dfd                	addi	s11,s11,-1
     77a:	1971                	addi	s2,s2,-4
     77c:	ace9                	j	a56 <vprintfmt.constprop.0+0x5e0>
     77e:	00174683          	lbu	a3,1(a4)
     782:	8722                	mv	a4,s0
     784:	bbad                	j	4fe <vprintfmt.constprop.0+0x88>
     786:	4581                	li	a1,0
     788:	02500513          	li	a0,37
     78c:	36d5                	jal	370 <printf_putch>
     78e:	bb3d                	j	4cc <vprintfmt.constprop.0+0x56>
     790:	000c2d83          	lw	s11,0(s8)
     794:	00174683          	lbu	a3,1(a4)
     798:	0c11                	addi	s8,s8,4
     79a:	8722                	mv	a4,s0
     79c:	d609d1e3          	bgez	s3,4fe <vprintfmt.constprop.0+0x88>
     7a0:	89ee                	mv	s3,s11
     7a2:	5dfd                	li	s11,-1
     7a4:	bba9                	j	4fe <vprintfmt.constprop.0+0x88>
     7a6:	00174683          	lbu	a3,1(a4)
     7aa:	02d00a13          	li	s4,45
     7ae:	8722                	mv	a4,s0
     7b0:	b3b9                	j	4fe <vprintfmt.constprop.0+0x88>
     7b2:	fff9cf13          	not	t5,s3
     7b6:	41ff5d13          	srai	s10,t5,0x1f
     7ba:	00174683          	lbu	a3,1(a4)
     7be:	01a9f9b3          	and	s3,s3,s10
     7c2:	8722                	mv	a4,s0
     7c4:	bb2d                	j	4fe <vprintfmt.constprop.0+0x88>
     7c6:	00174683          	lbu	a3,1(a4)
     7ca:	03000a13          	li	s4,48
     7ce:	8722                	mv	a4,s0
     7d0:	b33d                	j	4fe <vprintfmt.constprop.0+0x88>
     7d2:	00174e03          	lbu	t3,1(a4)
     7d6:	fd068d93          	addi	s11,a3,-48
     7da:	8722                	mv	a4,s0
     7dc:	fd0e0b93          	addi	s7,t3,-48
     7e0:	86f2                	mv	a3,t3
     7e2:	fb786de3          	bltu	a6,s7,79c <vprintfmt.constprop.0+0x326>
     7e6:	002d9413          	slli	s0,s11,0x2
     7ea:	01b40cb3          	add	s9,s0,s11
     7ee:	0705                	addi	a4,a4,1
     7f0:	001c9093          	slli	ra,s9,0x1
     7f4:	01c086b3          	add	a3,ra,t3
     7f8:	00074e03          	lbu	t3,0(a4)
     7fc:	fd068d93          	addi	s11,a3,-48
     800:	fd0e0e93          	addi	t4,t3,-48
     804:	86f2                	mv	a3,t3
     806:	ffd870e3          	bleu	t4,a6,7e6 <vprintfmt.constprop.0+0x370>
     80a:	bf49                	j	79c <vprintfmt.constprop.0+0x326>
     80c:	04100e93          	li	t4,65
     810:	4941                	li	s2,16
     812:	4b01                	li	s6,0
     814:	c476                	sw	t4,8(sp)
     816:	b3a9                	j	560 <vprintfmt.constprop.0+0xea>
     818:	000c2503          	lw	a0,0(s8)
     81c:	4581                	li	a1,0
     81e:	0c11                	addi	s8,s8,4
     820:	3e81                	jal	370 <printf_putch>
     822:	b16d                	j	4cc <vprintfmt.constprop.0+0x56>
     824:	4585                	li	a1,1
     826:	32a5d463          	ble	a0,a1,b4e <vprintfmt.constprop.0+0x6d8>
     82a:	0c1d                	addi	s8,s8,7
     82c:	ff8c7b93          	andi	s7,s8,-8
     830:	008b8c13          	addi	s8,s7,8
     834:	000bad03          	lw	s10,0(s7)
     838:	004bab83          	lw	s7,4(s7)
     83c:	000bde63          	bgez	s7,858 <vprintfmt.constprop.0+0x3e2>
     840:	4581                	li	a1,0
     842:	02d00513          	li	a0,45
     846:	362d                	jal	370 <printf_putch>
     848:	41a00d33          	neg	s10,s10
     84c:	01a03833          	snez	a6,s10
     850:	41700e33          	neg	t3,s7
     854:	410e0bb3          	sub	s7,t3,a6
     858:	4929                	li	s2,10
     85a:	864a                	mv	a2,s2
     85c:	4681                	li	a3,0
     85e:	856a                	mv	a0,s10
     860:	85de                	mv	a1,s7
     862:	1ab040ef          	jal	ra,520c <__umoddi3>
     866:	4b01                	li	s6,0
     868:	c82a                	sw	a0,16(sp)
     86a:	d37b11e3          	bne	s6,s7,58c <vprintfmt.constprop.0+0x116>
     86e:	d12d7fe3          	bleu	s2,s10,58c <vprintfmt.constprop.0+0x116>
     872:	4c85                	li	s9,1
     874:	4481                	li	s1,0
     876:	4d85                	li	s11,1
     878:	d53cc6e3          	blt	s9,s3,5c4 <vprintfmt.constprop.0+0x14e>
     87c:	b531                	j	688 <vprintfmt.constprop.0+0x212>
     87e:	00174683          	lbu	a3,1(a4)
     882:	0505                	addi	a0,a0,1
     884:	8722                	mv	a4,s0
     886:	b9a5                	j	4fe <vprintfmt.constprop.0+0x88>
     888:	4921                	li	s2,8
     88a:	4b01                	li	s6,0
     88c:	b9d1                	j	560 <vprintfmt.constprop.0+0xea>
     88e:	4581                	li	a1,0
     890:	03000513          	li	a0,48
     894:	3cf1                	jal	370 <printf_putch>
     896:	4581                	li	a1,0
     898:	07800513          	li	a0,120
     89c:	3cd1                	jal	370 <printf_putch>
     89e:	06100493          	li	s1,97
     8a2:	4941                	li	s2,16
     8a4:	4b01                	li	s6,0
     8a6:	c426                	sw	s1,8(sp)
     8a8:	004c0f93          	addi	t6,s8,4
     8ac:	000c2d03          	lw	s10,0(s8)
     8b0:	4b81                	li	s7,0
     8b2:	8c7e                	mv	s8,t6
     8b4:	b1d9                	j	57a <vprintfmt.constprop.0+0x104>
     8b6:	000c2b83          	lw	s7,0(s8)
     8ba:	0c11                	addi	s8,s8,4
     8bc:	2a0b8363          	beqz	s7,b62 <vprintfmt.constprop.0+0x6ec>
     8c0:	27305d63          	blez	s3,b3a <vprintfmt.constprop.0+0x6c4>
     8c4:	02d00513          	li	a0,45
     8c8:	1aaa1f63          	bne	s4,a0,a86 <vprintfmt.constprop.0+0x610>
     8cc:	000bc503          	lbu	a0,0(s7)
     8d0:	cd09                	beqz	a0,8ea <vprintfmt.constprop.0+0x474>
     8d2:	5a7d                	li	s4,-1
     8d4:	260dd963          	bgez	s11,b46 <vprintfmt.constprop.0+0x6d0>
     8d8:	4581                	li	a1,0
     8da:	0b85                	addi	s7,s7,1
     8dc:	3c51                	jal	370 <printf_putch>
     8de:	000bc503          	lbu	a0,0(s7)
     8e2:	19fd                	addi	s3,s3,-1
     8e4:	f965                	bnez	a0,8d4 <vprintfmt.constprop.0+0x45e>
     8e6:	bf3053e3          	blez	s3,4cc <vprintfmt.constprop.0+0x56>
     8ea:	0079f293          	andi	t0,s3,7
     8ee:	fff98d13          	addi	s10,s3,-1
     8f2:	06028963          	beqz	t0,964 <vprintfmt.constprop.0+0x4ee>
     8f6:	4305                	li	t1,1
     8f8:	04628f63          	beq	t0,t1,956 <vprintfmt.constprop.0+0x4e0>
     8fc:	4389                	li	t2,2
     8fe:	04728763          	beq	t0,t2,94c <vprintfmt.constprop.0+0x4d6>
     902:	488d                	li	a7,3
     904:	03128f63          	beq	t0,a7,942 <vprintfmt.constprop.0+0x4cc>
     908:	4611                	li	a2,4
     90a:	02c28763          	beq	t0,a2,938 <vprintfmt.constprop.0+0x4c2>
     90e:	4915                	li	s2,5
     910:	01228f63          	beq	t0,s2,92e <vprintfmt.constprop.0+0x4b8>
     914:	4b19                	li	s6,6
     916:	01628763          	beq	t0,s6,924 <vprintfmt.constprop.0+0x4ae>
     91a:	4581                	li	a1,0
     91c:	02000513          	li	a0,32
     920:	3c81                	jal	370 <printf_putch>
     922:	89ea                	mv	s3,s10
     924:	4581                	li	a1,0
     926:	02000513          	li	a0,32
     92a:	3499                	jal	370 <printf_putch>
     92c:	19fd                	addi	s3,s3,-1
     92e:	4581                	li	a1,0
     930:	02000513          	li	a0,32
     934:	3c35                	jal	370 <printf_putch>
     936:	19fd                	addi	s3,s3,-1
     938:	4581                	li	a1,0
     93a:	02000513          	li	a0,32
     93e:	3c0d                	jal	370 <printf_putch>
     940:	19fd                	addi	s3,s3,-1
     942:	4581                	li	a1,0
     944:	02000513          	li	a0,32
     948:	3425                	jal	370 <printf_putch>
     94a:	19fd                	addi	s3,s3,-1
     94c:	4581                	li	a1,0
     94e:	02000513          	li	a0,32
     952:	3c39                	jal	370 <printf_putch>
     954:	19fd                	addi	s3,s3,-1
     956:	19fd                	addi	s3,s3,-1
     958:	4581                	li	a1,0
     95a:	02000513          	li	a0,32
     95e:	3c09                	jal	370 <printf_putch>
     960:	b60986e3          	beqz	s3,4cc <vprintfmt.constprop.0+0x56>
     964:	4581                	li	a1,0
     966:	02000513          	li	a0,32
     96a:	3419                	jal	370 <printf_putch>
     96c:	4581                	li	a1,0
     96e:	02000513          	li	a0,32
     972:	3afd                	jal	370 <printf_putch>
     974:	4581                	li	a1,0
     976:	02000513          	li	a0,32
     97a:	3add                	jal	370 <printf_putch>
     97c:	4581                	li	a1,0
     97e:	02000513          	li	a0,32
     982:	32fd                	jal	370 <printf_putch>
     984:	4581                	li	a1,0
     986:	02000513          	li	a0,32
     98a:	32dd                	jal	370 <printf_putch>
     98c:	4581                	li	a1,0
     98e:	02000513          	li	a0,32
     992:	3af9                	jal	370 <printf_putch>
     994:	4581                	li	a1,0
     996:	02000513          	li	a0,32
     99a:	3ad9                	jal	370 <printf_putch>
     99c:	19e1                	addi	s3,s3,-8
     99e:	4581                	li	a1,0
     9a0:	02000513          	li	a0,32
     9a4:	32f1                	jal	370 <printf_putch>
     9a6:	fa099fe3          	bnez	s3,964 <vprintfmt.constprop.0+0x4ee>
     9aa:	b60d                	j	4cc <vprintfmt.constprop.0+0x56>
     9ac:	4929                	li	s2,10
     9ae:	4b01                	li	s6,0
     9b0:	be45                	j	560 <vprintfmt.constprop.0+0xea>
     9b2:	00092e03          	lw	t3,0(s2)
     9b6:	1dfd                	addi	s11,s11,-1
     9b8:	1971                	addi	s2,s2,-4
     9ba:	03000513          	li	a0,48
     9be:	01cbf363          	bleu	t3,s7,9c4 <vprintfmt.constprop.0+0x54e>
     9c2:	8566                	mv	a0,s9
     9c4:	4581                	li	a1,0
     9c6:	9572                	add	a0,a0,t3
     9c8:	3265                	jal	370 <printf_putch>
     9ca:	00092e83          	lw	t4,0(s2)
     9ce:	03000f13          	li	t5,48
     9d2:	01dbf363          	bleu	t4,s7,9d8 <vprintfmt.constprop.0+0x562>
     9d6:	8f66                	mv	t5,s9
     9d8:	4581                	li	a1,0
     9da:	01df0533          	add	a0,t5,t4
     9de:	3a49                	jal	370 <printf_putch>
     9e0:	ffc92d03          	lw	s10,-4(s2)
     9e4:	03000f93          	li	t6,48
     9e8:	01abf363          	bleu	s10,s7,9ee <vprintfmt.constprop.0+0x578>
     9ec:	8fe6                	mv	t6,s9
     9ee:	4581                	li	a1,0
     9f0:	01af8533          	add	a0,t6,s10
     9f4:	3ab5                	jal	370 <printf_putch>
     9f6:	ff892783          	lw	a5,-8(s2)
     9fa:	03000a13          	li	s4,48
     9fe:	00fbf363          	bleu	a5,s7,a04 <vprintfmt.constprop.0+0x58e>
     a02:	8a66                	mv	s4,s9
     a04:	4581                	li	a1,0
     a06:	00fa0533          	add	a0,s4,a5
     a0a:	329d                	jal	370 <printf_putch>
     a0c:	ff492283          	lw	t0,-12(s2)
     a10:	03000313          	li	t1,48
     a14:	005bf363          	bleu	t0,s7,a1a <vprintfmt.constprop.0+0x5a4>
     a18:	8366                	mv	t1,s9
     a1a:	4581                	li	a1,0
     a1c:	00530533          	add	a0,t1,t0
     a20:	3a81                	jal	370 <printf_putch>
     a22:	ff092b03          	lw	s6,-16(s2)
     a26:	03000393          	li	t2,48
     a2a:	016bf363          	bleu	s6,s7,a30 <vprintfmt.constprop.0+0x5ba>
     a2e:	83e6                	mv	t2,s9
     a30:	4581                	li	a1,0
     a32:	01638533          	add	a0,t2,s6
     a36:	3a2d                	jal	370 <printf_putch>
     a38:	fec92883          	lw	a7,-20(s2)
     a3c:	03000613          	li	a2,48
     a40:	011bf363          	bleu	a7,s7,a46 <vprintfmt.constprop.0+0x5d0>
     a44:	8666                	mv	a2,s9
     a46:	01160533          	add	a0,a2,a7
     a4a:	4581                	li	a1,0
     a4c:	3215                	jal	370 <printf_putch>
     a4e:	fe892503          	lw	a0,-24(s2)
     a52:	1de5                	addi	s11,s11,-7
     a54:	1911                	addi	s2,s2,-28
     a56:	03000813          	li	a6,48
     a5a:	00abf363          	bleu	a0,s7,a60 <vprintfmt.constprop.0+0x5ea>
     a5e:	8866                	mv	a6,s9
     a60:	4581                	li	a1,0
     a62:	9542                	add	a0,a0,a6
     a64:	3231                	jal	370 <printf_putch>
     a66:	f5b046e3          	bgtz	s11,9b2 <vprintfmt.constprop.0+0x53c>
     a6a:	b48d                	j	4cc <vprintfmt.constprop.0+0x56>
     a6c:	4581                	li	a1,0
     a6e:	02500513          	li	a0,37
     a72:	38fd                	jal	370 <printf_putch>
     a74:	8426                	mv	s0,s1
     a76:	bc99                	j	4cc <vprintfmt.constprop.0+0x56>
     a78:	004c0f93          	addi	t6,s8,4
     a7c:	bd05                	j	8ac <vprintfmt.constprop.0+0x436>
     a7e:	00005737          	lui	a4,0x5
     a82:	63070b93          	addi	s7,a4,1584 # 5630 <__umoddi3+0x424>
     a86:	85ee                	mv	a1,s11
     a88:	855e                	mv	a0,s7
     a8a:	6c7030ef          	jal	ra,4950 <strnlen>
     a8e:	40a989b3          	sub	s3,s3,a0
     a92:	0b305463          	blez	s3,b3a <vprintfmt.constprop.0+0x6c4>
     a96:	0079f813          	andi	a6,s3,7
     a9a:	8cce                	mv	s9,s3
     a9c:	19fd                	addi	s3,s3,-1
     a9e:	06080263          	beqz	a6,b02 <vprintfmt.constprop.0+0x68c>
     aa2:	4e05                	li	t3,1
     aa4:	05c80963          	beq	a6,t3,af6 <vprintfmt.constprop.0+0x680>
     aa8:	4e89                	li	t4,2
     aaa:	05d80263          	beq	a6,t4,aee <vprintfmt.constprop.0+0x678>
     aae:	4f0d                	li	t5,3
     ab0:	03e80b63          	beq	a6,t5,ae6 <vprintfmt.constprop.0+0x670>
     ab4:	4f91                	li	t6,4
     ab6:	03f80463          	beq	a6,t6,ade <vprintfmt.constprop.0+0x668>
     aba:	4795                	li	a5,5
     abc:	00f80d63          	beq	a6,a5,ad6 <vprintfmt.constprop.0+0x660>
     ac0:	4099                	li	ra,6
     ac2:	00180663          	beq	a6,ra,ace <vprintfmt.constprop.0+0x658>
     ac6:	4581                	li	a1,0
     ac8:	8552                	mv	a0,s4
     aca:	305d                	jal	370 <printf_putch>
     acc:	8cce                	mv	s9,s3
     ace:	4581                	li	a1,0
     ad0:	8552                	mv	a0,s4
     ad2:	3879                	jal	370 <printf_putch>
     ad4:	1cfd                	addi	s9,s9,-1
     ad6:	4581                	li	a1,0
     ad8:	8552                	mv	a0,s4
     ada:	3859                	jal	370 <printf_putch>
     adc:	1cfd                	addi	s9,s9,-1
     ade:	4581                	li	a1,0
     ae0:	8552                	mv	a0,s4
     ae2:	3079                	jal	370 <printf_putch>
     ae4:	1cfd                	addi	s9,s9,-1
     ae6:	4581                	li	a1,0
     ae8:	8552                	mv	a0,s4
     aea:	3059                	jal	370 <printf_putch>
     aec:	1cfd                	addi	s9,s9,-1
     aee:	4581                	li	a1,0
     af0:	8552                	mv	a0,s4
     af2:	38bd                	jal	370 <printf_putch>
     af4:	1cfd                	addi	s9,s9,-1
     af6:	1cfd                	addi	s9,s9,-1
     af8:	4581                	li	a1,0
     afa:	8552                	mv	a0,s4
     afc:	3895                	jal	370 <printf_putch>
     afe:	020c8d63          	beqz	s9,b38 <vprintfmt.constprop.0+0x6c2>
     b02:	4581                	li	a1,0
     b04:	8552                	mv	a0,s4
     b06:	30ad                	jal	370 <printf_putch>
     b08:	4581                	li	a1,0
     b0a:	8552                	mv	a0,s4
     b0c:	3095                	jal	370 <printf_putch>
     b0e:	4581                	li	a1,0
     b10:	8552                	mv	a0,s4
     b12:	38b9                	jal	370 <printf_putch>
     b14:	4581                	li	a1,0
     b16:	8552                	mv	a0,s4
     b18:	38a1                	jal	370 <printf_putch>
     b1a:	4581                	li	a1,0
     b1c:	8552                	mv	a0,s4
     b1e:	3889                	jal	370 <printf_putch>
     b20:	4581                	li	a1,0
     b22:	8552                	mv	a0,s4
     b24:	30b1                	jal	370 <printf_putch>
     b26:	4581                	li	a1,0
     b28:	8552                	mv	a0,s4
     b2a:	3099                	jal	370 <printf_putch>
     b2c:	1ce1                	addi	s9,s9,-8
     b2e:	4581                	li	a1,0
     b30:	8552                	mv	a0,s4
     b32:	383d                	jal	370 <printf_putch>
     b34:	fc0c97e3          	bnez	s9,b02 <vprintfmt.constprop.0+0x68c>
     b38:	4981                	li	s3,0
     b3a:	000bc503          	lbu	a0,0(s7)
     b3e:	980507e3          	beqz	a0,4cc <vprintfmt.constprop.0+0x56>
     b42:	5a7d                	li	s4,-1
     b44:	bb41                	j	8d4 <vprintfmt.constprop.0+0x45e>
     b46:	1dfd                	addi	s11,s11,-1
     b48:	d94d98e3          	bne	s11,s4,8d8 <vprintfmt.constprop.0+0x462>
     b4c:	bb69                	j	8e6 <vprintfmt.constprop.0+0x470>
     b4e:	000c2d03          	lw	s10,0(s8)
     b52:	004c0d93          	addi	s11,s8,4
     b56:	8c6e                	mv	s8,s11
     b58:	41fd5b93          	srai	s7,s10,0x1f
     b5c:	b1c5                	j	83c <vprintfmt.constprop.0+0x3c6>
     b5e:	8666                	mv	a2,s9
     b60:	be59                	j	6f6 <vprintfmt.constprop.0+0x280>
     b62:	01305663          	blez	s3,b6e <vprintfmt.constprop.0+0x6f8>
     b66:	02d00593          	li	a1,45
     b6a:	f0ba1ae3          	bne	s4,a1,a7e <vprintfmt.constprop.0+0x608>
     b6e:	000056b7          	lui	a3,0x5
     b72:	63068b93          	addi	s7,a3,1584 # 5630 <__umoddi3+0x424>
     b76:	02800513          	li	a0,40
     b7a:	5a7d                	li	s4,-1
     b7c:	bba1                	j	8d4 <vprintfmt.constprop.0+0x45e>

00000b7e <putchar>:
     b7e:	04022803          	lw	a6,64(tp) # 40 <buflen.1776>
     b82:	00020293          	mv	t0,tp
     b86:	00180713          	addi	a4,a6,1
     b8a:	01028333          	add	t1,t0,a6
     b8e:	04e22023          	sw	a4,64(tp) # 40 <buflen.1776>
     b92:	00a30023          	sb	a0,0(t1)
     b96:	43a9                	li	t2,10
     b98:	00750863          	beq	a0,t2,ba8 <putchar+0x2a>
     b9c:	04000513          	li	a0,64
     ba0:	00a70663          	beq	a4,a0,bac <putchar+0x2e>
     ba4:	4501                	li	a0,0
     ba6:	8082                	ret
     ba8:	0ce05c63          	blez	a4,c80 <putchar+0x102>
     bac:	00777e13          	andi	t3,a4,7
     bb0:	00020793          	mv	a5,tp
     bb4:	f0000eb7          	lui	t4,0xf0000
     bb8:	fff70f13          	addi	t5,a4,-1
     bbc:	060e0f63          	beqz	t3,c3a <putchar+0xbc>
     bc0:	4f85                	li	t6,1
     bc2:	07fe0563          	beq	t3,t6,c2c <putchar+0xae>
     bc6:	4589                	li	a1,2
     bc8:	04be0c63          	beq	t3,a1,c20 <putchar+0xa2>
     bcc:	480d                	li	a6,3
     bce:	050e0363          	beq	t3,a6,c14 <putchar+0x96>
     bd2:	4691                	li	a3,4
     bd4:	02de0a63          	beq	t3,a3,c08 <putchar+0x8a>
     bd8:	4295                	li	t0,5
     bda:	025e0163          	beq	t3,t0,bfc <putchar+0x7e>
     bde:	4319                	li	t1,6
     be0:	006e0863          	beq	t3,t1,bf0 <putchar+0x72>
     be4:	0007c383          	lbu	t2,0(a5)
     be8:	877a                	mv	a4,t5
     bea:	0785                	addi	a5,a5,1
     bec:	007e8023          	sb	t2,0(t4) # f0000000 <__C_STACK_TOP__+0xefff0000>
     bf0:	0007c503          	lbu	a0,0(a5)
     bf4:	177d                	addi	a4,a4,-1
     bf6:	0785                	addi	a5,a5,1
     bf8:	00ae8023          	sb	a0,0(t4)
     bfc:	0007c883          	lbu	a7,0(a5)
     c00:	177d                	addi	a4,a4,-1
     c02:	0785                	addi	a5,a5,1
     c04:	011e8023          	sb	a7,0(t4)
     c08:	0007ce03          	lbu	t3,0(a5)
     c0c:	177d                	addi	a4,a4,-1
     c0e:	0785                	addi	a5,a5,1
     c10:	01ce8023          	sb	t3,0(t4)
     c14:	0007cf03          	lbu	t5,0(a5)
     c18:	177d                	addi	a4,a4,-1
     c1a:	0785                	addi	a5,a5,1
     c1c:	01ee8023          	sb	t5,0(t4)
     c20:	0007cf83          	lbu	t6,0(a5)
     c24:	177d                	addi	a4,a4,-1
     c26:	0785                	addi	a5,a5,1
     c28:	01fe8023          	sb	t6,0(t4)
     c2c:	0785                	addi	a5,a5,1
     c2e:	fff7c583          	lbu	a1,-1(a5)
     c32:	177d                	addi	a4,a4,-1
     c34:	00be8023          	sb	a1,0(t4)
     c38:	c721                	beqz	a4,c80 <putchar+0x102>
     c3a:	0007c803          	lbu	a6,0(a5)
     c3e:	07a1                	addi	a5,a5,8
     c40:	1761                	addi	a4,a4,-8
     c42:	010e8023          	sb	a6,0(t4)
     c46:	ff97c683          	lbu	a3,-7(a5)
     c4a:	00de8023          	sb	a3,0(t4)
     c4e:	ffa7c283          	lbu	t0,-6(a5)
     c52:	005e8023          	sb	t0,0(t4)
     c56:	ffb7c303          	lbu	t1,-5(a5)
     c5a:	006e8023          	sb	t1,0(t4)
     c5e:	ffc7c383          	lbu	t2,-4(a5)
     c62:	007e8023          	sb	t2,0(t4)
     c66:	ffd7c503          	lbu	a0,-3(a5)
     c6a:	00ae8023          	sb	a0,0(t4)
     c6e:	ffe7c883          	lbu	a7,-2(a5)
     c72:	011e8023          	sb	a7,0(t4)
     c76:	fff7ce03          	lbu	t3,-1(a5)
     c7a:	01ce8023          	sb	t3,0(t4)
     c7e:	ff55                	bnez	a4,c3a <putchar+0xbc>
     c80:	04022023          	sw	zero,64(tp) # 40 <buflen.1776>
     c84:	4501                	li	a0,0
     c86:	8082                	ret

00000c88 <sc_printf>:
     c88:	7139                	addi	sp,sp,-64
     c8a:	02410313          	addi	t1,sp,36
     c8e:	d22e                	sw	a1,36(sp)
     c90:	859a                	mv	a1,t1
     c92:	ce06                	sw	ra,28(sp)
     c94:	d432                	sw	a2,40(sp)
     c96:	d636                	sw	a3,44(sp)
     c98:	d83a                	sw	a4,48(sp)
     c9a:	da3e                	sw	a5,52(sp)
     c9c:	dc42                	sw	a6,56(sp)
     c9e:	de46                	sw	a7,60(sp)
     ca0:	c61a                	sw	t1,12(sp)
     ca2:	fd4ff0ef          	jal	ra,476 <vprintfmt.constprop.0>
     ca6:	40f2                	lw	ra,28(sp)
     ca8:	4501                	li	a0,0
     caa:	6121                	addi	sp,sp,64
     cac:	8082                	ret

00000cae <cmp_idx>:
     cae:	ee0d                	bnez	a2,ce8 <cmp_idx+0x3a>
     cb0:	00051783          	lh	a5,0(a0)
     cb4:	01079713          	slli	a4,a5,0x10
     cb8:	01075293          	srli	t0,a4,0x10
     cbc:	f007f313          	andi	t1,a5,-256
     cc0:	0082d393          	srli	t2,t0,0x8
     cc4:	00736633          	or	a2,t1,t2
     cc8:	00c51023          	sh	a2,0(a0)
     ccc:	00059683          	lh	a3,0(a1)
     cd0:	01069813          	slli	a6,a3,0x10
     cd4:	01085893          	srli	a7,a6,0x10
     cd8:	f006fe13          	andi	t3,a3,-256
     cdc:	0088de93          	srli	t4,a7,0x8
     ce0:	01de6f33          	or	t5,t3,t4
     ce4:	01e59023          	sh	t5,0(a1)
     ce8:	00251503          	lh	a0,2(a0)
     cec:	00259583          	lh	a1,2(a1)
     cf0:	8d0d                	sub	a0,a0,a1
     cf2:	8082                	ret

00000cf4 <calc_func>:
     cf4:	1101                	addi	sp,sp,-32
     cf6:	cc22                	sw	s0,24(sp)
     cf8:	00051403          	lh	s0,0(a0)
     cfc:	ce06                	sw	ra,28(sp)
     cfe:	ca26                	sw	s1,20(sp)
     d00:	40745793          	srai	a5,s0,0x7
     d04:	c84a                	sw	s2,16(sp)
     d06:	c64e                	sw	s3,12(sp)
     d08:	0017f093          	andi	ra,a5,1
     d0c:	07f47f93          	andi	t6,s0,127
     d10:	06009a63          	bnez	ra,d84 <calc_func+0x90>
     d14:	84ae                	mv	s1,a1
     d16:	40345593          	srai	a1,s0,0x3
     d1a:	00f5f293          	andi	t0,a1,15
     d1e:	00429313          	slli	t1,t0,0x4
     d22:	00747713          	andi	a4,s0,7
     d26:	89aa                	mv	s3,a0
     d28:	005365b3          	or	a1,t1,t0
     d2c:	0384d783          	lhu	a5,56(s1)
     d30:	c335                	beqz	a4,d94 <calc_func+0xa0>
     d32:	4685                	li	a3,1
     d34:	02d71463          	bne	a4,a3,d5c <calc_func+0x68>
     d38:	863e                	mv	a2,a5
     d3a:	02848513          	addi	a0,s1,40
     d3e:	677010ef          	jal	ra,2bb4 <core_bench_matrix>
     d42:	03c4d383          	lhu	t2,60(s1)
     d46:	01051613          	slli	a2,a0,0x10
     d4a:	41065913          	srai	s2,a2,0x10
     d4e:	00039463          	bnez	t2,d56 <calc_func+0x62>
     d52:	02a49e23          	sh	a0,60(s1)
     d56:	0384d783          	lhu	a5,56(s1)
     d5a:	a011                	j	d5e <calc_func+0x6a>
     d5c:	8922                	mv	s2,s0
     d5e:	01091e93          	slli	t4,s2,0x10
     d62:	85be                	mv	a1,a5
     d64:	010ed513          	srli	a0,t4,0x10
     d68:	3ae030ef          	jal	ra,4116 <crcu16>
     d6c:	f0047f13          	andi	t5,s0,-256
     d70:	07f97f93          	andi	t6,s2,127
     d74:	080f6413          	ori	s0,t5,128
     d78:	02a49c23          	sh	a0,56(s1)
     d7c:	008fe7b3          	or	a5,t6,s0
     d80:	00f99023          	sh	a5,0(s3)
     d84:	40f2                	lw	ra,28(sp)
     d86:	4462                	lw	s0,24(sp)
     d88:	44d2                	lw	s1,20(sp)
     d8a:	4942                	lw	s2,16(sp)
     d8c:	49b2                	lw	s3,12(sp)
     d8e:	857e                	mv	a0,t6
     d90:	6105                	addi	sp,sp,32
     d92:	8082                	ret
     d94:	02200513          	li	a0,34
     d98:	882e                	mv	a6,a1
     d9a:	00a5d463          	ble	a0,a1,da2 <calc_func+0xae>
     d9e:	02200813          	li	a6,34
     da2:	00249683          	lh	a3,2(s1)
     da6:	00049603          	lh	a2,0(s1)
     daa:	48cc                	lw	a1,20(s1)
     dac:	4c88                	lw	a0,24(s1)
     dae:	0ff87713          	andi	a4,a6,255
     db2:	24d030ef          	jal	ra,47fe <core_bench_state>
     db6:	03e4d883          	lhu	a7,62(s1)
     dba:	01051e13          	slli	t3,a0,0x10
     dbe:	410e5913          	srai	s2,t3,0x10
     dc2:	f8089ae3          	bnez	a7,d56 <calc_func+0x62>
     dc6:	02a49f23          	sh	a0,62(s1)
     dca:	0384d783          	lhu	a5,56(s1)
     dce:	bf41                	j	d5e <calc_func+0x6a>

00000dd0 <cmp_complex>:
     dd0:	1141                	addi	sp,sp,-16
     dd2:	c04a                	sw	s2,0(sp)
     dd4:	892e                	mv	s2,a1
     dd6:	85b2                	mv	a1,a2
     dd8:	c606                	sw	ra,12(sp)
     dda:	c422                	sw	s0,8(sp)
     ddc:	c226                	sw	s1,4(sp)
     dde:	8432                	mv	s0,a2
     de0:	3f11                	jal	cf4 <calc_func>
     de2:	84aa                	mv	s1,a0
     de4:	85a2                	mv	a1,s0
     de6:	854a                	mv	a0,s2
     de8:	3731                	jal	cf4 <calc_func>
     dea:	40b2                	lw	ra,12(sp)
     dec:	4422                	lw	s0,8(sp)
     dee:	40a48533          	sub	a0,s1,a0
     df2:	4902                	lw	s2,0(sp)
     df4:	4492                	lw	s1,4(sp)
     df6:	0141                	addi	sp,sp,16
     df8:	8082                	ret

00000dfa <copy_info>:
     dfa:	00059703          	lh	a4,0(a1)
     dfe:	00259783          	lh	a5,2(a1)
     e02:	00e51023          	sh	a4,0(a0)
     e06:	00f51123          	sh	a5,2(a0)
     e0a:	8082                	ret

00000e0c <core_list_insert_new>:
     e0c:	00062803          	lw	a6,0(a2)
     e10:	00880893          	addi	a7,a6,8
     e14:	04e8f163          	bleu	a4,a7,e56 <core_list_insert_new+0x4a>
     e18:	4298                	lw	a4,0(a3)
     e1a:	00470313          	addi	t1,a4,4
     e1e:	02f37c63          	bleu	a5,t1,e56 <core_list_insert_new+0x4a>
     e22:	01162023          	sw	a7,0(a2)
     e26:	411c                	lw	a5,0(a0)
     e28:	00059283          	lh	t0,0(a1)
     e2c:	00259603          	lh	a2,2(a1)
     e30:	00f82023          	sw	a5,0(a6)
     e34:	01052023          	sw	a6,0(a0)
     e38:	00e82223          	sw	a4,4(a6)
     e3c:	0006a383          	lw	t2,0(a3)
     e40:	00438513          	addi	a0,t2,4
     e44:	c288                	sw	a0,0(a3)
     e46:	00482583          	lw	a1,4(a6)
     e4a:	8542                	mv	a0,a6
     e4c:	00559023          	sh	t0,0(a1)
     e50:	00c59123          	sh	a2,2(a1)
     e54:	8082                	ret
     e56:	4801                	li	a6,0
     e58:	8542                	mv	a0,a6
     e5a:	8082                	ret

00000e5c <core_list_remove>:
     e5c:	411c                	lw	a5,0(a0)
     e5e:	4150                	lw	a2,4(a0)
     e60:	872a                	mv	a4,a0
     e62:	43cc                	lw	a1,4(a5)
     e64:	4394                	lw	a3,0(a5)
     e66:	853e                	mv	a0,a5
     e68:	c34c                	sw	a1,4(a4)
     e6a:	c3d0                	sw	a2,4(a5)
     e6c:	c314                	sw	a3,0(a4)
     e6e:	0007a023          	sw	zero,0(a5)
     e72:	8082                	ret

00000e74 <core_list_undo_remove>:
     e74:	41d0                	lw	a2,4(a1)
     e76:	4154                	lw	a3,4(a0)
     e78:	4198                	lw	a4,0(a1)
     e7a:	c150                	sw	a2,4(a0)
     e7c:	c1d4                	sw	a3,4(a1)
     e7e:	c118                	sw	a4,0(a0)
     e80:	c188                	sw	a0,0(a1)
     e82:	8082                	ret

00000e84 <core_list_find>:
     e84:	00259703          	lh	a4,2(a1)
     e88:	02074263          	bltz	a4,eac <core_list_find+0x28>
     e8c:	cd19                	beqz	a0,eaa <core_list_find+0x26>
     e8e:	4150                	lw	a2,4(a0)
     e90:	00261683          	lh	a3,2(a2)
     e94:	00e69963          	bne	a3,a4,ea6 <core_list_find+0x22>
     e98:	a82d                	j	ed2 <core_list_find+0x4e>
     e9a:	00452803          	lw	a6,4(a0)
     e9e:	00281883          	lh	a7,2(a6)
     ea2:	00e88463          	beq	a7,a4,eaa <core_list_find+0x26>
     ea6:	4108                	lw	a0,0(a0)
     ea8:	f96d                	bnez	a0,e9a <core_list_find+0x16>
     eaa:	8082                	ret
     eac:	dd7d                	beqz	a0,eaa <core_list_find+0x26>
     eae:	415c                	lw	a5,4(a0)
     eb0:	00059283          	lh	t0,0(a1)
     eb4:	0007c303          	lbu	t1,0(a5)
     eb8:	00531963          	bne	t1,t0,eca <core_list_find+0x46>
     ebc:	a821                	j	ed4 <core_list_find+0x50>
     ebe:	00452383          	lw	t2,4(a0)
     ec2:	0003c583          	lbu	a1,0(t2)
     ec6:	00558563          	beq	a1,t0,ed0 <core_list_find+0x4c>
     eca:	4108                	lw	a0,0(a0)
     ecc:	f96d                	bnez	a0,ebe <core_list_find+0x3a>
     ece:	bff1                	j	eaa <core_list_find+0x26>
     ed0:	8082                	ret
     ed2:	8082                	ret
     ed4:	8082                	ret

00000ed6 <core_list_reverse>:
     ed6:	c901                	beqz	a0,ee6 <core_list_reverse+0x10>
     ed8:	4701                	li	a4,0
     eda:	a011                	j	ede <core_list_reverse+0x8>
     edc:	853e                	mv	a0,a5
     ede:	411c                	lw	a5,0(a0)
     ee0:	c118                	sw	a4,0(a0)
     ee2:	872a                	mv	a4,a0
     ee4:	ffe5                	bnez	a5,edc <core_list_reverse+0x6>
     ee6:	8082                	ret

00000ee8 <core_list_mergesort>:
     ee8:	7179                	addi	sp,sp,-48
     eea:	cc52                	sw	s4,24(sp)
     eec:	c85a                	sw	s6,16(sp)
     eee:	c65e                	sw	s7,12(sp)
     ef0:	c462                	sw	s8,8(sp)
     ef2:	c06a                	sw	s10,0(sp)
     ef4:	d606                	sw	ra,44(sp)
     ef6:	d422                	sw	s0,40(sp)
     ef8:	d226                	sw	s1,36(sp)
     efa:	d04a                	sw	s2,32(sp)
     efc:	ce4e                	sw	s3,28(sp)
     efe:	ca56                	sw	s5,20(sp)
     f00:	c266                	sw	s9,4(sp)
     f02:	8a2a                	mv	s4,a0
     f04:	8bae                	mv	s7,a1
     f06:	8b32                	mv	s6,a2
     f08:	4c05                	li	s8,1
     f0a:	4d05                	li	s10,1
     f0c:	100a0163          	beqz	s4,100e <core_list_mergesort+0x126>
     f10:	4c81                	li	s9,0
     f12:	4481                	li	s1,0
     f14:	4a81                	li	s5,0
     f16:	007c7793          	andi	a5,s8,7
     f1a:	0c85                	addi	s9,s9,1
     f1c:	8452                	mv	s0,s4
     f1e:	4901                	li	s2,0
     f20:	cbb9                	beqz	a5,f76 <core_list_mergesort+0x8e>
     f22:	4705                	li	a4,1
     f24:	04e78463          	beq	a5,a4,f6c <core_list_mergesort+0x84>
     f28:	4089                	li	ra,2
     f2a:	02178e63          	beq	a5,ra,f66 <core_list_mergesort+0x7e>
     f2e:	428d                	li	t0,3
     f30:	02578863          	beq	a5,t0,f60 <core_list_mergesort+0x78>
     f34:	4311                	li	t1,4
     f36:	02678263          	beq	a5,t1,f5a <core_list_mergesort+0x72>
     f3a:	4395                	li	t2,5
     f3c:	00778c63          	beq	a5,t2,f54 <core_list_mergesort+0x6c>
     f40:	4519                	li	a0,6
     f42:	00a78663          	beq	a5,a0,f4e <core_list_mergesort+0x66>
     f46:	000a2403          	lw	s0,0(s4)
     f4a:	4905                	li	s2,1
     f4c:	c425                	beqz	s0,fb4 <core_list_mergesort+0xcc>
     f4e:	4000                	lw	s0,0(s0)
     f50:	0905                	addi	s2,s2,1
     f52:	c02d                	beqz	s0,fb4 <core_list_mergesort+0xcc>
     f54:	4000                	lw	s0,0(s0)
     f56:	0905                	addi	s2,s2,1
     f58:	cc31                	beqz	s0,fb4 <core_list_mergesort+0xcc>
     f5a:	4000                	lw	s0,0(s0)
     f5c:	0905                	addi	s2,s2,1
     f5e:	c839                	beqz	s0,fb4 <core_list_mergesort+0xcc>
     f60:	4000                	lw	s0,0(s0)
     f62:	0905                	addi	s2,s2,1
     f64:	c821                	beqz	s0,fb4 <core_list_mergesort+0xcc>
     f66:	4000                	lw	s0,0(s0)
     f68:	0905                	addi	s2,s2,1
     f6a:	c429                	beqz	s0,fb4 <core_list_mergesort+0xcc>
     f6c:	4000                	lw	s0,0(s0)
     f6e:	0905                	addi	s2,s2,1
     f70:	c031                	beqz	s0,fb4 <core_list_mergesort+0xcc>
     f72:	052c0163          	beq	s8,s2,fb4 <core_list_mergesort+0xcc>
     f76:	4000                	lw	s0,0(s0)
     f78:	0905                	addi	s2,s2,1
     f7a:	85ca                	mv	a1,s2
     f7c:	cc05                	beqz	s0,fb4 <core_list_mergesort+0xcc>
     f7e:	4000                	lw	s0,0(s0)
     f80:	0905                	addi	s2,s2,1
     f82:	c80d                	beqz	s0,fb4 <core_list_mergesort+0xcc>
     f84:	4000                	lw	s0,0(s0)
     f86:	00258913          	addi	s2,a1,2
     f8a:	c40d                	beqz	s0,fb4 <core_list_mergesort+0xcc>
     f8c:	4000                	lw	s0,0(s0)
     f8e:	00358913          	addi	s2,a1,3
     f92:	c00d                	beqz	s0,fb4 <core_list_mergesort+0xcc>
     f94:	4000                	lw	s0,0(s0)
     f96:	00458913          	addi	s2,a1,4
     f9a:	cc09                	beqz	s0,fb4 <core_list_mergesort+0xcc>
     f9c:	4000                	lw	s0,0(s0)
     f9e:	00558913          	addi	s2,a1,5
     fa2:	c809                	beqz	s0,fb4 <core_list_mergesort+0xcc>
     fa4:	4000                	lw	s0,0(s0)
     fa6:	00658913          	addi	s2,a1,6
     faa:	c409                	beqz	s0,fb4 <core_list_mergesort+0xcc>
     fac:	4000                	lw	s0,0(s0)
     fae:	00758913          	addi	s2,a1,7
     fb2:	f061                	bnez	s0,f72 <core_list_mergesort+0x8a>
     fb4:	89e2                	mv	s3,s8
     fb6:	02090463          	beqz	s2,fde <core_list_mergesort+0xf6>
     fba:	02098c63          	beqz	s3,ff2 <core_list_mergesort+0x10a>
     fbe:	c815                	beqz	s0,ff2 <core_list_mergesort+0x10a>
     fc0:	404c                	lw	a1,4(s0)
     fc2:	004a2503          	lw	a0,4(s4)
     fc6:	865a                	mv	a2,s6
     fc8:	9b82                	jalr	s7
     fca:	02a05463          	blez	a0,ff2 <core_list_mergesort+0x10a>
     fce:	8622                	mv	a2,s0
     fd0:	4000                	lw	s0,0(s0)
     fd2:	19fd                	addi	s3,s3,-1
     fd4:	cc81                	beqz	s1,fec <core_list_mergesort+0x104>
     fd6:	c090                	sw	a2,0(s1)
     fd8:	84b2                	mv	s1,a2
     fda:	fe0910e3          	bnez	s2,fba <core_list_mergesort+0xd2>
     fde:	00098f63          	beqz	s3,ffc <core_list_mergesort+0x114>
     fe2:	cc19                	beqz	s0,1000 <core_list_mergesort+0x118>
     fe4:	8622                	mv	a2,s0
     fe6:	19fd                	addi	s3,s3,-1
     fe8:	4000                	lw	s0,0(s0)
     fea:	f4f5                	bnez	s1,fd6 <core_list_mergesort+0xee>
     fec:	8ab2                	mv	s5,a2
     fee:	84b2                	mv	s1,a2
     ff0:	b7ed                	j	fda <core_list_mergesort+0xf2>
     ff2:	8652                	mv	a2,s4
     ff4:	197d                	addi	s2,s2,-1
     ff6:	000a2a03          	lw	s4,0(s4)
     ffa:	bfe9                	j	fd4 <core_list_mergesort+0xec>
     ffc:	8a22                	mv	s4,s0
     ffe:	fc01                	bnez	s0,f16 <core_list_mergesort+0x2e>
    1000:	0004a023          	sw	zero,0(s1)
    1004:	01ac8863          	beq	s9,s10,1014 <core_list_mergesort+0x12c>
    1008:	0c06                	slli	s8,s8,0x1
    100a:	8a56                	mv	s4,s5
    100c:	b701                	j	f0c <core_list_mergesort+0x24>
    100e:	00002023          	sw	zero,0(zero) # 0 <buf.1775>
    1012:	9002                	ebreak
    1014:	50b2                	lw	ra,44(sp)
    1016:	5422                	lw	s0,40(sp)
    1018:	8556                	mv	a0,s5
    101a:	5492                	lw	s1,36(sp)
    101c:	5902                	lw	s2,32(sp)
    101e:	49f2                	lw	s3,28(sp)
    1020:	4a62                	lw	s4,24(sp)
    1022:	4ad2                	lw	s5,20(sp)
    1024:	4b42                	lw	s6,16(sp)
    1026:	4bb2                	lw	s7,12(sp)
    1028:	4c22                	lw	s8,8(sp)
    102a:	4c92                	lw	s9,4(sp)
    102c:	4d02                	lw	s10,0(sp)
    102e:	6145                	addi	sp,sp,48
    1030:	8082                	ret

00001032 <core_bench_list>:
    1032:	7139                	addi	sp,sp,-64
    1034:	cc62                	sw	s8,24(sp)
    1036:	00451c03          	lh	s8,4(a0)
    103a:	dc22                	sw	s0,56(sp)
    103c:	d256                	sw	s5,36(sp)
    103e:	d05a                	sw	s6,32(sp)
    1040:	de06                	sw	ra,60(sp)
    1042:	da26                	sw	s1,52(sp)
    1044:	d84a                	sw	s2,48(sp)
    1046:	d64e                	sw	s3,44(sp)
    1048:	d452                	sw	s4,40(sp)
    104a:	ce5e                	sw	s7,28(sp)
    104c:	ca66                	sw	s9,20(sp)
    104e:	00b11723          	sh	a1,14(sp)
    1052:	8b2a                	mv	s6,a0
    1054:	8aae                	mv	s5,a1
    1056:	5140                	lw	s0,36(a0)
    1058:	1b805263          	blez	s8,11fc <core_bench_list+0x1ca>
    105c:	8cae                	mv	s9,a1
    105e:	4901                	li	s2,0
    1060:	4b81                	li	s7,0
    1062:	4981                	li	s3,0
    1064:	4481                	li	s1,0
    1066:	00c10a13          	addi	s4,sp,12
    106a:	0ff97793          	andi	a5,s2,255
    106e:	85d2                	mv	a1,s4
    1070:	8522                	mv	a0,s0
    1072:	00f11623          	sh	a5,12(sp)
    1076:	3539                	jal	e84 <core_list_find>
    1078:	c811                	beqz	s0,108c <core_bench_list+0x5a>
    107a:	4701                	li	a4,0
    107c:	a011                	j	1080 <core_bench_list+0x4e>
    107e:	8406                	mv	s0,ra
    1080:	00042083          	lw	ra,0(s0)
    1084:	c018                	sw	a4,0(s0)
    1086:	8722                	mv	a4,s0
    1088:	fe009be3          	bnez	ra,107e <core_bench_list+0x4c>
    108c:	c135                	beqz	a0,10f0 <core_bench_list+0xbe>
    108e:	00452283          	lw	t0,4(a0)
    1092:	0985                	addi	s3,s3,1
    1094:	01099313          	slli	t1,s3,0x10
    1098:	00029383          	lh	t2,0(t0)
    109c:	01035993          	srli	s3,t1,0x10
    10a0:	0013f593          	andi	a1,t2,1
    10a4:	c991                	beqz	a1,10b8 <core_bench_list+0x86>
    10a6:	4093d613          	srai	a2,t2,0x9
    10aa:	00167693          	andi	a3,a2,1
    10ae:	94b6                	add	s1,s1,a3
    10b0:	01049813          	slli	a6,s1,0x10
    10b4:	01085493          	srli	s1,a6,0x10
    10b8:	00052883          	lw	a7,0(a0)
    10bc:	00088b63          	beqz	a7,10d2 <core_bench_list+0xa0>
    10c0:	0008ae03          	lw	t3,0(a7)
    10c4:	01c52023          	sw	t3,0(a0)
    10c8:	4008                	lw	a0,0(s0)
    10ca:	00a8a023          	sw	a0,0(a7)
    10ce:	01142023          	sw	a7,0(s0)
    10d2:	000cc563          	bltz	s9,10dc <core_bench_list+0xaa>
    10d6:	0c85                	addi	s9,s9,1
    10d8:	01911723          	sh	s9,14(sp)
    10dc:	0905                	addi	s2,s2,1
    10de:	01091313          	slli	t1,s2,0x10
    10e2:	41035913          	srai	s2,t1,0x10
    10e6:	032c0963          	beq	s8,s2,1118 <core_bench_list+0xe6>
    10ea:	00e11c83          	lh	s9,14(sp)
    10ee:	bfb5                	j	106a <core_bench_list+0x38>
    10f0:	00042e83          	lw	t4,0(s0)
    10f4:	0b85                	addi	s7,s7,1
    10f6:	010b9f13          	slli	t5,s7,0x10
    10fa:	004eaf83          	lw	t6,4(t4)
    10fe:	010f5b93          	srli	s7,t5,0x10
    1102:	001f8783          	lb	a5,1(t6)
    1106:	0017f093          	andi	ra,a5,1
    110a:	00148733          	add	a4,s1,ra
    110e:	01071293          	slli	t0,a4,0x10
    1112:	0102d493          	srli	s1,t0,0x10
    1116:	bf75                	j	10d2 <core_bench_list+0xa0>
    1118:	00299c13          	slli	s8,s3,0x2
    111c:	417c09b3          	sub	s3,s8,s7
    1120:	013483b3          	add	t2,s1,s3
    1124:	01039593          	slli	a1,t2,0x10
    1128:	0105d493          	srli	s1,a1,0x10
    112c:	01505a63          	blez	s5,1140 <core_bench_list+0x10e>
    1130:	00001ab7          	lui	s5,0x1
    1134:	8522                	mv	a0,s0
    1136:	865a                	mv	a2,s6
    1138:	dd0a8593          	addi	a1,s5,-560 # dd0 <cmp_complex>
    113c:	3375                	jal	ee8 <core_list_mergesort>
    113e:	842a                	mv	s0,a0
    1140:	00042b03          	lw	s6,0(s0)
    1144:	85d2                	mv	a1,s4
    1146:	8522                	mv	a0,s0
    1148:	000b2b83          	lw	s7,0(s6)
    114c:	004b2903          	lw	s2,4(s6)
    1150:	004ba603          	lw	a2,4(s7)
    1154:	000ba683          	lw	a3,0(s7)
    1158:	00cb2223          	sw	a2,4(s6)
    115c:	012ba223          	sw	s2,4(s7)
    1160:	00db2023          	sw	a3,0(s6)
    1164:	000ba023          	sw	zero,0(s7)
    1168:	3b31                	jal	e84 <core_list_find>
    116a:	8caa                	mv	s9,a0
    116c:	c159                	beqz	a0,11f2 <core_bench_list+0x1c0>
    116e:	00442a03          	lw	s4,4(s0)
    1172:	85a6                	mv	a1,s1
    1174:	000a1503          	lh	a0,0(s4)
    1178:	20e030ef          	jal	ra,4386 <crc16>
    117c:	000cac83          	lw	s9,0(s9)
    1180:	84aa                	mv	s1,a0
    1182:	fe0c96e3          	bnez	s9,116e <core_bench_list+0x13c>
    1186:	00042c83          	lw	s9,0(s0)
    118a:	004ba903          	lw	s2,4(s7)
    118e:	004ca803          	lw	a6,4(s9)
    1192:	000ca883          	lw	a7,0(s9)
    1196:	00001e37          	lui	t3,0x1
    119a:	010ba223          	sw	a6,4(s7)
    119e:	012ca223          	sw	s2,4(s9)
    11a2:	011ba023          	sw	a7,0(s7)
    11a6:	017ca023          	sw	s7,0(s9)
    11aa:	4601                	li	a2,0
    11ac:	caee0593          	addi	a1,t3,-850 # cae <cmp_idx>
    11b0:	8522                	mv	a0,s0
    11b2:	3b1d                	jal	ee8 <core_list_mergesort>
    11b4:	00052983          	lw	s3,0(a0)
    11b8:	8c2a                	mv	s8,a0
    11ba:	00098e63          	beqz	s3,11d6 <core_bench_list+0x1a4>
    11be:	004c2503          	lw	a0,4(s8)
    11c2:	85a6                	mv	a1,s1
    11c4:	00051503          	lh	a0,0(a0)
    11c8:	1be030ef          	jal	ra,4386 <crc16>
    11cc:	0009a983          	lw	s3,0(s3)
    11d0:	84aa                	mv	s1,a0
    11d2:	fe0996e3          	bnez	s3,11be <core_bench_list+0x18c>
    11d6:	50f2                	lw	ra,60(sp)
    11d8:	5462                	lw	s0,56(sp)
    11da:	8526                	mv	a0,s1
    11dc:	5942                	lw	s2,48(sp)
    11de:	54d2                	lw	s1,52(sp)
    11e0:	59b2                	lw	s3,44(sp)
    11e2:	5a22                	lw	s4,40(sp)
    11e4:	5a92                	lw	s5,36(sp)
    11e6:	5b02                	lw	s6,32(sp)
    11e8:	4bf2                	lw	s7,28(sp)
    11ea:	4c62                	lw	s8,24(sp)
    11ec:	4cd2                	lw	s9,20(sp)
    11ee:	6121                	addi	sp,sp,64
    11f0:	8082                	ret
    11f2:	00042c83          	lw	s9,0(s0)
    11f6:	f80c8ce3          	beqz	s9,118e <core_bench_list+0x15c>
    11fa:	bf95                	j	116e <core_bench_list+0x13c>
    11fc:	4481                	li	s1,0
    11fe:	00c10a13          	addi	s4,sp,12
    1202:	b72d                	j	112c <core_bench_list+0xfa>

00001204 <core_list_init>:
    1204:	4e51                	li	t3,20
    1206:	03c552b3          	divu	t0,a0,t3
    120a:	852e                	mv	a0,a1
    120c:	0005a023          	sw	zero,0(a1)
    1210:	76e1                	lui	a3,0xffff8
    1212:	08068393          	addi	t2,a3,128 # ffff8080 <__C_STACK_TOP__+0xfffe8080>
    1216:	01058313          	addi	t1,a1,16
    121a:	00858793          	addi	a5,a1,8
    121e:	4581                	li	a1,0
    1220:	ffe28f13          	addi	t5,t0,-2
    1224:	003f1713          	slli	a4,t5,0x3
    1228:	972a                	add	a4,a4,a0
    122a:	c158                	sw	a4,4(a0)
    122c:	002f1893          	slli	a7,t5,0x2
    1230:	00771023          	sh	t2,0(a4)
    1234:	00071123          	sh	zero,2(a4)
    1238:	98ba                	add	a7,a7,a4
    123a:	00470813          	addi	a6,a4,4
    123e:	00e37663          	bleu	a4,t1,124a <core_list_init+0x46>
    1242:	00870e93          	addi	t4,a4,8
    1246:	491ee563          	bltu	t4,a7,16d0 <core_list_init+0x4cc>
    124a:	0e0f0d63          	beqz	t5,1344 <core_list_init+0x140>
    124e:	01061e13          	slli	t3,a2,0x10
    1252:	7361                	lui	t1,0xffff8
    1254:	007f7293          	andi	t0,t5,7
    1258:	010e5e13          	srli	t3,t3,0x10
    125c:	4681                	li	a3,0
    125e:	fff34e93          	not	t4,t1
    1262:	08028163          	beqz	t0,12e4 <core_list_init+0xe0>
    1266:	4385                	li	t2,1
    1268:	06728763          	beq	t0,t2,12d6 <core_list_init+0xd2>
    126c:	4f89                	li	t6,2
    126e:	05f28f63          	beq	t0,t6,12cc <core_list_init+0xc8>
    1272:	430d                	li	t1,3
    1274:	04628763          	beq	t0,t1,12c2 <core_list_init+0xbe>
    1278:	4391                	li	t2,4
    127a:	02728b63          	beq	t0,t2,12b0 <core_list_init+0xac>
    127e:	4f95                	li	t6,5
    1280:	03f28363          	beq	t0,t6,12a6 <core_list_init+0xa2>
    1284:	4319                	li	t1,6
    1286:	00628b63          	beq	t0,t1,129c <core_list_init+0x98>
    128a:	00878693          	addi	a3,a5,8
    128e:	00e6f663          	bleu	a4,a3,129a <core_list_init+0x96>
    1292:	00480293          	addi	t0,a6,4
    1296:	5112ee63          	bltu	t0,a7,17b2 <core_list_init+0x5ae>
    129a:	4685                	li	a3,1
    129c:	00878313          	addi	t1,a5,8
    12a0:	48e36a63          	bltu	t1,a4,1734 <core_list_init+0x530>
    12a4:	0685                	addi	a3,a3,1
    12a6:	00878313          	addi	t1,a5,8
    12aa:	44e36463          	bltu	t1,a4,16f2 <core_list_init+0x4ee>
    12ae:	0685                	addi	a3,a3,1
    12b0:	00878313          	addi	t1,a5,8
    12b4:	00e37663          	bleu	a4,t1,12c0 <core_list_init+0xbc>
    12b8:	00480293          	addi	t0,a6,4
    12bc:	4b12ed63          	bltu	t0,a7,1776 <core_list_init+0x572>
    12c0:	0685                	addi	a3,a3,1
    12c2:	00878313          	addi	t1,a5,8
    12c6:	3ce36463          	bltu	t1,a4,168e <core_list_init+0x48a>
    12ca:	0685                	addi	a3,a3,1
    12cc:	00878313          	addi	t1,a5,8
    12d0:	10e36a63          	bltu	t1,a4,13e4 <core_list_init+0x1e0>
    12d4:	0685                	addi	a3,a3,1
    12d6:	00878313          	addi	t1,a5,8
    12da:	0ce36163          	bltu	t1,a4,139c <core_list_init+0x198>
    12de:	0685                	addi	a3,a3,1
    12e0:	06df0263          	beq	t5,a3,1344 <core_list_init+0x140>
    12e4:	00878313          	addi	t1,a5,8
    12e8:	34e36d63          	bltu	t1,a4,1642 <core_list_init+0x43e>
    12ec:	00878313          	addi	t1,a5,8
    12f0:	0685                	addi	a3,a3,1
    12f2:	30e36163          	bltu	t1,a4,15f4 <core_list_init+0x3f0>
    12f6:	00878f93          	addi	t6,a5,8
    12fa:	00168313          	addi	t1,a3,1
    12fe:	2aefe463          	bltu	t6,a4,15a6 <core_list_init+0x3a2>
    1302:	00878f93          	addi	t6,a5,8
    1306:	00268293          	addi	t0,a3,2
    130a:	24efe763          	bltu	t6,a4,1558 <core_list_init+0x354>
    130e:	00878f93          	addi	t6,a5,8
    1312:	00368293          	addi	t0,a3,3
    1316:	1eefea63          	bltu	t6,a4,150a <core_list_init+0x306>
    131a:	00878f93          	addi	t6,a5,8
    131e:	00468293          	addi	t0,a3,4
    1322:	18efed63          	bltu	t6,a4,14bc <core_list_init+0x2b8>
    1326:	00878f93          	addi	t6,a5,8
    132a:	00568293          	addi	t0,a3,5
    132e:	14efe063          	bltu	t6,a4,146e <core_list_init+0x26a>
    1332:	00878f93          	addi	t6,a5,8
    1336:	00668293          	addi	t0,a3,6
    133a:	0eefe663          	bltu	t6,a4,1426 <core_list_init+0x222>
    133e:	069d                	addi	a3,a3,7
    1340:	fadf12e3          	bne	t5,a3,12e4 <core_list_init+0xe0>
    1344:	4715                	li	a4,5
    1346:	02ef5833          	divu	a6,t5,a4
    134a:	6f11                	lui	t5,0x4
    134c:	20000e13          	li	t3,512
    1350:	4685                	li	a3,1
    1352:	ffff0313          	addi	t1,t5,-1 # 3fff <crcu8+0x11>
    1356:	a819                	j	136c <core_list_init+0x168>
    1358:	00d59123          	sh	a3,2(a1)
    135c:	100e0793          	addi	a5,t3,256
    1360:	01079713          	slli	a4,a5,0x10
    1364:	0685                	addi	a3,a3,1
    1366:	01075e13          	srli	t3,a4,0x10
    136a:	85f6                	mv	a1,t4
    136c:	0005ae83          	lw	t4,0(a1)
    1370:	700e7f93          	andi	t6,t3,1792
    1374:	00c6c8b3          	xor	a7,a3,a2
    1378:	011fe3b3          	or	t2,t6,a7
    137c:	0063f2b3          	and	t0,t2,t1
    1380:	000e8863          	beqz	t4,1390 <core_list_init+0x18c>
    1384:	41cc                	lw	a1,4(a1)
    1386:	fd06e9e3          	bltu	a3,a6,1358 <core_list_init+0x154>
    138a:	00559123          	sh	t0,2(a1)
    138e:	b7f9                	j	135c <core_list_init+0x158>
    1390:	00001e37          	lui	t3,0x1
    1394:	4601                	li	a2,0
    1396:	caee0593          	addi	a1,t3,-850 # cae <cmp_idx>
    139a:	b6b9                	j	ee8 <core_list_mergesort>
    139c:	00480293          	addi	t0,a6,4
    13a0:	f312ffe3          	bleu	a7,t0,12de <core_list_init+0xda>
    13a4:	01069f93          	slli	t6,a3,0x10
    13a8:	010fd393          	srli	t2,t6,0x10
    13ac:	01c3cfb3          	xor	t6,t2,t3
    13b0:	0f8e                	slli	t6,t6,0x3
    13b2:	078fff93          	andi	t6,t6,120
    13b6:	0073f393          	andi	t2,t2,7
    13ba:	c38c                	sw	a1,0(a5)
    13bc:	007fe5b3          	or	a1,t6,t2
    13c0:	c11c                	sw	a5,0(a0)
    13c2:	00859f93          	slli	t6,a1,0x8
    13c6:	0107a223          	sw	a6,4(a5)
    13ca:	00bfe3b3          	or	t2,t6,a1
    13ce:	00781023          	sh	t2,0(a6)
    13d2:	01d81123          	sh	t4,2(a6)
    13d6:	0685                	addi	a3,a3,1
    13d8:	85be                	mv	a1,a5
    13da:	8816                	mv	a6,t0
    13dc:	879a                	mv	a5,t1
    13de:	f0df13e3          	bne	t5,a3,12e4 <core_list_init+0xe0>
    13e2:	b78d                	j	1344 <core_list_init+0x140>
    13e4:	00480293          	addi	t0,a6,4
    13e8:	ef12f6e3          	bleu	a7,t0,12d4 <core_list_init+0xd0>
    13ec:	01069f93          	slli	t6,a3,0x10
    13f0:	010fd393          	srli	t2,t6,0x10
    13f4:	01c3cfb3          	xor	t6,t2,t3
    13f8:	0f8e                	slli	t6,t6,0x3
    13fa:	078fff93          	andi	t6,t6,120
    13fe:	0073f393          	andi	t2,t2,7
    1402:	c38c                	sw	a1,0(a5)
    1404:	007fe5b3          	or	a1,t6,t2
    1408:	c11c                	sw	a5,0(a0)
    140a:	00859f93          	slli	t6,a1,0x8
    140e:	0107a223          	sw	a6,4(a5)
    1412:	00bfe3b3          	or	t2,t6,a1
    1416:	00781023          	sh	t2,0(a6)
    141a:	01d81123          	sh	t4,2(a6)
    141e:	85be                	mv	a1,a5
    1420:	8816                	mv	a6,t0
    1422:	879a                	mv	a5,t1
    1424:	bd45                	j	12d4 <core_list_init+0xd0>
    1426:	00480393          	addi	t2,a6,4
    142a:	f113fae3          	bleu	a7,t2,133e <core_list_init+0x13a>
    142e:	01029313          	slli	t1,t0,0x10
    1432:	01035313          	srli	t1,t1,0x10
    1436:	01c342b3          	xor	t0,t1,t3
    143a:	028e                	slli	t0,t0,0x3
    143c:	00737313          	andi	t1,t1,7
    1440:	0782f293          	andi	t0,t0,120
    1444:	c38c                	sw	a1,0(a5)
    1446:	0062e2b3          	or	t0,t0,t1
    144a:	c11c                	sw	a5,0(a0)
    144c:	00829593          	slli	a1,t0,0x8
    1450:	0107a223          	sw	a6,4(a5)
    1454:	0055e333          	or	t1,a1,t0
    1458:	00681023          	sh	t1,0(a6)
    145c:	01d81123          	sh	t4,2(a6)
    1460:	069d                	addi	a3,a3,7
    1462:	85be                	mv	a1,a5
    1464:	881e                	mv	a6,t2
    1466:	87fe                	mv	a5,t6
    1468:	e6df1ee3          	bne	t5,a3,12e4 <core_list_init+0xe0>
    146c:	bde1                	j	1344 <core_list_init+0x140>
    146e:	00480393          	addi	t2,a6,4
    1472:	ed13f0e3          	bleu	a7,t2,1332 <core_list_init+0x12e>
    1476:	01029313          	slli	t1,t0,0x10
    147a:	01035313          	srli	t1,t1,0x10
    147e:	01c342b3          	xor	t0,t1,t3
    1482:	028e                	slli	t0,t0,0x3
    1484:	00737313          	andi	t1,t1,7
    1488:	0782f293          	andi	t0,t0,120
    148c:	c38c                	sw	a1,0(a5)
    148e:	0062e2b3          	or	t0,t0,t1
    1492:	c11c                	sw	a5,0(a0)
    1494:	00829593          	slli	a1,t0,0x8
    1498:	0107a223          	sw	a6,4(a5)
    149c:	0055e333          	or	t1,a1,t0
    14a0:	85be                	mv	a1,a5
    14a2:	87fe                	mv	a5,t6
    14a4:	00681023          	sh	t1,0(a6)
    14a8:	01d81123          	sh	t4,2(a6)
    14ac:	00878f93          	addi	t6,a5,8
    14b0:	881e                	mv	a6,t2
    14b2:	00668293          	addi	t0,a3,6
    14b6:	e8eff4e3          	bleu	a4,t6,133e <core_list_init+0x13a>
    14ba:	b7b5                	j	1426 <core_list_init+0x222>
    14bc:	00480393          	addi	t2,a6,4
    14c0:	e713f3e3          	bleu	a7,t2,1326 <core_list_init+0x122>
    14c4:	01029313          	slli	t1,t0,0x10
    14c8:	01035313          	srli	t1,t1,0x10
    14cc:	01c342b3          	xor	t0,t1,t3
    14d0:	028e                	slli	t0,t0,0x3
    14d2:	00737313          	andi	t1,t1,7
    14d6:	0782f293          	andi	t0,t0,120
    14da:	c38c                	sw	a1,0(a5)
    14dc:	0062e2b3          	or	t0,t0,t1
    14e0:	c11c                	sw	a5,0(a0)
    14e2:	00829593          	slli	a1,t0,0x8
    14e6:	0107a223          	sw	a6,4(a5)
    14ea:	0055e333          	or	t1,a1,t0
    14ee:	85be                	mv	a1,a5
    14f0:	87fe                	mv	a5,t6
    14f2:	00681023          	sh	t1,0(a6)
    14f6:	01d81123          	sh	t4,2(a6)
    14fa:	00878f93          	addi	t6,a5,8
    14fe:	881e                	mv	a6,t2
    1500:	00568293          	addi	t0,a3,5
    1504:	e2eff7e3          	bleu	a4,t6,1332 <core_list_init+0x12e>
    1508:	b79d                	j	146e <core_list_init+0x26a>
    150a:	00480393          	addi	t2,a6,4
    150e:	e113f6e3          	bleu	a7,t2,131a <core_list_init+0x116>
    1512:	01029313          	slli	t1,t0,0x10
    1516:	01035313          	srli	t1,t1,0x10
    151a:	01c342b3          	xor	t0,t1,t3
    151e:	028e                	slli	t0,t0,0x3
    1520:	00737313          	andi	t1,t1,7
    1524:	0782f293          	andi	t0,t0,120
    1528:	c38c                	sw	a1,0(a5)
    152a:	0062e2b3          	or	t0,t0,t1
    152e:	c11c                	sw	a5,0(a0)
    1530:	00829593          	slli	a1,t0,0x8
    1534:	0107a223          	sw	a6,4(a5)
    1538:	0055e333          	or	t1,a1,t0
    153c:	85be                	mv	a1,a5
    153e:	87fe                	mv	a5,t6
    1540:	00681023          	sh	t1,0(a6)
    1544:	01d81123          	sh	t4,2(a6)
    1548:	00878f93          	addi	t6,a5,8
    154c:	881e                	mv	a6,t2
    154e:	00468293          	addi	t0,a3,4
    1552:	dceffae3          	bleu	a4,t6,1326 <core_list_init+0x122>
    1556:	b79d                	j	14bc <core_list_init+0x2b8>
    1558:	00480393          	addi	t2,a6,4
    155c:	db13f9e3          	bleu	a7,t2,130e <core_list_init+0x10a>
    1560:	01029313          	slli	t1,t0,0x10
    1564:	01035313          	srli	t1,t1,0x10
    1568:	01c342b3          	xor	t0,t1,t3
    156c:	028e                	slli	t0,t0,0x3
    156e:	00737313          	andi	t1,t1,7
    1572:	0782f293          	andi	t0,t0,120
    1576:	c38c                	sw	a1,0(a5)
    1578:	0062e2b3          	or	t0,t0,t1
    157c:	c11c                	sw	a5,0(a0)
    157e:	00829593          	slli	a1,t0,0x8
    1582:	0107a223          	sw	a6,4(a5)
    1586:	0055e333          	or	t1,a1,t0
    158a:	85be                	mv	a1,a5
    158c:	87fe                	mv	a5,t6
    158e:	00681023          	sh	t1,0(a6)
    1592:	01d81123          	sh	t4,2(a6)
    1596:	00878f93          	addi	t6,a5,8
    159a:	881e                	mv	a6,t2
    159c:	00368293          	addi	t0,a3,3
    15a0:	d6effde3          	bleu	a4,t6,131a <core_list_init+0x116>
    15a4:	b79d                	j	150a <core_list_init+0x306>
    15a6:	00480393          	addi	t2,a6,4
    15aa:	d513fce3          	bleu	a7,t2,1302 <core_list_init+0xfe>
    15ae:	01031293          	slli	t0,t1,0x10
    15b2:	0102d313          	srli	t1,t0,0x10
    15b6:	01c342b3          	xor	t0,t1,t3
    15ba:	028e                	slli	t0,t0,0x3
    15bc:	00737313          	andi	t1,t1,7
    15c0:	0782f293          	andi	t0,t0,120
    15c4:	c38c                	sw	a1,0(a5)
    15c6:	0062e2b3          	or	t0,t0,t1
    15ca:	c11c                	sw	a5,0(a0)
    15cc:	00829593          	slli	a1,t0,0x8
    15d0:	0107a223          	sw	a6,4(a5)
    15d4:	0055e333          	or	t1,a1,t0
    15d8:	85be                	mv	a1,a5
    15da:	87fe                	mv	a5,t6
    15dc:	00681023          	sh	t1,0(a6)
    15e0:	01d81123          	sh	t4,2(a6)
    15e4:	00878f93          	addi	t6,a5,8
    15e8:	881e                	mv	a6,t2
    15ea:	00268293          	addi	t0,a3,2
    15ee:	d2eff0e3          	bleu	a4,t6,130e <core_list_init+0x10a>
    15f2:	b79d                	j	1558 <core_list_init+0x354>
    15f4:	00480293          	addi	t0,a6,4
    15f8:	cf12ffe3          	bleu	a7,t0,12f6 <core_list_init+0xf2>
    15fc:	01069f93          	slli	t6,a3,0x10
    1600:	010fd393          	srli	t2,t6,0x10
    1604:	01c3cfb3          	xor	t6,t2,t3
    1608:	0f8e                	slli	t6,t6,0x3
    160a:	078fff93          	andi	t6,t6,120
    160e:	0073f393          	andi	t2,t2,7
    1612:	c38c                	sw	a1,0(a5)
    1614:	007fe5b3          	or	a1,t6,t2
    1618:	c11c                	sw	a5,0(a0)
    161a:	00859f93          	slli	t6,a1,0x8
    161e:	0107a223          	sw	a6,4(a5)
    1622:	00bfe3b3          	or	t2,t6,a1
    1626:	85be                	mv	a1,a5
    1628:	879a                	mv	a5,t1
    162a:	00781023          	sh	t2,0(a6)
    162e:	01d81123          	sh	t4,2(a6)
    1632:	00878f93          	addi	t6,a5,8
    1636:	8816                	mv	a6,t0
    1638:	00168313          	addi	t1,a3,1
    163c:	cceff3e3          	bleu	a4,t6,1302 <core_list_init+0xfe>
    1640:	b79d                	j	15a6 <core_list_init+0x3a2>
    1642:	00480293          	addi	t0,a6,4
    1646:	cb12f3e3          	bleu	a7,t0,12ec <core_list_init+0xe8>
    164a:	01069f93          	slli	t6,a3,0x10
    164e:	010fd393          	srli	t2,t6,0x10
    1652:	01c3cfb3          	xor	t6,t2,t3
    1656:	0f8e                	slli	t6,t6,0x3
    1658:	078fff93          	andi	t6,t6,120
    165c:	0073f393          	andi	t2,t2,7
    1660:	c38c                	sw	a1,0(a5)
    1662:	007fe5b3          	or	a1,t6,t2
    1666:	c11c                	sw	a5,0(a0)
    1668:	00859f93          	slli	t6,a1,0x8
    166c:	0107a223          	sw	a6,4(a5)
    1670:	00bfe3b3          	or	t2,t6,a1
    1674:	85be                	mv	a1,a5
    1676:	879a                	mv	a5,t1
    1678:	00781023          	sh	t2,0(a6)
    167c:	01d81123          	sh	t4,2(a6)
    1680:	00878313          	addi	t1,a5,8
    1684:	8816                	mv	a6,t0
    1686:	0685                	addi	a3,a3,1
    1688:	c6e377e3          	bleu	a4,t1,12f6 <core_list_init+0xf2>
    168c:	b7a5                	j	15f4 <core_list_init+0x3f0>
    168e:	00480293          	addi	t0,a6,4
    1692:	c312fce3          	bleu	a7,t0,12ca <core_list_init+0xc6>
    1696:	01069f93          	slli	t6,a3,0x10
    169a:	010fd393          	srli	t2,t6,0x10
    169e:	01c3cfb3          	xor	t6,t2,t3
    16a2:	0f8e                	slli	t6,t6,0x3
    16a4:	078fff93          	andi	t6,t6,120
    16a8:	0073f393          	andi	t2,t2,7
    16ac:	c38c                	sw	a1,0(a5)
    16ae:	007fe5b3          	or	a1,t6,t2
    16b2:	c11c                	sw	a5,0(a0)
    16b4:	00859f93          	slli	t6,a1,0x8
    16b8:	0107a223          	sw	a6,4(a5)
    16bc:	00bfe3b3          	or	t2,t6,a1
    16c0:	00781023          	sh	t2,0(a6)
    16c4:	01d81123          	sh	t4,2(a6)
    16c8:	85be                	mv	a1,a5
    16ca:	8816                	mv	a6,t0
    16cc:	879a                	mv	a5,t1
    16ce:	bef5                	j	12ca <core_list_init+0xc6>
    16d0:	01052623          	sw	a6,12(a0)
    16d4:	6821                	lui	a6,0x8
    16d6:	c11c                	sw	a5,0(a0)
    16d8:	00052423          	sw	zero,8(a0)
    16dc:	fff80f93          	addi	t6,a6,-1 # 7fff <__BSS_END__+0x19bf>
    16e0:	85be                	mv	a1,a5
    16e2:	57fd                	li	a5,-1
    16e4:	00f71223          	sh	a5,4(a4)
    16e8:	01f71323          	sh	t6,6(a4)
    16ec:	8876                	mv	a6,t4
    16ee:	879a                	mv	a5,t1
    16f0:	bea9                	j	124a <core_list_init+0x46>
    16f2:	00480293          	addi	t0,a6,4
    16f6:	bb12fce3          	bleu	a7,t0,12ae <core_list_init+0xaa>
    16fa:	01069f93          	slli	t6,a3,0x10
    16fe:	010fd393          	srli	t2,t6,0x10
    1702:	01c3cfb3          	xor	t6,t2,t3
    1706:	0f8e                	slli	t6,t6,0x3
    1708:	078fff93          	andi	t6,t6,120
    170c:	0073f393          	andi	t2,t2,7
    1710:	c38c                	sw	a1,0(a5)
    1712:	007fe5b3          	or	a1,t6,t2
    1716:	c11c                	sw	a5,0(a0)
    1718:	00859f93          	slli	t6,a1,0x8
    171c:	0107a223          	sw	a6,4(a5)
    1720:	00bfe3b3          	or	t2,t6,a1
    1724:	00781023          	sh	t2,0(a6)
    1728:	01d81123          	sh	t4,2(a6)
    172c:	85be                	mv	a1,a5
    172e:	8816                	mv	a6,t0
    1730:	879a                	mv	a5,t1
    1732:	beb5                	j	12ae <core_list_init+0xaa>
    1734:	00480293          	addi	t0,a6,4
    1738:	b712f6e3          	bleu	a7,t0,12a4 <core_list_init+0xa0>
    173c:	01069f93          	slli	t6,a3,0x10
    1740:	010fd393          	srli	t2,t6,0x10
    1744:	01c3cfb3          	xor	t6,t2,t3
    1748:	0f8e                	slli	t6,t6,0x3
    174a:	078fff93          	andi	t6,t6,120
    174e:	0073f393          	andi	t2,t2,7
    1752:	c38c                	sw	a1,0(a5)
    1754:	007fe5b3          	or	a1,t6,t2
    1758:	c11c                	sw	a5,0(a0)
    175a:	00859f93          	slli	t6,a1,0x8
    175e:	0107a223          	sw	a6,4(a5)
    1762:	00bfe3b3          	or	t2,t6,a1
    1766:	00781023          	sh	t2,0(a6)
    176a:	01d81123          	sh	t4,2(a6)
    176e:	85be                	mv	a1,a5
    1770:	8816                	mv	a6,t0
    1772:	879a                	mv	a5,t1
    1774:	be05                	j	12a4 <core_list_init+0xa0>
    1776:	01069f93          	slli	t6,a3,0x10
    177a:	010fd393          	srli	t2,t6,0x10
    177e:	01c3cfb3          	xor	t6,t2,t3
    1782:	0f8e                	slli	t6,t6,0x3
    1784:	078fff93          	andi	t6,t6,120
    1788:	0073f393          	andi	t2,t2,7
    178c:	c38c                	sw	a1,0(a5)
    178e:	007fe5b3          	or	a1,t6,t2
    1792:	c11c                	sw	a5,0(a0)
    1794:	00859f93          	slli	t6,a1,0x8
    1798:	0107a223          	sw	a6,4(a5)
    179c:	00bfe3b3          	or	t2,t6,a1
    17a0:	00781023          	sh	t2,0(a6)
    17a4:	01d81123          	sh	t4,2(a6)
    17a8:	85be                	mv	a1,a5
    17aa:	8816                	mv	a6,t0
    17ac:	879a                	mv	a5,t1
    17ae:	0685                	addi	a3,a3,1
    17b0:	be09                	j	12c2 <core_list_init+0xbe>
    17b2:	003e1393          	slli	t2,t3,0x3
    17b6:	c38c                	sw	a1,0(a5)
    17b8:	0783ff93          	andi	t6,t2,120
    17bc:	c11c                	sw	a5,0(a0)
    17be:	008f9313          	slli	t1,t6,0x8
    17c2:	0107a223          	sw	a6,4(a5)
    17c6:	01f363b3          	or	t2,t1,t6
    17ca:	00781023          	sh	t2,0(a6)
    17ce:	01d81123          	sh	t4,2(a6)
    17d2:	85be                	mv	a1,a5
    17d4:	8816                	mv	a6,t0
    17d6:	87b6                	mv	a5,a3
    17d8:	4685                	li	a3,1
    17da:	b4c9                	j	129c <core_list_init+0x98>

000017dc <core_init_matrix>:
    17dc:	7179                	addi	sp,sp,-48
    17de:	d04e                	sw	s3,32(sp)
    17e0:	d622                	sw	s0,44(sp)
    17e2:	d426                	sw	s1,40(sp)
    17e4:	d24a                	sw	s2,36(sp)
    17e6:	ce52                	sw	s4,28(sp)
    17e8:	cc56                	sw	s5,24(sp)
    17ea:	ca5a                	sw	s6,20(sp)
    17ec:	c85e                	sw	s7,16(sp)
    17ee:	c662                	sw	s8,12(sp)
    17f0:	c466                	sw	s9,8(sp)
    17f2:	89aa                	mv	s3,a0
    17f4:	e211                	bnez	a2,17f8 <core_init_matrix+0x1c>
    17f6:	4605                	li	a2,1
    17f8:	fff58293          	addi	t0,a1,-1
    17fc:	ffc2f313          	andi	t1,t0,-4
    1800:	00430913          	addi	s2,t1,4 # ffff8004 <__C_STACK_TOP__+0xfffe8004>
    1804:	2c098763          	beqz	s3,1ad2 <core_init_matrix+0x2f6>
    1808:	4501                	li	a0,0
    180a:	a011                	j	180e <core_init_matrix+0x32>
    180c:	853a                	mv	a0,a4
    180e:	00150713          	addi	a4,a0,1
    1812:	02e707b3          	mul	a5,a4,a4
    1816:	00379413          	slli	s0,a5,0x3
    181a:	ff3469e3          	bltu	s0,s3,180c <core_init_matrix+0x30>
    181e:	02a504b3          	mul	s1,a0,a0
    1822:	89aa                	mv	s3,a0
    1824:	00149393          	slli	t2,s1,0x1
    1828:	007902b3          	add	t0,s2,t2
    182c:	26050763          	beqz	a0,1a9a <core_init_matrix+0x2be>
    1830:	6ec1                	lui	t4,0x10
    1832:	4f81                	li	t6,0
    1834:	4885                	li	a7,1
    1836:	40590f33          	sub	t5,s2,t0
    183a:	00151493          	slli	s1,a0,0x1
    183e:	1efd                	addi	t4,t4,-1
    1840:	03160633          	mul	a2,a2,a7
    1844:	01089593          	slli	a1,a7,0x10
    1848:	0105da13          	srli	s4,a1,0x10
    184c:	fff8c813          	not	a6,a7
    1850:	01180ab3          	add	s5,a6,a7
    1854:	00aa8b33          	add	s6,s5,a0
    1858:	00188593          	addi	a1,a7,1
    185c:	003b7b93          	andi	s7,s6,3
    1860:	41158e33          	sub	t3,a1,a7
    1864:	03f48c33          	mul	s8,s1,t6
    1868:	41f65c93          	srai	s9,a2,0x1f
    186c:	010cd313          	srli	t1,s9,0x10
    1870:	00660733          	add	a4,a2,t1
    1874:	01d777b3          	and	a5,a4,t4
    1878:	40678633          	sub	a2,a5,t1
    187c:	00ca0433          	add	s0,s4,a2
    1880:	01041813          	slli	a6,s0,0x10
    1884:	01085a93          	srli	s5,a6,0x10
    1888:	9a56                	add	s4,s4,s5
    188a:	9c16                	add	s8,s8,t0
    188c:	0ffa7b13          	andi	s6,s4,255
    1890:	015c1023          	sh	s5,0(s8)
    1894:	018f0cb3          	add	s9,t5,s8
    1898:	016c9023          	sh	s6,0(s9)
    189c:	002c0813          	addi	a6,s8,2
    18a0:	1eae7863          	bleu	a0,t3,1a90 <core_init_matrix+0x2b4>
    18a4:	0e0b8363          	beqz	s7,198a <core_init_matrix+0x1ae>
    18a8:	4e05                	li	t3,1
    18aa:	09cb8a63          	beq	s7,t3,193e <core_init_matrix+0x162>
    18ae:	4309                	li	t1,2
    18b0:	046b8563          	beq	s7,t1,18fa <core_init_matrix+0x11e>
    18b4:	02b60633          	mul	a2,a2,a1
    18b8:	05c2                	slli	a1,a1,0x10
    18ba:	0105db93          	srli	s7,a1,0x10
    18be:	010f0433          	add	s0,t5,a6
    18c2:	004c0813          	addi	a6,s8,4
    18c6:	00288593          	addi	a1,a7,2
    18ca:	41f65713          	srai	a4,a2,0x1f
    18ce:	01075793          	srli	a5,a4,0x10
    18d2:	00f60ab3          	add	s5,a2,a5
    18d6:	01dafa33          	and	s4,s5,t4
    18da:	40fa0633          	sub	a2,s4,a5
    18de:	00cb8b33          	add	s6,s7,a2
    18e2:	010b1c93          	slli	s9,s6,0x10
    18e6:	010cde13          	srli	t3,s9,0x10
    18ea:	01cb8333          	add	t1,s7,t3
    18ee:	01cc1123          	sh	t3,2(s8)
    18f2:	0ff37c13          	andi	s8,t1,255
    18f6:	01841023          	sh	s8,0(s0)
    18fa:	02b60633          	mul	a2,a2,a1
    18fe:	01059b93          	slli	s7,a1,0x10
    1902:	010bd413          	srli	s0,s7,0x10
    1906:	010f0ab3          	add	s5,t5,a6
    190a:	0585                	addi	a1,a1,1
    190c:	0809                	addi	a6,a6,2
    190e:	41f65713          	srai	a4,a2,0x1f
    1912:	01075793          	srli	a5,a4,0x10
    1916:	00f60a33          	add	s4,a2,a5
    191a:	01da7b33          	and	s6,s4,t4
    191e:	40fb0633          	sub	a2,s6,a5
    1922:	00c40cb3          	add	s9,s0,a2
    1926:	010c9e13          	slli	t3,s9,0x10
    192a:	010e5313          	srli	t1,t3,0x10
    192e:	00640c33          	add	s8,s0,t1
    1932:	fe681f23          	sh	t1,-2(a6)
    1936:	0ffc7b93          	andi	s7,s8,255
    193a:	017a9023          	sh	s7,0(s5)
    193e:	02b60633          	mul	a2,a2,a1
    1942:	01059413          	slli	s0,a1,0x10
    1946:	01045a93          	srli	s5,s0,0x10
    194a:	010f0a33          	add	s4,t5,a6
    194e:	0809                	addi	a6,a6,2
    1950:	0585                	addi	a1,a1,1
    1952:	41158b33          	sub	s6,a1,a7
    1956:	41f65713          	srai	a4,a2,0x1f
    195a:	01075793          	srli	a5,a4,0x10
    195e:	00f60cb3          	add	s9,a2,a5
    1962:	01dcfe33          	and	t3,s9,t4
    1966:	40fe0633          	sub	a2,t3,a5
    196a:	00ca8333          	add	t1,s5,a2
    196e:	01031c13          	slli	s8,t1,0x10
    1972:	010c5b93          	srli	s7,s8,0x10
    1976:	017a8433          	add	s0,s5,s7
    197a:	ff781f23          	sh	s7,-2(a6)
    197e:	0ff47a93          	andi	s5,s0,255
    1982:	015a1023          	sh	s5,0(s4)
    1986:	10ab7563          	bleu	a0,s6,1a90 <core_init_matrix+0x2b4>
    198a:	02b60633          	mul	a2,a2,a1
    198e:	00158c93          	addi	s9,a1,1
    1992:	010c9b13          	slli	s6,s9,0x10
    1996:	01059a13          	slli	s4,a1,0x10
    199a:	010a5a13          	srli	s4,s4,0x10
    199e:	010f07b3          	add	a5,t5,a6
    19a2:	8bbe                	mv	s7,a5
    19a4:	00258713          	addi	a4,a1,2
    19a8:	01071e13          	slli	t3,a4,0x10
    19ac:	010b5b13          	srli	s6,s6,0x10
    19b0:	41f65c13          	srai	s8,a2,0x1f
    19b4:	010c5c13          	srli	s8,s8,0x10
    19b8:	01860433          	add	s0,a2,s8
    19bc:	01d47633          	and	a2,s0,t4
    19c0:	41860c33          	sub	s8,a2,s8
    19c4:	039c0cb3          	mul	s9,s8,s9
    19c8:	018a0433          	add	s0,s4,s8
    19cc:	01041613          	slli	a2,s0,0x10
    19d0:	01065c13          	srli	s8,a2,0x10
    19d4:	9a62                	add	s4,s4,s8
    19d6:	01881023          	sh	s8,0(a6)
    19da:	0ffa7413          	andi	s0,s4,255
    19de:	00879023          	sh	s0,0(a5)
    19e2:	8a3e                	mv	s4,a5
    19e4:	843e                	mv	s0,a5
    19e6:	41fcd793          	srai	a5,s9,0x1f
    19ea:	0107d613          	srli	a2,a5,0x10
    19ee:	9cb2                	add	s9,s9,a2
    19f0:	01dcfc33          	and	s8,s9,t4
    19f4:	40cc07b3          	sub	a5,s8,a2
    19f8:	02e78733          	mul	a4,a5,a4
    19fc:	00fb0633          	add	a2,s6,a5
    1a00:	01061c93          	slli	s9,a2,0x10
    1a04:	010cdc13          	srli	s8,s9,0x10
    1a08:	01881123          	sh	s8,2(a6)
    1a0c:	9b62                	add	s6,s6,s8
    1a0e:	00358a93          	addi	s5,a1,3
    1a12:	0ffb7793          	andi	a5,s6,255
    1a16:	010a9313          	slli	t1,s5,0x10
    1a1a:	010e5e13          	srli	t3,t3,0x10
    1a1e:	41f75613          	srai	a2,a4,0x1f
    1a22:	01065c93          	srli	s9,a2,0x10
    1a26:	9766                	add	a4,a4,s9
    1a28:	01d77c33          	and	s8,a4,t4
    1a2c:	419c0b33          	sub	s6,s8,s9
    1a30:	035b0ab3          	mul	s5,s6,s5
    1a34:	00fb9123          	sh	a5,2(s7)
    1a38:	016e07b3          	add	a5,t3,s6
    1a3c:	01079613          	slli	a2,a5,0x10
    1a40:	01065c93          	srli	s9,a2,0x10
    1a44:	9e66                	add	t3,t3,s9
    1a46:	0821                	addi	a6,a6,8
    1a48:	ff981e23          	sh	s9,-4(a6)
    1a4c:	0ffe7713          	andi	a4,t3,255
    1a50:	00ea1223          	sh	a4,4(s4)
    1a54:	41fada13          	srai	s4,s5,0x1f
    1a58:	010a5c13          	srli	s8,s4,0x10
    1a5c:	018a8b33          	add	s6,s5,s8
    1a60:	01db7ab3          	and	s5,s6,t4
    1a64:	01035313          	srli	t1,t1,0x10
    1a68:	418a8633          	sub	a2,s5,s8
    1a6c:	00c307b3          	add	a5,t1,a2
    1a70:	01079c93          	slli	s9,a5,0x10
    1a74:	010cde13          	srli	t3,s9,0x10
    1a78:	9372                	add	t1,t1,t3
    1a7a:	0591                	addi	a1,a1,4
    1a7c:	ffc81f23          	sh	t3,-2(a6)
    1a80:	0ff37713          	andi	a4,t1,255
    1a84:	41158bb3          	sub	s7,a1,a7
    1a88:	00e41323          	sh	a4,6(s0)
    1a8c:	eeabefe3          	bltu	s7,a0,198a <core_init_matrix+0x1ae>
    1a90:	0f85                	addi	t6,t6,1
    1a92:	00aff463          	bleu	a0,t6,1a9a <core_init_matrix+0x2be>
    1a96:	88ae                	mv	a7,a1
    1a98:	b365                	j	1840 <core_init_matrix+0x64>
    1a9a:	007288b3          	add	a7,t0,t2
    1a9e:	fff88393          	addi	t2,a7,-1
    1aa2:	5432                	lw	s0,44(sp)
    1aa4:	ffc3f593          	andi	a1,t2,-4
    1aa8:	00458813          	addi	a6,a1,4
    1aac:	0126a223          	sw	s2,4(a3)
    1ab0:	0136a023          	sw	s3,0(a3)
    1ab4:	0056a423          	sw	t0,8(a3)
    1ab8:	0106a623          	sw	a6,12(a3)
    1abc:	54a2                	lw	s1,40(sp)
    1abe:	5912                	lw	s2,36(sp)
    1ac0:	5982                	lw	s3,32(sp)
    1ac2:	4a72                	lw	s4,28(sp)
    1ac4:	4ae2                	lw	s5,24(sp)
    1ac6:	4b52                	lw	s6,20(sp)
    1ac8:	4bc2                	lw	s7,16(sp)
    1aca:	4c32                	lw	s8,12(sp)
    1acc:	4ca2                	lw	s9,8(sp)
    1ace:	6145                	addi	sp,sp,48
    1ad0:	8082                	ret
    1ad2:	00630293          	addi	t0,t1,6
    1ad6:	59fd                	li	s3,-1
    1ad8:	557d                	li	a0,-1
    1ada:	4389                	li	t2,2
    1adc:	bb91                	j	1830 <core_init_matrix+0x54>

00001ade <matrix_test>:
    1ade:	715d                	addi	sp,sp,-80
    1ae0:	c4a2                	sw	s0,72(sp)
    1ae2:	d85a                	sw	s6,48(sp)
    1ae4:	d65e                	sw	s7,44(sp)
    1ae6:	d462                	sw	s8,40(sp)
    1ae8:	747d                	lui	s0,0xfffff
    1aea:	c686                	sw	ra,76(sp)
    1aec:	c2a6                	sw	s1,68(sp)
    1aee:	c0ca                	sw	s2,64(sp)
    1af0:	de4e                	sw	s3,60(sp)
    1af2:	dc52                	sw	s4,56(sp)
    1af4:	da56                	sw	s5,52(sp)
    1af6:	d266                	sw	s9,36(sp)
    1af8:	d06a                	sw	s10,32(sp)
    1afa:	ce6e                	sw	s11,28(sp)
    1afc:	8b2e                	mv	s6,a1
    1afe:	8bb2                	mv	s7,a2
    1b00:	8c36                	mv	s8,a3
    1b02:	8c59                	or	s0,s0,a4
    1b04:	e119                	bnez	a0,1b0a <matrix_test+0x2c>
    1b06:	0660106f          	j	2b6c <matrix_test+0x108e>
    1b0a:	01071093          	slli	ra,a4,0x10
    1b0e:	882a                	mv	a6,a0
    1b10:	0100d913          	srli	s2,ra,0x10
    1b14:	00151a13          	slli	s4,a0,0x1
    1b18:	89b2                	mv	s3,a2
    1b1a:	86b2                	mv	a3,a2
    1b1c:	4481                	li	s1,0
    1b1e:	ffea0793          	addi	a5,s4,-2
    1b22:	0017d293          	srli	t0,a5,0x1
    1b26:	00128313          	addi	t1,t0,1
    1b2a:	00737393          	andi	t2,t1,7
    1b2e:	00da0633          	add	a2,s4,a3
    1b32:	08038763          	beqz	t2,1bc0 <matrix_test+0xe2>
    1b36:	4585                	li	a1,1
    1b38:	06b38b63          	beq	t2,a1,1bae <matrix_test+0xd0>
    1b3c:	4509                	li	a0,2
    1b3e:	06a38163          	beq	t2,a0,1ba0 <matrix_test+0xc2>
    1b42:	488d                	li	a7,3
    1b44:	05138763          	beq	t2,a7,1b92 <matrix_test+0xb4>
    1b48:	4a91                	li	s5,4
    1b4a:	03538d63          	beq	t2,s5,1b84 <matrix_test+0xa6>
    1b4e:	4c95                	li	s9,5
    1b50:	03938363          	beq	t2,s9,1b76 <matrix_test+0x98>
    1b54:	4d19                	li	s10,6
    1b56:	01a38963          	beq	t2,s10,1b68 <matrix_test+0x8a>
    1b5a:	0006dd83          	lhu	s11,0(a3)
    1b5e:	0689                	addi	a3,a3,2
    1b60:	01b90e33          	add	t3,s2,s11
    1b64:	ffc69f23          	sh	t3,-2(a3)
    1b68:	0006de83          	lhu	t4,0(a3)
    1b6c:	0689                	addi	a3,a3,2
    1b6e:	01d90f33          	add	t5,s2,t4
    1b72:	ffe69f23          	sh	t5,-2(a3)
    1b76:	0006df83          	lhu	t6,0(a3)
    1b7a:	0689                	addi	a3,a3,2
    1b7c:	01f900b3          	add	ra,s2,t6
    1b80:	fe169f23          	sh	ra,-2(a3)
    1b84:	0006d783          	lhu	a5,0(a3)
    1b88:	0689                	addi	a3,a3,2
    1b8a:	00f902b3          	add	t0,s2,a5
    1b8e:	fe569f23          	sh	t0,-2(a3)
    1b92:	0006d303          	lhu	t1,0(a3)
    1b96:	0689                	addi	a3,a3,2
    1b98:	006903b3          	add	t2,s2,t1
    1b9c:	fe769f23          	sh	t2,-2(a3)
    1ba0:	0006d583          	lhu	a1,0(a3)
    1ba4:	0689                	addi	a3,a3,2
    1ba6:	00b90533          	add	a0,s2,a1
    1baa:	fea69f23          	sh	a0,-2(a3)
    1bae:	0006d883          	lhu	a7,0(a3)
    1bb2:	0689                	addi	a3,a3,2
    1bb4:	01190ab3          	add	s5,s2,a7
    1bb8:	ff569f23          	sh	s5,-2(a3)
    1bbc:	06d60563          	beq	a2,a3,1c26 <matrix_test+0x148>
    1bc0:	0006dc83          	lhu	s9,0(a3)
    1bc4:	0026dd03          	lhu	s10,2(a3)
    1bc8:	0046dd83          	lhu	s11,4(a3)
    1bcc:	0066df83          	lhu	t6,6(a3)
    1bd0:	0086d083          	lhu	ra,8(a3)
    1bd4:	00a6d283          	lhu	t0,10(a3)
    1bd8:	00c6d383          	lhu	t2,12(a3)
    1bdc:	00e6d783          	lhu	a5,14(a3)
    1be0:	01990f33          	add	t5,s2,s9
    1be4:	01a90eb3          	add	t4,s2,s10
    1be8:	01b90e33          	add	t3,s2,s11
    1bec:	01f90333          	add	t1,s2,t6
    1bf0:	001908b3          	add	a7,s2,ra
    1bf4:	00590533          	add	a0,s2,t0
    1bf8:	007905b3          	add	a1,s2,t2
    1bfc:	00f90ab3          	add	s5,s2,a5
    1c00:	01e69023          	sh	t5,0(a3)
    1c04:	01d69123          	sh	t4,2(a3)
    1c08:	01c69223          	sh	t3,4(a3)
    1c0c:	00669323          	sh	t1,6(a3)
    1c10:	01169423          	sh	a7,8(a3)
    1c14:	00a69523          	sh	a0,10(a3)
    1c18:	00b69623          	sh	a1,12(a3)
    1c1c:	01569723          	sh	s5,14(a3)
    1c20:	06c1                	addi	a3,a3,16
    1c22:	f8d61fe3          	bne	a2,a3,1bc0 <matrix_test+0xe2>
    1c26:	0485                	addi	s1,s1,1
    1c28:	86b2                	mv	a3,a2
    1c2a:	ee981ae3          	bne	a6,s1,1b1e <matrix_test+0x40>
    1c2e:	00249c93          	slli	s9,s1,0x2
    1c32:	8ada                	mv	s5,s6
    1c34:	85da                	mv	a1,s6
    1c36:	86de                	mv	a3,s7
    1c38:	4501                	li	a0,0
    1c3a:	ffea0813          	addi	a6,s4,-2
    1c3e:	00185613          	srli	a2,a6,0x1
    1c42:	00160d13          	addi	s10,a2,1
    1c46:	007d7d93          	andi	s11,s10,7
    1c4a:	862e                	mv	a2,a1
    1c4c:	014680b3          	add	ra,a3,s4
    1c50:	080d8f63          	beqz	s11,1cee <matrix_test+0x210>
    1c54:	4f85                	li	t6,1
    1c56:	09fd8263          	beq	s11,t6,1cda <matrix_test+0x1fc>
    1c5a:	4289                	li	t0,2
    1c5c:	065d8763          	beq	s11,t0,1cca <matrix_test+0x1ec>
    1c60:	438d                	li	t2,3
    1c62:	047d8c63          	beq	s11,t2,1cba <matrix_test+0x1dc>
    1c66:	4791                	li	a5,4
    1c68:	04fd8163          	beq	s11,a5,1caa <matrix_test+0x1cc>
    1c6c:	4f15                	li	t5,5
    1c6e:	03ed8663          	beq	s11,t5,1c9a <matrix_test+0x1bc>
    1c72:	4e99                	li	t4,6
    1c74:	01dd8b63          	beq	s11,t4,1c8a <matrix_test+0x1ac>
    1c78:	00069e03          	lh	t3,0(a3)
    1c7c:	00458613          	addi	a2,a1,4
    1c80:	0689                	addi	a3,a3,2
    1c82:	02ee0333          	mul	t1,t3,a4
    1c86:	0065a023          	sw	t1,0(a1)
    1c8a:	00069883          	lh	a7,0(a3)
    1c8e:	0611                	addi	a2,a2,4
    1c90:	0689                	addi	a3,a3,2
    1c92:	02e88833          	mul	a6,a7,a4
    1c96:	ff062e23          	sw	a6,-4(a2)
    1c9a:	00069d03          	lh	s10,0(a3)
    1c9e:	0611                	addi	a2,a2,4
    1ca0:	0689                	addi	a3,a3,2
    1ca2:	02ed0db3          	mul	s11,s10,a4
    1ca6:	ffb62e23          	sw	s11,-4(a2)
    1caa:	00069f83          	lh	t6,0(a3)
    1cae:	0611                	addi	a2,a2,4
    1cb0:	0689                	addi	a3,a3,2
    1cb2:	02ef82b3          	mul	t0,t6,a4
    1cb6:	fe562e23          	sw	t0,-4(a2)
    1cba:	00069383          	lh	t2,0(a3)
    1cbe:	0611                	addi	a2,a2,4
    1cc0:	0689                	addi	a3,a3,2
    1cc2:	02e387b3          	mul	a5,t2,a4
    1cc6:	fef62e23          	sw	a5,-4(a2)
    1cca:	00069f03          	lh	t5,0(a3)
    1cce:	0611                	addi	a2,a2,4
    1cd0:	0689                	addi	a3,a3,2
    1cd2:	02ef0eb3          	mul	t4,t5,a4
    1cd6:	ffd62e23          	sw	t4,-4(a2)
    1cda:	00069e03          	lh	t3,0(a3)
    1cde:	0611                	addi	a2,a2,4
    1ce0:	0689                	addi	a3,a3,2
    1ce2:	02ee0333          	mul	t1,t3,a4
    1ce6:	fe662e23          	sw	t1,-4(a2)
    1cea:	06168763          	beq	a3,ra,1d58 <matrix_test+0x27a>
    1cee:	00069803          	lh	a6,0(a3)
    1cf2:	00269d03          	lh	s10,2(a3)
    1cf6:	00469d83          	lh	s11,4(a3)
    1cfa:	00669383          	lh	t2,6(a3)
    1cfe:	00869e03          	lh	t3,8(a3)
    1d02:	00a69303          	lh	t1,10(a3)
    1d06:	00c69883          	lh	a7,12(a3)
    1d0a:	00e69783          	lh	a5,14(a3)
    1d0e:	02e802b3          	mul	t0,a6,a4
    1d12:	02060613          	addi	a2,a2,32
    1d16:	06c1                	addi	a3,a3,16
    1d18:	02ed0fb3          	mul	t6,s10,a4
    1d1c:	fe562023          	sw	t0,-32(a2)
    1d20:	02ed8f33          	mul	t5,s11,a4
    1d24:	fff62223          	sw	t6,-28(a2)
    1d28:	02e38eb3          	mul	t4,t2,a4
    1d2c:	ffe62423          	sw	t5,-24(a2)
    1d30:	02ee0833          	mul	a6,t3,a4
    1d34:	ffd62623          	sw	t4,-20(a2)
    1d38:	02e30d33          	mul	s10,t1,a4
    1d3c:	ff062823          	sw	a6,-16(a2)
    1d40:	02e88db3          	mul	s11,a7,a4
    1d44:	ffa62a23          	sw	s10,-12(a2)
    1d48:	02e783b3          	mul	t2,a5,a4
    1d4c:	ffb62c23          	sw	s11,-8(a2)
    1d50:	fe762e23          	sw	t2,-4(a2)
    1d54:	f8169de3          	bne	a3,ra,1cee <matrix_test+0x210>
    1d58:	0505                	addi	a0,a0,1
    1d5a:	95e6                	add	a1,a1,s9
    1d5c:	ec951fe3          	bne	a0,s1,1c3a <matrix_test+0x15c>
    1d60:	40900733          	neg	a4,s1
    1d64:	019b0d33          	add	s10,s6,s9
    1d68:	00271793          	slli	a5,a4,0x2
    1d6c:	86ea                	mv	a3,s10
    1d6e:	4501                	li	a0,0
    1d70:	4e01                	li	t3,0
    1d72:	4801                	li	a6,0
    1d74:	4581                	li	a1,0
    1d76:	00371d93          	slli	s11,a4,0x3
    1d7a:	00d780b3          	add	ra,a5,a3
    1d7e:	40168633          	sub	a2,a3,ra
    1d82:	ffc60313          	addi	t1,a2,-4
    1d86:	00235893          	srli	a7,t1,0x2
    1d8a:	00188293          	addi	t0,a7,1
    1d8e:	0072ff93          	andi	t6,t0,7
    1d92:	8706                	mv	a4,ra
    1d94:	100f8ae3          	beqz	t6,26a8 <matrix_test+0xbca>
    1d98:	4f05                	li	t5,1
    1d9a:	11ef8163          	beq	t6,t5,1e9c <matrix_test+0x3be>
    1d9e:	4e89                	li	t4,2
    1da0:	0ddf8b63          	beq	t6,t4,1e76 <matrix_test+0x398>
    1da4:	438d                	li	t2,3
    1da6:	0a7f8563          	beq	t6,t2,1e50 <matrix_test+0x372>
    1daa:	4611                	li	a2,4
    1dac:	08cf8063          	beq	t6,a2,1e2c <matrix_test+0x34e>
    1db0:	4315                	li	t1,5
    1db2:	046f8a63          	beq	t6,t1,1e06 <matrix_test+0x328>
    1db6:	4899                	li	a7,6
    1db8:	031f8563          	beq	t6,a7,1de2 <matrix_test+0x304>
    1dbc:	0000a283          	lw	t0,0(ra)
    1dc0:	0542                	slli	a0,a0,0x10
    1dc2:	01055713          	srli	a4,a0,0x10
    1dc6:	9816                	add	a6,a6,t0
    1dc8:	590449e3          	blt	s0,a6,2b5a <matrix_test+0x107c>
    1dcc:	005e2e33          	slt	t3,t3,t0
    1dd0:	01c70fb3          	add	t6,a4,t3
    1dd4:	010f9f13          	slli	t5,t6,0x10
    1dd8:	410f5513          	srai	a0,t5,0x10
    1ddc:	00408713          	addi	a4,ra,4
    1de0:	8e16                	mv	t3,t0
    1de2:	00072383          	lw	t2,0(a4)
    1de6:	01051613          	slli	a2,a0,0x10
    1dea:	01065313          	srli	t1,a2,0x10
    1dee:	981e                	add	a6,a6,t2
    1df0:	530441e3          	blt	s0,a6,2b12 <matrix_test+0x1034>
    1df4:	007e28b3          	slt	a7,t3,t2
    1df8:	011302b3          	add	t0,t1,a7
    1dfc:	01029513          	slli	a0,t0,0x10
    1e00:	8541                	srai	a0,a0,0x10
    1e02:	0711                	addi	a4,a4,4
    1e04:	8e1e                	mv	t3,t2
    1e06:	00072f03          	lw	t5,0(a4)
    1e0a:	01051e93          	slli	t4,a0,0x10
    1e0e:	010ed393          	srli	t2,t4,0x10
    1e12:	987a                	add	a6,a6,t5
    1e14:	4d0444e3          	blt	s0,a6,2adc <matrix_test+0xffe>
    1e18:	01ee2633          	slt	a2,t3,t5
    1e1c:	00c38333          	add	t1,t2,a2
    1e20:	01031893          	slli	a7,t1,0x10
    1e24:	4108d513          	srai	a0,a7,0x10
    1e28:	0711                	addi	a4,a4,4
    1e2a:	8e7a                	mv	t3,t5
    1e2c:	00072f83          	lw	t6,0(a4)
    1e30:	0542                	slli	a0,a0,0x10
    1e32:	01055f13          	srli	t5,a0,0x10
    1e36:	987e                	add	a6,a6,t6
    1e38:	470448e3          	blt	s0,a6,2aa8 <matrix_test+0xfca>
    1e3c:	01fe2e33          	slt	t3,t3,t6
    1e40:	01cf0eb3          	add	t4,t5,t3
    1e44:	010e9393          	slli	t2,t4,0x10
    1e48:	4103d513          	srai	a0,t2,0x10
    1e4c:	0711                	addi	a4,a4,4
    1e4e:	8e7e                	mv	t3,t6
    1e50:	00072883          	lw	a7,0(a4)
    1e54:	01051293          	slli	t0,a0,0x10
    1e58:	0102df93          	srli	t6,t0,0x10
    1e5c:	9846                	add	a6,a6,a7
    1e5e:	3f0449e3          	blt	s0,a6,2a50 <matrix_test+0xf72>
    1e62:	011e2533          	slt	a0,t3,a7
    1e66:	00af8f33          	add	t5,t6,a0
    1e6a:	010f1e13          	slli	t3,t5,0x10
    1e6e:	410e5513          	srai	a0,t3,0x10
    1e72:	0711                	addi	a4,a4,4
    1e74:	8e46                	mv	t3,a7
    1e76:	00072383          	lw	t2,0(a4)
    1e7a:	01051613          	slli	a2,a0,0x10
    1e7e:	01065313          	srli	t1,a2,0x10
    1e82:	981e                	add	a6,a6,t2
    1e84:	3b0444e3          	blt	s0,a6,2a2c <matrix_test+0xf4e>
    1e88:	007e28b3          	slt	a7,t3,t2
    1e8c:	011302b3          	add	t0,t1,a7
    1e90:	01029f93          	slli	t6,t0,0x10
    1e94:	410fd513          	srai	a0,t6,0x10
    1e98:	0711                	addi	a4,a4,4
    1e9a:	8e1e                	mv	t3,t2
    1e9c:	00072883          	lw	a7,0(a4)
    1ea0:	01051e93          	slli	t4,a0,0x10
    1ea4:	010ed393          	srli	t2,t4,0x10
    1ea8:	9846                	add	a6,a6,a7
    1eaa:	370448e3          	blt	s0,a6,2a1a <matrix_test+0xf3c>
    1eae:	011e2e33          	slt	t3,t3,a7
    1eb2:	01c38633          	add	a2,t2,t3
    1eb6:	01061313          	slli	t1,a2,0x10
    1eba:	41035513          	srai	a0,t1,0x10
    1ebe:	0711                	addi	a4,a4,4
    1ec0:	8e46                	mv	t3,a7
    1ec2:	7ee69363          	bne	a3,a4,26a8 <matrix_test+0xbca>
    1ec6:	0585                	addi	a1,a1,1
    1ec8:	41b086b3          	sub	a3,ra,s11
    1ecc:	8e46                	mv	t3,a7
    1ece:	ea9596e3          	bne	a1,s1,1d7a <matrix_test+0x29c>
    1ed2:	4581                	li	a1,0
    1ed4:	c63e                	sw	a5,12(sp)
    1ed6:	4b0020ef          	jal	ra,4386 <crc16>
    1eda:	c42a                	sw	a0,8(sp)
    1edc:	86e2                	mv	a3,s8
    1ede:	8526                	mv	a0,s1
    1ee0:	865e                	mv	a2,s7
    1ee2:	85da                	mv	a1,s6
    1ee4:	3f8010ef          	jal	ra,32dc <matrix_mul_vect>
    1ee8:	4f22                	lw	t5,8(sp)
    1eea:	4eb2                	lw	t4,12(sp)
    1eec:	4501                	li	a0,0
    1eee:	4e01                	li	t3,0
    1ef0:	4801                	li	a6,0
    1ef2:	4f81                	li	t6,0
    1ef4:	01ae80b3          	add	ra,t4,s10
    1ef8:	401d08b3          	sub	a7,s10,ra
    1efc:	ffc88393          	addi	t2,a7,-4
    1f00:	0023d613          	srli	a2,t2,0x2
    1f04:	00160313          	addi	t1,a2,1
    1f08:	00737713          	andi	a4,t1,7
    1f0c:	8686                	mv	a3,ra
    1f0e:	1c0700e3          	beqz	a4,28ce <matrix_test+0xdf0>
    1f12:	4785                	li	a5,1
    1f14:	0ef70e63          	beq	a4,a5,2010 <matrix_test+0x532>
    1f18:	4589                	li	a1,2
    1f1a:	0cb70863          	beq	a4,a1,1fea <matrix_test+0x50c>
    1f1e:	428d                	li	t0,3
    1f20:	0a570363          	beq	a4,t0,1fc6 <matrix_test+0x4e8>
    1f24:	4891                	li	a7,4
    1f26:	07170f63          	beq	a4,a7,1fa4 <matrix_test+0x4c6>
    1f2a:	4395                	li	t2,5
    1f2c:	04770a63          	beq	a4,t2,1f80 <matrix_test+0x4a2>
    1f30:	4619                	li	a2,6
    1f32:	02c70563          	beq	a4,a2,1f5c <matrix_test+0x47e>
    1f36:	0000a303          	lw	t1,0(ra)
    1f3a:	0542                	slli	a0,a0,0x10
    1f3c:	01055693          	srli	a3,a0,0x10
    1f40:	981a                	add	a6,a6,t1
    1f42:	410443e3          	blt	s0,a6,2b48 <matrix_test+0x106a>
    1f46:	006e2e33          	slt	t3,t3,t1
    1f4a:	01c68733          	add	a4,a3,t3
    1f4e:	01071793          	slli	a5,a4,0x10
    1f52:	4107d513          	srai	a0,a5,0x10
    1f56:	00408693          	addi	a3,ra,4
    1f5a:	8e1a                	mv	t3,t1
    1f5c:	0006a283          	lw	t0,0(a3)
    1f60:	01051893          	slli	a7,a0,0x10
    1f64:	0108d393          	srli	t2,a7,0x10
    1f68:	9816                	add	a6,a6,t0
    1f6a:	39044be3          	blt	s0,a6,2b00 <matrix_test+0x1022>
    1f6e:	005e2633          	slt	a2,t3,t0
    1f72:	00c38333          	add	t1,t2,a2
    1f76:	01031513          	slli	a0,t1,0x10
    1f7a:	8541                	srai	a0,a0,0x10
    1f7c:	0691                	addi	a3,a3,4
    1f7e:	8e16                	mv	t3,t0
    1f80:	429c                	lw	a5,0(a3)
    1f82:	01051593          	slli	a1,a0,0x10
    1f86:	0105d293          	srli	t0,a1,0x10
    1f8a:	983e                	add	a6,a6,a5
    1f8c:	370441e3          	blt	s0,a6,2aee <matrix_test+0x1010>
    1f90:	00fe28b3          	slt	a7,t3,a5
    1f94:	011283b3          	add	t2,t0,a7
    1f98:	01039613          	slli	a2,t2,0x10
    1f9c:	41065513          	srai	a0,a2,0x10
    1fa0:	0691                	addi	a3,a3,4
    1fa2:	8e3e                	mv	t3,a5
    1fa4:	4298                	lw	a4,0(a3)
    1fa6:	0542                	slli	a0,a0,0x10
    1fa8:	01055793          	srli	a5,a0,0x10
    1fac:	983a                	add	a6,a6,a4
    1fae:	2f0444e3          	blt	s0,a6,2a96 <matrix_test+0xfb8>
    1fb2:	00ee2e33          	slt	t3,t3,a4
    1fb6:	01c785b3          	add	a1,a5,t3
    1fba:	01059293          	slli	t0,a1,0x10
    1fbe:	4102d513          	srai	a0,t0,0x10
    1fc2:	0691                	addi	a3,a3,4
    1fc4:	8e3a                	mv	t3,a4
    1fc6:	4290                	lw	a2,0(a3)
    1fc8:	01051313          	slli	t1,a0,0x10
    1fcc:	01035713          	srli	a4,t1,0x10
    1fd0:	9832                	add	a6,a6,a2
    1fd2:	290448e3          	blt	s0,a6,2a62 <matrix_test+0xf84>
    1fd6:	00ce2533          	slt	a0,t3,a2
    1fda:	00a707b3          	add	a5,a4,a0
    1fde:	01079e13          	slli	t3,a5,0x10
    1fe2:	410e5513          	srai	a0,t3,0x10
    1fe6:	0691                	addi	a3,a3,4
    1fe8:	8e32                	mv	t3,a2
    1fea:	0006a283          	lw	t0,0(a3)
    1fee:	01051893          	slli	a7,a0,0x10
    1ff2:	0108d393          	srli	t2,a7,0x10
    1ff6:	9816                	add	a6,a6,t0
    1ff8:	250443e3          	blt	s0,a6,2a3e <matrix_test+0xf60>
    1ffc:	005e2633          	slt	a2,t3,t0
    2000:	00c38333          	add	t1,t2,a2
    2004:	01031713          	slli	a4,t1,0x10
    2008:	41075513          	srai	a0,a4,0x10
    200c:	0691                	addi	a3,a3,4
    200e:	8e16                	mv	t3,t0
    2010:	0006a883          	lw	a7,0(a3)
    2014:	01051593          	slli	a1,a0,0x10
    2018:	0105d293          	srli	t0,a1,0x10
    201c:	9846                	add	a6,a6,a7
    201e:	1f0445e3          	blt	s0,a6,2a08 <matrix_test+0xf2a>
    2022:	011e2e33          	slt	t3,t3,a7
    2026:	01c283b3          	add	t2,t0,t3
    202a:	01039613          	slli	a2,t2,0x10
    202e:	41065513          	srai	a0,a2,0x10
    2032:	0691                	addi	a3,a3,4
    2034:	8e46                	mv	t3,a7
    2036:	08dd1ce3          	bne	s10,a3,28ce <matrix_test+0xdf0>
    203a:	0f85                	addi	t6,t6,1
    203c:	41b08d33          	sub	s10,ra,s11
    2040:	8e46                	mv	t3,a7
    2042:	ea9f99e3          	bne	t6,s1,1ef4 <matrix_test+0x416>
    2046:	85fa                	mv	a1,t5
    2048:	33e020ef          	jal	ra,4386 <crc16>
    204c:	85da                	mv	a1,s6
    204e:	8d2a                	mv	s10,a0
    2050:	86e2                	mv	a3,s8
    2052:	8526                	mv	a0,s1
    2054:	865e                	mv	a2,s7
    2056:	41c010ef          	jal	ra,3472 <matrix_mul_matrix>
    205a:	8dda                	mv	s11,s6
    205c:	4501                	li	a0,0
    205e:	4f81                	li	t6,0
    2060:	4581                	li	a1,0
    2062:	4f01                	li	t5,0
    2064:	000da883          	lw	a7,0(s11)
    2068:	fff48e93          	addi	t4,s1,-1
    206c:	01051313          	slli	t1,a0,0x10
    2070:	95c6                	add	a1,a1,a7
    2072:	003ef093          	andi	ra,t4,3
    2076:	01035713          	srli	a4,t1,0x10
    207a:	16b45de3          	ble	a1,s0,29f4 <matrix_test+0xf16>
    207e:	00a70593          	addi	a1,a4,10
    2082:	01059393          	slli	t2,a1,0x10
    2086:	4103d513          	srai	a0,t2,0x10
    208a:	4581                	li	a1,0
    208c:	4605                	li	a2,1
    208e:	004d8693          	addi	a3,s11,4
    2092:	8346                	mv	t1,a7
    2094:	18967f63          	bleu	s1,a2,2232 <matrix_test+0x754>
    2098:	10008463          	beqz	ra,21a0 <matrix_test+0x6c2>
    209c:	04c08b63          	beq	ra,a2,20f2 <matrix_test+0x614>
    20a0:	4809                	li	a6,2
    20a2:	03008563          	beq	ra,a6,20cc <matrix_test+0x5ee>
    20a6:	0006a303          	lw	t1,0(a3)
    20aa:	01051e13          	slli	t3,a0,0x10
    20ae:	010e5f93          	srli	t6,t3,0x10
    20b2:	959a                	add	a1,a1,t1
    20b4:	26b448e3          	blt	s0,a1,2b24 <matrix_test+0x1046>
    20b8:	0068a8b3          	slt	a7,a7,t1
    20bc:	011f8eb3          	add	t4,t6,a7
    20c0:	010e9093          	slli	ra,t4,0x10
    20c4:	4100d513          	srai	a0,ra,0x10
    20c8:	0605                	addi	a2,a2,1
    20ca:	0691                	addi	a3,a3,4
    20cc:	0006a283          	lw	t0,0(a3)
    20d0:	0542                	slli	a0,a0,0x10
    20d2:	01055393          	srli	t2,a0,0x10
    20d6:	9596                	add	a1,a1,t0
    20d8:	1eb449e3          	blt	s0,a1,2aca <matrix_test+0xfec>
    20dc:	00532333          	slt	t1,t1,t0
    20e0:	00638833          	add	a6,t2,t1
    20e4:	01081e13          	slli	t3,a6,0x10
    20e8:	410e5513          	srai	a0,t3,0x10
    20ec:	0605                	addi	a2,a2,1
    20ee:	0691                	addi	a3,a3,4
    20f0:	8316                	mv	t1,t0
    20f2:	0006a883          	lw	a7,0(a3)
    20f6:	01051e93          	slli	t4,a0,0x10
    20fa:	010ed093          	srli	ra,t4,0x10
    20fe:	95c6                	add	a1,a1,a7
    2100:	16b44ae3          	blt	s0,a1,2a74 <matrix_test+0xf96>
    2104:	01132733          	slt	a4,t1,a7
    2108:	00e087b3          	add	a5,ra,a4
    210c:	01079293          	slli	t0,a5,0x10
    2110:	4102d513          	srai	a0,t0,0x10
    2114:	0605                	addi	a2,a2,1
    2116:	0691                	addi	a3,a3,4
    2118:	08966463          	bltu	a2,s1,21a0 <matrix_test+0x6c2>
    211c:	aa19                	j	2232 <matrix_test+0x754>
    211e:	0046a283          	lw	t0,4(a3)
    2122:	00af8713          	addi	a4,t6,10
    2126:	01071793          	slli	a5,a4,0x10
    212a:	4107d093          	srai	ra,a5,0x10
    212e:	4581                	li	a1,0
    2130:	01009513          	slli	a0,ra,0x10
    2134:	00558eb3          	add	t4,a1,t0
    2138:	0605                	addi	a2,a2,1
    213a:	0691                	addi	a3,a3,4
    213c:	01055393          	srli	t2,a0,0x10
    2140:	09d45d63          	ble	t4,s0,21da <matrix_test+0x6fc>
    2144:	00a38593          	addi	a1,t2,10
    2148:	0046a083          	lw	ra,4(a3)
    214c:	01059893          	slli	a7,a1,0x10
    2150:	4108d313          	srai	t1,a7,0x10
    2154:	4e81                	li	t4,0
    2156:	01031713          	slli	a4,t1,0x10
    215a:	001e85b3          	add	a1,t4,ra
    215e:	01075793          	srli	a5,a4,0x10
    2162:	08b44e63          	blt	s0,a1,21fe <matrix_test+0x720>
    2166:	0012a2b3          	slt	t0,t0,ra
    216a:	00578533          	add	a0,a5,t0
    216e:	0086a883          	lw	a7,8(a3)
    2172:	01051393          	slli	t2,a0,0x10
    2176:	4103df93          	srai	t6,t2,0x10
    217a:	010f9313          	slli	t1,t6,0x10
    217e:	95c6                	add	a1,a1,a7
    2180:	01035e93          	srli	t4,t1,0x10
    2184:	08b44d63          	blt	s0,a1,221e <matrix_test+0x740>
    2188:	0110a0b3          	slt	ra,ra,a7
    218c:	001e8733          	add	a4,t4,ra
    2190:	01071793          	slli	a5,a4,0x10
    2194:	060d                	addi	a2,a2,3
    2196:	4107d513          	srai	a0,a5,0x10
    219a:	06b1                	addi	a3,a3,12
    219c:	08967b63          	bleu	s1,a2,2232 <matrix_test+0x754>
    21a0:	0006a803          	lw	a6,0(a3)
    21a4:	01051e13          	slli	t3,a0,0x10
    21a8:	010e5f93          	srli	t6,t3,0x10
    21ac:	95c2                	add	a1,a1,a6
    21ae:	f6b448e3          	blt	s0,a1,211e <matrix_test+0x640>
    21b2:	0108a8b3          	slt	a7,a7,a6
    21b6:	0046a283          	lw	t0,4(a3)
    21ba:	011f8333          	add	t1,t6,a7
    21be:	01031e93          	slli	t4,t1,0x10
    21c2:	410ed093          	srai	ra,t4,0x10
    21c6:	01009513          	slli	a0,ra,0x10
    21ca:	00558eb3          	add	t4,a1,t0
    21ce:	0605                	addi	a2,a2,1
    21d0:	0691                	addi	a3,a3,4
    21d2:	01055393          	srli	t2,a0,0x10
    21d6:	f7d447e3          	blt	s0,t4,2144 <matrix_test+0x666>
    21da:	00582833          	slt	a6,a6,t0
    21de:	01038e33          	add	t3,t2,a6
    21e2:	0046a083          	lw	ra,4(a3)
    21e6:	010e1f93          	slli	t6,t3,0x10
    21ea:	410fd313          	srai	t1,t6,0x10
    21ee:	01031713          	slli	a4,t1,0x10
    21f2:	001e85b3          	add	a1,t4,ra
    21f6:	01075793          	srli	a5,a4,0x10
    21fa:	f6b456e3          	ble	a1,s0,2166 <matrix_test+0x688>
    21fe:	00a78813          	addi	a6,a5,10
    2202:	0086a883          	lw	a7,8(a3)
    2206:	01081e13          	slli	t3,a6,0x10
    220a:	410e5f93          	srai	t6,t3,0x10
    220e:	4581                	li	a1,0
    2210:	010f9313          	slli	t1,t6,0x10
    2214:	95c6                	add	a1,a1,a7
    2216:	01035e93          	srli	t4,t1,0x10
    221a:	f6b457e3          	ble	a1,s0,2188 <matrix_test+0x6aa>
    221e:	00ae8293          	addi	t0,t4,10 # 1000a <__C_STACK_TOP__+0xa>
    2222:	01029513          	slli	a0,t0,0x10
    2226:	060d                	addi	a2,a2,3
    2228:	8541                	srai	a0,a0,0x10
    222a:	4581                	li	a1,0
    222c:	06b1                	addi	a3,a3,12
    222e:	f69669e3          	bltu	a2,s1,21a0 <matrix_test+0x6c2>
    2232:	0f05                	addi	t5,t5,1
    2234:	9de6                	add	s11,s11,s9
    2236:	8fc6                	mv	t6,a7
    2238:	e29f66e3          	bltu	t5,s1,2064 <matrix_test+0x586>
    223c:	85ea                	mv	a1,s10
    223e:	148020ef          	jal	ra,4386 <crc16>
    2242:	865e                	mv	a2,s7
    2244:	85da                	mv	a1,s6
    2246:	8d2a                	mv	s10,a0
    2248:	86e2                	mv	a3,s8
    224a:	8526                	mv	a0,s1
    224c:	3fe010ef          	jal	ra,364a <matrix_mul_matrix_bitextract>
    2250:	4501                	li	a0,0
    2252:	4b01                	li	s6,0
    2254:	4881                	li	a7,0
    2256:	4b81                	li	s7,0
    2258:	000aa603          	lw	a2,0(s5)
    225c:	fff48c13          	addi	s8,s1,-1
    2260:	01051f13          	slli	t5,a0,0x10
    2264:	98b2                	add	a7,a7,a2
    2266:	003c7d93          	andi	s11,s8,3
    226a:	010f5393          	srli	t2,t5,0x10
    226e:	77145a63          	ble	a7,s0,29e2 <matrix_test+0xf04>
    2272:	00a38893          	addi	a7,t2,10
    2276:	01089313          	slli	t1,a7,0x10
    227a:	41035513          	srai	a0,t1,0x10
    227e:	4881                	li	a7,0
    2280:	4585                	li	a1,1
    2282:	004a8813          	addi	a6,s5,4
    2286:	8332                	mv	t1,a2
    2288:	1a95f763          	bleu	s1,a1,2436 <matrix_test+0x958>
    228c:	100d8763          	beqz	s11,239a <matrix_test+0x8bc>
    2290:	04bd8b63          	beq	s11,a1,22e6 <matrix_test+0x808>
    2294:	4e89                	li	t4,2
    2296:	03dd8463          	beq	s11,t4,22be <matrix_test+0x7e0>
    229a:	00082303          	lw	t1,0(a6)
    229e:	01051093          	slli	ra,a0,0x10
    22a2:	0100d713          	srli	a4,ra,0x10
    22a6:	989a                	add	a7,a7,t1
    22a8:	091447e3          	blt	s0,a7,2b36 <matrix_test+0x1058>
    22ac:	006627b3          	slt	a5,a2,t1
    22b0:	00f702b3          	add	t0,a4,a5
    22b4:	01029513          	slli	a0,t0,0x10
    22b8:	8541                	srai	a0,a0,0x10
    22ba:	0585                	addi	a1,a1,1
    22bc:	0811                	addi	a6,a6,4
    22be:	00082b03          	lw	s6,0(a6)
    22c2:	01051c13          	slli	s8,a0,0x10
    22c6:	010c5d93          	srli	s11,s8,0x10
    22ca:	98da                	add	a7,a7,s6
    22cc:	7f144763          	blt	s0,a7,2aba <matrix_test+0xfdc>
    22d0:	01632f33          	slt	t5,t1,s6
    22d4:	01ed83b3          	add	t2,s11,t5
    22d8:	01039e13          	slli	t3,t2,0x10
    22dc:	410e5513          	srai	a0,t3,0x10
    22e0:	0585                	addi	a1,a1,1
    22e2:	0811                	addi	a6,a6,4
    22e4:	835a                	mv	t1,s6
    22e6:	00082603          	lw	a2,0(a6)
    22ea:	01051e93          	slli	t4,a0,0x10
    22ee:	010ed093          	srli	ra,t4,0x10
    22f2:	98b2                	add	a7,a7,a2
    22f4:	79144963          	blt	s0,a7,2a86 <matrix_test+0xfa8>
    22f8:	00c32733          	slt	a4,t1,a2
    22fc:	00e087b3          	add	a5,ra,a4
    2300:	01079293          	slli	t0,a5,0x10
    2304:	4102d513          	srai	a0,t0,0x10
    2308:	0585                	addi	a1,a1,1
    230a:	0811                	addi	a6,a6,4
    230c:	0895e763          	bltu	a1,s1,239a <matrix_test+0x8bc>
    2310:	a21d                	j	2436 <matrix_test+0x958>
    2312:	00ad8893          	addi	a7,s11,10
    2316:	00482e83          	lw	t4,4(a6)
    231a:	01089313          	slli	t1,a7,0x10
    231e:	41035f93          	srai	t6,t1,0x10
    2322:	4f01                	li	t5,0
    2324:	00480093          	addi	ra,a6,4
    2328:	01df0db3          	add	s11,t5,t4
    232c:	010f9813          	slli	a6,t6,0x10
    2330:	0585                	addi	a1,a1,1
    2332:	01085713          	srli	a4,a6,0x10
    2336:	0bb45163          	ble	s11,s0,23d8 <matrix_test+0x8fa>
    233a:	00a70693          	addi	a3,a4,10
    233e:	0040af03          	lw	t5,4(ra)
    2342:	01069b13          	slli	s6,a3,0x10
    2346:	410b5c13          	srai	s8,s6,0x10
    234a:	4d81                	li	s11,0
    234c:	010c1613          	slli	a2,s8,0x10
    2350:	01ed8733          	add	a4,s11,t5
    2354:	01065393          	srli	t2,a2,0x10
    2358:	0ae44263          	blt	s0,a4,23fc <matrix_test+0x91e>
    235c:	01eeae33          	slt	t3,t4,t5
    2360:	01c38fb3          	add	t6,t2,t3
    2364:	0080a603          	lw	a2,8(ra)
    2368:	010f9893          	slli	a7,t6,0x10
    236c:	4108d813          	srai	a6,a7,0x10
    2370:	01081793          	slli	a5,a6,0x10
    2374:	00c708b3          	add	a7,a4,a2
    2378:	0107d293          	srli	t0,a5,0x10
    237c:	0b144163          	blt	s0,a7,241e <matrix_test+0x940>
    2380:	00cf2533          	slt	a0,t5,a2
    2384:	00a28b33          	add	s6,t0,a0
    2388:	010b1c13          	slli	s8,s6,0x10
    238c:	058d                	addi	a1,a1,3
    238e:	410c5513          	srai	a0,s8,0x10
    2392:	00c08813          	addi	a6,ra,12
    2396:	0a95f063          	bleu	s1,a1,2436 <matrix_test+0x958>
    239a:	00082b03          	lw	s6,0(a6)
    239e:	01051c13          	slli	s8,a0,0x10
    23a2:	010c5d93          	srli	s11,s8,0x10
    23a6:	01688f33          	add	t5,a7,s6
    23aa:	f7e444e3          	blt	s0,t5,2312 <matrix_test+0x834>
    23ae:	01662633          	slt	a2,a2,s6
    23b2:	00cd83b3          	add	t2,s11,a2
    23b6:	00482e83          	lw	t4,4(a6)
    23ba:	01039e13          	slli	t3,t2,0x10
    23be:	410e5f93          	srai	t6,t3,0x10
    23c2:	00480093          	addi	ra,a6,4
    23c6:	01df0db3          	add	s11,t5,t4
    23ca:	010f9813          	slli	a6,t6,0x10
    23ce:	0585                	addi	a1,a1,1
    23d0:	01085713          	srli	a4,a6,0x10
    23d4:	f7b443e3          	blt	s0,s11,233a <matrix_test+0x85c>
    23d8:	01db27b3          	slt	a5,s6,t4
    23dc:	00f702b3          	add	t0,a4,a5
    23e0:	0040af03          	lw	t5,4(ra)
    23e4:	01029513          	slli	a0,t0,0x10
    23e8:	41055c13          	srai	s8,a0,0x10
    23ec:	010c1613          	slli	a2,s8,0x10
    23f0:	01ed8733          	add	a4,s11,t5
    23f4:	01065393          	srli	t2,a2,0x10
    23f8:	f6e452e3          	ble	a4,s0,235c <matrix_test+0x87e>
    23fc:	00a38313          	addi	t1,t2,10
    2400:	0080a603          	lw	a2,8(ra)
    2404:	01031e93          	slli	t4,t1,0x10
    2408:	410ed813          	srai	a6,t4,0x10
    240c:	4701                	li	a4,0
    240e:	01081793          	slli	a5,a6,0x10
    2412:	00c708b3          	add	a7,a4,a2
    2416:	0107d293          	srli	t0,a5,0x10
    241a:	f71453e3          	ble	a7,s0,2380 <matrix_test+0x8a2>
    241e:	00a28693          	addi	a3,t0,10
    2422:	01069d93          	slli	s11,a3,0x10
    2426:	058d                	addi	a1,a1,3
    2428:	410dd513          	srai	a0,s11,0x10
    242c:	4881                	li	a7,0
    242e:	00c08813          	addi	a6,ra,12
    2432:	f695e4e3          	bltu	a1,s1,239a <matrix_test+0x8bc>
    2436:	0b85                	addi	s7,s7,1
    2438:	9ae6                	add	s5,s5,s9
    243a:	8b32                	mv	s6,a2
    243c:	e09beee3          	bltu	s7,s1,2258 <matrix_test+0x77a>
    2440:	85ea                	mv	a1,s10
    2442:	745010ef          	jal	ra,4386 <crc16>
    2446:	4401                	li	s0,0
    2448:	0009da83          	lhu	s5,0(s3)
    244c:	fff48c93          	addi	s9,s1,-1
    2450:	4685                	li	a3,1
    2452:	412a8d33          	sub	s10,s5,s2
    2456:	01a99023          	sh	s10,0(s3)
    245a:	007cfb93          	andi	s7,s9,7
    245e:	00298713          	addi	a4,s3,2
    2462:	1096f463          	bleu	s1,a3,256a <matrix_test+0xa8c>
    2466:	080b8e63          	beqz	s7,2502 <matrix_test+0xa24>
    246a:	08db8263          	beq	s7,a3,24ee <matrix_test+0xa10>
    246e:	4089                	li	ra,2
    2470:	061b8763          	beq	s7,ra,24de <matrix_test+0xa00>
    2474:	4f0d                	li	t5,3
    2476:	05eb8c63          	beq	s7,t5,24ce <matrix_test+0x9f0>
    247a:	4391                	li	t2,4
    247c:	047b8163          	beq	s7,t2,24be <matrix_test+0x9e0>
    2480:	4e15                	li	t3,5
    2482:	03cb8663          	beq	s7,t3,24ae <matrix_test+0x9d0>
    2486:	4f99                	li	t6,6
    2488:	01fb8b63          	beq	s7,t6,249e <matrix_test+0x9c0>
    248c:	00075303          	lhu	t1,0(a4)
    2490:	4689                	li	a3,2
    2492:	41230eb3          	sub	t4,t1,s2
    2496:	01d71023          	sh	t4,0(a4)
    249a:	00498713          	addi	a4,s3,4
    249e:	00075603          	lhu	a2,0(a4)
    24a2:	0685                	addi	a3,a3,1
    24a4:	0709                	addi	a4,a4,2
    24a6:	412607b3          	sub	a5,a2,s2
    24aa:	fef71f23          	sh	a5,-2(a4)
    24ae:	00075283          	lhu	t0,0(a4)
    24b2:	0685                	addi	a3,a3,1
    24b4:	0709                	addi	a4,a4,2
    24b6:	41228b33          	sub	s6,t0,s2
    24ba:	ff671f23          	sh	s6,-2(a4)
    24be:	00075c03          	lhu	s8,0(a4)
    24c2:	0685                	addi	a3,a3,1
    24c4:	0709                	addi	a4,a4,2
    24c6:	412c0db3          	sub	s11,s8,s2
    24ca:	ffb71f23          	sh	s11,-2(a4)
    24ce:	00075883          	lhu	a7,0(a4)
    24d2:	0685                	addi	a3,a3,1
    24d4:	0709                	addi	a4,a4,2
    24d6:	412885b3          	sub	a1,a7,s2
    24da:	feb71f23          	sh	a1,-2(a4)
    24de:	00075803          	lhu	a6,0(a4)
    24e2:	0685                	addi	a3,a3,1
    24e4:	0709                	addi	a4,a4,2
    24e6:	41280ab3          	sub	s5,a6,s2
    24ea:	ff571f23          	sh	s5,-2(a4)
    24ee:	00075c83          	lhu	s9,0(a4)
    24f2:	0709                	addi	a4,a4,2
    24f4:	0685                	addi	a3,a3,1
    24f6:	412c8d33          	sub	s10,s9,s2
    24fa:	ffa71f23          	sh	s10,-2(a4)
    24fe:	0696f663          	bleu	s1,a3,256a <matrix_test+0xa8c>
    2502:	00075b83          	lhu	s7,0(a4)
    2506:	00275083          	lhu	ra,2(a4)
    250a:	00475383          	lhu	t2,4(a4)
    250e:	00675f83          	lhu	t6,6(a4)
    2512:	00875603          	lhu	a2,8(a4)
    2516:	00a75283          	lhu	t0,10(a4)
    251a:	00c75b03          	lhu	s6,12(a4)
    251e:	00e75783          	lhu	a5,14(a4)
    2522:	412b8f33          	sub	t5,s7,s2
    2526:	41208eb3          	sub	t4,ra,s2
    252a:	41238e33          	sub	t3,t2,s2
    252e:	412f8333          	sub	t1,t6,s2
    2532:	41260c33          	sub	s8,a2,s2
    2536:	41228db3          	sub	s11,t0,s2
    253a:	412b08b3          	sub	a7,s6,s2
    253e:	412785b3          	sub	a1,a5,s2
    2542:	01e71023          	sh	t5,0(a4)
    2546:	01d71123          	sh	t4,2(a4)
    254a:	01c71223          	sh	t3,4(a4)
    254e:	00671323          	sh	t1,6(a4)
    2552:	01871423          	sh	s8,8(a4)
    2556:	01b71523          	sh	s11,10(a4)
    255a:	01171623          	sh	a7,12(a4)
    255e:	00b71723          	sh	a1,14(a4)
    2562:	06a1                	addi	a3,a3,8
    2564:	0741                	addi	a4,a4,16
    2566:	f896eee3          	bltu	a3,s1,2502 <matrix_test+0xa24>
    256a:	0405                	addi	s0,s0,1
    256c:	99d2                	add	s3,s3,s4
    256e:	ec946de3          	bltu	s0,s1,2448 <matrix_test+0x96a>
    2572:	40b6                	lw	ra,76(sp)
    2574:	4426                	lw	s0,72(sp)
    2576:	01051493          	slli	s1,a0,0x10
    257a:	4104d513          	srai	a0,s1,0x10
    257e:	4906                	lw	s2,64(sp)
    2580:	4496                	lw	s1,68(sp)
    2582:	59f2                	lw	s3,60(sp)
    2584:	5a62                	lw	s4,56(sp)
    2586:	5ad2                	lw	s5,52(sp)
    2588:	5b42                	lw	s6,48(sp)
    258a:	5bb2                	lw	s7,44(sp)
    258c:	5c22                	lw	s8,40(sp)
    258e:	5c92                	lw	s9,36(sp)
    2590:	5d02                	lw	s10,32(sp)
    2592:	4df2                	lw	s11,28(sp)
    2594:	6161                	addi	sp,sp,80
    2596:	8082                	ret
    2598:	00a50313          	addi	t1,a0,10
    259c:	00472283          	lw	t0,4(a4)
    25a0:	01031813          	slli	a6,t1,0x10
    25a4:	41085613          	srai	a2,a6,0x10
    25a8:	4f01                	li	t5,0
    25aa:	01061893          	slli	a7,a2,0x10
    25ae:	005f0833          	add	a6,t5,t0
    25b2:	0711                	addi	a4,a4,4
    25b4:	0108d513          	srli	a0,a7,0x10
    25b8:	13045563          	ble	a6,s0,26e2 <matrix_test+0xc04>
    25bc:	00a50393          	addi	t2,a0,10
    25c0:	00472303          	lw	t1,4(a4)
    25c4:	01039e13          	slli	t3,t2,0x10
    25c8:	410e5613          	srai	a2,t3,0x10
    25cc:	4801                	li	a6,0
    25ce:	01061893          	slli	a7,a2,0x10
    25d2:	00680633          	add	a2,a6,t1
    25d6:	0108d513          	srli	a0,a7,0x10
    25da:	12c44663          	blt	s0,a2,2706 <matrix_test+0xc28>
    25de:	0062a2b3          	slt	t0,t0,t1
    25e2:	00550fb3          	add	t6,a0,t0
    25e6:	00872883          	lw	a7,8(a4)
    25ea:	010f9f13          	slli	t5,t6,0x10
    25ee:	410f5e13          	srai	t3,t5,0x10
    25f2:	010e1813          	slli	a6,t3,0x10
    25f6:	01160e33          	add	t3,a2,a7
    25fa:	01085513          	srli	a0,a6,0x10
    25fe:	13c44563          	blt	s0,t3,2728 <matrix_test+0xc4a>
    2602:	01132333          	slt	t1,t1,a7
    2606:	006502b3          	add	t0,a0,t1
    260a:	4750                	lw	a2,12(a4)
    260c:	01029f93          	slli	t6,t0,0x10
    2610:	410fd393          	srai	t2,t6,0x10
    2614:	01039813          	slli	a6,t2,0x10
    2618:	00ce03b3          	add	t2,t3,a2
    261c:	01085513          	srli	a0,a6,0x10
    2620:	12744463          	blt	s0,t2,2748 <matrix_test+0xc6a>
    2624:	00c8a8b3          	slt	a7,a7,a2
    2628:	01150333          	add	t1,a0,a7
    262c:	01072e03          	lw	t3,16(a4)
    2630:	01031293          	slli	t0,t1,0x10
    2634:	4102de93          	srai	t4,t0,0x10
    2638:	010e9813          	slli	a6,t4,0x10
    263c:	01c38eb3          	add	t4,t2,t3
    2640:	01085513          	srli	a0,a6,0x10
    2644:	13d44363          	blt	s0,t4,276a <matrix_test+0xc8c>
    2648:	01c62633          	slt	a2,a2,t3
    264c:	00c508b3          	add	a7,a0,a2
    2650:	01472383          	lw	t2,20(a4)
    2654:	01089313          	slli	t1,a7,0x10
    2658:	41035f13          	srai	t5,t1,0x10
    265c:	010f1813          	slli	a6,t5,0x10
    2660:	007e8f33          	add	t5,t4,t2
    2664:	01085513          	srli	a0,a6,0x10
    2668:	13e44263          	blt	s0,t5,278c <matrix_test+0xcae>
    266c:	007e2e33          	slt	t3,t3,t2
    2670:	01c50633          	add	a2,a0,t3
    2674:	01061893          	slli	a7,a2,0x10
    2678:	4108df93          	srai	t6,a7,0x10
    267c:	01872883          	lw	a7,24(a4)
    2680:	010f9e93          	slli	t4,t6,0x10
    2684:	010ed513          	srli	a0,t4,0x10
    2688:	011f0833          	add	a6,t5,a7
    268c:	13044163          	blt	s0,a6,27ae <matrix_test+0xcd0>
    2690:	0113a3b3          	slt	t2,t2,a7
    2694:	00750e33          	add	t3,a0,t2
    2698:	010e1613          	slli	a2,t3,0x10
    269c:	41065513          	srai	a0,a2,0x10
    26a0:	0771                	addi	a4,a4,28
    26a2:	8e46                	mv	t3,a7
    26a4:	82e681e3          	beq	a3,a4,1ec6 <matrix_test+0x3e8>
    26a8:	00072f83          	lw	t6,0(a4)
    26ac:	01051893          	slli	a7,a0,0x10
    26b0:	0108d513          	srli	a0,a7,0x10
    26b4:	01f80f33          	add	t5,a6,t6
    26b8:	efe440e3          	blt	s0,t5,2598 <matrix_test+0xaba>
    26bc:	01fe2eb3          	slt	t4,t3,t6
    26c0:	01d503b3          	add	t2,a0,t4
    26c4:	00472283          	lw	t0,4(a4)
    26c8:	01039e13          	slli	t3,t2,0x10
    26cc:	410e5613          	srai	a2,t3,0x10
    26d0:	01061893          	slli	a7,a2,0x10
    26d4:	005f0833          	add	a6,t5,t0
    26d8:	0711                	addi	a4,a4,4
    26da:	0108d513          	srli	a0,a7,0x10
    26de:	ed044fe3          	blt	s0,a6,25bc <matrix_test+0xade>
    26e2:	005fafb3          	slt	t6,t6,t0
    26e6:	01f50f33          	add	t5,a0,t6
    26ea:	00472303          	lw	t1,4(a4)
    26ee:	010f1e93          	slli	t4,t5,0x10
    26f2:	410ed613          	srai	a2,t4,0x10
    26f6:	01061893          	slli	a7,a2,0x10
    26fa:	00680633          	add	a2,a6,t1
    26fe:	0108d513          	srli	a0,a7,0x10
    2702:	ecc45ee3          	ble	a2,s0,25de <matrix_test+0xb00>
    2706:	00a50e93          	addi	t4,a0,10
    270a:	00872883          	lw	a7,8(a4)
    270e:	010e9393          	slli	t2,t4,0x10
    2712:	4103de13          	srai	t3,t2,0x10
    2716:	4601                	li	a2,0
    2718:	010e1813          	slli	a6,t3,0x10
    271c:	01160e33          	add	t3,a2,a7
    2720:	01085513          	srli	a0,a6,0x10
    2724:	edc45fe3          	ble	t3,s0,2602 <matrix_test+0xb24>
    2728:	00a50f13          	addi	t5,a0,10
    272c:	4750                	lw	a2,12(a4)
    272e:	010f1e93          	slli	t4,t5,0x10
    2732:	410ed393          	srai	t2,t4,0x10
    2736:	4e01                	li	t3,0
    2738:	01039813          	slli	a6,t2,0x10
    273c:	00ce03b3          	add	t2,t3,a2
    2740:	01085513          	srli	a0,a6,0x10
    2744:	ee7450e3          	ble	t2,s0,2624 <matrix_test+0xb46>
    2748:	00a50f93          	addi	t6,a0,10
    274c:	01072e03          	lw	t3,16(a4)
    2750:	010f9f13          	slli	t5,t6,0x10
    2754:	410f5e93          	srai	t4,t5,0x10
    2758:	4381                	li	t2,0
    275a:	010e9813          	slli	a6,t4,0x10
    275e:	01c38eb3          	add	t4,t2,t3
    2762:	01085513          	srli	a0,a6,0x10
    2766:	efd451e3          	ble	t4,s0,2648 <matrix_test+0xb6a>
    276a:	00a50293          	addi	t0,a0,10
    276e:	01472383          	lw	t2,20(a4)
    2772:	01029f93          	slli	t6,t0,0x10
    2776:	410fdf13          	srai	t5,t6,0x10
    277a:	4e81                	li	t4,0
    277c:	010f1813          	slli	a6,t5,0x10
    2780:	007e8f33          	add	t5,t4,t2
    2784:	01085513          	srli	a0,a6,0x10
    2788:	efe452e3          	ble	t5,s0,266c <matrix_test+0xb8e>
    278c:	00a50313          	addi	t1,a0,10
    2790:	01872883          	lw	a7,24(a4)
    2794:	01031293          	slli	t0,t1,0x10
    2798:	4102df93          	srai	t6,t0,0x10
    279c:	4f01                	li	t5,0
    279e:	010f9e93          	slli	t4,t6,0x10
    27a2:	011f0833          	add	a6,t5,a7
    27a6:	010ed513          	srli	a0,t4,0x10
    27aa:	ef0453e3          	ble	a6,s0,2690 <matrix_test+0xbb2>
    27ae:	00a50813          	addi	a6,a0,10
    27b2:	01081313          	slli	t1,a6,0x10
    27b6:	41035513          	srai	a0,t1,0x10
    27ba:	4801                	li	a6,0
    27bc:	b5d5                	j	26a0 <matrix_test+0xbc2>
    27be:	00a50613          	addi	a2,a0,10
    27c2:	0046a883          	lw	a7,4(a3)
    27c6:	01061813          	slli	a6,a2,0x10
    27ca:	41085393          	srai	t2,a6,0x10
    27ce:	4781                	li	a5,0
    27d0:	01039313          	slli	t1,t2,0x10
    27d4:	01178633          	add	a2,a5,a7
    27d8:	0691                	addi	a3,a3,4
    27da:	01035513          	srli	a0,t1,0x10
    27de:	12c45463          	ble	a2,s0,2906 <matrix_test+0xe28>
    27e2:	00a50293          	addi	t0,a0,10
    27e6:	0046a303          	lw	t1,4(a3)
    27ea:	01029e13          	slli	t3,t0,0x10
    27ee:	410e5393          	srai	t2,t3,0x10
    27f2:	4601                	li	a2,0
    27f4:	01039813          	slli	a6,t2,0x10
    27f8:	006603b3          	add	t2,a2,t1
    27fc:	01085513          	srli	a0,a6,0x10
    2800:	12744563          	blt	s0,t2,292a <matrix_test+0xe4c>
    2804:	0068a8b3          	slt	a7,a7,t1
    2808:	01150733          	add	a4,a0,a7
    280c:	4690                	lw	a2,8(a3)
    280e:	01071793          	slli	a5,a4,0x10
    2812:	4107de13          	srai	t3,a5,0x10
    2816:	010e1813          	slli	a6,t3,0x10
    281a:	00c38e33          	add	t3,t2,a2
    281e:	01085513          	srli	a0,a6,0x10
    2822:	13c44463          	blt	s0,t3,294a <matrix_test+0xe6c>
    2826:	00c32333          	slt	t1,t1,a2
    282a:	006508b3          	add	a7,a0,t1
    282e:	00c6a383          	lw	t2,12(a3)
    2832:	01089713          	slli	a4,a7,0x10
    2836:	41075293          	srai	t0,a4,0x10
    283a:	01029813          	slli	a6,t0,0x10
    283e:	007e02b3          	add	t0,t3,t2
    2842:	01085513          	srli	a0,a6,0x10
    2846:	12544363          	blt	s0,t0,296c <matrix_test+0xe8e>
    284a:	00762633          	slt	a2,a2,t2
    284e:	00c50333          	add	t1,a0,a2
    2852:	0106ae03          	lw	t3,16(a3)
    2856:	01031893          	slli	a7,t1,0x10
    285a:	4108d593          	srai	a1,a7,0x10
    285e:	01059813          	slli	a6,a1,0x10
    2862:	01c285b3          	add	a1,t0,t3
    2866:	01085513          	srli	a0,a6,0x10
    286a:	12b44263          	blt	s0,a1,298e <matrix_test+0xeb0>
    286e:	01c3a3b3          	slt	t2,t2,t3
    2872:	00750633          	add	a2,a0,t2
    2876:	0146a283          	lw	t0,20(a3)
    287a:	01061313          	slli	t1,a2,0x10
    287e:	41035793          	srai	a5,t1,0x10
    2882:	01079813          	slli	a6,a5,0x10
    2886:	005587b3          	add	a5,a1,t0
    288a:	01085513          	srli	a0,a6,0x10
    288e:	12f44163          	blt	s0,a5,29b0 <matrix_test+0xed2>
    2892:	005e2e33          	slt	t3,t3,t0
    2896:	01c503b3          	add	t2,a0,t3
    289a:	0186a883          	lw	a7,24(a3)
    289e:	01039613          	slli	a2,t2,0x10
    28a2:	41065713          	srai	a4,a2,0x10
    28a6:	01071593          	slli	a1,a4,0x10
    28aa:	01178833          	add	a6,a5,a7
    28ae:	0105d513          	srli	a0,a1,0x10
    28b2:	13044063          	blt	s0,a6,29d2 <matrix_test+0xef4>
    28b6:	0112a2b3          	slt	t0,t0,a7
    28ba:	00550e33          	add	t3,a0,t0
    28be:	010e1393          	slli	t2,t3,0x10
    28c2:	4103d513          	srai	a0,t2,0x10
    28c6:	06f1                	addi	a3,a3,28
    28c8:	8e46                	mv	t3,a7
    28ca:	f6dd0863          	beq	s10,a3,203a <matrix_test+0x55c>
    28ce:	4298                	lw	a4,0(a3)
    28d0:	01051893          	slli	a7,a0,0x10
    28d4:	0108d513          	srli	a0,a7,0x10
    28d8:	00e807b3          	add	a5,a6,a4
    28dc:	eef441e3          	blt	s0,a5,27be <matrix_test+0xce0>
    28e0:	00ee25b3          	slt	a1,t3,a4
    28e4:	00b502b3          	add	t0,a0,a1
    28e8:	0046a883          	lw	a7,4(a3)
    28ec:	01029e13          	slli	t3,t0,0x10
    28f0:	410e5393          	srai	t2,t3,0x10
    28f4:	01039313          	slli	t1,t2,0x10
    28f8:	01178633          	add	a2,a5,a7
    28fc:	0691                	addi	a3,a3,4
    28fe:	01035513          	srli	a0,t1,0x10
    2902:	eec440e3          	blt	s0,a2,27e2 <matrix_test+0xd04>
    2906:	01172733          	slt	a4,a4,a7
    290a:	00e507b3          	add	a5,a0,a4
    290e:	0046a303          	lw	t1,4(a3)
    2912:	01079593          	slli	a1,a5,0x10
    2916:	4105d393          	srai	t2,a1,0x10
    291a:	01039813          	slli	a6,t2,0x10
    291e:	006603b3          	add	t2,a2,t1
    2922:	01085513          	srli	a0,a6,0x10
    2926:	ec745fe3          	ble	t2,s0,2804 <matrix_test+0xd26>
    292a:	00a50593          	addi	a1,a0,10
    292e:	4690                	lw	a2,8(a3)
    2930:	01059293          	slli	t0,a1,0x10
    2934:	4102de13          	srai	t3,t0,0x10
    2938:	4381                	li	t2,0
    293a:	010e1813          	slli	a6,t3,0x10
    293e:	00c38e33          	add	t3,t2,a2
    2942:	01085513          	srli	a0,a6,0x10
    2946:	efc450e3          	ble	t3,s0,2826 <matrix_test+0xd48>
    294a:	00a50793          	addi	a5,a0,10
    294e:	00c6a383          	lw	t2,12(a3)
    2952:	01079593          	slli	a1,a5,0x10
    2956:	4105d293          	srai	t0,a1,0x10
    295a:	4e01                	li	t3,0
    295c:	01029813          	slli	a6,t0,0x10
    2960:	007e02b3          	add	t0,t3,t2
    2964:	01085513          	srli	a0,a6,0x10
    2968:	ee5451e3          	ble	t0,s0,284a <matrix_test+0xd6c>
    296c:	00a50713          	addi	a4,a0,10
    2970:	0106ae03          	lw	t3,16(a3)
    2974:	01071793          	slli	a5,a4,0x10
    2978:	4107d593          	srai	a1,a5,0x10
    297c:	4281                	li	t0,0
    297e:	01059813          	slli	a6,a1,0x10
    2982:	01c285b3          	add	a1,t0,t3
    2986:	01085513          	srli	a0,a6,0x10
    298a:	eeb452e3          	ble	a1,s0,286e <matrix_test+0xd90>
    298e:	00a50893          	addi	a7,a0,10
    2992:	0146a283          	lw	t0,20(a3)
    2996:	01089713          	slli	a4,a7,0x10
    299a:	41075793          	srai	a5,a4,0x10
    299e:	4581                	li	a1,0
    29a0:	01079813          	slli	a6,a5,0x10
    29a4:	005587b3          	add	a5,a1,t0
    29a8:	01085513          	srli	a0,a6,0x10
    29ac:	eef453e3          	ble	a5,s0,2892 <matrix_test+0xdb4>
    29b0:	00a50313          	addi	t1,a0,10
    29b4:	01031893          	slli	a7,t1,0x10
    29b8:	4108d713          	srai	a4,a7,0x10
    29bc:	0186a883          	lw	a7,24(a3)
    29c0:	4781                	li	a5,0
    29c2:	01071593          	slli	a1,a4,0x10
    29c6:	01178833          	add	a6,a5,a7
    29ca:	0105d513          	srli	a0,a1,0x10
    29ce:	ef0454e3          	ble	a6,s0,28b6 <matrix_test+0xdd8>
    29d2:	00a50813          	addi	a6,a0,10
    29d6:	01081613          	slli	a2,a6,0x10
    29da:	41065513          	srai	a0,a2,0x10
    29de:	4801                	li	a6,0
    29e0:	b5dd                	j	28c6 <matrix_test+0xde8>
    29e2:	00cb2833          	slt	a6,s6,a2
    29e6:	01038e33          	add	t3,t2,a6
    29ea:	010e1f93          	slli	t6,t3,0x10
    29ee:	410fd513          	srai	a0,t6,0x10
    29f2:	b079                	j	2280 <matrix_test+0x7a2>
    29f4:	011fa7b3          	slt	a5,t6,a7
    29f8:	00f70533          	add	a0,a4,a5
    29fc:	01051293          	slli	t0,a0,0x10
    2a00:	4102d513          	srai	a0,t0,0x10
    2a04:	e88ff06f          	j	208c <matrix_test+0x5ae>
    2a08:	00a28813          	addi	a6,t0,10
    2a0c:	01081313          	slli	t1,a6,0x10
    2a10:	41035513          	srai	a0,t1,0x10
    2a14:	4801                	li	a6,0
    2a16:	e1cff06f          	j	2032 <matrix_test+0x554>
    2a1a:	00a38813          	addi	a6,t2,10
    2a1e:	01081293          	slli	t0,a6,0x10
    2a22:	4102d513          	srai	a0,t0,0x10
    2a26:	4801                	li	a6,0
    2a28:	c96ff06f          	j	1ebe <matrix_test+0x3e0>
    2a2c:	00a30513          	addi	a0,t1,10
    2a30:	01051f13          	slli	t5,a0,0x10
    2a34:	410f5513          	srai	a0,t5,0x10
    2a38:	4801                	li	a6,0
    2a3a:	c5eff06f          	j	1e98 <matrix_test+0x3ba>
    2a3e:	00a38513          	addi	a0,t2,10
    2a42:	01051793          	slli	a5,a0,0x10
    2a46:	4107d513          	srai	a0,a5,0x10
    2a4a:	4801                	li	a6,0
    2a4c:	dc0ff06f          	j	200c <matrix_test+0x52e>
    2a50:	00af8813          	addi	a6,t6,10
    2a54:	01081e93          	slli	t4,a6,0x10
    2a58:	410ed513          	srai	a0,t4,0x10
    2a5c:	4801                	li	a6,0
    2a5e:	c14ff06f          	j	1e72 <matrix_test+0x394>
    2a62:	00a70813          	addi	a6,a4,10
    2a66:	01081593          	slli	a1,a6,0x10
    2a6a:	4105d513          	srai	a0,a1,0x10
    2a6e:	4801                	li	a6,0
    2a70:	d76ff06f          	j	1fe6 <matrix_test+0x508>
    2a74:	00a08513          	addi	a0,ra,10
    2a78:	01051393          	slli	t2,a0,0x10
    2a7c:	4103d513          	srai	a0,t2,0x10
    2a80:	4581                	li	a1,0
    2a82:	e92ff06f          	j	2114 <matrix_test+0x636>
    2a86:	00a08513          	addi	a0,ra,10
    2a8a:	01051693          	slli	a3,a0,0x10
    2a8e:	4106d513          	srai	a0,a3,0x10
    2a92:	4881                	li	a7,0
    2a94:	b895                	j	2308 <matrix_test+0x82a>
    2a96:	00a78893          	addi	a7,a5,10
    2a9a:	01089393          	slli	t2,a7,0x10
    2a9e:	4103d513          	srai	a0,t2,0x10
    2aa2:	4801                	li	a6,0
    2aa4:	d1eff06f          	j	1fc2 <matrix_test+0x4e4>
    2aa8:	00af0613          	addi	a2,t5,10
    2aac:	01061313          	slli	t1,a2,0x10
    2ab0:	41035513          	srai	a0,t1,0x10
    2ab4:	4801                	li	a6,0
    2ab6:	b96ff06f          	j	1e4c <matrix_test+0x36e>
    2aba:	00ad8f93          	addi	t6,s11,10
    2abe:	010f9893          	slli	a7,t6,0x10
    2ac2:	4108d513          	srai	a0,a7,0x10
    2ac6:	4881                	li	a7,0
    2ac8:	b821                	j	22e0 <matrix_test+0x802>
    2aca:	00a38593          	addi	a1,t2,10
    2ace:	01059f93          	slli	t6,a1,0x10
    2ad2:	410fd513          	srai	a0,t6,0x10
    2ad6:	4581                	li	a1,0
    2ad8:	e14ff06f          	j	20ec <matrix_test+0x60e>
    2adc:	00a38813          	addi	a6,t2,10
    2ae0:	01081293          	slli	t0,a6,0x10
    2ae4:	4102d513          	srai	a0,t0,0x10
    2ae8:	4801                	li	a6,0
    2aea:	b3eff06f          	j	1e28 <matrix_test+0x34a>
    2aee:	00a28813          	addi	a6,t0,10
    2af2:	01081313          	slli	t1,a6,0x10
    2af6:	41035513          	srai	a0,t1,0x10
    2afa:	4801                	li	a6,0
    2afc:	ca4ff06f          	j	1fa0 <matrix_test+0x4c2>
    2b00:	00a38e13          	addi	t3,t2,10
    2b04:	010e1713          	slli	a4,t3,0x10
    2b08:	41075513          	srai	a0,a4,0x10
    2b0c:	4801                	li	a6,0
    2b0e:	c6eff06f          	j	1f7c <matrix_test+0x49e>
    2b12:	00a30e13          	addi	t3,t1,10
    2b16:	010e1f93          	slli	t6,t3,0x10
    2b1a:	410fd513          	srai	a0,t6,0x10
    2b1e:	4801                	li	a6,0
    2b20:	ae2ff06f          	j	1e02 <matrix_test+0x324>
    2b24:	00af8713          	addi	a4,t6,10
    2b28:	01071793          	slli	a5,a4,0x10
    2b2c:	4107d513          	srai	a0,a5,0x10
    2b30:	4581                	li	a1,0
    2b32:	d96ff06f          	j	20c8 <matrix_test+0x5ea>
    2b36:	00a70613          	addi	a2,a4,10
    2b3a:	01061693          	slli	a3,a2,0x10
    2b3e:	4106d513          	srai	a0,a3,0x10
    2b42:	4881                	li	a7,0
    2b44:	f76ff06f          	j	22ba <matrix_test+0x7dc>
    2b48:	00a68813          	addi	a6,a3,10
    2b4c:	01081593          	slli	a1,a6,0x10
    2b50:	4105d513          	srai	a0,a1,0x10
    2b54:	4801                	li	a6,0
    2b56:	c00ff06f          	j	1f56 <matrix_test+0x478>
    2b5a:	00a70813          	addi	a6,a4,10
    2b5e:	01081e93          	slli	t4,a6,0x10
    2b62:	410ed513          	srai	a0,t4,0x10
    2b66:	4801                	li	a6,0
    2b68:	a74ff06f          	j	1ddc <matrix_test+0x2fe>
    2b6c:	4581                	li	a1,0
    2b6e:	019010ef          	jal	ra,4386 <crc16>
    2b72:	86e2                	mv	a3,s8
    2b74:	865e                	mv	a2,s7
    2b76:	84aa                	mv	s1,a0
    2b78:	85da                	mv	a1,s6
    2b7a:	4501                	li	a0,0
    2b7c:	2785                	jal	32dc <matrix_mul_vect>
    2b7e:	85a6                	mv	a1,s1
    2b80:	4501                	li	a0,0
    2b82:	005010ef          	jal	ra,4386 <crc16>
    2b86:	86e2                	mv	a3,s8
    2b88:	865e                	mv	a2,s7
    2b8a:	892a                	mv	s2,a0
    2b8c:	85da                	mv	a1,s6
    2b8e:	4501                	li	a0,0
    2b90:	0e3000ef          	jal	ra,3472 <matrix_mul_matrix>
    2b94:	85ca                	mv	a1,s2
    2b96:	4501                	li	a0,0
    2b98:	7ee010ef          	jal	ra,4386 <crc16>
    2b9c:	89aa                	mv	s3,a0
    2b9e:	85da                	mv	a1,s6
    2ba0:	86e2                	mv	a3,s8
    2ba2:	865e                	mv	a2,s7
    2ba4:	4501                	li	a0,0
    2ba6:	2a5000ef          	jal	ra,364a <matrix_mul_matrix_bitextract>
    2baa:	85ce                	mv	a1,s3
    2bac:	4501                	li	a0,0
    2bae:	7d8010ef          	jal	ra,4386 <crc16>
    2bb2:	b2c1                	j	2572 <matrix_test+0xa94>

00002bb4 <core_bench_matrix>:
    2bb4:	1141                	addi	sp,sp,-16
    2bb6:	c422                	sw	s0,8(sp)
    2bb8:	872e                	mv	a4,a1
    2bba:	8432                	mv	s0,a2
    2bbc:	454c                	lw	a1,12(a0)
    2bbe:	4514                	lw	a3,8(a0)
    2bc0:	4150                	lw	a2,4(a0)
    2bc2:	4108                	lw	a0,0(a0)
    2bc4:	c606                	sw	ra,12(sp)
    2bc6:	f19fe0ef          	jal	ra,1ade <matrix_test>
    2bca:	85a2                	mv	a1,s0
    2bcc:	4422                	lw	s0,8(sp)
    2bce:	40b2                	lw	ra,12(sp)
    2bd0:	0141                	addi	sp,sp,16
    2bd2:	7b40106f          	j	4386 <crc16>

00002bd6 <matrix_sum>:
    2bd6:	3e050263          	beqz	a0,2fba <matrix_sum+0x3e4>
    2bda:	40a00833          	neg	a6,a0
    2bde:	00251793          	slli	a5,a0,0x2
    2be2:	95be                	add	a1,a1,a5
    2be4:	00281893          	slli	a7,a6,0x2
    2be8:	4681                	li	a3,0
    2bea:	4781                	li	a5,0
    2bec:	4f01                	li	t5,0
    2bee:	4e01                	li	t3,0
    2bf0:	080e                	slli	a6,a6,0x3
    2bf2:	00b88733          	add	a4,a7,a1
    2bf6:	40e58eb3          	sub	t4,a1,a4
    2bfa:	ffce8293          	addi	t0,t4,-4
    2bfe:	0022d313          	srli	t1,t0,0x2
    2c02:	00130393          	addi	t2,t1,1
    2c06:	0073fe93          	andi	t4,t2,7
    2c0a:	833a                	mv	t1,a4
    2c0c:	220e8e63          	beqz	t4,2e48 <matrix_sum+0x272>
    2c10:	4f85                	li	t6,1
    2c12:	11fe8063          	beq	t4,t6,2d12 <matrix_sum+0x13c>
    2c16:	4289                	li	t0,2
    2c18:	0c5e8b63          	beq	t4,t0,2cee <matrix_sum+0x118>
    2c1c:	438d                	li	t2,3
    2c1e:	0a7e8563          	beq	t4,t2,2cc8 <matrix_sum+0xf2>
    2c22:	4f91                	li	t6,4
    2c24:	07fe8f63          	beq	t4,t6,2ca2 <matrix_sum+0xcc>
    2c28:	4295                	li	t0,5
    2c2a:	045e8a63          	beq	t4,t0,2c7e <matrix_sum+0xa8>
    2c2e:	4399                	li	t2,6
    2c30:	027e8563          	beq	t4,t2,2c5a <matrix_sum+0x84>
    2c34:	00072e83          	lw	t4,0(a4)
    2c38:	07c2                	slli	a5,a5,0x10
    2c3a:	0107d313          	srli	t1,a5,0x10
    2c3e:	9e76                	add	t3,t3,t4
    2c40:	37c64563          	blt	a2,t3,2faa <matrix_sum+0x3d4>
    2c44:	01df2f33          	slt	t5,t5,t4
    2c48:	01e30fb3          	add	t6,t1,t5
    2c4c:	010f9293          	slli	t0,t6,0x10
    2c50:	4102d793          	srai	a5,t0,0x10
    2c54:	00470313          	addi	t1,a4,4
    2c58:	8f76                	mv	t5,t4
    2c5a:	00032e83          	lw	t4,0(t1)
    2c5e:	07c2                	slli	a5,a5,0x10
    2c60:	0107df93          	srli	t6,a5,0x10
    2c64:	9e76                	add	t3,t3,t4
    2c66:	33c64b63          	blt	a2,t3,2f9c <matrix_sum+0x3c6>
    2c6a:	01df2f33          	slt	t5,t5,t4
    2c6e:	01ef82b3          	add	t0,t6,t5
    2c72:	01029393          	slli	t2,t0,0x10
    2c76:	4103d793          	srai	a5,t2,0x10
    2c7a:	0311                	addi	t1,t1,4
    2c7c:	8f76                	mv	t5,t4
    2c7e:	00032e83          	lw	t4,0(t1)
    2c82:	01079f93          	slli	t6,a5,0x10
    2c86:	010fd293          	srli	t0,t6,0x10
    2c8a:	9e76                	add	t3,t3,t4
    2c8c:	31c64063          	blt	a2,t3,2f8c <matrix_sum+0x3b6>
    2c90:	01df2f33          	slt	t5,t5,t4
    2c94:	01e283b3          	add	t2,t0,t5
    2c98:	01039793          	slli	a5,t2,0x10
    2c9c:	87c1                	srai	a5,a5,0x10
    2c9e:	0311                	addi	t1,t1,4
    2ca0:	8f76                	mv	t5,t4
    2ca2:	00032283          	lw	t0,0(t1)
    2ca6:	01079e93          	slli	t4,a5,0x10
    2caa:	010ed393          	srli	t2,t4,0x10
    2cae:	9e16                	add	t3,t3,t0
    2cb0:	2dc64663          	blt	a2,t3,2f7c <matrix_sum+0x3a6>
    2cb4:	005f2f33          	slt	t5,t5,t0
    2cb8:	01e387b3          	add	a5,t2,t5
    2cbc:	01079f93          	slli	t6,a5,0x10
    2cc0:	410fd793          	srai	a5,t6,0x10
    2cc4:	0311                	addi	t1,t1,4
    2cc6:	8f16                	mv	t5,t0
    2cc8:	00032283          	lw	t0,0(t1)
    2ccc:	01079393          	slli	t2,a5,0x10
    2cd0:	0103d793          	srli	a5,t2,0x10
    2cd4:	9e16                	add	t3,t3,t0
    2cd6:	29c64b63          	blt	a2,t3,2f6c <matrix_sum+0x396>
    2cda:	005f2f33          	slt	t5,t5,t0
    2cde:	01e78fb3          	add	t6,a5,t5
    2ce2:	010f9e93          	slli	t4,t6,0x10
    2ce6:	410ed793          	srai	a5,t4,0x10
    2cea:	0311                	addi	t1,t1,4
    2cec:	8f16                	mv	t5,t0
    2cee:	00032283          	lw	t0,0(t1)
    2cf2:	07c2                	slli	a5,a5,0x10
    2cf4:	0107df93          	srli	t6,a5,0x10
    2cf8:	9e16                	add	t3,t3,t0
    2cfa:	27c64263          	blt	a2,t3,2f5e <matrix_sum+0x388>
    2cfe:	005f2f33          	slt	t5,t5,t0
    2d02:	01ef8eb3          	add	t4,t6,t5
    2d06:	010e9393          	slli	t2,t4,0x10
    2d0a:	4103d793          	srai	a5,t2,0x10
    2d0e:	0311                	addi	t1,t1,4
    2d10:	8f16                	mv	t5,t0
    2d12:	00032283          	lw	t0,0(t1)
    2d16:	01079f93          	slli	t6,a5,0x10
    2d1a:	010fde93          	srli	t4,t6,0x10
    2d1e:	9e16                	add	t3,t3,t0
    2d20:	23c64763          	blt	a2,t3,2f4e <matrix_sum+0x378>
    2d24:	005f2f33          	slt	t5,t5,t0
    2d28:	01ee83b3          	add	t2,t4,t5
    2d2c:	01039793          	slli	a5,t2,0x10
    2d30:	87c1                	srai	a5,a5,0x10
    2d32:	0311                	addi	t1,t1,4
    2d34:	8f16                	mv	t5,t0
    2d36:	10659963          	bne	a1,t1,2e48 <matrix_sum+0x272>
    2d3a:	0685                	addi	a3,a3,1
    2d3c:	410705b3          	sub	a1,a4,a6
    2d40:	ead519e3          	bne	a0,a3,2bf2 <matrix_sum+0x1c>
    2d44:	853e                	mv	a0,a5
    2d46:	8082                	ret
    2d48:	00432f03          	lw	t5,4(t1)
    2d4c:	03a9                	addi	t2,t2,10
    2d4e:	01039e13          	slli	t3,t2,0x10
    2d52:	410e5e93          	srai	t4,t3,0x10
    2d56:	4e01                	li	t3,0
    2d58:	010e9793          	slli	a5,t4,0x10
    2d5c:	9e7a                	add	t3,t3,t5
    2d5e:	0311                	addi	t1,t1,4
    2d60:	0107df93          	srli	t6,a5,0x10
    2d64:	11c65d63          	ble	t3,a2,2e7e <matrix_sum+0x2a8>
    2d68:	00af8e13          	addi	t3,t6,10
    2d6c:	00432283          	lw	t0,4(t1)
    2d70:	010e1793          	slli	a5,t3,0x10
    2d74:	4107df93          	srai	t6,a5,0x10
    2d78:	4e01                	li	t3,0
    2d7a:	010f9e93          	slli	t4,t6,0x10
    2d7e:	9e16                	add	t3,t3,t0
    2d80:	010ed393          	srli	t2,t4,0x10
    2d84:	11c64e63          	blt	a2,t3,2ea0 <matrix_sum+0x2ca>
    2d88:	005f2f33          	slt	t5,t5,t0
    2d8c:	01e387b3          	add	a5,t2,t5
    2d90:	00832f03          	lw	t5,8(t1)
    2d94:	01079f93          	slli	t6,a5,0x10
    2d98:	410fd393          	srai	t2,t6,0x10
    2d9c:	01039793          	slli	a5,t2,0x10
    2da0:	9e7a                	add	t3,t3,t5
    2da2:	0107df93          	srli	t6,a5,0x10
    2da6:	11c64d63          	blt	a2,t3,2ec0 <matrix_sum+0x2ea>
    2daa:	01e2a2b3          	slt	t0,t0,t5
    2dae:	005f8eb3          	add	t4,t6,t0
    2db2:	00c32283          	lw	t0,12(t1)
    2db6:	010e9393          	slli	t2,t4,0x10
    2dba:	4103df93          	srai	t6,t2,0x10
    2dbe:	010f9e93          	slli	t4,t6,0x10
    2dc2:	9e16                	add	t3,t3,t0
    2dc4:	010ed393          	srli	t2,t4,0x10
    2dc8:	11c64c63          	blt	a2,t3,2ee0 <matrix_sum+0x30a>
    2dcc:	005f2f33          	slt	t5,t5,t0
    2dd0:	01e387b3          	add	a5,t2,t5
    2dd4:	01032f03          	lw	t5,16(t1)
    2dd8:	01079f93          	slli	t6,a5,0x10
    2ddc:	410fd393          	srai	t2,t6,0x10
    2de0:	01039793          	slli	a5,t2,0x10
    2de4:	9e7a                	add	t3,t3,t5
    2de6:	0107df93          	srli	t6,a5,0x10
    2dea:	11c64b63          	blt	a2,t3,2f00 <matrix_sum+0x32a>
    2dee:	01e2a2b3          	slt	t0,t0,t5
    2df2:	005f8eb3          	add	t4,t6,t0
    2df6:	01432283          	lw	t0,20(t1)
    2dfa:	010e9393          	slli	t2,t4,0x10
    2dfe:	4103df93          	srai	t6,t2,0x10
    2e02:	010f9e93          	slli	t4,t6,0x10
    2e06:	9e16                	add	t3,t3,t0
    2e08:	010ed393          	srli	t2,t4,0x10
    2e0c:	11c64a63          	blt	a2,t3,2f20 <matrix_sum+0x34a>
    2e10:	005f2f33          	slt	t5,t5,t0
    2e14:	01e387b3          	add	a5,t2,t5
    2e18:	01832f03          	lw	t5,24(t1)
    2e1c:	01079f93          	slli	t6,a5,0x10
    2e20:	410fd393          	srai	t2,t6,0x10
    2e24:	01039793          	slli	a5,t2,0x10
    2e28:	9e7a                	add	t3,t3,t5
    2e2a:	0107df93          	srli	t6,a5,0x10
    2e2e:	11c64963          	blt	a2,t3,2f40 <matrix_sum+0x36a>
    2e32:	01e2a2b3          	slt	t0,t0,t5
    2e36:	005f8eb3          	add	t4,t6,t0
    2e3a:	010e9393          	slli	t2,t4,0x10
    2e3e:	4103d793          	srai	a5,t2,0x10
    2e42:	0371                	addi	t1,t1,28
    2e44:	ee658be3          	beq	a1,t1,2d3a <matrix_sum+0x164>
    2e48:	00032283          	lw	t0,0(t1)
    2e4c:	01079e93          	slli	t4,a5,0x10
    2e50:	010ed393          	srli	t2,t4,0x10
    2e54:	9e16                	add	t3,t3,t0
    2e56:	efc649e3          	blt	a2,t3,2d48 <matrix_sum+0x172>
    2e5a:	005f2f33          	slt	t5,t5,t0
    2e5e:	01e387b3          	add	a5,t2,t5
    2e62:	00432f03          	lw	t5,4(t1)
    2e66:	01079f93          	slli	t6,a5,0x10
    2e6a:	410fde93          	srai	t4,t6,0x10
    2e6e:	010e9793          	slli	a5,t4,0x10
    2e72:	9e7a                	add	t3,t3,t5
    2e74:	0311                	addi	t1,t1,4
    2e76:	0107df93          	srli	t6,a5,0x10
    2e7a:	efc647e3          	blt	a2,t3,2d68 <matrix_sum+0x192>
    2e7e:	01e2a2b3          	slt	t0,t0,t5
    2e82:	005f8eb3          	add	t4,t6,t0
    2e86:	00432283          	lw	t0,4(t1)
    2e8a:	010e9393          	slli	t2,t4,0x10
    2e8e:	4103df93          	srai	t6,t2,0x10
    2e92:	010f9e93          	slli	t4,t6,0x10
    2e96:	9e16                	add	t3,t3,t0
    2e98:	010ed393          	srli	t2,t4,0x10
    2e9c:	efc656e3          	ble	t3,a2,2d88 <matrix_sum+0x1b2>
    2ea0:	00a38e13          	addi	t3,t2,10
    2ea4:	00832f03          	lw	t5,8(t1)
    2ea8:	010e1e93          	slli	t4,t3,0x10
    2eac:	410ed393          	srai	t2,t4,0x10
    2eb0:	4e01                	li	t3,0
    2eb2:	01039793          	slli	a5,t2,0x10
    2eb6:	9e7a                	add	t3,t3,t5
    2eb8:	0107df93          	srli	t6,a5,0x10
    2ebc:	efc657e3          	ble	t3,a2,2daa <matrix_sum+0x1d4>
    2ec0:	00af8e13          	addi	t3,t6,10
    2ec4:	00c32283          	lw	t0,12(t1)
    2ec8:	010e1793          	slli	a5,t3,0x10
    2ecc:	4107df93          	srai	t6,a5,0x10
    2ed0:	4e01                	li	t3,0
    2ed2:	010f9e93          	slli	t4,t6,0x10
    2ed6:	9e16                	add	t3,t3,t0
    2ed8:	010ed393          	srli	t2,t4,0x10
    2edc:	efc658e3          	ble	t3,a2,2dcc <matrix_sum+0x1f6>
    2ee0:	00a38e13          	addi	t3,t2,10
    2ee4:	01032f03          	lw	t5,16(t1)
    2ee8:	010e1e93          	slli	t4,t3,0x10
    2eec:	410ed393          	srai	t2,t4,0x10
    2ef0:	4e01                	li	t3,0
    2ef2:	01039793          	slli	a5,t2,0x10
    2ef6:	9e7a                	add	t3,t3,t5
    2ef8:	0107df93          	srli	t6,a5,0x10
    2efc:	efc659e3          	ble	t3,a2,2dee <matrix_sum+0x218>
    2f00:	00af8e13          	addi	t3,t6,10
    2f04:	01432283          	lw	t0,20(t1)
    2f08:	010e1793          	slli	a5,t3,0x10
    2f0c:	4107df93          	srai	t6,a5,0x10
    2f10:	4e01                	li	t3,0
    2f12:	010f9e93          	slli	t4,t6,0x10
    2f16:	9e16                	add	t3,t3,t0
    2f18:	010ed393          	srli	t2,t4,0x10
    2f1c:	efc65ae3          	ble	t3,a2,2e10 <matrix_sum+0x23a>
    2f20:	00a38e13          	addi	t3,t2,10
    2f24:	01832f03          	lw	t5,24(t1)
    2f28:	010e1e93          	slli	t4,t3,0x10
    2f2c:	410ed393          	srai	t2,t4,0x10
    2f30:	4e01                	li	t3,0
    2f32:	01039793          	slli	a5,t2,0x10
    2f36:	9e7a                	add	t3,t3,t5
    2f38:	0107df93          	srli	t6,a5,0x10
    2f3c:	efc65be3          	ble	t3,a2,2e32 <matrix_sum+0x25c>
    2f40:	00af8e13          	addi	t3,t6,10
    2f44:	010e1793          	slli	a5,t3,0x10
    2f48:	87c1                	srai	a5,a5,0x10
    2f4a:	4e01                	li	t3,0
    2f4c:	bddd                	j	2e42 <matrix_sum+0x26c>
    2f4e:	00ae8e13          	addi	t3,t4,10
    2f52:	010e1f93          	slli	t6,t3,0x10
    2f56:	410fd793          	srai	a5,t6,0x10
    2f5a:	4e01                	li	t3,0
    2f5c:	bbd9                	j	2d32 <matrix_sum+0x15c>
    2f5e:	00af8e13          	addi	t3,t6,10
    2f62:	010e1793          	slli	a5,t3,0x10
    2f66:	87c1                	srai	a5,a5,0x10
    2f68:	4e01                	li	t3,0
    2f6a:	b355                	j	2d0e <matrix_sum+0x138>
    2f6c:	00a78e13          	addi	t3,a5,10
    2f70:	010e1393          	slli	t2,t3,0x10
    2f74:	4103d793          	srai	a5,t2,0x10
    2f78:	4e01                	li	t3,0
    2f7a:	bb85                	j	2cea <matrix_sum+0x114>
    2f7c:	00a38e13          	addi	t3,t2,10
    2f80:	010e1e93          	slli	t4,t3,0x10
    2f84:	410ed793          	srai	a5,t4,0x10
    2f88:	4e01                	li	t3,0
    2f8a:	bb2d                	j	2cc4 <matrix_sum+0xee>
    2f8c:	00a28e13          	addi	t3,t0,10
    2f90:	010e1f93          	slli	t6,t3,0x10
    2f94:	410fd793          	srai	a5,t6,0x10
    2f98:	4e01                	li	t3,0
    2f9a:	b311                	j	2c9e <matrix_sum+0xc8>
    2f9c:	00af8e13          	addi	t3,t6,10
    2fa0:	010e1793          	slli	a5,t3,0x10
    2fa4:	87c1                	srai	a5,a5,0x10
    2fa6:	4e01                	li	t3,0
    2fa8:	b9c9                	j	2c7a <matrix_sum+0xa4>
    2faa:	00a30e13          	addi	t3,t1,10
    2fae:	010e1393          	slli	t2,t3,0x10
    2fb2:	4103d793          	srai	a5,t2,0x10
    2fb6:	4e01                	li	t3,0
    2fb8:	b971                	j	2c54 <matrix_sum+0x7e>
    2fba:	4781                	li	a5,0
    2fbc:	853e                	mv	a0,a5
    2fbe:	8082                	ret

00002fc0 <matrix_mul_const>:
    2fc0:	1e050063          	beqz	a0,31a0 <matrix_mul_const+0x1e0>
    2fc4:	00151f13          	slli	t5,a0,0x1
    2fc8:	00251f93          	slli	t6,a0,0x2
    2fcc:	4801                	li	a6,0
    2fce:	ffef0713          	addi	a4,t5,-2
    2fd2:	00175293          	srli	t0,a4,0x1
    2fd6:	00128313          	addi	t1,t0,1
    2fda:	00737393          	andi	t2,t1,7
    2fde:	87ae                	mv	a5,a1
    2fe0:	00cf08b3          	add	a7,t5,a2
    2fe4:	08038663          	beqz	t2,3070 <matrix_mul_const+0xb0>
    2fe8:	4e05                	li	t3,1
    2fea:	07c38963          	beq	t2,t3,305c <matrix_mul_const+0x9c>
    2fee:	4e89                	li	t4,2
    2ff0:	05d38e63          	beq	t2,t4,304c <matrix_mul_const+0x8c>
    2ff4:	470d                	li	a4,3
    2ff6:	04e38363          	beq	t2,a4,303c <matrix_mul_const+0x7c>
    2ffa:	4291                	li	t0,4
    2ffc:	02538863          	beq	t2,t0,302c <matrix_mul_const+0x6c>
    3000:	4315                	li	t1,5
    3002:	00638d63          	beq	t2,t1,301c <matrix_mul_const+0x5c>
    3006:	4e19                	li	t3,6
    3008:	19c39d63          	bne	t2,t3,31a2 <matrix_mul_const+0x1e2>
    300c:	00061703          	lh	a4,0(a2)
    3010:	0791                	addi	a5,a5,4
    3012:	0609                	addi	a2,a2,2
    3014:	02d702b3          	mul	t0,a4,a3
    3018:	fe57ae23          	sw	t0,-4(a5)
    301c:	00061303          	lh	t1,0(a2)
    3020:	0791                	addi	a5,a5,4
    3022:	0609                	addi	a2,a2,2
    3024:	02d30e33          	mul	t3,t1,a3
    3028:	ffc7ae23          	sw	t3,-4(a5)
    302c:	00061383          	lh	t2,0(a2)
    3030:	0791                	addi	a5,a5,4
    3032:	0609                	addi	a2,a2,2
    3034:	02d38eb3          	mul	t4,t2,a3
    3038:	ffd7ae23          	sw	t4,-4(a5)
    303c:	00061703          	lh	a4,0(a2)
    3040:	0791                	addi	a5,a5,4
    3042:	0609                	addi	a2,a2,2
    3044:	02d702b3          	mul	t0,a4,a3
    3048:	fe57ae23          	sw	t0,-4(a5)
    304c:	00061303          	lh	t1,0(a2)
    3050:	0791                	addi	a5,a5,4
    3052:	0609                	addi	a2,a2,2
    3054:	02d30e33          	mul	t3,t1,a3
    3058:	ffc7ae23          	sw	t3,-4(a5)
    305c:	00061383          	lh	t2,0(a2)
    3060:	0791                	addi	a5,a5,4
    3062:	0609                	addi	a2,a2,2
    3064:	02d38eb3          	mul	t4,t2,a3
    3068:	ffd7ae23          	sw	t4,-4(a5)
    306c:	13160663          	beq	a2,a7,3198 <matrix_mul_const+0x1d8>
    3070:	1141                	addi	sp,sp,-16
    3072:	c622                	sw	s0,12(sp)
    3074:	c426                	sw	s1,8(sp)
    3076:	00061483          	lh	s1,0(a2)
    307a:	00261403          	lh	s0,2(a2)
    307e:	00461383          	lh	t2,4(a2)
    3082:	00661283          	lh	t0,6(a2)
    3086:	00861e83          	lh	t4,8(a2)
    308a:	00a61e03          	lh	t3,10(a2)
    308e:	00c61303          	lh	t1,12(a2)
    3092:	00e61703          	lh	a4,14(a2)
    3096:	02d484b3          	mul	s1,s1,a3
    309a:	02078793          	addi	a5,a5,32
    309e:	0641                	addi	a2,a2,16
    30a0:	02d40433          	mul	s0,s0,a3
    30a4:	fe97a023          	sw	s1,-32(a5)
    30a8:	02d383b3          	mul	t2,t2,a3
    30ac:	fe87a223          	sw	s0,-28(a5)
    30b0:	02d282b3          	mul	t0,t0,a3
    30b4:	fe77a423          	sw	t2,-24(a5)
    30b8:	02de8eb3          	mul	t4,t4,a3
    30bc:	fe57a623          	sw	t0,-20(a5)
    30c0:	02de0e33          	mul	t3,t3,a3
    30c4:	ffd7a823          	sw	t4,-16(a5)
    30c8:	02d30333          	mul	t1,t1,a3
    30cc:	ffc7aa23          	sw	t3,-12(a5)
    30d0:	02d70733          	mul	a4,a4,a3
    30d4:	fe67ac23          	sw	t1,-8(a5)
    30d8:	fee7ae23          	sw	a4,-4(a5)
    30dc:	f9161de3          	bne	a2,a7,3076 <matrix_mul_const+0xb6>
    30e0:	0805                	addi	a6,a6,1
    30e2:	95fe                	add	a1,a1,t6
    30e4:	0b050663          	beq	a0,a6,3190 <matrix_mul_const+0x1d0>
    30e8:	ffef0893          	addi	a7,t5,-2
    30ec:	0018d793          	srli	a5,a7,0x1
    30f0:	00178493          	addi	s1,a5,1
    30f4:	0074f413          	andi	s0,s1,7
    30f8:	87ae                	mv	a5,a1
    30fa:	00cf08b3          	add	a7,t5,a2
    30fe:	dc25                	beqz	s0,3076 <matrix_mul_const+0xb6>
    3100:	4385                	li	t2,1
    3102:	06740963          	beq	s0,t2,3174 <matrix_mul_const+0x1b4>
    3106:	4289                	li	t0,2
    3108:	04540e63          	beq	s0,t0,3164 <matrix_mul_const+0x1a4>
    310c:	4e8d                	li	t4,3
    310e:	05d40363          	beq	s0,t4,3154 <matrix_mul_const+0x194>
    3112:	4e11                	li	t3,4
    3114:	03c40863          	beq	s0,t3,3144 <matrix_mul_const+0x184>
    3118:	4315                	li	t1,5
    311a:	00640d63          	beq	s0,t1,3134 <matrix_mul_const+0x174>
    311e:	4719                	li	a4,6
    3120:	08e41b63          	bne	s0,a4,31b6 <matrix_mul_const+0x1f6>
    3124:	00061383          	lh	t2,0(a2)
    3128:	0791                	addi	a5,a5,4
    312a:	0609                	addi	a2,a2,2
    312c:	02d382b3          	mul	t0,t2,a3
    3130:	fe57ae23          	sw	t0,-4(a5)
    3134:	00061e83          	lh	t4,0(a2)
    3138:	0791                	addi	a5,a5,4
    313a:	0609                	addi	a2,a2,2
    313c:	02de8e33          	mul	t3,t4,a3
    3140:	ffc7ae23          	sw	t3,-4(a5)
    3144:	00061303          	lh	t1,0(a2)
    3148:	0791                	addi	a5,a5,4
    314a:	0609                	addi	a2,a2,2
    314c:	02d30733          	mul	a4,t1,a3
    3150:	fee7ae23          	sw	a4,-4(a5)
    3154:	00061483          	lh	s1,0(a2)
    3158:	0791                	addi	a5,a5,4
    315a:	0609                	addi	a2,a2,2
    315c:	02d48433          	mul	s0,s1,a3
    3160:	fe87ae23          	sw	s0,-4(a5)
    3164:	00061383          	lh	t2,0(a2)
    3168:	0791                	addi	a5,a5,4
    316a:	0609                	addi	a2,a2,2
    316c:	02d382b3          	mul	t0,t2,a3
    3170:	fe57ae23          	sw	t0,-4(a5)
    3174:	00061e83          	lh	t4,0(a2)
    3178:	0791                	addi	a5,a5,4
    317a:	0609                	addi	a2,a2,2
    317c:	02de8e33          	mul	t3,t4,a3
    3180:	ffc7ae23          	sw	t3,-4(a5)
    3184:	ef1619e3          	bne	a2,a7,3076 <matrix_mul_const+0xb6>
    3188:	0805                	addi	a6,a6,1
    318a:	95fe                	add	a1,a1,t6
    318c:	f5051ee3          	bne	a0,a6,30e8 <matrix_mul_const+0x128>
    3190:	4432                	lw	s0,12(sp)
    3192:	44a2                	lw	s1,8(sp)
    3194:	0141                	addi	sp,sp,16
    3196:	8082                	ret
    3198:	0805                	addi	a6,a6,1
    319a:	95fe                	add	a1,a1,t6
    319c:	e30519e3          	bne	a0,a6,2fce <matrix_mul_const+0xe>
    31a0:	8082                	ret
    31a2:	00061383          	lh	t2,0(a2)
    31a6:	00458793          	addi	a5,a1,4
    31aa:	0609                	addi	a2,a2,2
    31ac:	02d38eb3          	mul	t4,t2,a3
    31b0:	01d5a023          	sw	t4,0(a1)
    31b4:	bda1                	j	300c <matrix_mul_const+0x4c>
    31b6:	00061483          	lh	s1,0(a2)
    31ba:	00458793          	addi	a5,a1,4
    31be:	0609                	addi	a2,a2,2
    31c0:	02d48433          	mul	s0,s1,a3
    31c4:	c180                	sw	s0,0(a1)
    31c6:	bfb9                	j	3124 <matrix_mul_const+0x164>

000031c8 <matrix_add_const>:
    31c8:	10050963          	beqz	a0,32da <matrix_add_const+0x112>
    31cc:	0642                	slli	a2,a2,0x10
    31ce:	8241                	srli	a2,a2,0x10
    31d0:	00151f13          	slli	t5,a0,0x1
    31d4:	4701                	li	a4,0
    31d6:	ffef0793          	addi	a5,t5,-2
    31da:	0017d293          	srli	t0,a5,0x1
    31de:	00128313          	addi	t1,t0,1
    31e2:	00737393          	andi	t2,t1,7
    31e6:	00bf06b3          	add	a3,t5,a1
    31ea:	08038763          	beqz	t2,3278 <matrix_add_const+0xb0>
    31ee:	4805                	li	a6,1
    31f0:	07038b63          	beq	t2,a6,3266 <matrix_add_const+0x9e>
    31f4:	4889                	li	a7,2
    31f6:	07138163          	beq	t2,a7,3258 <matrix_add_const+0x90>
    31fa:	4e0d                	li	t3,3
    31fc:	05c38763          	beq	t2,t3,324a <matrix_add_const+0x82>
    3200:	4e91                	li	t4,4
    3202:	03d38d63          	beq	t2,t4,323c <matrix_add_const+0x74>
    3206:	4f95                	li	t6,5
    3208:	03f38363          	beq	t2,t6,322e <matrix_add_const+0x66>
    320c:	4799                	li	a5,6
    320e:	00f38963          	beq	t2,a5,3220 <matrix_add_const+0x58>
    3212:	0005d283          	lhu	t0,0(a1)
    3216:	0589                	addi	a1,a1,2
    3218:	00560333          	add	t1,a2,t0
    321c:	fe659f23          	sh	t1,-2(a1)
    3220:	0005d383          	lhu	t2,0(a1)
    3224:	0589                	addi	a1,a1,2
    3226:	00760833          	add	a6,a2,t2
    322a:	ff059f23          	sh	a6,-2(a1)
    322e:	0005d883          	lhu	a7,0(a1)
    3232:	0589                	addi	a1,a1,2
    3234:	01160e33          	add	t3,a2,a7
    3238:	ffc59f23          	sh	t3,-2(a1)
    323c:	0005de83          	lhu	t4,0(a1)
    3240:	0589                	addi	a1,a1,2
    3242:	01d60fb3          	add	t6,a2,t4
    3246:	fff59f23          	sh	t6,-2(a1)
    324a:	0005d783          	lhu	a5,0(a1)
    324e:	0589                	addi	a1,a1,2
    3250:	00f602b3          	add	t0,a2,a5
    3254:	fe559f23          	sh	t0,-2(a1)
    3258:	0005d303          	lhu	t1,0(a1)
    325c:	0589                	addi	a1,a1,2
    325e:	006603b3          	add	t2,a2,t1
    3262:	fe759f23          	sh	t2,-2(a1)
    3266:	0005d803          	lhu	a6,0(a1)
    326a:	0589                	addi	a1,a1,2
    326c:	010608b3          	add	a7,a2,a6
    3270:	ff159f23          	sh	a7,-2(a1)
    3274:	06b68063          	beq	a3,a1,32d4 <matrix_add_const+0x10c>
    3278:	00a5d383          	lhu	t2,10(a1)
    327c:	00c5d803          	lhu	a6,12(a1)
    3280:	0005d283          	lhu	t0,0(a1)
    3284:	0025df83          	lhu	t6,2(a1)
    3288:	0045de83          	lhu	t4,4(a1)
    328c:	0065de03          	lhu	t3,6(a1)
    3290:	0085d303          	lhu	t1,8(a1)
    3294:	00e5d783          	lhu	a5,14(a1)
    3298:	007608b3          	add	a7,a2,t2
    329c:	92b2                	add	t0,t0,a2
    329e:	010603b3          	add	t2,a2,a6
    32a2:	9fb2                	add	t6,t6,a2
    32a4:	9eb2                	add	t4,t4,a2
    32a6:	9e32                	add	t3,t3,a2
    32a8:	9332                	add	t1,t1,a2
    32aa:	00f60833          	add	a6,a2,a5
    32ae:	00559023          	sh	t0,0(a1)
    32b2:	01f59123          	sh	t6,2(a1)
    32b6:	01d59223          	sh	t4,4(a1)
    32ba:	01c59323          	sh	t3,6(a1)
    32be:	00659423          	sh	t1,8(a1)
    32c2:	01159523          	sh	a7,10(a1)
    32c6:	00759623          	sh	t2,12(a1)
    32ca:	01059723          	sh	a6,14(a1)
    32ce:	05c1                	addi	a1,a1,16
    32d0:	fab694e3          	bne	a3,a1,3278 <matrix_add_const+0xb0>
    32d4:	0705                	addi	a4,a4,1
    32d6:	f0e510e3          	bne	a0,a4,31d6 <matrix_add_const+0xe>
    32da:	8082                	ret

000032dc <matrix_mul_vect>:
    32dc:	18050a63          	beqz	a0,3470 <matrix_mul_vect+0x194>
    32e0:	7179                	addi	sp,sp,-48
    32e2:	00151e93          	slli	t4,a0,0x1
    32e6:	050a                	slli	a0,a0,0x2
    32e8:	d622                	sw	s0,44(sp)
    32ea:	d426                	sw	s1,40(sp)
    32ec:	d24a                	sw	s2,36(sp)
    32ee:	d04e                	sw	s3,32(sp)
    32f0:	ce52                	sw	s4,28(sp)
    32f2:	cc56                	sw	s5,24(sp)
    32f4:	ca5a                	sw	s6,20(sp)
    32f6:	c85e                	sw	s7,16(sp)
    32f8:	c662                	sw	s8,12(sp)
    32fa:	00a58e33          	add	t3,a1,a0
    32fe:	01d68333          	add	t1,a3,t4
    3302:	40d302b3          	sub	t0,t1,a3
    3306:	ffe28393          	addi	t2,t0,-2
    330a:	0013d413          	srli	s0,t2,0x1
    330e:	00140493          	addi	s1,s0,1 # fffff001 <__C_STACK_TOP__+0xfffef001>
    3312:	0074f913          	andi	s2,s1,7
    3316:	87b6                	mv	a5,a3
    3318:	8732                	mv	a4,a2
    331a:	4881                	li	a7,0
    331c:	0a090663          	beqz	s2,33c8 <matrix_mul_vect+0xec>
    3320:	4805                	li	a6,1
    3322:	09090863          	beq	s2,a6,33b2 <matrix_mul_vect+0xd6>
    3326:	4989                	li	s3,2
    3328:	07390c63          	beq	s2,s3,33a0 <matrix_mul_vect+0xc4>
    332c:	4a0d                	li	s4,3
    332e:	07490063          	beq	s2,s4,338e <matrix_mul_vect+0xb2>
    3332:	4a91                	li	s5,4
    3334:	05590463          	beq	s2,s5,337c <matrix_mul_vect+0xa0>
    3338:	4b15                	li	s6,5
    333a:	03690863          	beq	s2,s6,336a <matrix_mul_vect+0x8e>
    333e:	4b99                	li	s7,6
    3340:	01790c63          	beq	s2,s7,3358 <matrix_mul_vect+0x7c>
    3344:	00061883          	lh	a7,0(a2)
    3348:	00069c03          	lh	s8,0(a3)
    334c:	00260713          	addi	a4,a2,2
    3350:	00268793          	addi	a5,a3,2
    3354:	038888b3          	mul	a7,a7,s8
    3358:	00071f03          	lh	t5,0(a4)
    335c:	00079f83          	lh	t6,0(a5)
    3360:	0709                	addi	a4,a4,2
    3362:	0789                	addi	a5,a5,2
    3364:	03ff0533          	mul	a0,t5,t6
    3368:	98aa                	add	a7,a7,a0
    336a:	00071283          	lh	t0,0(a4)
    336e:	00079383          	lh	t2,0(a5)
    3372:	0709                	addi	a4,a4,2
    3374:	0789                	addi	a5,a5,2
    3376:	02728433          	mul	s0,t0,t2
    337a:	98a2                	add	a7,a7,s0
    337c:	00071483          	lh	s1,0(a4)
    3380:	00079903          	lh	s2,0(a5)
    3384:	0709                	addi	a4,a4,2
    3386:	0789                	addi	a5,a5,2
    3388:	03248833          	mul	a6,s1,s2
    338c:	98c2                	add	a7,a7,a6
    338e:	00071983          	lh	s3,0(a4)
    3392:	00079a03          	lh	s4,0(a5)
    3396:	0709                	addi	a4,a4,2
    3398:	0789                	addi	a5,a5,2
    339a:	03498ab3          	mul	s5,s3,s4
    339e:	98d6                	add	a7,a7,s5
    33a0:	00071b03          	lh	s6,0(a4)
    33a4:	00079b83          	lh	s7,0(a5)
    33a8:	0709                	addi	a4,a4,2
    33aa:	0789                	addi	a5,a5,2
    33ac:	037b0c33          	mul	s8,s6,s7
    33b0:	98e2                	add	a7,a7,s8
    33b2:	00071f03          	lh	t5,0(a4)
    33b6:	00079f83          	lh	t6,0(a5)
    33ba:	0789                	addi	a5,a5,2
    33bc:	0709                	addi	a4,a4,2
    33be:	03ff0533          	mul	a0,t5,t6
    33c2:	98aa                	add	a7,a7,a0
    33c4:	08f30563          	beq	t1,a5,344e <matrix_mul_vect+0x172>
    33c8:	00071283          	lh	t0,0(a4)
    33cc:	00079383          	lh	t2,0(a5)
    33d0:	00279c03          	lh	s8,2(a5)
    33d4:	00271983          	lh	s3,2(a4)
    33d8:	00471503          	lh	a0,4(a4)
    33dc:	00479b83          	lh	s7,4(a5)
    33e0:	02728833          	mul	a6,t0,t2
    33e4:	00671403          	lh	s0,6(a4)
    33e8:	00679b03          	lh	s6,6(a5)
    33ec:	00871383          	lh	t2,8(a4)
    33f0:	00879a83          	lh	s5,8(a5)
    33f4:	00a71283          	lh	t0,10(a4)
    33f8:	00a79a03          	lh	s4,10(a5)
    33fc:	00c71f83          	lh	t6,12(a4)
    3400:	00c79903          	lh	s2,12(a5)
    3404:	00e71f03          	lh	t5,14(a4)
    3408:	038989b3          	mul	s3,s3,s8
    340c:	00e79483          	lh	s1,14(a5)
    3410:	98c2                	add	a7,a7,a6
    3412:	07c1                	addi	a5,a5,16
    3414:	0741                	addi	a4,a4,16
    3416:	03750c33          	mul	s8,a0,s7
    341a:	01388533          	add	a0,a7,s3
    341e:	03640bb3          	mul	s7,s0,s6
    3422:	01850433          	add	s0,a0,s8
    3426:	03538b33          	mul	s6,t2,s5
    342a:	01740833          	add	a6,s0,s7
    342e:	034283b3          	mul	t2,t0,s4
    3432:	01680ab3          	add	s5,a6,s6
    3436:	032f82b3          	mul	t0,t6,s2
    343a:	007a8a33          	add	s4,s5,t2
    343e:	029f0fb3          	mul	t6,t5,s1
    3442:	005a0933          	add	s2,s4,t0
    3446:	01f908b3          	add	a7,s2,t6
    344a:	f6f31fe3          	bne	t1,a5,33c8 <matrix_mul_vect+0xec>
    344e:	0115a023          	sw	a7,0(a1)
    3452:	0591                	addi	a1,a1,4
    3454:	9676                	add	a2,a2,t4
    3456:	eabe16e3          	bne	t3,a1,3302 <matrix_mul_vect+0x26>
    345a:	5432                	lw	s0,44(sp)
    345c:	54a2                	lw	s1,40(sp)
    345e:	5912                	lw	s2,36(sp)
    3460:	5982                	lw	s3,32(sp)
    3462:	4a72                	lw	s4,28(sp)
    3464:	4ae2                	lw	s5,24(sp)
    3466:	4b52                	lw	s6,20(sp)
    3468:	4bc2                	lw	s7,16(sp)
    346a:	4c32                	lw	s8,12(sp)
    346c:	6145                	addi	sp,sp,48
    346e:	8082                	ret
    3470:	8082                	ret

00003472 <matrix_mul_matrix>:
    3472:	1c050b63          	beqz	a0,3648 <matrix_mul_matrix+0x1d6>
    3476:	7139                	addi	sp,sp,-64
    3478:	d84e                	sw	s3,48(sp)
    347a:	00251793          	slli	a5,a0,0x2
    347e:	00151993          	slli	s3,a0,0x1
    3482:	d456                	sw	s5,40(sp)
    3484:	d05e                	sw	s7,32(sp)
    3486:	ce62                	sw	s8,28(sp)
    3488:	cc66                	sw	s9,24(sp)
    348a:	ca6a                	sw	s10,20(sp)
    348c:	de22                	sw	s0,60(sp)
    348e:	dc26                	sw	s1,56(sp)
    3490:	da4a                	sw	s2,52(sp)
    3492:	d652                	sw	s4,44(sp)
    3494:	d25a                	sw	s6,36(sp)
    3496:	c86e                	sw	s11,16(sp)
    3498:	8bb2                	mv	s7,a2
    349a:	01360ab3          	add	s5,a2,s3
    349e:	c63e                	sw	a5,12(sp)
    34a0:	8cae                	mv	s9,a1
    34a2:	01368c33          	add	s8,a3,s3
    34a6:	4d01                	li	s10,0
    34a8:	8a36                	mv	s4,a3
    34aa:	8b66                	mv	s6,s9
    34ac:	417a8733          	sub	a4,s5,s7
    34b0:	ffe70293          	addi	t0,a4,-2
    34b4:	0012d313          	srli	t1,t0,0x1
    34b8:	00130393          	addi	t2,t1,1
    34bc:	0073f413          	andi	s0,t2,7
    34c0:	8fd2                	mv	t6,s4
    34c2:	8f5e                	mv	t5,s7
    34c4:	4781                	li	a5,0
    34c6:	c44d                	beqz	s0,3570 <matrix_mul_matrix+0xfe>
    34c8:	4605                	li	a2,1
    34ca:	08c40863          	beq	s0,a2,355a <matrix_mul_matrix+0xe8>
    34ce:	4489                	li	s1,2
    34d0:	06940c63          	beq	s0,s1,3548 <matrix_mul_matrix+0xd6>
    34d4:	458d                	li	a1,3
    34d6:	06b40063          	beq	s0,a1,3536 <matrix_mul_matrix+0xc4>
    34da:	4811                	li	a6,4
    34dc:	05040463          	beq	s0,a6,3524 <matrix_mul_matrix+0xb2>
    34e0:	4895                	li	a7,5
    34e2:	03140863          	beq	s0,a7,3512 <matrix_mul_matrix+0xa0>
    34e6:	4919                	li	s2,6
    34e8:	01240c63          	beq	s0,s2,3500 <matrix_mul_matrix+0x8e>
    34ec:	000b9d83          	lh	s11,0(s7)
    34f0:	000a1e03          	lh	t3,0(s4)
    34f4:	002b8f13          	addi	t5,s7,2
    34f8:	013a0fb3          	add	t6,s4,s3
    34fc:	03cd87b3          	mul	a5,s11,t3
    3500:	000f1e83          	lh	t4,0(t5)
    3504:	000f9703          	lh	a4,0(t6)
    3508:	0f09                	addi	t5,t5,2
    350a:	9fce                	add	t6,t6,s3
    350c:	02ee82b3          	mul	t0,t4,a4
    3510:	9796                	add	a5,a5,t0
    3512:	000f1303          	lh	t1,0(t5)
    3516:	000f9383          	lh	t2,0(t6)
    351a:	0f09                	addi	t5,t5,2
    351c:	9fce                	add	t6,t6,s3
    351e:	02730433          	mul	s0,t1,t2
    3522:	97a2                	add	a5,a5,s0
    3524:	000f1483          	lh	s1,0(t5)
    3528:	000f9603          	lh	a2,0(t6)
    352c:	0f09                	addi	t5,t5,2
    352e:	9fce                	add	t6,t6,s3
    3530:	02c485b3          	mul	a1,s1,a2
    3534:	97ae                	add	a5,a5,a1
    3536:	000f1803          	lh	a6,0(t5)
    353a:	000f9883          	lh	a7,0(t6)
    353e:	0f09                	addi	t5,t5,2
    3540:	9fce                	add	t6,t6,s3
    3542:	03180933          	mul	s2,a6,a7
    3546:	97ca                	add	a5,a5,s2
    3548:	000f1d83          	lh	s11,0(t5)
    354c:	000f9e03          	lh	t3,0(t6)
    3550:	0f09                	addi	t5,t5,2
    3552:	9fce                	add	t6,t6,s3
    3554:	03cd8eb3          	mul	t4,s11,t3
    3558:	97f6                	add	a5,a5,t4
    355a:	000f1703          	lh	a4,0(t5)
    355e:	000f9283          	lh	t0,0(t6)
    3562:	0f09                	addi	t5,t5,2
    3564:	9fce                	add	t6,t6,s3
    3566:	02570333          	mul	t1,a4,t0
    356a:	979a                	add	a5,a5,t1
    356c:	0bea8363          	beq	s5,t5,3612 <matrix_mul_matrix+0x1a0>
    3570:	013f83b3          	add	t2,t6,s3
    3574:	000f1403          	lh	s0,0(t5)
    3578:	000f9483          	lh	s1,0(t6)
    357c:	00039e03          	lh	t3,0(t2)
    3580:	002f1903          	lh	s2,2(t5)
    3584:	02940733          	mul	a4,s0,s1
    3588:	01338633          	add	a2,t2,s3
    358c:	013605b3          	add	a1,a2,s3
    3590:	00061d83          	lh	s11,0(a2)
    3594:	004f1383          	lh	t2,4(t5)
    3598:	01358833          	add	a6,a1,s3
    359c:	00059483          	lh	s1,0(a1)
    35a0:	006f1e83          	lh	t4,6(t5)
    35a4:	008f1883          	lh	a7,8(t5)
    35a8:	013802b3          	add	t0,a6,s3
    35ac:	03c90933          	mul	s2,s2,t3
    35b0:	00081403          	lh	s0,0(a6)
    35b4:	01328333          	add	t1,t0,s3
    35b8:	00af1803          	lh	a6,10(t5)
    35bc:	00029283          	lh	t0,0(t0)
    35c0:	00cf1583          	lh	a1,12(t5)
    35c4:	00031e03          	lh	t3,0(t1)
    35c8:	01330fb3          	add	t6,t1,s3
    35cc:	00ef1603          	lh	a2,14(t5)
    35d0:	000f9303          	lh	t1,0(t6)
    35d4:	03b383b3          	mul	t2,t2,s11
    35d8:	97ba                	add	a5,a5,a4
    35da:	01278db3          	add	s11,a5,s2
    35de:	0f41                	addi	t5,t5,16
    35e0:	9fce                	add	t6,t6,s3
    35e2:	029e8eb3          	mul	t4,t4,s1
    35e6:	007d8733          	add	a4,s11,t2
    35ea:	028884b3          	mul	s1,a7,s0
    35ee:	01d708b3          	add	a7,a4,t4
    35f2:	02580433          	mul	s0,a6,t0
    35f6:	00988833          	add	a6,a7,s1
    35fa:	03c582b3          	mul	t0,a1,t3
    35fe:	008805b3          	add	a1,a6,s0
    3602:	02660933          	mul	s2,a2,t1
    3606:	00558e33          	add	t3,a1,t0
    360a:	012e07b3          	add	a5,t3,s2
    360e:	f7ea91e3          	bne	s5,t5,3570 <matrix_mul_matrix+0xfe>
    3612:	00fb2023          	sw	a5,0(s6)
    3616:	0a09                	addi	s4,s4,2
    3618:	0b11                	addi	s6,s6,4
    361a:	e94c19e3          	bne	s8,s4,34ac <matrix_mul_matrix+0x3a>
    361e:	4a32                	lw	s4,12(sp)
    3620:	0d05                	addi	s10,s10,1
    3622:	9bce                	add	s7,s7,s3
    3624:	9ace                	add	s5,s5,s3
    3626:	9cd2                	add	s9,s9,s4
    3628:	e9a510e3          	bne	a0,s10,34a8 <matrix_mul_matrix+0x36>
    362c:	5472                	lw	s0,60(sp)
    362e:	54e2                	lw	s1,56(sp)
    3630:	5952                	lw	s2,52(sp)
    3632:	59c2                	lw	s3,48(sp)
    3634:	5a32                	lw	s4,44(sp)
    3636:	5aa2                	lw	s5,40(sp)
    3638:	5b12                	lw	s6,36(sp)
    363a:	5b82                	lw	s7,32(sp)
    363c:	4c72                	lw	s8,28(sp)
    363e:	4ce2                	lw	s9,24(sp)
    3640:	4d52                	lw	s10,20(sp)
    3642:	4dc2                	lw	s11,16(sp)
    3644:	6121                	addi	sp,sp,64
    3646:	8082                	ret
    3648:	8082                	ret

0000364a <matrix_mul_matrix_bitextract>:
    364a:	18050a63          	beqz	a0,37de <matrix_mul_matrix_bitextract+0x194>
    364e:	1101                	addi	sp,sp,-32
    3650:	00151e13          	slli	t3,a0,0x1
    3654:	ce22                	sw	s0,28(sp)
    3656:	cc26                	sw	s1,24(sp)
    3658:	ca4a                	sw	s2,20(sp)
    365a:	c84e                	sw	s3,16(sp)
    365c:	c652                	sw	s4,12(sp)
    365e:	c456                	sw	s5,8(sp)
    3660:	c25a                	sw	s6,4(sp)
    3662:	01c60f33          	add	t5,a2,t3
    3666:	00251413          	slli	s0,a0,0x2
    366a:	01c682b3          	add	t0,a3,t3
    366e:	4381                	li	t2,0
    3670:	8eb6                	mv	t4,a3
    3672:	8fae                	mv	t6,a1
    3674:	40cf0733          	sub	a4,t5,a2
    3678:	ffe70313          	addi	t1,a4,-2
    367c:	00135493          	srli	s1,t1,0x1
    3680:	00148793          	addi	a5,s1,1
    3684:	0037f913          	andi	s2,a5,3
    3688:	88f6                	mv	a7,t4
    368a:	8832                	mv	a6,a2
    368c:	4981                	li	s3,0
    368e:	08090463          	beqz	s2,3716 <matrix_mul_matrix_bitextract+0xcc>
    3692:	4a05                	li	s4,1
    3694:	05490c63          	beq	s2,s4,36ec <matrix_mul_matrix_bitextract+0xa2>
    3698:	4a89                	li	s5,2
    369a:	03590663          	beq	s2,s5,36c6 <matrix_mul_matrix_bitextract+0x7c>
    369e:	00061983          	lh	s3,0(a2)
    36a2:	000e9b03          	lh	s6,0(t4)
    36a6:	00260813          	addi	a6,a2,2
    36aa:	01ce88b3          	add	a7,t4,t3
    36ae:	03698733          	mul	a4,s3,s6
    36b2:	40275313          	srai	t1,a4,0x2
    36b6:	40575493          	srai	s1,a4,0x5
    36ba:	00f37913          	andi	s2,t1,15
    36be:	07f4f793          	andi	a5,s1,127
    36c2:	02f909b3          	mul	s3,s2,a5
    36c6:	00081a03          	lh	s4,0(a6)
    36ca:	00089a83          	lh	s5,0(a7)
    36ce:	0809                	addi	a6,a6,2
    36d0:	98f2                	add	a7,a7,t3
    36d2:	035a0b33          	mul	s6,s4,s5
    36d6:	402b5713          	srai	a4,s6,0x2
    36da:	405b5313          	srai	t1,s6,0x5
    36de:	00f77493          	andi	s1,a4,15
    36e2:	07f37913          	andi	s2,t1,127
    36e6:	032487b3          	mul	a5,s1,s2
    36ea:	99be                	add	s3,s3,a5
    36ec:	00081a03          	lh	s4,0(a6)
    36f0:	00089a83          	lh	s5,0(a7)
    36f4:	0809                	addi	a6,a6,2
    36f6:	98f2                	add	a7,a7,t3
    36f8:	035a0b33          	mul	s6,s4,s5
    36fc:	402b5713          	srai	a4,s6,0x2
    3700:	405b5313          	srai	t1,s6,0x5
    3704:	00f77493          	andi	s1,a4,15
    3708:	07f37913          	andi	s2,t1,127
    370c:	032487b3          	mul	a5,s1,s2
    3710:	99be                	add	s3,s3,a5
    3712:	0b0f0163          	beq	t5,a6,37b4 <matrix_mul_matrix_bitextract+0x16a>
    3716:	01c88ab3          	add	s5,a7,t3
    371a:	00089303          	lh	t1,0(a7)
    371e:	00081a03          	lh	s4,0(a6)
    3722:	01ca8b33          	add	s6,s5,t3
    3726:	000a9703          	lh	a4,0(s5)
    372a:	00281903          	lh	s2,2(a6)
    372e:	01cb08b3          	add	a7,s6,t3
    3732:	00481483          	lh	s1,4(a6)
    3736:	000b1b03          	lh	s6,0(s6)
    373a:	026a0a33          	mul	s4,s4,t1
    373e:	00089a83          	lh	s5,0(a7)
    3742:	00681303          	lh	t1,6(a6)
    3746:	0821                	addi	a6,a6,8
    3748:	98f2                	add	a7,a7,t3
    374a:	02e90933          	mul	s2,s2,a4
    374e:	402a5793          	srai	a5,s4,0x2
    3752:	405a5a13          	srai	s4,s4,0x5
    3756:	00f7f713          	andi	a4,a5,15
    375a:	07fa7793          	andi	a5,s4,127
    375e:	036484b3          	mul	s1,s1,s6
    3762:	40295b13          	srai	s6,s2,0x2
    3766:	40595913          	srai	s2,s2,0x5
    376a:	00fb7a13          	andi	s4,s6,15
    376e:	07f97b13          	andi	s6,s2,127
    3772:	03530333          	mul	t1,t1,s5
    3776:	4024da93          	srai	s5,s1,0x2
    377a:	8495                	srai	s1,s1,0x5
    377c:	00fafa93          	andi	s5,s5,15
    3780:	07f4f493          	andi	s1,s1,127
    3784:	02f707b3          	mul	a5,a4,a5
    3788:	40535913          	srai	s2,t1,0x5
    378c:	40235713          	srai	a4,t1,0x2
    3790:	8b3d                	andi	a4,a4,15
    3792:	07f97313          	andi	t1,s2,127
    3796:	036a0a33          	mul	s4,s4,s6
    379a:	99be                	add	s3,s3,a5
    379c:	029a8b33          	mul	s6,s5,s1
    37a0:	01498ab3          	add	s5,s3,s4
    37a4:	026704b3          	mul	s1,a4,t1
    37a8:	016a87b3          	add	a5,s5,s6
    37ac:	009789b3          	add	s3,a5,s1
    37b0:	f70f13e3          	bne	t5,a6,3716 <matrix_mul_matrix_bitextract+0xcc>
    37b4:	013fa023          	sw	s3,0(t6)
    37b8:	0e89                	addi	t4,t4,2
    37ba:	0f91                	addi	t6,t6,4
    37bc:	ebd29ce3          	bne	t0,t4,3674 <matrix_mul_matrix_bitextract+0x2a>
    37c0:	0385                	addi	t2,t2,1
    37c2:	9672                	add	a2,a2,t3
    37c4:	9f72                	add	t5,t5,t3
    37c6:	95a2                	add	a1,a1,s0
    37c8:	ea7514e3          	bne	a0,t2,3670 <matrix_mul_matrix_bitextract+0x26>
    37cc:	4472                	lw	s0,28(sp)
    37ce:	44e2                	lw	s1,24(sp)
    37d0:	4952                	lw	s2,20(sp)
    37d2:	49c2                	lw	s3,16(sp)
    37d4:	4a32                	lw	s4,12(sp)
    37d6:	4aa2                	lw	s5,8(sp)
    37d8:	4b12                	lw	s6,4(sp)
    37da:	6105                	addi	sp,sp,32
    37dc:	8082                	ret
    37de:	8082                	ret

000037e0 <iterate>:
    37e0:	1101                	addi	sp,sp,-32
    37e2:	c64e                	sw	s3,12(sp)
    37e4:	01c52983          	lw	s3,28(a0)
    37e8:	ce06                	sw	ra,28(sp)
    37ea:	cc22                	sw	s0,24(sp)
    37ec:	ca26                	sw	s1,20(sp)
    37ee:	c84a                	sw	s2,16(sp)
    37f0:	c452                	sw	s4,8(sp)
    37f2:	c256                	sw	s5,4(sp)
    37f4:	02052c23          	sw	zero,56(a0)
    37f8:	02052e23          	sw	zero,60(a0)
    37fc:	16098663          	beqz	s3,3968 <iterate+0x188>
    3800:	0039f793          	andi	a5,s3,3
    3804:	842a                	mv	s0,a0
    3806:	4481                	li	s1,0
    3808:	cfc9                	beqz	a5,38a2 <iterate+0xc2>
    380a:	4705                	li	a4,1
    380c:	06e78263          	beq	a5,a4,3870 <iterate+0x90>
    3810:	4089                	li	ra,2
    3812:	02178863          	beq	a5,ra,3842 <iterate+0x62>
    3816:	4585                	li	a1,1
    3818:	81bfd0ef          	jal	ra,1032 <core_bench_list>
    381c:	03845583          	lhu	a1,56(s0)
    3820:	4485                	li	s1,1
    3822:	0f5000ef          	jal	ra,4116 <crcu16>
    3826:	02a41c23          	sh	a0,56(s0)
    382a:	55fd                	li	a1,-1
    382c:	8522                	mv	a0,s0
    382e:	805fd0ef          	jal	ra,1032 <core_bench_list>
    3832:	03845583          	lhu	a1,56(s0)
    3836:	0e1000ef          	jal	ra,4116 <crcu16>
    383a:	02a41c23          	sh	a0,56(s0)
    383e:	02a41d23          	sh	a0,58(s0)
    3842:	4585                	li	a1,1
    3844:	8522                	mv	a0,s0
    3846:	fecfd0ef          	jal	ra,1032 <core_bench_list>
    384a:	03845583          	lhu	a1,56(s0)
    384e:	0c9000ef          	jal	ra,4116 <crcu16>
    3852:	02a41c23          	sh	a0,56(s0)
    3856:	55fd                	li	a1,-1
    3858:	8522                	mv	a0,s0
    385a:	fd8fd0ef          	jal	ra,1032 <core_bench_list>
    385e:	03845583          	lhu	a1,56(s0)
    3862:	0b5000ef          	jal	ra,4116 <crcu16>
    3866:	02a41c23          	sh	a0,56(s0)
    386a:	10048e63          	beqz	s1,3986 <iterate+0x1a6>
    386e:	0485                	addi	s1,s1,1
    3870:	4585                	li	a1,1
    3872:	8522                	mv	a0,s0
    3874:	fbefd0ef          	jal	ra,1032 <core_bench_list>
    3878:	03845583          	lhu	a1,56(s0)
    387c:	09b000ef          	jal	ra,4116 <crcu16>
    3880:	02a41c23          	sh	a0,56(s0)
    3884:	55fd                	li	a1,-1
    3886:	8522                	mv	a0,s0
    3888:	faafd0ef          	jal	ra,1032 <core_bench_list>
    388c:	03845583          	lhu	a1,56(s0)
    3890:	087000ef          	jal	ra,4116 <crcu16>
    3894:	02a41c23          	sh	a0,56(s0)
    3898:	10048463          	beqz	s1,39a0 <iterate+0x1c0>
    389c:	0485                	addi	s1,s1,1
    389e:	0c998563          	beq	s3,s1,3968 <iterate+0x188>
    38a2:	4585                	li	a1,1
    38a4:	8522                	mv	a0,s0
    38a6:	f8cfd0ef          	jal	ra,1032 <core_bench_list>
    38aa:	03845583          	lhu	a1,56(s0)
    38ae:	00148913          	addi	s2,s1,1
    38b2:	065000ef          	jal	ra,4116 <crcu16>
    38b6:	02a41c23          	sh	a0,56(s0)
    38ba:	55fd                	li	a1,-1
    38bc:	8522                	mv	a0,s0
    38be:	f74fd0ef          	jal	ra,1032 <core_bench_list>
    38c2:	03845583          	lhu	a1,56(s0)
    38c6:	051000ef          	jal	ra,4116 <crcu16>
    38ca:	82aa                	mv	t0,a0
    38cc:	02541c23          	sh	t0,56(s0)
    38d0:	4585                	li	a1,1
    38d2:	8522                	mv	a0,s0
    38d4:	cccd                	beqz	s1,398e <iterate+0x1ae>
    38d6:	f5cfd0ef          	jal	ra,1032 <core_bench_list>
    38da:	03845583          	lhu	a1,56(s0)
    38de:	039000ef          	jal	ra,4116 <crcu16>
    38e2:	02a41c23          	sh	a0,56(s0)
    38e6:	55fd                	li	a1,-1
    38e8:	8522                	mv	a0,s0
    38ea:	f48fd0ef          	jal	ra,1032 <core_bench_list>
    38ee:	03845583          	lhu	a1,56(s0)
    38f2:	025000ef          	jal	ra,4116 <crcu16>
    38f6:	02a41c23          	sh	a0,56(s0)
    38fa:	0a090063          	beqz	s2,399a <iterate+0x1ba>
    38fe:	4585                	li	a1,1
    3900:	8522                	mv	a0,s0
    3902:	f30fd0ef          	jal	ra,1032 <core_bench_list>
    3906:	03845583          	lhu	a1,56(s0)
    390a:	00190a93          	addi	s5,s2,1
    390e:	00290a13          	addi	s4,s2,2
    3912:	005000ef          	jal	ra,4116 <crcu16>
    3916:	02a41c23          	sh	a0,56(s0)
    391a:	55fd                	li	a1,-1
    391c:	8522                	mv	a0,s0
    391e:	f14fd0ef          	jal	ra,1032 <core_bench_list>
    3922:	03845583          	lhu	a1,56(s0)
    3926:	00390493          	addi	s1,s2,3
    392a:	7ec000ef          	jal	ra,4116 <crcu16>
    392e:	832a                	mv	t1,a0
    3930:	02641c23          	sh	t1,56(s0)
    3934:	4585                	li	a1,1
    3936:	8522                	mv	a0,s0
    3938:	040a8e63          	beqz	s5,3994 <iterate+0x1b4>
    393c:	ef6fd0ef          	jal	ra,1032 <core_bench_list>
    3940:	03845583          	lhu	a1,56(s0)
    3944:	7d2000ef          	jal	ra,4116 <crcu16>
    3948:	02a41c23          	sh	a0,56(s0)
    394c:	55fd                	li	a1,-1
    394e:	8522                	mv	a0,s0
    3950:	ee2fd0ef          	jal	ra,1032 <core_bench_list>
    3954:	03845583          	lhu	a1,56(s0)
    3958:	7be000ef          	jal	ra,4116 <crcu16>
    395c:	02a41c23          	sh	a0,56(s0)
    3960:	000a0e63          	beqz	s4,397c <iterate+0x19c>
    3964:	f2999fe3          	bne	s3,s1,38a2 <iterate+0xc2>
    3968:	40f2                	lw	ra,28(sp)
    396a:	4462                	lw	s0,24(sp)
    396c:	44d2                	lw	s1,20(sp)
    396e:	4942                	lw	s2,16(sp)
    3970:	49b2                	lw	s3,12(sp)
    3972:	4a22                	lw	s4,8(sp)
    3974:	4a92                	lw	s5,4(sp)
    3976:	4501                	li	a0,0
    3978:	6105                	addi	sp,sp,32
    397a:	8082                	ret
    397c:	02a41d23          	sh	a0,58(s0)
    3980:	f29991e3          	bne	s3,s1,38a2 <iterate+0xc2>
    3984:	b7d5                	j	3968 <iterate+0x188>
    3986:	02a41d23          	sh	a0,58(s0)
    398a:	0485                	addi	s1,s1,1
    398c:	b5d5                	j	3870 <iterate+0x90>
    398e:	02541d23          	sh	t0,58(s0)
    3992:	b791                	j	38d6 <iterate+0xf6>
    3994:	02641d23          	sh	t1,58(s0)
    3998:	b755                	j	393c <iterate+0x15c>
    399a:	02a41d23          	sh	a0,58(s0)
    399e:	b785                	j	38fe <iterate+0x11e>
    39a0:	02a41d23          	sh	a0,58(s0)
    39a4:	bde5                	j	389c <iterate+0xbc>

000039a6 <main>:
    39a6:	7119                	addi	sp,sp,-128
    39a8:	0030                	addi	a2,sp,8
    39aa:	004c                	addi	a1,sp,4
    39ac:	04e10513          	addi	a0,sp,78
    39b0:	de86                	sw	ra,124(sp)
    39b2:	dca2                	sw	s0,120(sp)
    39b4:	daa6                	sw	s1,116(sp)
    39b6:	d8ca                	sw	s2,112(sp)
    39b8:	d6ce                	sw	s3,108(sp)
    39ba:	d4d2                	sw	s4,104(sp)
    39bc:	d2d6                	sw	s5,100(sp)
    39be:	d0da                	sw	s6,96(sp)
    39c0:	cede                	sw	s7,92(sp)
    39c2:	cce2                	sw	s8,88(sp)
    39c4:	cae6                	sw	s9,84(sp)
    39c6:	c8ea                	sw	s10,80(sp)
    39c8:	c202                	sw	zero,4(sp)
    39ca:	971fc0ef          	jal	ra,33a <portable_init>
    39ce:	4505                	li	a0,1
    39d0:	2bf9                	jal	3fae <get_seed_32>
    39d2:	00a11623          	sh	a0,12(sp)
    39d6:	4509                	li	a0,2
    39d8:	2bd9                	jal	3fae <get_seed_32>
    39da:	00a11723          	sh	a0,14(sp)
    39de:	450d                	li	a0,3
    39e0:	23f9                	jal	3fae <get_seed_32>
    39e2:	00a11823          	sh	a0,16(sp)
    39e6:	4511                	li	a0,4
    39e8:	23d9                	jal	3fae <get_seed_32>
    39ea:	d42a                	sw	a0,40(sp)
    39ec:	4515                	li	a0,5
    39ee:	23c1                	jal	3fae <get_seed_32>
    39f0:	16050163          	beqz	a0,3b52 <main+0x1ac>
    39f4:	87aa                	mv	a5,a0
    39f6:	d62a                	sw	a0,44(sp)
    39f8:	4732                	lw	a4,12(sp)
    39fa:	28071463          	bnez	a4,3c82 <main+0x2dc>
    39fe:	01011383          	lh	t2,16(sp)
    3a02:	28038c63          	beqz	t2,3c9a <main+0x2f4>
    3a06:	0017f913          	andi	s2,a5,1
    3a0a:	83418493          	addi	s1,gp,-1996 # 5e54 <static_memblk>
    3a0e:	0027f993          	andi	s3,a5,2
    3a12:	01091613          	slli	a2,s2,0x10
    3a16:	01065893          	srli	a7,a2,0x10
    3a1a:	01303533          	snez	a0,s3
    3a1e:	ca26                	sw	s1,20(sp)
    3a20:	04011623          	sh	zero,76(sp)
    3a24:	0047f813          	andi	a6,a5,4
    3a28:	00a88b33          	add	s6,a7,a0
    3a2c:	00080863          	beqz	a6,3a3c <main+0x96>
    3a30:	001b0a13          	addi	s4,s6,1
    3a34:	010a1a93          	slli	s5,s4,0x10
    3a38:	010adb13          	srli	s6,s5,0x10
    3a3c:	7d000b93          	li	s7,2000
    3a40:	036bd533          	divu	a0,s7,s6
    3a44:	4e01                	li	t3,0
    3a46:	d22a                	sw	a0,36(sp)
    3a48:	28091463          	bnez	s2,3cd0 <main+0x32a>
    3a4c:	26099463          	bnez	s3,3cb4 <main+0x30e>
    3a50:	24081a63          	bnez	a6,3ca4 <main+0x2fe>
    3a54:	0c091563          	bnez	s2,3b1e <main+0x178>
    3a58:	0c099e63          	bnez	s3,3b34 <main+0x18e>
    3a5c:	0047f693          	andi	a3,a5,4
    3a60:	c699                	beqz	a3,3a6e <main+0xc8>
    3a62:	5602                	lw	a2,32(sp)
    3a64:	00c11583          	lh	a1,12(sp)
    3a68:	5512                	lw	a0,36(sp)
    3a6a:	123000ef          	jal	ra,438c <core_init_state>
    3a6e:	52a2                	lw	t0,40(sp)
    3a70:	04029063          	bnez	t0,3ab0 <main+0x10a>
    3a74:	4685                	li	a3,1
    3a76:	a011                	j	3a7a <main+0xd4>
    3a78:	56a2                	lw	a3,40(sp)
    3a7a:	00269313          	slli	t1,a3,0x2
    3a7e:	00d303b3          	add	t2,t1,a3
    3a82:	00139413          	slli	s0,t2,0x1
    3a86:	d422                	sw	s0,40(sp)
    3a88:	87ffc0ef          	jal	ra,306 <start_time>
    3a8c:	0068                	addi	a0,sp,12
    3a8e:	3b89                	jal	37e0 <iterate>
    3a90:	881fc0ef          	jal	ra,310 <stop_time>
    3a94:	889fc0ef          	jal	ra,31c <get_time>
    3a98:	895fc0ef          	jal	ra,32c <time_in_secs>
    3a9c:	dd71                	beqz	a0,3a78 <main+0xd2>
    3a9e:	45a9                	li	a1,10
    3aa0:	02a5d4b3          	divu	s1,a1,a0
    3aa4:	59a2                	lw	s3,40(sp)
    3aa6:	00148913          	addi	s2,s1,1
    3aaa:	03298633          	mul	a2,s3,s2
    3aae:	d432                	sw	a2,40(sp)
    3ab0:	857fc0ef          	jal	ra,306 <start_time>
    3ab4:	0068                	addi	a0,sp,12
    3ab6:	332d                	jal	37e0 <iterate>
    3ab8:	859fc0ef          	jal	ra,310 <stop_time>
    3abc:	861fc0ef          	jal	ra,31c <get_time>
    3ac0:	89aa                	mv	s3,a0
    3ac2:	00c11503          	lh	a0,12(sp)
    3ac6:	4581                	li	a1,0
    3ac8:	0bf000ef          	jal	ra,4386 <crc16>
    3acc:	85aa                	mv	a1,a0
    3ace:	00e11503          	lh	a0,14(sp)
    3ad2:	0b5000ef          	jal	ra,4386 <crc16>
    3ad6:	85aa                	mv	a1,a0
    3ad8:	01011503          	lh	a0,16(sp)
    3adc:	0ab000ef          	jal	ra,4386 <crc16>
    3ae0:	85aa                	mv	a1,a0
    3ae2:	02411503          	lh	a0,36(sp)
    3ae6:	0a1000ef          	jal	ra,4386 <crc16>
    3aea:	68a1                	lui	a7,0x8
    3aec:	892a                	mv	s2,a0
    3aee:	b0588513          	addi	a0,a7,-1275 # 7b05 <__BSS_END__+0x14c5>
    3af2:	48a90f63          	beq	s2,a0,3f90 <main+0x5ea>
    3af6:	07256163          	bltu	a0,s2,3b58 <main+0x1b2>
    3afa:	6809                	lui	a6,0x2
    3afc:	8f280a13          	addi	s4,a6,-1806 # 18f2 <core_init_matrix+0x116>
    3b00:	49490063          	beq	s2,s4,3f80 <main+0x5da>
    3b04:	6a95                	lui	s5,0x5
    3b06:	eafa8b13          	addi	s6,s5,-337 # 4eaf <__udivdi3+0xdb>
    3b0a:	1d691863          	bne	s2,s6,3cda <main+0x334>
    3b0e:	00005bb7          	lui	s7,0x5
    3b12:	694b8513          	addi	a0,s7,1684 # 5694 <__umoddi3+0x488>
    3b16:	972fd0ef          	jal	ra,c88 <sc_printf>
    3b1a:	4e09                	li	t3,2
    3b1c:	a8b9                	j	3b7a <main+0x1d4>
    3b1e:	00c11603          	lh	a2,12(sp)
    3b22:	45e2                	lw	a1,24(sp)
    3b24:	ee0fd0ef          	jal	ra,1204 <core_list_init>
    3b28:	57b2                	lw	a5,44(sp)
    3b2a:	d82a                	sw	a0,48(sp)
    3b2c:	0027f993          	andi	s3,a5,2
    3b30:	f20986e3          	beqz	s3,3a5c <main+0xb6>
    3b34:	00e11783          	lh	a5,14(sp)
    3b38:	00c11703          	lh	a4,12(sp)
    3b3c:	45f2                	lw	a1,28(sp)
    3b3e:	5512                	lw	a0,36(sp)
    3b40:	01079093          	slli	ra,a5,0x10
    3b44:	1854                	addi	a3,sp,52
    3b46:	00e0e633          	or	a2,ra,a4
    3b4a:	c93fd0ef          	jal	ra,17dc <core_init_matrix>
    3b4e:	57b2                	lw	a5,44(sp)
    3b50:	b731                	j	3a5c <main+0xb6>
    3b52:	479d                	li	a5,7
    3b54:	d63e                	sw	a5,44(sp)
    3b56:	b54d                	j	39f8 <main+0x52>
    3b58:	6ca5                	lui	s9,0x9
    3b5a:	a02c8d13          	addi	s10,s9,-1534 # 8a02 <__BSS_END__+0x23c2>
    3b5e:	41a90963          	beq	s2,s10,3f70 <main+0x5ca>
    3b62:	6ebd                	lui	t4,0xf
    3b64:	9f5e8f13          	addi	t5,t4,-1547 # e9f5 <__BSS_END__+0x83b5>
    3b68:	17e91963          	bne	s2,t5,3cda <main+0x334>
    3b6c:	000057b7          	lui	a5,0x5
    3b70:	6c878513          	addi	a0,a5,1736 # 56c8 <__umoddi3+0x4bc>
    3b74:	914fd0ef          	jal	ra,c88 <sc_printf>
    3b78:	4e0d                	li	t3,3
    3b7a:	6b99                	lui	s7,0x6
    3b7c:	e20ba683          	lw	a3,-480(s7) # 5e20 <default_num_contexts>
    3b80:	4d01                	li	s10,0
    3b82:	4c01                	li	s8,0
    3b84:	40068e63          	beqz	a3,3fa0 <main+0x5fa>
    3b88:	6299                	lui	t0,0x6
    3b8a:	001e1313          	slli	t1,t3,0x1
    3b8e:	c7c28393          	addi	t2,t0,-900 # 5c7c <list_known_crc>
    3b92:	00638cb3          	add	s9,t2,t1
    3b96:	00005b37          	lui	s6,0x5
    3b9a:	00005ab7          	lui	s5,0x5
    3b9e:	00005a37          	lui	s4,0x5
    3ba2:	a825                	j	3bda <main+0x234>
    3ba4:	01840333          	add	t1,s0,s8
    3ba8:	00231393          	slli	t2,t1,0x2
    3bac:	0880                	addi	s0,sp,80
    3bae:	007405b3          	add	a1,s0,t2
    3bb2:	ffc59f03          	lh	t5,-4(a1)
    3bb6:	9d7a                	add	s10,s10,t5
    3bb8:	0c05                	addi	s8,s8,1
    3bba:	010d1713          	slli	a4,s10,0x10
    3bbe:	e20baf83          	lw	t6,-480(s7)
    3bc2:	01075413          	srli	s0,a4,0x10
    3bc6:	010c1693          	slli	a3,s8,0x10
    3bca:	01041793          	slli	a5,s0,0x10
    3bce:	0106dc13          	srli	s8,a3,0x10
    3bd2:	4107dd13          	srai	s10,a5,0x10
    3bd6:	11fc7663          	bleu	t6,s8,3ce2 <main+0x33c>
    3bda:	004c1413          	slli	s0,s8,0x4
    3bde:	018405b3          	add	a1,s0,s8
    3be2:	00259493          	slli	s1,a1,0x2
    3be6:	0890                	addi	a2,sp,80
    3be8:	94b2                	add	s1,s1,a2
    3bea:	fdc4a883          	lw	a7,-36(s1)
    3bee:	fe049e23          	sh	zero,-4(s1)
    3bf2:	0018f513          	andi	a0,a7,1
    3bf6:	c115                	beqz	a0,3c1a <main+0x274>
    3bf8:	ff64d603          	lhu	a2,-10(s1)
    3bfc:	000cd683          	lhu	a3,0(s9)
    3c00:	00d60d63          	beq	a2,a3,3c1a <main+0x274>
    3c04:	85e2                	mv	a1,s8
    3c06:	724b0513          	addi	a0,s6,1828 # 5724 <__umoddi3+0x518>
    3c0a:	87efd0ef          	jal	ra,c88 <sc_printf>
    3c0e:	ffc4d803          	lhu	a6,-4(s1)
    3c12:	00180e13          	addi	t3,a6,1
    3c16:	ffc49e23          	sh	t3,-4(s1)
    3c1a:	01840eb3          	add	t4,s0,s8
    3c1e:	002e9f13          	slli	t5,t4,0x2
    3c22:	05010f93          	addi	t6,sp,80
    3c26:	01ef84b3          	add	s1,t6,t5
    3c2a:	fdc4a783          	lw	a5,-36(s1)
    3c2e:	0027f713          	andi	a4,a5,2
    3c32:	c705                	beqz	a4,3c5a <main+0x2b4>
    3c34:	ff84d603          	lhu	a2,-8(s1)
    3c38:	00ccd683          	lhu	a3,12(s9)
    3c3c:	00d60f63          	beq	a2,a3,3c5a <main+0x2b4>
    3c40:	85e2                	mv	a1,s8
    3c42:	754a8513          	addi	a0,s5,1876 # 5754 <__umoddi3+0x548>
    3c46:	842fd0ef          	jal	ra,c88 <sc_printf>
    3c4a:	ffc4d683          	lhu	a3,-4(s1)
    3c4e:	fdc4a783          	lw	a5,-36(s1)
    3c52:	00168293          	addi	t0,a3,1
    3c56:	fe549e23          	sh	t0,-4(s1)
    3c5a:	0047f093          	andi	ra,a5,4
    3c5e:	f40083e3          	beqz	ra,3ba4 <main+0x1fe>
    3c62:	01840633          	add	a2,s0,s8
    3c66:	00261893          	slli	a7,a2,0x2
    3c6a:	0888                	addi	a0,sp,80
    3c6c:	011504b3          	add	s1,a0,a7
    3c70:	ffa4d603          	lhu	a2,-6(s1)
    3c74:	018cd683          	lhu	a3,24(s9)
    3c78:	28d61563          	bne	a2,a3,3f02 <main+0x55c>
    3c7c:	ffc49f03          	lh	t5,-4(s1)
    3c80:	bf1d                	j	3bb6 <main+0x210>
    3c82:	4685                	li	a3,1
    3c84:	d8d711e3          	bne	a4,a3,3a06 <main+0x60>
    3c88:	01011083          	lh	ra,16(sp)
    3c8c:	d6009de3          	bnez	ra,3a06 <main+0x60>
    3c90:	341532b7          	lui	t0,0x34153
    3c94:	41528313          	addi	t1,t0,1045 # 34153415 <__C_STACK_TOP__+0x34143415>
    3c98:	c61a                	sw	t1,12(sp)
    3c9a:	06600413          	li	s0,102
    3c9e:	00811823          	sh	s0,16(sp)
    3ca2:	b395                	j	3a06 <main+0x60>
    3ca4:	02ae0f33          	mul	t5,t3,a0
    3ca8:	01e48fb3          	add	t6,s1,t5
    3cac:	d07e                	sw	t6,32(sp)
    3cae:	da0905e3          	beqz	s2,3a58 <main+0xb2>
    3cb2:	b5b5                	j	3b1e <main+0x178>
    3cb4:	02ae0c33          	mul	s8,t3,a0
    3cb8:	001e0c93          	addi	s9,t3,1
    3cbc:	010c9d13          	slli	s10,s9,0x10
    3cc0:	010d5e13          	srli	t3,s10,0x10
    3cc4:	01848eb3          	add	t4,s1,s8
    3cc8:	ce76                	sw	t4,28(sp)
    3cca:	d80805e3          	beqz	a6,3a54 <main+0xae>
    3cce:	bfd9                	j	3ca4 <main+0x2fe>
    3cd0:	cc26                	sw	s1,24(sp)
    3cd2:	4e05                	li	t3,1
    3cd4:	d6098ee3          	beqz	s3,3a50 <main+0xaa>
    3cd8:	bff1                	j	3cb4 <main+0x30e>
    3cda:	6fc1                	lui	t6,0x10
    3cdc:	ffff8413          	addi	s0,t6,-1 # ffff <__BSS_END__+0x99bf>
    3ce0:	6b99                	lui	s7,0x6
    3ce2:	2621                	jal	3fea <check_data_types>
    3ce4:	5592                	lw	a1,36(sp)
    3ce6:	00005b37          	lui	s6,0x5
    3cea:	00a40cb3          	add	s9,s0,a0
    3cee:	7b8b0513          	addi	a0,s6,1976 # 57b8 <__umoddi3+0x5ac>
    3cf2:	f97fc0ef          	jal	ra,c88 <sc_printf>
    3cf6:	00005a37          	lui	s4,0x5
    3cfa:	85ce                	mv	a1,s3
    3cfc:	7d0a0513          	addi	a0,s4,2000 # 57d0 <__umoddi3+0x5c4>
    3d00:	f89fc0ef          	jal	ra,c88 <sc_printf>
    3d04:	854e                	mv	a0,s3
    3d06:	e26fc0ef          	jal	ra,32c <time_in_secs>
    3d0a:	000052b7          	lui	t0,0x5
    3d0e:	85aa                	mv	a1,a0
    3d10:	7e828513          	addi	a0,t0,2024 # 57e8 <__umoddi3+0x5dc>
    3d14:	f75fc0ef          	jal	ra,c88 <sc_printf>
    3d18:	010c9a93          	slli	s5,s9,0x10
    3d1c:	854e                	mv	a0,s3
    3d1e:	010ad413          	srli	s0,s5,0x10
    3d22:	e0afc0ef          	jal	ra,32c <time_in_secs>
    3d26:	20051663          	bnez	a0,3f32 <main+0x58c>
    3d2a:	854e                	mv	a0,s3
    3d2c:	e00fc0ef          	jal	ra,32c <time_in_secs>
    3d30:	49a5                	li	s3,9
    3d32:	1ea9f863          	bleu	a0,s3,3f22 <main+0x57c>
    3d36:	e20ba883          	lw	a7,-480(s7) # 5e20 <default_num_contexts>
    3d3a:	5822                	lw	a6,40(sp)
    3d3c:	00006537          	lui	a0,0x6
    3d40:	01041613          	slli	a2,s0,0x10
    3d44:	031805b3          	mul	a1,a6,a7
    3d48:	85850513          	addi	a0,a0,-1960 # 5858 <__umoddi3+0x64c>
    3d4c:	41065c13          	srai	s8,a2,0x10
    3d50:	f39fc0ef          	jal	ra,c88 <sc_printf>
    3d54:	00006e37          	lui	t3,0x6
    3d58:	00006eb7          	lui	t4,0x6
    3d5c:	870e0593          	addi	a1,t3,-1936 # 5870 <__umoddi3+0x664>
    3d60:	884e8513          	addi	a0,t4,-1916 # 5884 <__umoddi3+0x678>
    3d64:	f25fc0ef          	jal	ra,c88 <sc_printf>
    3d68:	00006f37          	lui	t5,0x6
    3d6c:	00006fb7          	lui	t6,0x6
    3d70:	89cf0593          	addi	a1,t5,-1892 # 589c <__umoddi3+0x690>
    3d74:	8d4f8513          	addi	a0,t6,-1836 # 58d4 <__umoddi3+0x6c8>
    3d78:	f11fc0ef          	jal	ra,c88 <sc_printf>
    3d7c:	000066b7          	lui	a3,0x6
    3d80:	00006737          	lui	a4,0x6
    3d84:	8ec70593          	addi	a1,a4,-1812 # 58ec <__umoddi3+0x6e0>
    3d88:	8f468513          	addi	a0,a3,-1804 # 58f4 <__umoddi3+0x6e8>
    3d8c:	efdfc0ef          	jal	ra,c88 <sc_printf>
    3d90:	85ca                	mv	a1,s2
    3d92:	00006937          	lui	s2,0x6
    3d96:	90c90513          	addi	a0,s2,-1780 # 590c <__umoddi3+0x700>
    3d9a:	eeffc0ef          	jal	ra,c88 <sc_printf>
    3d9e:	56b2                	lw	a3,44(sp)
    3da0:	0016fd13          	andi	s10,a3,1
    3da4:	040d0563          	beqz	s10,3dee <main+0x448>
    3da8:	e20bac83          	lw	s9,-480(s7)
    3dac:	040c8163          	beqz	s9,3dee <main+0x448>
    3db0:	4981                	li	s3,0
    3db2:	00006b37          	lui	s6,0x6
    3db6:	00499793          	slli	a5,s3,0x4
    3dba:	01378ab3          	add	s5,a5,s3
    3dbe:	05010293          	addi	t0,sp,80
    3dc2:	002a9a13          	slli	s4,s5,0x2
    3dc6:	014280b3          	add	ra,t0,s4
    3dca:	ff60d603          	lhu	a2,-10(ra)
    3dce:	85ce                	mv	a1,s3
    3dd0:	928b0513          	addi	a0,s6,-1752 # 5928 <__umoddi3+0x71c>
    3dd4:	eb5fc0ef          	jal	ra,c88 <sc_printf>
    3dd8:	00198493          	addi	s1,s3,1
    3ddc:	e20ba303          	lw	t1,-480(s7)
    3de0:	01049393          	slli	t2,s1,0x10
    3de4:	0103d993          	srli	s3,t2,0x10
    3de8:	fc69e7e3          	bltu	s3,t1,3db6 <main+0x410>
    3dec:	56b2                	lw	a3,44(sp)
    3dee:	0026f593          	andi	a1,a3,2
    3df2:	c5a1                	beqz	a1,3e3a <main+0x494>
    3df4:	e20ba403          	lw	s0,-480(s7)
    3df8:	1a040663          	beqz	s0,3fa4 <main+0x5fe>
    3dfc:	4d01                	li	s10,0
    3dfe:	00006937          	lui	s2,0x6
    3e02:	004d1893          	slli	a7,s10,0x4
    3e06:	01a88533          	add	a0,a7,s10
    3e0a:	00251813          	slli	a6,a0,0x2
    3e0e:	05010e13          	addi	t3,sp,80
    3e12:	010e0eb3          	add	t4,t3,a6
    3e16:	ff8ed603          	lhu	a2,-8(t4)
    3e1a:	85ea                	mv	a1,s10
    3e1c:	94490513          	addi	a0,s2,-1724 # 5944 <__umoddi3+0x738>
    3e20:	e69fc0ef          	jal	ra,c88 <sc_printf>
    3e24:	001d0f93          	addi	t6,s10,1
    3e28:	e20baf03          	lw	t5,-480(s7)
    3e2c:	010f9713          	slli	a4,t6,0x10
    3e30:	01075d13          	srli	s10,a4,0x10
    3e34:	fded67e3          	bltu	s10,t5,3e02 <main+0x45c>
    3e38:	56b2                	lw	a3,44(sp)
    3e3a:	0046fc93          	andi	s9,a3,4
    3e3e:	040c8463          	beqz	s9,3e86 <main+0x4e0>
    3e42:	e20bab03          	lw	s6,-480(s7)
    3e46:	080b0163          	beqz	s6,3ec8 <main+0x522>
    3e4a:	4401                	li	s0,0
    3e4c:	00006ab7          	lui	s5,0x6
    3e50:	00441793          	slli	a5,s0,0x4
    3e54:	00878a33          	add	s4,a5,s0
    3e58:	002a1293          	slli	t0,s4,0x2
    3e5c:	05010093          	addi	ra,sp,80
    3e60:	00508333          	add	t1,ra,t0
    3e64:	ffa35603          	lhu	a2,-6(t1)
    3e68:	85a2                	mv	a1,s0
    3e6a:	960a8513          	addi	a0,s5,-1696 # 5960 <__umoddi3+0x754>
    3e6e:	e1bfc0ef          	jal	ra,c88 <sc_printf>
    3e72:	00140393          	addi	t2,s0,1
    3e76:	e20ba483          	lw	s1,-480(s7)
    3e7a:	01039993          	slli	s3,t2,0x10
    3e7e:	0109d413          	srli	s0,s3,0x10
    3e82:	fc9467e3          	bltu	s0,s1,3e50 <main+0x4aa>
    3e86:	e20ba583          	lw	a1,-480(s7)
    3e8a:	cd9d                	beqz	a1,3ec8 <main+0x522>
    3e8c:	4d01                	li	s10,0
    3e8e:	00006937          	lui	s2,0x6
    3e92:	004d1613          	slli	a2,s10,0x4
    3e96:	01a608b3          	add	a7,a2,s10
    3e9a:	00289513          	slli	a0,a7,0x2
    3e9e:	05010813          	addi	a6,sp,80
    3ea2:	00a80e33          	add	t3,a6,a0
    3ea6:	ff4e5603          	lhu	a2,-12(t3)
    3eaa:	85ea                	mv	a1,s10
    3eac:	97c90513          	addi	a0,s2,-1668 # 597c <__umoddi3+0x770>
    3eb0:	dd9fc0ef          	jal	ra,c88 <sc_printf>
    3eb4:	001d0f13          	addi	t5,s10,1
    3eb8:	e20bae83          	lw	t4,-480(s7)
    3ebc:	010f1f93          	slli	t6,t5,0x10
    3ec0:	010fdd13          	srli	s10,t6,0x10
    3ec4:	fddd67e3          	bltu	s10,t4,3e92 <main+0x4ec>
    3ec8:	080c0663          	beqz	s8,3f54 <main+0x5ae>
    3ecc:	09805b63          	blez	s8,3f62 <main+0x5bc>
    3ed0:	00006c37          	lui	s8,0x6
    3ed4:	9e4c0513          	addi	a0,s8,-1564 # 59e4 <__umoddi3+0x7d8>
    3ed8:	db1fc0ef          	jal	ra,c88 <sc_printf>
    3edc:	04e10513          	addi	a0,sp,78
    3ee0:	c7cfc0ef          	jal	ra,35c <portable_fini>
    3ee4:	50f6                	lw	ra,124(sp)
    3ee6:	5466                	lw	s0,120(sp)
    3ee8:	54d6                	lw	s1,116(sp)
    3eea:	5946                	lw	s2,112(sp)
    3eec:	59b6                	lw	s3,108(sp)
    3eee:	5a26                	lw	s4,104(sp)
    3ef0:	5a96                	lw	s5,100(sp)
    3ef2:	5b06                	lw	s6,96(sp)
    3ef4:	4bf6                	lw	s7,92(sp)
    3ef6:	4c66                	lw	s8,88(sp)
    3ef8:	4cd6                	lw	s9,84(sp)
    3efa:	4d46                	lw	s10,80(sp)
    3efc:	4501                	li	a0,0
    3efe:	6109                	addi	sp,sp,128
    3f00:	8082                	ret
    3f02:	85e2                	mv	a1,s8
    3f04:	788a0513          	addi	a0,s4,1928
    3f08:	d81fc0ef          	jal	ra,c88 <sc_printf>
    3f0c:	ffc4d803          	lhu	a6,-4(s1)
    3f10:	00180e13          	addi	t3,a6,1
    3f14:	010e1e93          	slli	t4,t3,0x10
    3f18:	410edf13          	srai	t5,t4,0x10
    3f1c:	ffe49e23          	sh	t5,-4(s1)
    3f20:	b959                	j	3bb6 <main+0x210>
    3f22:	000065b7          	lui	a1,0x6
    3f26:	81858513          	addi	a0,a1,-2024 # 5818 <__umoddi3+0x60c>
    3f2a:	d5ffc0ef          	jal	ra,c88 <sc_printf>
    3f2e:	0405                	addi	s0,s0,1
    3f30:	b519                	j	3d36 <main+0x390>
    3f32:	e20ba083          	lw	ra,-480(s7)
    3f36:	5322                	lw	t1,40(sp)
    3f38:	854e                	mv	a0,s3
    3f3a:	021304b3          	mul	s1,t1,ra
    3f3e:	beefc0ef          	jal	ra,32c <time_in_secs>
    3f42:	000063b7          	lui	t2,0x6
    3f46:	02a4d5b3          	divu	a1,s1,a0
    3f4a:	80038513          	addi	a0,t2,-2048 # 5800 <__umoddi3+0x5f4>
    3f4e:	d3bfc0ef          	jal	ra,c88 <sc_printf>
    3f52:	bbe1                	j	3d2a <main+0x384>
    3f54:	00006737          	lui	a4,0x6
    3f58:	99870513          	addi	a0,a4,-1640 # 5998 <__umoddi3+0x78c>
    3f5c:	d2dfc0ef          	jal	ra,c88 <sc_printf>
    3f60:	bfb5                	j	3edc <main+0x536>
    3f62:	00006bb7          	lui	s7,0x6
    3f66:	9f8b8513          	addi	a0,s7,-1544 # 59f8 <__umoddi3+0x7ec>
    3f6a:	d1ffc0ef          	jal	ra,c88 <sc_printf>
    3f6e:	b7bd                	j	3edc <main+0x536>
    3f70:	00005737          	lui	a4,0x5
    3f74:	63870513          	addi	a0,a4,1592 # 5638 <__umoddi3+0x42c>
    3f78:	d11fc0ef          	jal	ra,c88 <sc_printf>
    3f7c:	4e01                	li	t3,0
    3f7e:	bef5                	j	3b7a <main+0x1d4>
    3f80:	00005c37          	lui	s8,0x5
    3f84:	6f8c0513          	addi	a0,s8,1784 # 56f8 <__umoddi3+0x4ec>
    3f88:	d01fc0ef          	jal	ra,c88 <sc_printf>
    3f8c:	4e11                	li	t3,4
    3f8e:	b6f5                	j	3b7a <main+0x1d4>
    3f90:	000050b7          	lui	ra,0x5
    3f94:	66808513          	addi	a0,ra,1640 # 5668 <__umoddi3+0x45c>
    3f98:	cf1fc0ef          	jal	ra,c88 <sc_printf>
    3f9c:	4e05                	li	t3,1
    3f9e:	bef1                	j	3b7a <main+0x1d4>
    3fa0:	4401                	li	s0,0
    3fa2:	b381                	j	3ce2 <main+0x33c>
    3fa4:	0046f613          	andi	a2,a3,4
    3fa8:	f20610e3          	bnez	a2,3ec8 <main+0x522>
    3fac:	bde9                	j	3e86 <main+0x4e0>

00003fae <get_seed_32>:
    3fae:	4795                	li	a5,5
    3fb0:	02a7eb63          	bltu	a5,a0,3fe6 <get_seed_32+0x38>
    3fb4:	6299                	lui	t0,0x6
    3fb6:	050a                	slli	a0,a0,0x2
    3fb8:	ca028313          	addi	t1,t0,-864 # 5ca0 <state_known_crc+0xc>
    3fbc:	006503b3          	add	t2,a0,t1
    3fc0:	0003a583          	lw	a1,0(t2)
    3fc4:	8582                	jr	a1
    3fc6:	8281a503          	lw	a0,-2008(gp) # 5e48 <seed5_volatile>
    3fca:	8082                	ret
    3fcc:	8301a503          	lw	a0,-2000(gp) # 5e50 <seed1_volatile>
    3fd0:	8082                	ret
    3fd2:	82c1a503          	lw	a0,-2004(gp) # 5e4c <seed2_volatile>
    3fd6:	8082                	ret
    3fd8:	8081a503          	lw	a0,-2040(gp) # 5e28 <seed3_volatile>
    3fdc:	8082                	ret
    3fde:	6699                	lui	a3,0x6
    3fe0:	e246a503          	lw	a0,-476(a3) # 5e24 <seed4_volatile>
    3fe4:	8082                	ret
    3fe6:	4501                	li	a0,0
    3fe8:	8082                	ret

00003fea <check_data_types>:
    3fea:	4501                	li	a0,0
    3fec:	8082                	ret

00003fee <crcu8>:
    3fee:	00b546b3          	xor	a3,a0,a1
    3ff2:	0016f293          	andi	t0,a3,1
    3ff6:	00155713          	srli	a4,a0,0x1
    3ffa:	0015d613          	srli	a2,a1,0x1
    3ffe:	00028b63          	beqz	t0,4014 <crcu8+0x26>
    4002:	7369                	lui	t1,0xffffa
    4004:	00130393          	addi	t2,t1,1 # ffffa001 <__C_STACK_TOP__+0xfffea001>
    4008:	007647b3          	xor	a5,a2,t2
    400c:	01079593          	slli	a1,a5,0x10
    4010:	0105d613          	srli	a2,a1,0x10
    4014:	00e64833          	xor	a6,a2,a4
    4018:	00187893          	andi	a7,a6,1
    401c:	00255e13          	srli	t3,a0,0x2
    4020:	00165293          	srli	t0,a2,0x1
    4024:	00088b63          	beqz	a7,403a <crcu8+0x4c>
    4028:	7ee9                	lui	t4,0xffffa
    402a:	001e8f13          	addi	t5,t4,1 # ffffa001 <__C_STACK_TOP__+0xfffea001>
    402e:	01e2cfb3          	xor	t6,t0,t5
    4032:	010f9693          	slli	a3,t6,0x10
    4036:	0106d293          	srli	t0,a3,0x10
    403a:	01c2c733          	xor	a4,t0,t3
    403e:	00177313          	andi	t1,a4,1
    4042:	00355393          	srli	t2,a0,0x3
    4046:	0012d893          	srli	a7,t0,0x1
    404a:	00030b63          	beqz	t1,4060 <crcu8+0x72>
    404e:	75e9                	lui	a1,0xffffa
    4050:	00158613          	addi	a2,a1,1 # ffffa001 <__C_STACK_TOP__+0xfffea001>
    4054:	00c8c7b3          	xor	a5,a7,a2
    4058:	01079813          	slli	a6,a5,0x10
    405c:	01085893          	srli	a7,a6,0x10
    4060:	0078ce33          	xor	t3,a7,t2
    4064:	001e7e93          	andi	t4,t3,1
    4068:	00455f13          	srli	t5,a0,0x4
    406c:	0018d313          	srli	t1,a7,0x1
    4070:	000e8b63          	beqz	t4,4086 <crcu8+0x98>
    4074:	7fe9                	lui	t6,0xffffa
    4076:	001f8693          	addi	a3,t6,1 # ffffa001 <__C_STACK_TOP__+0xfffea001>
    407a:	00d342b3          	xor	t0,t1,a3
    407e:	01029713          	slli	a4,t0,0x10
    4082:	01075313          	srli	t1,a4,0x10
    4086:	01e343b3          	xor	t2,t1,t5
    408a:	0013f593          	andi	a1,t2,1
    408e:	00555613          	srli	a2,a0,0x5
    4092:	00135e93          	srli	t4,t1,0x1
    4096:	c991                	beqz	a1,40aa <crcu8+0xbc>
    4098:	7869                	lui	a6,0xffffa
    409a:	00180893          	addi	a7,a6,1 # ffffa001 <__C_STACK_TOP__+0xfffea001>
    409e:	011ec7b3          	xor	a5,t4,a7
    40a2:	01079e13          	slli	t3,a5,0x10
    40a6:	010e5e93          	srli	t4,t3,0x10
    40aa:	00cecf33          	xor	t5,t4,a2
    40ae:	001f7f93          	andi	t6,t5,1
    40b2:	00655693          	srli	a3,a0,0x6
    40b6:	001ed593          	srli	a1,t4,0x1
    40ba:	000f8b63          	beqz	t6,40d0 <crcu8+0xe2>
    40be:	72e9                	lui	t0,0xffffa
    40c0:	00128713          	addi	a4,t0,1 # ffffa001 <__C_STACK_TOP__+0xfffea001>
    40c4:	00e5c333          	xor	t1,a1,a4
    40c8:	01031393          	slli	t2,t1,0x10
    40cc:	0103d593          	srli	a1,t2,0x10
    40d0:	00d5c633          	xor	a2,a1,a3
    40d4:	00167813          	andi	a6,a2,1
    40d8:	00755893          	srli	a7,a0,0x7
    40dc:	0015df13          	srli	t5,a1,0x1
    40e0:	00080b63          	beqz	a6,40f6 <crcu8+0x108>
    40e4:	77e9                	lui	a5,0xffffa
    40e6:	00178e13          	addi	t3,a5,1 # ffffa001 <__C_STACK_TOP__+0xfffea001>
    40ea:	01cf4533          	xor	a0,t5,t3
    40ee:	01051e93          	slli	t4,a0,0x10
    40f2:	010edf13          	srli	t5,t4,0x10
    40f6:	001f7f93          	andi	t6,t5,1
    40fa:	001f5513          	srli	a0,t5,0x1
    40fe:	011f8b63          	beq	t6,a7,4114 <crcu8+0x126>
    4102:	76e9                	lui	a3,0xffffa
    4104:	00168293          	addi	t0,a3,1 # ffffa001 <__C_STACK_TOP__+0xfffea001>
    4108:	00554733          	xor	a4,a0,t0
    410c:	01071313          	slli	t1,a4,0x10
    4110:	01035513          	srli	a0,t1,0x10
    4114:	8082                	ret

00004116 <crcu16>:
    4116:	00a5c733          	xor	a4,a1,a0
    411a:	0ff57693          	andi	a3,a0,255
    411e:	00177293          	andi	t0,a4,1
    4122:	0016d613          	srli	a2,a3,0x1
    4126:	0015d813          	srli	a6,a1,0x1
    412a:	00028b63          	beqz	t0,4140 <crcu16+0x2a>
    412e:	7369                	lui	t1,0xffffa
    4130:	00130393          	addi	t2,t1,1 # ffffa001 <__C_STACK_TOP__+0xfffea001>
    4134:	007847b3          	xor	a5,a6,t2
    4138:	01079593          	slli	a1,a5,0x10
    413c:	0105d813          	srli	a6,a1,0x10
    4140:	00c848b3          	xor	a7,a6,a2
    4144:	0018fe13          	andi	t3,a7,1
    4148:	0026de93          	srli	t4,a3,0x2
    414c:	00185313          	srli	t1,a6,0x1
    4150:	000e0b63          	beqz	t3,4166 <crcu16+0x50>
    4154:	7f69                	lui	t5,0xffffa
    4156:	001f0f93          	addi	t6,t5,1 # ffffa001 <__C_STACK_TOP__+0xfffea001>
    415a:	01f34733          	xor	a4,t1,t6
    415e:	01071293          	slli	t0,a4,0x10
    4162:	0102d313          	srli	t1,t0,0x10
    4166:	01d34633          	xor	a2,t1,t4
    416a:	00167393          	andi	t2,a2,1
    416e:	0036d593          	srli	a1,a3,0x3
    4172:	00135e93          	srli	t4,t1,0x1
    4176:	00038b63          	beqz	t2,418c <crcu16+0x76>
    417a:	7869                	lui	a6,0xffffa
    417c:	00180893          	addi	a7,a6,1 # ffffa001 <__C_STACK_TOP__+0xfffea001>
    4180:	011ec7b3          	xor	a5,t4,a7
    4184:	01079e13          	slli	t3,a5,0x10
    4188:	010e5e93          	srli	t4,t3,0x10
    418c:	00becf33          	xor	t5,t4,a1
    4190:	001f7f93          	andi	t6,t5,1
    4194:	0046d713          	srli	a4,a3,0x4
    4198:	001ed593          	srli	a1,t4,0x1
    419c:	000f8b63          	beqz	t6,41b2 <crcu16+0x9c>
    41a0:	72e9                	lui	t0,0xffffa
    41a2:	00128313          	addi	t1,t0,1 # ffffa001 <__C_STACK_TOP__+0xfffea001>
    41a6:	0065c633          	xor	a2,a1,t1
    41aa:	01061393          	slli	t2,a2,0x10
    41ae:	0103d593          	srli	a1,t2,0x10
    41b2:	00e5c833          	xor	a6,a1,a4
    41b6:	00187893          	andi	a7,a6,1
    41ba:	0056de13          	srli	t3,a3,0x5
    41be:	0015d293          	srli	t0,a1,0x1
    41c2:	00088b63          	beqz	a7,41d8 <crcu16+0xc2>
    41c6:	7ee9                	lui	t4,0xffffa
    41c8:	001e8f13          	addi	t5,t4,1 # ffffa001 <__C_STACK_TOP__+0xfffea001>
    41cc:	01e2c7b3          	xor	a5,t0,t5
    41d0:	01079f93          	slli	t6,a5,0x10
    41d4:	010fd293          	srli	t0,t6,0x10
    41d8:	01c2c733          	xor	a4,t0,t3
    41dc:	00177313          	andi	t1,a4,1
    41e0:	0066d393          	srli	t2,a3,0x6
    41e4:	0012de13          	srli	t3,t0,0x1
    41e8:	00030b63          	beqz	t1,41fe <crcu16+0xe8>
    41ec:	7669                	lui	a2,0xffffa
    41ee:	00160593          	addi	a1,a2,1 # ffffa001 <__C_STACK_TOP__+0xfffea001>
    41f2:	00be4833          	xor	a6,t3,a1
    41f6:	01081893          	slli	a7,a6,0x10
    41fa:	0108de13          	srli	t3,a7,0x10
    41fe:	007e4eb3          	xor	t4,t3,t2
    4202:	001eff13          	andi	t5,t4,1
    4206:	829d                	srli	a3,a3,0x7
    4208:	001e5313          	srli	t1,t3,0x1
    420c:	000f0b63          	beqz	t5,4222 <crcu16+0x10c>
    4210:	7fe9                	lui	t6,0xffffa
    4212:	001f8293          	addi	t0,t6,1 # ffffa001 <__C_STACK_TOP__+0xfffea001>
    4216:	005347b3          	xor	a5,t1,t0
    421a:	01079713          	slli	a4,a5,0x10
    421e:	01075313          	srli	t1,a4,0x10
    4222:	00137393          	andi	t2,t1,1
    4226:	00135e13          	srli	t3,t1,0x1
    422a:	00d38b63          	beq	t2,a3,4240 <crcu16+0x12a>
    422e:	7669                	lui	a2,0xffffa
    4230:	00160593          	addi	a1,a2,1 # ffffa001 <__C_STACK_TOP__+0xfffea001>
    4234:	00be4833          	xor	a6,t3,a1
    4238:	01081893          	slli	a7,a6,0x10
    423c:	0108de13          	srli	t3,a7,0x10
    4240:	8121                	srli	a0,a0,0x8
    4242:	01c54eb3          	xor	t4,a0,t3
    4246:	0ff57f13          	andi	t5,a0,255
    424a:	001eff93          	andi	t6,t4,1
    424e:	001f5693          	srli	a3,t5,0x1
    4252:	001e5393          	srli	t2,t3,0x1
    4256:	000f8b63          	beqz	t6,426c <crcu16+0x156>
    425a:	72e9                	lui	t0,0xffffa
    425c:	00128793          	addi	a5,t0,1 # ffffa001 <__C_STACK_TOP__+0xfffea001>
    4260:	00f3c733          	xor	a4,t2,a5
    4264:	01071313          	slli	t1,a4,0x10
    4268:	01035393          	srli	t2,t1,0x10
    426c:	0076c633          	xor	a2,a3,t2
    4270:	00167593          	andi	a1,a2,1
    4274:	002f5813          	srli	a6,t5,0x2
    4278:	0013df93          	srli	t6,t2,0x1
    427c:	c991                	beqz	a1,4290 <crcu16+0x17a>
    427e:	78e9                	lui	a7,0xffffa
    4280:	00188e13          	addi	t3,a7,1 # ffffa001 <__C_STACK_TOP__+0xfffea001>
    4284:	01cfc533          	xor	a0,t6,t3
    4288:	01051e93          	slli	t4,a0,0x10
    428c:	010edf93          	srli	t6,t4,0x10
    4290:	010fc6b3          	xor	a3,t6,a6
    4294:	0016f293          	andi	t0,a3,1
    4298:	003f5713          	srli	a4,t5,0x3
    429c:	001fd593          	srli	a1,t6,0x1
    42a0:	00028b63          	beqz	t0,42b6 <crcu16+0x1a0>
    42a4:	77e9                	lui	a5,0xffffa
    42a6:	00178313          	addi	t1,a5,1 # ffffa001 <__C_STACK_TOP__+0xfffea001>
    42aa:	0065c3b3          	xor	t2,a1,t1
    42ae:	01039613          	slli	a2,t2,0x10
    42b2:	01065593          	srli	a1,a2,0x10
    42b6:	00e5c833          	xor	a6,a1,a4
    42ba:	00187893          	andi	a7,a6,1
    42be:	004f5e13          	srli	t3,t5,0x4
    42c2:	0015d293          	srli	t0,a1,0x1
    42c6:	00088b63          	beqz	a7,42dc <crcu16+0x1c6>
    42ca:	7ee9                	lui	t4,0xffffa
    42cc:	001e8f93          	addi	t6,t4,1 # ffffa001 <__C_STACK_TOP__+0xfffea001>
    42d0:	01f2c533          	xor	a0,t0,t6
    42d4:	01051693          	slli	a3,a0,0x10
    42d8:	0106d293          	srli	t0,a3,0x10
    42dc:	01c2c733          	xor	a4,t0,t3
    42e0:	00177793          	andi	a5,a4,1
    42e4:	005f5313          	srli	t1,t5,0x5
    42e8:	0012d893          	srli	a7,t0,0x1
    42ec:	cb91                	beqz	a5,4300 <crcu16+0x1ea>
    42ee:	73e9                	lui	t2,0xffffa
    42f0:	00138613          	addi	a2,t2,1 # ffffa001 <__C_STACK_TOP__+0xfffea001>
    42f4:	00c8c5b3          	xor	a1,a7,a2
    42f8:	01059813          	slli	a6,a1,0x10
    42fc:	01085893          	srli	a7,a6,0x10
    4300:	0068ce33          	xor	t3,a7,t1
    4304:	001e7e93          	andi	t4,t3,1
    4308:	006f5f93          	srli	t6,t5,0x6
    430c:	0018d313          	srli	t1,a7,0x1
    4310:	000e8b63          	beqz	t4,4326 <crcu16+0x210>
    4314:	76e9                	lui	a3,0xffffa
    4316:	00168293          	addi	t0,a3,1 # ffffa001 <__C_STACK_TOP__+0xfffea001>
    431a:	00534533          	xor	a0,t1,t0
    431e:	01051713          	slli	a4,a0,0x10
    4322:	01075313          	srli	t1,a4,0x10
    4326:	01f347b3          	xor	a5,t1,t6
    432a:	0017f393          	andi	t2,a5,1
    432e:	007f5f13          	srli	t5,t5,0x7
    4332:	00135e13          	srli	t3,t1,0x1
    4336:	00038b63          	beqz	t2,434c <crcu16+0x236>
    433a:	7669                	lui	a2,0xffffa
    433c:	00160593          	addi	a1,a2,1 # ffffa001 <__C_STACK_TOP__+0xfffea001>
    4340:	00be4833          	xor	a6,t3,a1
    4344:	01081893          	slli	a7,a6,0x10
    4348:	0108de13          	srli	t3,a7,0x10
    434c:	001e7e93          	andi	t4,t3,1
    4350:	001e5513          	srli	a0,t3,0x1
    4354:	01ee8a63          	beq	t4,t5,4368 <crcu16+0x252>
    4358:	7fe9                	lui	t6,0xffffa
    435a:	001f8693          	addi	a3,t6,1 # ffffa001 <__C_STACK_TOP__+0xfffea001>
    435e:	00d542b3          	xor	t0,a0,a3
    4362:	01029513          	slli	a0,t0,0x10
    4366:	8141                	srli	a0,a0,0x10
    4368:	8082                	ret

0000436a <crcu32>:
    436a:	1141                	addi	sp,sp,-16
    436c:	c422                	sw	s0,8(sp)
    436e:	842a                	mv	s0,a0
    4370:	0542                	slli	a0,a0,0x10
    4372:	8141                	srli	a0,a0,0x10
    4374:	c606                	sw	ra,12(sp)
    4376:	3345                	jal	4116 <crcu16>
    4378:	85aa                	mv	a1,a0
    437a:	01045513          	srli	a0,s0,0x10
    437e:	4422                	lw	s0,8(sp)
    4380:	40b2                	lw	ra,12(sp)
    4382:	0141                	addi	sp,sp,16
    4384:	bb49                	j	4116 <crcu16>

00004386 <crc16>:
    4386:	0542                	slli	a0,a0,0x10
    4388:	8141                	srli	a0,a0,0x10
    438a:	b371                	j	4116 <crcu16>

0000438c <core_init_state>:
    438c:	4781                	li	a5,0
    438e:	4681                	li	a3,0
    4390:	1101                	addi	sp,sp,-32
    4392:	0585                	addi	a1,a1,1
    4394:	00f68733          	add	a4,a3,a5
    4398:	01059293          	slli	t0,a1,0x10
    439c:	ce22                	sw	s0,28(sp)
    439e:	cc26                	sw	s1,24(sp)
    43a0:	ca4a                	sw	s2,20(sp)
    43a2:	c84e                	sw	s3,16(sp)
    43a4:	6319                	lui	t1,0x6
    43a6:	6e19                	lui	t3,0x6
    43a8:	c652                	sw	s4,12(sp)
    43aa:	fff50893          	addi	a7,a0,-1
    43ae:	00170913          	addi	s2,a4,1
    43b2:	0102d593          	srli	a1,t0,0x10
    43b6:	4981                	li	s3,0
    43b8:	4f05                	li	t5,1
    43ba:	02c00e93          	li	t4,44
    43be:	4f89                	li	t6,2
    43c0:	428d                	li	t0,3
    43c2:	4811                	li	a6,4
    43c4:	4395                	li	t2,5
    43c6:	4419                	li	s0,6
    43c8:	44a1                	li	s1,8
    43ca:	ccc30313          	addi	t1,t1,-820 # 5ccc <intpat>
    43ce:	cb8e0e13          	addi	t3,t3,-840 # 5cb8 <state_known_crc+0x24>
    43d2:	05197a63          	bleu	a7,s2,4426 <core_init_state+0x9a>
    43d6:	e7f5                	bnez	a5,44c2 <core_init_state+0x136>
    43d8:	0075f913          	andi	s2,a1,7
    43dc:	ffd90993          	addi	s3,s2,-3
    43e0:	01099793          	slli	a5,s3,0x10
    43e4:	0035da13          	srli	s4,a1,0x3
    43e8:	0107d913          	srli	s2,a5,0x10
    43ec:	003a7713          	andi	a4,s4,3
    43f0:	15286a63          	bltu	a6,s2,4544 <core_init_state+0x1b8>
    43f4:	00291993          	slli	s3,s2,0x2
    43f8:	01c98a33          	add	s4,s3,t3
    43fc:	000a2783          	lw	a5,0(s4)
    4400:	00271913          	slli	s2,a4,0x2
    4404:	01230733          	add	a4,t1,s2
    4408:	8782                	jr	a5
    440a:	01072983          	lw	s3,16(a4)
    440e:	47a1                	li	a5,8
    4410:	0585                	addi	a1,a1,1
    4412:	01059713          	slli	a4,a1,0x10
    4416:	01075593          	srli	a1,a4,0x10
    441a:	00f68733          	add	a4,a3,a5
    441e:	00170913          	addi	s2,a4,1
    4422:	fb196ae3          	bltu	s2,a7,43d6 <core_init_state+0x4a>
    4426:	08a6f363          	bleu	a0,a3,44ac <core_init_state+0x120>
    442a:	96b2                	add	a3,a3,a2
    442c:	962a                	add	a2,a2,a0
    442e:	40d607b3          	sub	a5,a2,a3
    4432:	0077f393          	andi	t2,a5,7
    4436:	04038863          	beqz	t2,4486 <core_init_state+0xfa>
    443a:	4405                	li	s0,1
    443c:	04838063          	beq	t2,s0,447c <core_init_state+0xf0>
    4440:	4489                	li	s1,2
    4442:	02938a63          	beq	t2,s1,4476 <core_init_state+0xea>
    4446:	450d                	li	a0,3
    4448:	02a38463          	beq	t2,a0,4470 <core_init_state+0xe4>
    444c:	4811                	li	a6,4
    444e:	01038e63          	beq	t2,a6,446a <core_init_state+0xde>
    4452:	4895                	li	a7,5
    4454:	01138863          	beq	t2,a7,4464 <core_init_state+0xd8>
    4458:	4999                	li	s3,6
    445a:	11339163          	bne	t2,s3,455c <core_init_state+0x1d0>
    445e:	00068023          	sb	zero,0(a3)
    4462:	0685                	addi	a3,a3,1
    4464:	00068023          	sb	zero,0(a3)
    4468:	0685                	addi	a3,a3,1
    446a:	00068023          	sb	zero,0(a3)
    446e:	0685                	addi	a3,a3,1
    4470:	00068023          	sb	zero,0(a3)
    4474:	0685                	addi	a3,a3,1
    4476:	00068023          	sb	zero,0(a3)
    447a:	0685                	addi	a3,a3,1
    447c:	00068023          	sb	zero,0(a3)
    4480:	0685                	addi	a3,a3,1
    4482:	02c68563          	beq	a3,a2,44ac <core_init_state+0x120>
    4486:	00068023          	sb	zero,0(a3)
    448a:	000680a3          	sb	zero,1(a3)
    448e:	00068123          	sb	zero,2(a3)
    4492:	000681a3          	sb	zero,3(a3)
    4496:	00068223          	sb	zero,4(a3)
    449a:	000682a3          	sb	zero,5(a3)
    449e:	00068323          	sb	zero,6(a3)
    44a2:	000683a3          	sb	zero,7(a3)
    44a6:	06a1                	addi	a3,a3,8
    44a8:	fcc69fe3          	bne	a3,a2,4486 <core_init_state+0xfa>
    44ac:	4472                	lw	s0,28(sp)
    44ae:	44e2                	lw	s1,24(sp)
    44b0:	4952                	lw	s2,20(sp)
    44b2:	49c2                	lw	s3,16(sp)
    44b4:	4a32                	lw	s4,12(sp)
    44b6:	6105                	addi	sp,sp,32
    44b8:	8082                	ret
    44ba:	02072983          	lw	s3,32(a4)
    44be:	47a1                	li	a5,8
    44c0:	bf81                	j	4410 <core_init_state+0x84>
    44c2:	0009ca03          	lbu	s4,0(s3)
    44c6:	96b2                	add	a3,a3,a2
    44c8:	01468023          	sb	s4,0(a3)
    44cc:	05e78a63          	beq	a5,t5,4520 <core_init_state+0x194>
    44d0:	0019ca03          	lbu	s4,1(s3)
    44d4:	014680a3          	sb	s4,1(a3)
    44d8:	05f78463          	beq	a5,t6,4520 <core_init_state+0x194>
    44dc:	0029ca03          	lbu	s4,2(s3)
    44e0:	01468123          	sb	s4,2(a3)
    44e4:	02578e63          	beq	a5,t0,4520 <core_init_state+0x194>
    44e8:	0039ca03          	lbu	s4,3(s3)
    44ec:	014681a3          	sb	s4,3(a3)
    44f0:	03078863          	beq	a5,a6,4520 <core_init_state+0x194>
    44f4:	0049ca03          	lbu	s4,4(s3)
    44f8:	01468223          	sb	s4,4(a3)
    44fc:	02778263          	beq	a5,t2,4520 <core_init_state+0x194>
    4500:	0059ca03          	lbu	s4,5(s3)
    4504:	014682a3          	sb	s4,5(a3)
    4508:	00878c63          	beq	a5,s0,4520 <core_init_state+0x194>
    450c:	0069ca03          	lbu	s4,6(s3)
    4510:	01468323          	sb	s4,6(a3)
    4514:	00979663          	bne	a5,s1,4520 <core_init_state+0x194>
    4518:	0079c783          	lbu	a5,7(s3)
    451c:	00f683a3          	sb	a5,7(a3)
    4520:	86ca                	mv	a3,s2
    4522:	0075f913          	andi	s2,a1,7
    4526:	ffd90993          	addi	s3,s2,-3
    452a:	9732                	add	a4,a4,a2
    452c:	01099793          	slli	a5,s3,0x10
    4530:	01d70023          	sb	t4,0(a4)
    4534:	0035da13          	srli	s4,a1,0x3
    4538:	0107d913          	srli	s2,a5,0x10
    453c:	003a7713          	andi	a4,s4,3
    4540:	eb287ae3          	bleu	s2,a6,43f4 <core_init_state+0x68>
    4544:	00271a13          	slli	s4,a4,0x2
    4548:	01430933          	add	s2,t1,s4
    454c:	00092983          	lw	s3,0(s2)
    4550:	4791                	li	a5,4
    4552:	bd7d                	j	4410 <core_init_state+0x84>
    4554:	03072983          	lw	s3,48(a4)
    4558:	47a1                	li	a5,8
    455a:	bd5d                	j	4410 <core_init_state+0x84>
    455c:	00068023          	sb	zero,0(a3)
    4560:	0685                	addi	a3,a3,1
    4562:	bdf5                	j	445e <core_init_state+0xd2>

00004564 <core_state_transition>:
    4564:	411c                	lw	a5,0(a0)
    4566:	0007c703          	lbu	a4,0(a5)
    456a:	cf31                	beqz	a4,45c6 <core_state_transition+0x62>
    456c:	02c00693          	li	a3,44
    4570:	00178613          	addi	a2,a5,1
    4574:	22d70f63          	beq	a4,a3,47b2 <core_state_transition+0x24e>
    4578:	0005a803          	lw	a6,0(a1)
    457c:	fd070893          	addi	a7,a4,-48
    4580:	0ff8f293          	andi	t0,a7,255
    4584:	4325                	li	t1,9
    4586:	00180393          	addi	t2,a6,1
    458a:	04536163          	bltu	t1,t0,45cc <core_state_transition+0x68>
    458e:	0075a023          	sw	t2,0(a1)
    4592:	0017c703          	lbu	a4,1(a5)
    4596:	24070363          	beqz	a4,47dc <core_state_transition+0x278>
    459a:	0789                	addi	a5,a5,2
    459c:	0ad70b63          	beq	a4,a3,4652 <core_state_transition+0xee>
    45a0:	02e00f13          	li	t5,46
    45a4:	4fa5                	li	t6,9
    45a6:	02c00813          	li	a6,44
    45aa:	fd070693          	addi	a3,a4,-48
    45ae:	0ff6f893          	andi	a7,a3,255
    45b2:	0be70263          	beq	a4,t5,4656 <core_state_transition+0xf2>
    45b6:	1b1ffc63          	bleu	a7,t6,476e <core_state_transition+0x20a>
    45ba:	4990                	lw	a2,16(a1)
    45bc:	4705                	li	a4,1
    45be:	00160293          	addi	t0,a2,1
    45c2:	0055a823          	sw	t0,16(a1)
    45c6:	c11c                	sw	a5,0(a0)
    45c8:	853a                	mv	a0,a4
    45ca:	8082                	ret
    45cc:	02b00e13          	li	t3,43
    45d0:	03c70663          	beq	a4,t3,45fc <core_state_transition+0x98>
    45d4:	02d00e93          	li	t4,45
    45d8:	03d70263          	beq	a4,t4,45fc <core_state_transition+0x98>
    45dc:	02e00f13          	li	t5,46
    45e0:	1de70c63          	beq	a4,t5,47b8 <core_state_transition+0x254>
    45e4:	41d8                	lw	a4,4(a1)
    45e6:	0075a023          	sw	t2,0(a1)
    45ea:	87b2                	mv	a5,a2
    45ec:	00170f93          	addi	t6,a4,1
    45f0:	01f5a223          	sw	t6,4(a1)
    45f4:	4705                	li	a4,1
    45f6:	c11c                	sw	a5,0(a0)
    45f8:	853a                	mv	a0,a4
    45fa:	8082                	ret
    45fc:	0075a023          	sw	t2,0(a1)
    4600:	0017c803          	lbu	a6,1(a5)
    4604:	1c080663          	beqz	a6,47d0 <core_state_transition+0x26c>
    4608:	00278613          	addi	a2,a5,2
    460c:	1cd80263          	beq	a6,a3,47d0 <core_state_transition+0x26c>
    4610:	4594                	lw	a3,8(a1)
    4612:	fd080893          	addi	a7,a6,-48
    4616:	0ff8f293          	andi	t0,a7,255
    461a:	4325                	li	t1,9
    461c:	00168393          	addi	t2,a3,1
    4620:	00537d63          	bleu	t0,t1,463a <core_state_transition+0xd6>
    4624:	02e00e13          	li	t3,46
    4628:	17c80863          	beq	a6,t3,4798 <core_state_transition+0x234>
    462c:	0075a423          	sw	t2,8(a1)
    4630:	87b2                	mv	a5,a2
    4632:	4705                	li	a4,1
    4634:	c11c                	sw	a5,0(a0)
    4636:	853a                	mv	a0,a4
    4638:	8082                	ret
    463a:	0075a423          	sw	t2,8(a1)
    463e:	0027c703          	lbu	a4,2(a5)
    4642:	18070d63          	beqz	a4,47dc <core_state_transition+0x278>
    4646:	02c00e93          	li	t4,44
    464a:	00160793          	addi	a5,a2,1
    464e:	f5d719e3          	bne	a4,t4,45a0 <core_state_transition+0x3c>
    4652:	4711                	li	a4,4
    4654:	bf8d                	j	45c6 <core_state_transition+0x62>
    4656:	0105a383          	lw	t2,16(a1)
    465a:	00138e13          	addi	t3,t2,1
    465e:	01c5a823          	sw	t3,16(a1)
    4662:	00164703          	lbu	a4,1(a2)
    4666:	16070f63          	beqz	a4,47e4 <core_state_transition+0x280>
    466a:	02c00e93          	li	t4,44
    466e:	00178e13          	addi	t3,a5,1
    4672:	15d70c63          	beq	a4,t4,47ca <core_state_transition+0x266>
    4676:	fd070693          	addi	a3,a4,-48
    467a:	04500f13          	li	t5,69
    467e:	0df77613          	andi	a2,a4,223
    4682:	4fa5                	li	t6,9
    4684:	02c00893          	li	a7,44
    4688:	0ff6f293          	andi	t0,a3,255
    468c:	03e60663          	beq	a2,t5,46b8 <core_state_transition+0x154>
    4690:	0e5feb63          	bltu	t6,t0,4786 <core_state_transition+0x222>
    4694:	0017c703          	lbu	a4,1(a5)
    4698:	001e0393          	addi	t2,t3,1
    469c:	87f2                	mv	a5,t3
    469e:	12070663          	beqz	a4,47ca <core_state_transition+0x266>
    46a2:	15170b63          	beq	a4,a7,47f8 <core_state_transition+0x294>
    46a6:	fd070693          	addi	a3,a4,-48
    46aa:	0df77613          	andi	a2,a4,223
    46ae:	8e1e                	mv	t3,t2
    46b0:	0ff6f293          	andi	t0,a3,255
    46b4:	fde61ee3          	bne	a2,t5,4690 <core_state_transition+0x12c>
    46b8:	0145ae83          	lw	t4,20(a1)
    46bc:	001e8f13          	addi	t5,t4,1
    46c0:	01e5aa23          	sw	t5,20(a1)
    46c4:	0017cf83          	lbu	t6,1(a5)
    46c8:	100f8763          	beqz	t6,47d6 <core_state_transition+0x272>
    46cc:	02c00613          	li	a2,44
    46d0:	001e0793          	addi	a5,t3,1
    46d4:	10cf8263          	beq	t6,a2,47d8 <core_state_transition+0x274>
    46d8:	00c5a883          	lw	a7,12(a1)
    46dc:	fd5f8693          	addi	a3,t6,-43
    46e0:	0fd6f293          	andi	t0,a3,253
    46e4:	00188313          	addi	t1,a7,1
    46e8:	0065a623          	sw	t1,12(a1)
    46ec:	00028663          	beqz	t0,46f8 <core_state_transition+0x194>
    46f0:	4705                	li	a4,1
    46f2:	c11c                	sw	a5,0(a0)
    46f4:	853a                	mv	a0,a4
    46f6:	8082                	ret
    46f8:	001e4803          	lbu	a6,1(t3)
    46fc:	0e080663          	beqz	a6,47e8 <core_state_transition+0x284>
    4700:	002e0693          	addi	a3,t3,2
    4704:	0ec80463          	beq	a6,a2,47ec <core_state_transition+0x288>
    4708:	4d9c                	lw	a5,24(a1)
    470a:	fd080713          	addi	a4,a6,-48
    470e:	0ff77393          	andi	t2,a4,255
    4712:	00178f13          	addi	t5,a5,1
    4716:	4ea5                	li	t4,9
    4718:	01e5ac23          	sw	t5,24(a1)
    471c:	007ef563          	bleu	t2,t4,4726 <core_state_transition+0x1c2>
    4720:	87b6                	mv	a5,a3
    4722:	4705                	li	a4,1
    4724:	b7f9                	j	46f2 <core_state_transition+0x18e>
    4726:	002e4303          	lbu	t1,2(t3)
    472a:	0c030463          	beqz	t1,47f2 <core_state_transition+0x28e>
    472e:	003e0793          	addi	a5,t3,3
    4732:	02c30c63          	beq	t1,a2,476a <core_state_transition+0x206>
    4736:	4e25                	li	t3,9
    4738:	02c00f93          	li	t6,44
    473c:	fd030613          	addi	a2,t1,-48
    4740:	0ff67893          	andi	a7,a2,255
    4744:	011e7963          	bleu	a7,t3,4756 <core_state_transition+0x1f2>
    4748:	41d4                	lw	a3,4(a1)
    474a:	4705                	li	a4,1
    474c:	00168293          	addi	t0,a3,1
    4750:	0055a223          	sw	t0,4(a1)
    4754:	bd8d                	j	45c6 <core_state_transition+0x62>
    4756:	0016c303          	lbu	t1,1(a3)
    475a:	00178813          	addi	a6,a5,1
    475e:	86be                	mv	a3,a5
    4760:	00030563          	beqz	t1,476a <core_state_transition+0x206>
    4764:	87c2                	mv	a5,a6
    4766:	fdf31be3          	bne	t1,t6,473c <core_state_transition+0x1d8>
    476a:	471d                	li	a4,7
    476c:	bda9                	j	45c6 <core_state_transition+0x62>
    476e:	00164703          	lbu	a4,1(a2)
    4772:	00178313          	addi	t1,a5,1
    4776:	863e                	mv	a2,a5
    4778:	ec070de3          	beqz	a4,4652 <core_state_transition+0xee>
    477c:	879a                	mv	a5,t1
    477e:	e30716e3          	bne	a4,a6,45aa <core_state_transition+0x46>
    4782:	4711                	li	a4,4
    4784:	b589                	j	45c6 <core_state_transition+0x62>
    4786:	0145a303          	lw	t1,20(a1)
    478a:	87f2                	mv	a5,t3
    478c:	4705                	li	a4,1
    478e:	00130813          	addi	a6,t1,1
    4792:	0105aa23          	sw	a6,20(a1)
    4796:	bd05                	j	45c6 <core_state_transition+0x62>
    4798:	0075a423          	sw	t2,8(a1)
    479c:	0027c703          	lbu	a4,2(a5)
    47a0:	c329                	beqz	a4,47e2 <core_state_transition+0x27e>
    47a2:	02c00793          	li	a5,44
    47a6:	00160e13          	addi	t3,a2,1
    47aa:	02f70063          	beq	a4,a5,47ca <core_state_transition+0x266>
    47ae:	87b2                	mv	a5,a2
    47b0:	b5d9                	j	4676 <core_state_transition+0x112>
    47b2:	87b2                	mv	a5,a2
    47b4:	4701                	li	a4,0
    47b6:	bd01                	j	45c6 <core_state_transition+0x62>
    47b8:	0075a023          	sw	t2,0(a1)
    47bc:	0017c703          	lbu	a4,1(a5)
    47c0:	c30d                	beqz	a4,47e2 <core_state_transition+0x27e>
    47c2:	00278e13          	addi	t3,a5,2
    47c6:	fed714e3          	bne	a4,a3,47ae <core_state_transition+0x24a>
    47ca:	87f2                	mv	a5,t3
    47cc:	4715                	li	a4,5
    47ce:	bbe5                	j	45c6 <core_state_transition+0x62>
    47d0:	87b2                	mv	a5,a2
    47d2:	4709                	li	a4,2
    47d4:	bbcd                	j	45c6 <core_state_transition+0x62>
    47d6:	87f2                	mv	a5,t3
    47d8:	470d                	li	a4,3
    47da:	b3f5                	j	45c6 <core_state_transition+0x62>
    47dc:	87b2                	mv	a5,a2
    47de:	4711                	li	a4,4
    47e0:	b3dd                	j	45c6 <core_state_transition+0x62>
    47e2:	87b2                	mv	a5,a2
    47e4:	4715                	li	a4,5
    47e6:	b3c5                	j	45c6 <core_state_transition+0x62>
    47e8:	4719                	li	a4,6
    47ea:	bbf1                	j	45c6 <core_state_transition+0x62>
    47ec:	87b6                	mv	a5,a3
    47ee:	4719                	li	a4,6
    47f0:	bbd9                	j	45c6 <core_state_transition+0x62>
    47f2:	87b6                	mv	a5,a3
    47f4:	471d                	li	a4,7
    47f6:	bbc1                	j	45c6 <core_state_transition+0x62>
    47f8:	879e                	mv	a5,t2
    47fa:	4715                	li	a4,5
    47fc:	b3e9                	j	45c6 <core_state_transition+0x62>

000047fe <core_bench_state>:
    47fe:	7119                	addi	sp,sp,-128
    4800:	dca2                	sw	s0,120(sp)
    4802:	daa6                	sw	s1,116(sp)
    4804:	d6ce                	sw	s3,108(sp)
    4806:	d4d2                	sw	s4,104(sp)
    4808:	d0da                	sw	s6,96(sp)
    480a:	cede                	sw	s7,92(sp)
    480c:	de86                	sw	ra,124(sp)
    480e:	d8ca                	sw	s2,112(sp)
    4810:	d2d6                	sw	s5,100(sp)
    4812:	842e                	mv	s0,a1
    4814:	0005c583          	lbu	a1,0(a1)
    4818:	c622                	sw	s0,12(sp)
    481a:	d802                	sw	zero,48(sp)
    481c:	c802                	sw	zero,16(sp)
    481e:	da02                	sw	zero,52(sp)
    4820:	ca02                	sw	zero,20(sp)
    4822:	dc02                	sw	zero,56(sp)
    4824:	cc02                	sw	zero,24(sp)
    4826:	de02                	sw	zero,60(sp)
    4828:	ce02                	sw	zero,28(sp)
    482a:	c082                	sw	zero,64(sp)
    482c:	d002                	sw	zero,32(sp)
    482e:	c282                	sw	zero,68(sp)
    4830:	d202                	sw	zero,36(sp)
    4832:	c482                	sw	zero,72(sp)
    4834:	d402                	sw	zero,40(sp)
    4836:	c682                	sw	zero,76(sp)
    4838:	d602                	sw	zero,44(sp)
    483a:	8b2a                	mv	s6,a0
    483c:	8bb2                	mv	s7,a2
    483e:	8a36                	mv	s4,a3
    4840:	84ba                	mv	s1,a4
    4842:	89be                	mv	s3,a5
    4844:	0e058c63          	beqz	a1,493c <core_bench_state+0x13e>
    4848:	03010913          	addi	s2,sp,48
    484c:	00c10a93          	addi	s5,sp,12
    4850:	85ca                	mv	a1,s2
    4852:	8556                	mv	a0,s5
    4854:	3b01                	jal	4564 <core_state_transition>
    4856:	050a                	slli	a0,a0,0x2
    4858:	05010293          	addi	t0,sp,80
    485c:	00a28333          	add	t1,t0,a0
    4860:	4732                	lw	a4,12(sp)
    4862:	fc032383          	lw	t2,-64(t1)
    4866:	00074603          	lbu	a2,0(a4)
    486a:	00138693          	addi	a3,t2,1
    486e:	fcd32023          	sw	a3,-64(t1)
    4872:	fe79                	bnez	a2,4850 <core_bench_state+0x52>
    4874:	c622                	sw	s0,12(sp)
    4876:	9b22                	add	s6,s6,s0
    4878:	00044583          	lbu	a1,0(s0)
    487c:	87a2                	mv	a5,s0
    487e:	0d647763          	bleu	s6,s0,494c <core_bench_state+0x14e>
    4882:	88a2                	mv	a7,s0
    4884:	02c00093          	li	ra,44
    4888:	a021                	j	4890 <core_bench_state+0x92>
    488a:	c63e                	sw	a5,12(sp)
    488c:	0007c583          	lbu	a1,0(a5)
    4890:	0175c833          	xor	a6,a1,s7
    4894:	00158563          	beq	a1,ra,489e <core_bench_state+0xa0>
    4898:	01088023          	sb	a6,0(a7)
    489c:	47b2                	lw	a5,12(sp)
    489e:	97a6                	add	a5,a5,s1
    48a0:	88be                	mv	a7,a5
    48a2:	ff67e4e3          	bltu	a5,s6,488a <core_bench_state+0x8c>
    48a6:	00044e03          	lbu	t3,0(s0)
    48aa:	c622                	sw	s0,12(sp)
    48ac:	83a2                	mv	t2,s0
    48ae:	020e0b63          	beqz	t3,48e4 <core_bench_state+0xe6>
    48b2:	00c10a93          	addi	s5,sp,12
    48b6:	85ca                	mv	a1,s2
    48b8:	8556                	mv	a0,s5
    48ba:	316d                	jal	4564 <core_state_transition>
    48bc:	00251e93          	slli	t4,a0,0x2
    48c0:	05010f13          	addi	t5,sp,80
    48c4:	01df0fb3          	add	t6,t5,t4
    48c8:	4bb2                	lw	s7,12(sp)
    48ca:	fc0fa583          	lw	a1,-64(t6)
    48ce:	000bc503          	lbu	a0,0(s7)
    48d2:	00158793          	addi	a5,a1,1
    48d6:	fcffa023          	sw	a5,-64(t6)
    48da:	fd71                	bnez	a0,48b6 <core_bench_state+0xb8>
    48dc:	c622                	sw	s0,12(sp)
    48de:	83a2                	mv	t2,s0
    48e0:	03647263          	bleu	s6,s0,4904 <core_bench_state+0x106>
    48e4:	02c00a93          	li	s5,44
    48e8:	00044283          	lbu	t0,0(s0)
    48ec:	0142c333          	xor	t1,t0,s4
    48f0:	01528563          	beq	t0,s5,48fa <core_bench_state+0xfc>
    48f4:	00640023          	sb	t1,0(s0)
    48f8:	43b2                	lw	t2,12(sp)
    48fa:	93a6                	add	t2,t2,s1
    48fc:	c61e                	sw	t2,12(sp)
    48fe:	841e                	mv	s0,t2
    4900:	ff63e4e3          	bltu	t2,s6,48e8 <core_bench_state+0xea>
    4904:	01010a13          	addi	s4,sp,16
    4908:	84ca                	mv	s1,s2
    490a:	000a2503          	lw	a0,0(s4)
    490e:	85ce                	mv	a1,s3
    4910:	0a11                	addi	s4,s4,4
    4912:	a59ff0ef          	jal	ra,436a <crcu32>
    4916:	85aa                	mv	a1,a0
    4918:	4088                	lw	a0,0(s1)
    491a:	0491                	addi	s1,s1,4
    491c:	a4fff0ef          	jal	ra,436a <crcu32>
    4920:	89aa                	mv	s3,a0
    4922:	ff2a14e3          	bne	s4,s2,490a <core_bench_state+0x10c>
    4926:	50f6                	lw	ra,124(sp)
    4928:	5466                	lw	s0,120(sp)
    492a:	54d6                	lw	s1,116(sp)
    492c:	5946                	lw	s2,112(sp)
    492e:	59b6                	lw	s3,108(sp)
    4930:	5a26                	lw	s4,104(sp)
    4932:	5a96                	lw	s5,100(sp)
    4934:	5b06                	lw	s6,96(sp)
    4936:	4bf6                	lw	s7,92(sp)
    4938:	6109                	addi	sp,sp,128
    493a:	8082                	ret
    493c:	00a40b33          	add	s6,s0,a0
    4940:	87a2                	mv	a5,s0
    4942:	03010913          	addi	s2,sp,48
    4946:	f3646ee3          	bltu	s0,s6,4882 <core_bench_state+0x84>
    494a:	bf6d                	j	4904 <core_bench_state+0x106>
    494c:	f5ad                	bnez	a1,48b6 <core_bench_state+0xb8>
    494e:	bf5d                	j	4904 <core_bench_state+0x106>

00004950 <strnlen>:
    4950:	00b505b3          	add	a1,a0,a1
    4954:	00050793          	mv	a5,a0
    4958:	00b78663          	beq	a5,a1,4964 <strnlen+0x14>
    495c:	0007c703          	lbu	a4,0(a5)
    4960:	00071663          	bnez	a4,496c <strnlen+0x1c>
    4964:	40a78533          	sub	a0,a5,a0
    4968:	00008067          	ret
    496c:	00178793          	addi	a5,a5,1
    4970:	fe9ff06f          	j	4958 <strnlen+0x8>
    4974:	0000                	unimp
	...

00004978 <__moddi3>:
    4978:	00000893          	li	a7,0
    497c:	0005dc63          	bgez	a1,4994 <__moddi3+0x1c>
    4980:	40a00533          	neg	a0,a0
    4984:	00a037b3          	snez	a5,a0
    4988:	40b005b3          	neg	a1,a1
    498c:	40f585b3          	sub	a1,a1,a5
    4990:	fff00893          	li	a7,-1
    4994:	0006da63          	bgez	a3,49a8 <__moddi3+0x30>
    4998:	40c00633          	neg	a2,a2
    499c:	00c037b3          	snez	a5,a2
    49a0:	40d006b3          	neg	a3,a3
    49a4:	40f686b3          	sub	a3,a3,a5
    49a8:	00060813          	mv	a6,a2
    49ac:	00068313          	mv	t1,a3
    49b0:	00050793          	mv	a5,a0
    49b4:	00058713          	mv	a4,a1
    49b8:	24069863          	bnez	a3,4c08 <__moddi3+0x290>
    49bc:	000066b7          	lui	a3,0x6
    49c0:	d0c68693          	addi	a3,a3,-756 # 5d0c <__clz_tab>
    49c4:	0ec5f863          	bleu	a2,a1,4ab4 <__moddi3+0x13c>
    49c8:	00010e37          	lui	t3,0x10
    49cc:	0dc67a63          	bleu	t3,a2,4aa0 <__moddi3+0x128>
    49d0:	0ff00e13          	li	t3,255
    49d4:	00ce7463          	bleu	a2,t3,49dc <__moddi3+0x64>
    49d8:	00800313          	li	t1,8
    49dc:	00665e33          	srl	t3,a2,t1
    49e0:	01c686b3          	add	a3,a3,t3
    49e4:	0006ce03          	lbu	t3,0(a3)
    49e8:	006e0e33          	add	t3,t3,t1
    49ec:	02000313          	li	t1,32
    49f0:	41c30333          	sub	t1,t1,t3
    49f4:	00030c63          	beqz	t1,4a0c <__moddi3+0x94>
    49f8:	006595b3          	sll	a1,a1,t1
    49fc:	01c55e33          	srl	t3,a0,t3
    4a00:	00661833          	sll	a6,a2,t1
    4a04:	00be6733          	or	a4,t3,a1
    4a08:	006517b3          	sll	a5,a0,t1
    4a0c:	01085593          	srli	a1,a6,0x10
    4a10:	02b77633          	remu	a2,a4,a1
    4a14:	01081513          	slli	a0,a6,0x10
    4a18:	01055513          	srli	a0,a0,0x10
    4a1c:	0107d693          	srli	a3,a5,0x10
    4a20:	02b75733          	divu	a4,a4,a1
    4a24:	01061613          	slli	a2,a2,0x10
    4a28:	00d666b3          	or	a3,a2,a3
    4a2c:	02e50733          	mul	a4,a0,a4
    4a30:	00e6fa63          	bleu	a4,a3,4a44 <__moddi3+0xcc>
    4a34:	010686b3          	add	a3,a3,a6
    4a38:	0106e663          	bltu	a3,a6,4a44 <__moddi3+0xcc>
    4a3c:	00e6f463          	bleu	a4,a3,4a44 <__moddi3+0xcc>
    4a40:	010686b3          	add	a3,a3,a6
    4a44:	40e686b3          	sub	a3,a3,a4
    4a48:	02b6f733          	remu	a4,a3,a1
    4a4c:	01079793          	slli	a5,a5,0x10
    4a50:	0107d793          	srli	a5,a5,0x10
    4a54:	02b6d6b3          	divu	a3,a3,a1
    4a58:	02d506b3          	mul	a3,a0,a3
    4a5c:	01071513          	slli	a0,a4,0x10
    4a60:	00f567b3          	or	a5,a0,a5
    4a64:	00d7fa63          	bleu	a3,a5,4a78 <__moddi3+0x100>
    4a68:	010787b3          	add	a5,a5,a6
    4a6c:	0107e663          	bltu	a5,a6,4a78 <__moddi3+0x100>
    4a70:	00d7f463          	bleu	a3,a5,4a78 <__moddi3+0x100>
    4a74:	010787b3          	add	a5,a5,a6
    4a78:	40d787b3          	sub	a5,a5,a3
    4a7c:	0067d533          	srl	a0,a5,t1
    4a80:	00000593          	li	a1,0
    4a84:	00088c63          	beqz	a7,4a9c <__moddi3+0x124>
    4a88:	40a007b3          	neg	a5,a0
    4a8c:	00f03733          	snez	a4,a5
    4a90:	40b005b3          	neg	a1,a1
    4a94:	00078513          	mv	a0,a5
    4a98:	40e585b3          	sub	a1,a1,a4
    4a9c:	00008067          	ret
    4aa0:	01000e37          	lui	t3,0x1000
    4aa4:	01000313          	li	t1,16
    4aa8:	f3c66ae3          	bltu	a2,t3,49dc <__moddi3+0x64>
    4aac:	01800313          	li	t1,24
    4ab0:	f2dff06f          	j	49dc <__moddi3+0x64>
    4ab4:	00061663          	bnez	a2,4ac0 <__moddi3+0x148>
    4ab8:	00100813          	li	a6,1
    4abc:	02685833          	divu	a6,a6,t1
    4ac0:	00010737          	lui	a4,0x10
    4ac4:	0ae87263          	bleu	a4,a6,4b68 <__moddi3+0x1f0>
    4ac8:	0ff00713          	li	a4,255
    4acc:	01077463          	bleu	a6,a4,4ad4 <__moddi3+0x15c>
    4ad0:	00800313          	li	t1,8
    4ad4:	00685733          	srl	a4,a6,t1
    4ad8:	00e686b3          	add	a3,a3,a4
    4adc:	0006ce03          	lbu	t3,0(a3)
    4ae0:	006e0e33          	add	t3,t3,t1
    4ae4:	02000313          	li	t1,32
    4ae8:	41c30333          	sub	t1,t1,t3
    4aec:	08031863          	bnez	t1,4b7c <__moddi3+0x204>
    4af0:	410585b3          	sub	a1,a1,a6
    4af4:	01085693          	srli	a3,a6,0x10
    4af8:	01081513          	slli	a0,a6,0x10
    4afc:	01055513          	srli	a0,a0,0x10
    4b00:	0107d613          	srli	a2,a5,0x10
    4b04:	02d5f733          	remu	a4,a1,a3
    4b08:	02d5d5b3          	divu	a1,a1,a3
    4b0c:	01071713          	slli	a4,a4,0x10
    4b10:	00c76733          	or	a4,a4,a2
    4b14:	02b505b3          	mul	a1,a0,a1
    4b18:	00b77a63          	bleu	a1,a4,4b2c <__moddi3+0x1b4>
    4b1c:	01070733          	add	a4,a4,a6
    4b20:	01076663          	bltu	a4,a6,4b2c <__moddi3+0x1b4>
    4b24:	00b77463          	bleu	a1,a4,4b2c <__moddi3+0x1b4>
    4b28:	01070733          	add	a4,a4,a6
    4b2c:	40b705b3          	sub	a1,a4,a1
    4b30:	02d5f733          	remu	a4,a1,a3
    4b34:	01079793          	slli	a5,a5,0x10
    4b38:	0107d793          	srli	a5,a5,0x10
    4b3c:	02d5d5b3          	divu	a1,a1,a3
    4b40:	02b505b3          	mul	a1,a0,a1
    4b44:	01071513          	slli	a0,a4,0x10
    4b48:	00f567b3          	or	a5,a0,a5
    4b4c:	00b7fa63          	bleu	a1,a5,4b60 <__moddi3+0x1e8>
    4b50:	010787b3          	add	a5,a5,a6
    4b54:	0107e663          	bltu	a5,a6,4b60 <__moddi3+0x1e8>
    4b58:	00b7f463          	bleu	a1,a5,4b60 <__moddi3+0x1e8>
    4b5c:	010787b3          	add	a5,a5,a6
    4b60:	40b787b3          	sub	a5,a5,a1
    4b64:	f19ff06f          	j	4a7c <__moddi3+0x104>
    4b68:	01000737          	lui	a4,0x1000
    4b6c:	01000313          	li	t1,16
    4b70:	f6e862e3          	bltu	a6,a4,4ad4 <__moddi3+0x15c>
    4b74:	01800313          	li	t1,24
    4b78:	f5dff06f          	j	4ad4 <__moddi3+0x15c>
    4b7c:	00681833          	sll	a6,a6,t1
    4b80:	01c5deb3          	srl	t4,a1,t3
    4b84:	006517b3          	sll	a5,a0,t1
    4b88:	01c55e33          	srl	t3,a0,t3
    4b8c:	01085513          	srli	a0,a6,0x10
    4b90:	02aed6b3          	divu	a3,t4,a0
    4b94:	006595b3          	sll	a1,a1,t1
    4b98:	00be6e33          	or	t3,t3,a1
    4b9c:	01081593          	slli	a1,a6,0x10
    4ba0:	0105d593          	srli	a1,a1,0x10
    4ba4:	010e5613          	srli	a2,t3,0x10
    4ba8:	02aef733          	remu	a4,t4,a0
    4bac:	02d586b3          	mul	a3,a1,a3
    4bb0:	01071713          	slli	a4,a4,0x10
    4bb4:	00c76733          	or	a4,a4,a2
    4bb8:	00d77a63          	bleu	a3,a4,4bcc <__moddi3+0x254>
    4bbc:	01070733          	add	a4,a4,a6
    4bc0:	01076663          	bltu	a4,a6,4bcc <__moddi3+0x254>
    4bc4:	00d77463          	bleu	a3,a4,4bcc <__moddi3+0x254>
    4bc8:	01070733          	add	a4,a4,a6
    4bcc:	40d70633          	sub	a2,a4,a3
    4bd0:	02a67733          	remu	a4,a2,a0
    4bd4:	010e1e13          	slli	t3,t3,0x10
    4bd8:	010e5e13          	srli	t3,t3,0x10
    4bdc:	02a65633          	divu	a2,a2,a0
    4be0:	01071713          	slli	a4,a4,0x10
    4be4:	02c58633          	mul	a2,a1,a2
    4be8:	01c765b3          	or	a1,a4,t3
    4bec:	00c5fa63          	bleu	a2,a1,4c00 <__moddi3+0x288>
    4bf0:	010585b3          	add	a1,a1,a6
    4bf4:	0105e663          	bltu	a1,a6,4c00 <__moddi3+0x288>
    4bf8:	00c5f463          	bleu	a2,a1,4c00 <__moddi3+0x288>
    4bfc:	010585b3          	add	a1,a1,a6
    4c00:	40c585b3          	sub	a1,a1,a2
    4c04:	ef1ff06f          	j	4af4 <__moddi3+0x17c>
    4c08:	e6d5eee3          	bltu	a1,a3,4a84 <__moddi3+0x10c>
    4c0c:	00010837          	lui	a6,0x10
    4c10:	0506fc63          	bleu	a6,a3,4c68 <__moddi3+0x2f0>
    4c14:	0ff00e93          	li	t4,255
    4c18:	00deb833          	sltu	a6,t4,a3
    4c1c:	00381813          	slli	a6,a6,0x3
    4c20:	00006e37          	lui	t3,0x6
    4c24:	d0ce0e13          	addi	t3,t3,-756 # 5d0c <__clz_tab>
    4c28:	0106d333          	srl	t1,a3,a6
    4c2c:	01c30333          	add	t1,t1,t3
    4c30:	00034e83          	lbu	t4,0(t1)
    4c34:	02000e13          	li	t3,32
    4c38:	010e8eb3          	add	t4,t4,a6
    4c3c:	41de0e33          	sub	t3,t3,t4
    4c40:	020e1e63          	bnez	t3,4c7c <__moddi3+0x304>
    4c44:	00b6e463          	bltu	a3,a1,4c4c <__moddi3+0x2d4>
    4c48:	00c56a63          	bltu	a0,a2,4c5c <__moddi3+0x2e4>
    4c4c:	40c507b3          	sub	a5,a0,a2
    4c50:	40d586b3          	sub	a3,a1,a3
    4c54:	00f53533          	sltu	a0,a0,a5
    4c58:	40a68733          	sub	a4,a3,a0
    4c5c:	00078513          	mv	a0,a5
    4c60:	00070593          	mv	a1,a4
    4c64:	e21ff06f          	j	4a84 <__moddi3+0x10c>
    4c68:	01000337          	lui	t1,0x1000
    4c6c:	01000813          	li	a6,16
    4c70:	fa66e8e3          	bltu	a3,t1,4c20 <__moddi3+0x2a8>
    4c74:	01800813          	li	a6,24
    4c78:	fa9ff06f          	j	4c20 <__moddi3+0x2a8>
    4c7c:	01d65733          	srl	a4,a2,t4
    4c80:	01c696b3          	sll	a3,a3,t3
    4c84:	00d766b3          	or	a3,a4,a3
    4c88:	01d5d7b3          	srl	a5,a1,t4
    4c8c:	01d55733          	srl	a4,a0,t4
    4c90:	01c595b3          	sll	a1,a1,t3
    4c94:	00b76733          	or	a4,a4,a1
    4c98:	0106d593          	srli	a1,a3,0x10
    4c9c:	02b7f333          	remu	t1,a5,a1
    4ca0:	01069f13          	slli	t5,a3,0x10
    4ca4:	010f5f13          	srli	t5,t5,0x10
    4ca8:	01075813          	srli	a6,a4,0x10
    4cac:	01c61633          	sll	a2,a2,t3
    4cb0:	01c51533          	sll	a0,a0,t3
    4cb4:	02b7d7b3          	divu	a5,a5,a1
    4cb8:	01031313          	slli	t1,t1,0x10
    4cbc:	01036833          	or	a6,t1,a6
    4cc0:	02ff0fb3          	mul	t6,t5,a5
    4cc4:	00078313          	mv	t1,a5
    4cc8:	01f87e63          	bleu	t6,a6,4ce4 <__moddi3+0x36c>
    4ccc:	00d80833          	add	a6,a6,a3
    4cd0:	fff78313          	addi	t1,a5,-1
    4cd4:	00d86863          	bltu	a6,a3,4ce4 <__moddi3+0x36c>
    4cd8:	01f87663          	bleu	t6,a6,4ce4 <__moddi3+0x36c>
    4cdc:	ffe78313          	addi	t1,a5,-2
    4ce0:	00d80833          	add	a6,a6,a3
    4ce4:	41f80833          	sub	a6,a6,t6
    4ce8:	02b87fb3          	remu	t6,a6,a1
    4cec:	02b85833          	divu	a6,a6,a1
    4cf0:	010f9f93          	slli	t6,t6,0x10
    4cf4:	030f05b3          	mul	a1,t5,a6
    4cf8:	01071f13          	slli	t5,a4,0x10
    4cfc:	010f5f13          	srli	t5,t5,0x10
    4d00:	01efef33          	or	t5,t6,t5
    4d04:	00080713          	mv	a4,a6
    4d08:	00bf7e63          	bleu	a1,t5,4d24 <__moddi3+0x3ac>
    4d0c:	00df0f33          	add	t5,t5,a3
    4d10:	fff80713          	addi	a4,a6,-1 # ffff <__BSS_END__+0x99bf>
    4d14:	00df6863          	bltu	t5,a3,4d24 <__moddi3+0x3ac>
    4d18:	00bf7663          	bleu	a1,t5,4d24 <__moddi3+0x3ac>
    4d1c:	ffe80713          	addi	a4,a6,-2
    4d20:	00df0f33          	add	t5,t5,a3
    4d24:	01031313          	slli	t1,t1,0x10
    4d28:	00010fb7          	lui	t6,0x10
    4d2c:	00e36333          	or	t1,t1,a4
    4d30:	ffff8793          	addi	a5,t6,-1 # ffff <__BSS_END__+0x99bf>
    4d34:	01065813          	srli	a6,a2,0x10
    4d38:	40bf0f33          	sub	t5,t5,a1
    4d3c:	00f375b3          	and	a1,t1,a5
    4d40:	01035313          	srli	t1,t1,0x10
    4d44:	00f677b3          	and	a5,a2,a5
    4d48:	02f58733          	mul	a4,a1,a5
    4d4c:	02f307b3          	mul	a5,t1,a5
    4d50:	030585b3          	mul	a1,a1,a6
    4d54:	03030333          	mul	t1,t1,a6
    4d58:	00f585b3          	add	a1,a1,a5
    4d5c:	01075813          	srli	a6,a4,0x10
    4d60:	00b80833          	add	a6,a6,a1
    4d64:	00f87463          	bleu	a5,a6,4d6c <__moddi3+0x3f4>
    4d68:	01f30333          	add	t1,t1,t6
    4d6c:	000107b7          	lui	a5,0x10
    4d70:	fff78793          	addi	a5,a5,-1 # ffff <__BSS_END__+0x99bf>
    4d74:	01085593          	srli	a1,a6,0x10
    4d78:	00f87833          	and	a6,a6,a5
    4d7c:	01081813          	slli	a6,a6,0x10
    4d80:	00f77733          	and	a4,a4,a5
    4d84:	006585b3          	add	a1,a1,t1
    4d88:	00e80733          	add	a4,a6,a4
    4d8c:	00bf6663          	bltu	t5,a1,4d98 <__moddi3+0x420>
    4d90:	00bf1e63          	bne	t5,a1,4dac <__moddi3+0x434>
    4d94:	00e57c63          	bleu	a4,a0,4dac <__moddi3+0x434>
    4d98:	40c70633          	sub	a2,a4,a2
    4d9c:	00c73733          	sltu	a4,a4,a2
    4da0:	40d585b3          	sub	a1,a1,a3
    4da4:	40e585b3          	sub	a1,a1,a4
    4da8:	00060713          	mv	a4,a2
    4dac:	40e50733          	sub	a4,a0,a4
    4db0:	00e53533          	sltu	a0,a0,a4
    4db4:	40bf05b3          	sub	a1,t5,a1
    4db8:	40a585b3          	sub	a1,a1,a0
    4dbc:	01d597b3          	sll	a5,a1,t4
    4dc0:	01c75733          	srl	a4,a4,t3
    4dc4:	00e7e533          	or	a0,a5,a4
    4dc8:	01c5d5b3          	srl	a1,a1,t3
    4dcc:	cb9ff06f          	j	4a84 <__moddi3+0x10c>
    4dd0:	0000                	unimp
	...

00004dd4 <__udivdi3>:
    4dd4:	00058793          	mv	a5,a1
    4dd8:	00060813          	mv	a6,a2
    4ddc:	00068893          	mv	a7,a3
    4de0:	00050313          	mv	t1,a0
    4de4:	28069663          	bnez	a3,5070 <__udivdi3+0x29c>
    4de8:	00006737          	lui	a4,0x6
    4dec:	d0c70713          	addi	a4,a4,-756 # 5d0c <__clz_tab>
    4df0:	0ec5f663          	bleu	a2,a1,4edc <__udivdi3+0x108>
    4df4:	000106b7          	lui	a3,0x10
    4df8:	0cd67863          	bleu	a3,a2,4ec8 <__udivdi3+0xf4>
    4dfc:	0ff00693          	li	a3,255
    4e00:	00c6b6b3          	sltu	a3,a3,a2
    4e04:	00369693          	slli	a3,a3,0x3
    4e08:	00d658b3          	srl	a7,a2,a3
    4e0c:	01170733          	add	a4,a4,a7
    4e10:	00074703          	lbu	a4,0(a4)
    4e14:	00d706b3          	add	a3,a4,a3
    4e18:	02000713          	li	a4,32
    4e1c:	40d70733          	sub	a4,a4,a3
    4e20:	00070c63          	beqz	a4,4e38 <__udivdi3+0x64>
    4e24:	00e797b3          	sll	a5,a5,a4
    4e28:	00d556b3          	srl	a3,a0,a3
    4e2c:	00e61833          	sll	a6,a2,a4
    4e30:	00f6e5b3          	or	a1,a3,a5
    4e34:	00e51333          	sll	t1,a0,a4
    4e38:	01085513          	srli	a0,a6,0x10
    4e3c:	02a5d7b3          	divu	a5,a1,a0
    4e40:	01081613          	slli	a2,a6,0x10
    4e44:	01065613          	srli	a2,a2,0x10
    4e48:	01035693          	srli	a3,t1,0x10
    4e4c:	02a5f733          	remu	a4,a1,a0
    4e50:	02f605b3          	mul	a1,a2,a5
    4e54:	01071713          	slli	a4,a4,0x10
    4e58:	00d766b3          	or	a3,a4,a3
    4e5c:	00078713          	mv	a4,a5
    4e60:	00b6fe63          	bleu	a1,a3,4e7c <__udivdi3+0xa8>
    4e64:	010686b3          	add	a3,a3,a6
    4e68:	fff78713          	addi	a4,a5,-1
    4e6c:	0106e863          	bltu	a3,a6,4e7c <__udivdi3+0xa8>
    4e70:	00b6f663          	bleu	a1,a3,4e7c <__udivdi3+0xa8>
    4e74:	ffe78713          	addi	a4,a5,-2
    4e78:	010686b3          	add	a3,a3,a6
    4e7c:	40b686b3          	sub	a3,a3,a1
    4e80:	02a6f7b3          	remu	a5,a3,a0
    4e84:	01031313          	slli	t1,t1,0x10
    4e88:	01035313          	srli	t1,t1,0x10
    4e8c:	02a6d6b3          	divu	a3,a3,a0
    4e90:	01079793          	slli	a5,a5,0x10
    4e94:	0067e333          	or	t1,a5,t1
    4e98:	02d605b3          	mul	a1,a2,a3
    4e9c:	00068513          	mv	a0,a3
    4ea0:	00b37c63          	bleu	a1,t1,4eb8 <__udivdi3+0xe4>
    4ea4:	00680333          	add	t1,a6,t1
    4ea8:	fff68513          	addi	a0,a3,-1 # ffff <__BSS_END__+0x99bf>
    4eac:	01036663          	bltu	t1,a6,4eb8 <__udivdi3+0xe4>
    4eb0:	00b37463          	bleu	a1,t1,4eb8 <__udivdi3+0xe4>
    4eb4:	ffe68513          	addi	a0,a3,-2
    4eb8:	01071713          	slli	a4,a4,0x10
    4ebc:	00a76733          	or	a4,a4,a0
    4ec0:	00000593          	li	a1,0
    4ec4:	0e40006f          	j	4fa8 <__udivdi3+0x1d4>
    4ec8:	010008b7          	lui	a7,0x1000
    4ecc:	01000693          	li	a3,16
    4ed0:	f3166ce3          	bltu	a2,a7,4e08 <__udivdi3+0x34>
    4ed4:	01800693          	li	a3,24
    4ed8:	f31ff06f          	j	4e08 <__udivdi3+0x34>
    4edc:	00061663          	bnez	a2,4ee8 <__udivdi3+0x114>
    4ee0:	00100693          	li	a3,1
    4ee4:	02c6d833          	divu	a6,a3,a2
    4ee8:	000106b7          	lui	a3,0x10
    4eec:	0cd87263          	bleu	a3,a6,4fb0 <__udivdi3+0x1dc>
    4ef0:	0ff00693          	li	a3,255
    4ef4:	0106f463          	bleu	a6,a3,4efc <__udivdi3+0x128>
    4ef8:	00800893          	li	a7,8
    4efc:	011856b3          	srl	a3,a6,a7
    4f00:	00d70733          	add	a4,a4,a3
    4f04:	00074683          	lbu	a3,0(a4)
    4f08:	02000713          	li	a4,32
    4f0c:	011686b3          	add	a3,a3,a7
    4f10:	40d70733          	sub	a4,a4,a3
    4f14:	0a071863          	bnez	a4,4fc4 <__udivdi3+0x1f0>
    4f18:	410787b3          	sub	a5,a5,a6
    4f1c:	00100593          	li	a1,1
    4f20:	01085613          	srli	a2,a6,0x10
    4f24:	01081893          	slli	a7,a6,0x10
    4f28:	0108d893          	srli	a7,a7,0x10
    4f2c:	01035693          	srli	a3,t1,0x10
    4f30:	02c7f733          	remu	a4,a5,a2
    4f34:	02c7d7b3          	divu	a5,a5,a2
    4f38:	01071713          	slli	a4,a4,0x10
    4f3c:	00d766b3          	or	a3,a4,a3
    4f40:	02f88533          	mul	a0,a7,a5
    4f44:	00078713          	mv	a4,a5
    4f48:	00a6fe63          	bleu	a0,a3,4f64 <__udivdi3+0x190>
    4f4c:	010686b3          	add	a3,a3,a6
    4f50:	fff78713          	addi	a4,a5,-1
    4f54:	0106e863          	bltu	a3,a6,4f64 <__udivdi3+0x190>
    4f58:	00a6f663          	bleu	a0,a3,4f64 <__udivdi3+0x190>
    4f5c:	ffe78713          	addi	a4,a5,-2
    4f60:	010686b3          	add	a3,a3,a6
    4f64:	40a686b3          	sub	a3,a3,a0
    4f68:	02c6f7b3          	remu	a5,a3,a2
    4f6c:	01031313          	slli	t1,t1,0x10
    4f70:	01035313          	srli	t1,t1,0x10
    4f74:	02c6d6b3          	divu	a3,a3,a2
    4f78:	01079793          	slli	a5,a5,0x10
    4f7c:	0067e333          	or	t1,a5,t1
    4f80:	02d888b3          	mul	a7,a7,a3
    4f84:	00068513          	mv	a0,a3
    4f88:	01137c63          	bleu	a7,t1,4fa0 <__udivdi3+0x1cc>
    4f8c:	00680333          	add	t1,a6,t1
    4f90:	fff68513          	addi	a0,a3,-1 # ffff <__BSS_END__+0x99bf>
    4f94:	01036663          	bltu	t1,a6,4fa0 <__udivdi3+0x1cc>
    4f98:	01137463          	bleu	a7,t1,4fa0 <__udivdi3+0x1cc>
    4f9c:	ffe68513          	addi	a0,a3,-2
    4fa0:	01071713          	slli	a4,a4,0x10
    4fa4:	00a76733          	or	a4,a4,a0
    4fa8:	00070513          	mv	a0,a4
    4fac:	00008067          	ret
    4fb0:	010006b7          	lui	a3,0x1000
    4fb4:	01000893          	li	a7,16
    4fb8:	f4d862e3          	bltu	a6,a3,4efc <__udivdi3+0x128>
    4fbc:	01800893          	li	a7,24
    4fc0:	f3dff06f          	j	4efc <__udivdi3+0x128>
    4fc4:	00e81833          	sll	a6,a6,a4
    4fc8:	00d7d5b3          	srl	a1,a5,a3
    4fcc:	00e51333          	sll	t1,a0,a4
    4fd0:	00d556b3          	srl	a3,a0,a3
    4fd4:	01085513          	srli	a0,a6,0x10
    4fd8:	00e797b3          	sll	a5,a5,a4
    4fdc:	02a5f733          	remu	a4,a1,a0
    4fe0:	00f6e8b3          	or	a7,a3,a5
    4fe4:	01081793          	slli	a5,a6,0x10
    4fe8:	0107d793          	srli	a5,a5,0x10
    4fec:	0108d613          	srli	a2,a7,0x10
    4ff0:	02a5d5b3          	divu	a1,a1,a0
    4ff4:	01071713          	slli	a4,a4,0x10
    4ff8:	00c76733          	or	a4,a4,a2
    4ffc:	02b786b3          	mul	a3,a5,a1
    5000:	00058613          	mv	a2,a1
    5004:	00d77e63          	bleu	a3,a4,5020 <__udivdi3+0x24c>
    5008:	01070733          	add	a4,a4,a6
    500c:	fff58613          	addi	a2,a1,-1
    5010:	01076863          	bltu	a4,a6,5020 <__udivdi3+0x24c>
    5014:	00d77663          	bleu	a3,a4,5020 <__udivdi3+0x24c>
    5018:	ffe58613          	addi	a2,a1,-2
    501c:	01070733          	add	a4,a4,a6
    5020:	40d706b3          	sub	a3,a4,a3
    5024:	02a6f733          	remu	a4,a3,a0
    5028:	01089893          	slli	a7,a7,0x10
    502c:	0108d893          	srli	a7,a7,0x10
    5030:	02a6d6b3          	divu	a3,a3,a0
    5034:	01071713          	slli	a4,a4,0x10
    5038:	02d785b3          	mul	a1,a5,a3
    503c:	011767b3          	or	a5,a4,a7
    5040:	00068713          	mv	a4,a3
    5044:	00b7fe63          	bleu	a1,a5,5060 <__udivdi3+0x28c>
    5048:	010787b3          	add	a5,a5,a6
    504c:	fff68713          	addi	a4,a3,-1 # ffffff <__C_STACK_TOP__+0xfeffff>
    5050:	0107e863          	bltu	a5,a6,5060 <__udivdi3+0x28c>
    5054:	00b7f663          	bleu	a1,a5,5060 <__udivdi3+0x28c>
    5058:	ffe68713          	addi	a4,a3,-2
    505c:	010787b3          	add	a5,a5,a6
    5060:	40b787b3          	sub	a5,a5,a1
    5064:	01061593          	slli	a1,a2,0x10
    5068:	00e5e5b3          	or	a1,a1,a4
    506c:	eb5ff06f          	j	4f20 <__udivdi3+0x14c>
    5070:	18d5e663          	bltu	a1,a3,51fc <__udivdi3+0x428>
    5074:	00010737          	lui	a4,0x10
    5078:	04e6f463          	bleu	a4,a3,50c0 <__udivdi3+0x2ec>
    507c:	0ff00813          	li	a6,255
    5080:	00d83733          	sltu	a4,a6,a3
    5084:	00371713          	slli	a4,a4,0x3
    5088:	00006837          	lui	a6,0x6
    508c:	d0c80813          	addi	a6,a6,-756 # 5d0c <__clz_tab>
    5090:	00e6d5b3          	srl	a1,a3,a4
    5094:	010585b3          	add	a1,a1,a6
    5098:	0005c803          	lbu	a6,0(a1)
    509c:	02000593          	li	a1,32
    50a0:	00e80833          	add	a6,a6,a4
    50a4:	410585b3          	sub	a1,a1,a6
    50a8:	02059663          	bnez	a1,50d4 <__udivdi3+0x300>
    50ac:	00100713          	li	a4,1
    50b0:	eef6ece3          	bltu	a3,a5,4fa8 <__udivdi3+0x1d4>
    50b4:	00c53533          	sltu	a0,a0,a2
    50b8:	00154713          	xori	a4,a0,1
    50bc:	eedff06f          	j	4fa8 <__udivdi3+0x1d4>
    50c0:	010005b7          	lui	a1,0x1000
    50c4:	01000713          	li	a4,16
    50c8:	fcb6e0e3          	bltu	a3,a1,5088 <__udivdi3+0x2b4>
    50cc:	01800713          	li	a4,24
    50d0:	fb9ff06f          	j	5088 <__udivdi3+0x2b4>
    50d4:	01065733          	srl	a4,a2,a6
    50d8:	00b696b3          	sll	a3,a3,a1
    50dc:	00d766b3          	or	a3,a4,a3
    50e0:	0106de93          	srli	t4,a3,0x10
    50e4:	0107d733          	srl	a4,a5,a6
    50e8:	03d778b3          	remu	a7,a4,t4
    50ec:	00b797b3          	sll	a5,a5,a1
    50f0:	01055833          	srl	a6,a0,a6
    50f4:	00f86333          	or	t1,a6,a5
    50f8:	01069793          	slli	a5,a3,0x10
    50fc:	0107d793          	srli	a5,a5,0x10
    5100:	01035813          	srli	a6,t1,0x10
    5104:	00b61633          	sll	a2,a2,a1
    5108:	03d75733          	divu	a4,a4,t4
    510c:	01089893          	slli	a7,a7,0x10
    5110:	0108e833          	or	a6,a7,a6
    5114:	02e78f33          	mul	t5,a5,a4
    5118:	00070e13          	mv	t3,a4
    511c:	01e87e63          	bleu	t5,a6,5138 <__udivdi3+0x364>
    5120:	00d80833          	add	a6,a6,a3
    5124:	fff70e13          	addi	t3,a4,-1 # ffff <__BSS_END__+0x99bf>
    5128:	00d86863          	bltu	a6,a3,5138 <__udivdi3+0x364>
    512c:	01e87663          	bleu	t5,a6,5138 <__udivdi3+0x364>
    5130:	ffe70e13          	addi	t3,a4,-2
    5134:	00d80833          	add	a6,a6,a3
    5138:	41e80833          	sub	a6,a6,t5
    513c:	03d878b3          	remu	a7,a6,t4
    5140:	03d85833          	divu	a6,a6,t4
    5144:	01089893          	slli	a7,a7,0x10
    5148:	03078eb3          	mul	t4,a5,a6
    514c:	01031793          	slli	a5,t1,0x10
    5150:	0107d793          	srli	a5,a5,0x10
    5154:	00f8e7b3          	or	a5,a7,a5
    5158:	00080713          	mv	a4,a6
    515c:	01d7fe63          	bleu	t4,a5,5178 <__udivdi3+0x3a4>
    5160:	00d787b3          	add	a5,a5,a3
    5164:	fff80713          	addi	a4,a6,-1
    5168:	00d7e863          	bltu	a5,a3,5178 <__udivdi3+0x3a4>
    516c:	01d7f663          	bleu	t4,a5,5178 <__udivdi3+0x3a4>
    5170:	ffe80713          	addi	a4,a6,-2
    5174:	00d787b3          	add	a5,a5,a3
    5178:	010e1e13          	slli	t3,t3,0x10
    517c:	41d787b3          	sub	a5,a5,t4
    5180:	00010eb7          	lui	t4,0x10
    5184:	00ee6733          	or	a4,t3,a4
    5188:	fffe8813          	addi	a6,t4,-1 # ffff <__BSS_END__+0x99bf>
    518c:	01077333          	and	t1,a4,a6
    5190:	01075893          	srli	a7,a4,0x10
    5194:	01067833          	and	a6,a2,a6
    5198:	01065613          	srli	a2,a2,0x10
    519c:	03030e33          	mul	t3,t1,a6
    51a0:	03088833          	mul	a6,a7,a6
    51a4:	010e5693          	srli	a3,t3,0x10
    51a8:	02c30333          	mul	t1,t1,a2
    51ac:	01030333          	add	t1,t1,a6
    51b0:	006686b3          	add	a3,a3,t1
    51b4:	02c888b3          	mul	a7,a7,a2
    51b8:	0106f463          	bleu	a6,a3,51c0 <__udivdi3+0x3ec>
    51bc:	01d888b3          	add	a7,a7,t4
    51c0:	0106d613          	srli	a2,a3,0x10
    51c4:	011608b3          	add	a7,a2,a7
    51c8:	0317e663          	bltu	a5,a7,51f4 <__udivdi3+0x420>
    51cc:	cf179ae3          	bne	a5,a7,4ec0 <__udivdi3+0xec>
    51d0:	000107b7          	lui	a5,0x10
    51d4:	fff78793          	addi	a5,a5,-1 # ffff <__BSS_END__+0x99bf>
    51d8:	00f6f6b3          	and	a3,a3,a5
    51dc:	01069693          	slli	a3,a3,0x10
    51e0:	00fe7e33          	and	t3,t3,a5
    51e4:	00b51533          	sll	a0,a0,a1
    51e8:	01c686b3          	add	a3,a3,t3
    51ec:	00000593          	li	a1,0
    51f0:	dad57ce3          	bleu	a3,a0,4fa8 <__udivdi3+0x1d4>
    51f4:	fff70713          	addi	a4,a4,-1
    51f8:	cc9ff06f          	j	4ec0 <__udivdi3+0xec>
    51fc:	00000593          	li	a1,0
    5200:	00000713          	li	a4,0
    5204:	da5ff06f          	j	4fa8 <__udivdi3+0x1d4>
    5208:	0000                	unimp
	...

0000520c <__umoddi3>:
    520c:	00060893          	mv	a7,a2
    5210:	00068713          	mv	a4,a3
    5214:	00050793          	mv	a5,a0
    5218:	00058813          	mv	a6,a1
    521c:	22069c63          	bnez	a3,5454 <__umoddi3+0x248>
    5220:	000066b7          	lui	a3,0x6
    5224:	d0c68693          	addi	a3,a3,-756 # 5d0c <__clz_tab>
    5228:	0cc5fc63          	bleu	a2,a1,5300 <__umoddi3+0xf4>
    522c:	00010337          	lui	t1,0x10
    5230:	0a667e63          	bleu	t1,a2,52ec <__umoddi3+0xe0>
    5234:	0ff00313          	li	t1,255
    5238:	00c37463          	bleu	a2,t1,5240 <__umoddi3+0x34>
    523c:	00800713          	li	a4,8
    5240:	00e65333          	srl	t1,a2,a4
    5244:	006686b3          	add	a3,a3,t1
    5248:	0006ce03          	lbu	t3,0(a3)
    524c:	02000313          	li	t1,32
    5250:	00ee0e33          	add	t3,t3,a4
    5254:	41c30333          	sub	t1,t1,t3
    5258:	00030c63          	beqz	t1,5270 <__umoddi3+0x64>
    525c:	006595b3          	sll	a1,a1,t1
    5260:	01c55e33          	srl	t3,a0,t3
    5264:	006618b3          	sll	a7,a2,t1
    5268:	00be6833          	or	a6,t3,a1
    526c:	006517b3          	sll	a5,a0,t1
    5270:	0108d613          	srli	a2,a7,0x10
    5274:	02c87733          	remu	a4,a6,a2
    5278:	01089513          	slli	a0,a7,0x10
    527c:	01055513          	srli	a0,a0,0x10
    5280:	0107d693          	srli	a3,a5,0x10
    5284:	02c85833          	divu	a6,a6,a2
    5288:	01071713          	slli	a4,a4,0x10
    528c:	00d766b3          	or	a3,a4,a3
    5290:	03050833          	mul	a6,a0,a6
    5294:	0106fa63          	bleu	a6,a3,52a8 <__umoddi3+0x9c>
    5298:	011686b3          	add	a3,a3,a7
    529c:	0116e663          	bltu	a3,a7,52a8 <__umoddi3+0x9c>
    52a0:	0106f463          	bleu	a6,a3,52a8 <__umoddi3+0x9c>
    52a4:	011686b3          	add	a3,a3,a7
    52a8:	410686b3          	sub	a3,a3,a6
    52ac:	02c6f733          	remu	a4,a3,a2
    52b0:	01079793          	slli	a5,a5,0x10
    52b4:	0107d793          	srli	a5,a5,0x10
    52b8:	02c6d6b3          	divu	a3,a3,a2
    52bc:	02d506b3          	mul	a3,a0,a3
    52c0:	01071513          	slli	a0,a4,0x10
    52c4:	00f567b3          	or	a5,a0,a5
    52c8:	00d7fa63          	bleu	a3,a5,52dc <__umoddi3+0xd0>
    52cc:	011787b3          	add	a5,a5,a7
    52d0:	0117e663          	bltu	a5,a7,52dc <__umoddi3+0xd0>
    52d4:	00d7f463          	bleu	a3,a5,52dc <__umoddi3+0xd0>
    52d8:	011787b3          	add	a5,a5,a7
    52dc:	40d787b3          	sub	a5,a5,a3
    52e0:	0067d533          	srl	a0,a5,t1
    52e4:	00000593          	li	a1,0
    52e8:	00008067          	ret
    52ec:	01000337          	lui	t1,0x1000
    52f0:	01000713          	li	a4,16
    52f4:	f46666e3          	bltu	a2,t1,5240 <__umoddi3+0x34>
    52f8:	01800713          	li	a4,24
    52fc:	f45ff06f          	j	5240 <__umoddi3+0x34>
    5300:	00061663          	bnez	a2,530c <__umoddi3+0x100>
    5304:	00100613          	li	a2,1
    5308:	031658b3          	divu	a7,a2,a7
    530c:	00010637          	lui	a2,0x10
    5310:	0ac8f263          	bleu	a2,a7,53b4 <__umoddi3+0x1a8>
    5314:	0ff00613          	li	a2,255
    5318:	01167463          	bleu	a7,a2,5320 <__umoddi3+0x114>
    531c:	00800713          	li	a4,8
    5320:	00e8d633          	srl	a2,a7,a4
    5324:	00c686b3          	add	a3,a3,a2
    5328:	0006ce03          	lbu	t3,0(a3)
    532c:	02000313          	li	t1,32
    5330:	00ee0e33          	add	t3,t3,a4
    5334:	41c30333          	sub	t1,t1,t3
    5338:	08031863          	bnez	t1,53c8 <__umoddi3+0x1bc>
    533c:	411585b3          	sub	a1,a1,a7
    5340:	0108d713          	srli	a4,a7,0x10
    5344:	01089513          	slli	a0,a7,0x10
    5348:	01055513          	srli	a0,a0,0x10
    534c:	0107d613          	srli	a2,a5,0x10
    5350:	02e5f6b3          	remu	a3,a1,a4
    5354:	02e5d5b3          	divu	a1,a1,a4
    5358:	01069693          	slli	a3,a3,0x10
    535c:	00c6e6b3          	or	a3,a3,a2
    5360:	02b505b3          	mul	a1,a0,a1
    5364:	00b6fa63          	bleu	a1,a3,5378 <__umoddi3+0x16c>
    5368:	011686b3          	add	a3,a3,a7
    536c:	0116e663          	bltu	a3,a7,5378 <__umoddi3+0x16c>
    5370:	00b6f463          	bleu	a1,a3,5378 <__umoddi3+0x16c>
    5374:	011686b3          	add	a3,a3,a7
    5378:	40b685b3          	sub	a1,a3,a1
    537c:	02e5f6b3          	remu	a3,a1,a4
    5380:	01079793          	slli	a5,a5,0x10
    5384:	0107d793          	srli	a5,a5,0x10
    5388:	02e5d5b3          	divu	a1,a1,a4
    538c:	02b505b3          	mul	a1,a0,a1
    5390:	01069513          	slli	a0,a3,0x10
    5394:	00f567b3          	or	a5,a0,a5
    5398:	00b7fa63          	bleu	a1,a5,53ac <__umoddi3+0x1a0>
    539c:	011787b3          	add	a5,a5,a7
    53a0:	0117e663          	bltu	a5,a7,53ac <__umoddi3+0x1a0>
    53a4:	00b7f463          	bleu	a1,a5,53ac <__umoddi3+0x1a0>
    53a8:	011787b3          	add	a5,a5,a7
    53ac:	40b787b3          	sub	a5,a5,a1
    53b0:	f31ff06f          	j	52e0 <__umoddi3+0xd4>
    53b4:	01000637          	lui	a2,0x1000
    53b8:	01000713          	li	a4,16
    53bc:	f6c8e2e3          	bltu	a7,a2,5320 <__umoddi3+0x114>
    53c0:	01800713          	li	a4,24
    53c4:	f5dff06f          	j	5320 <__umoddi3+0x114>
    53c8:	006898b3          	sll	a7,a7,t1
    53cc:	01c5d733          	srl	a4,a1,t3
    53d0:	006517b3          	sll	a5,a0,t1
    53d4:	01c55e33          	srl	t3,a0,t3
    53d8:	0108d513          	srli	a0,a7,0x10
    53dc:	02a776b3          	remu	a3,a4,a0
    53e0:	006595b3          	sll	a1,a1,t1
    53e4:	00be6e33          	or	t3,t3,a1
    53e8:	01089593          	slli	a1,a7,0x10
    53ec:	0105d593          	srli	a1,a1,0x10
    53f0:	010e5613          	srli	a2,t3,0x10
    53f4:	02a75733          	divu	a4,a4,a0
    53f8:	01069693          	slli	a3,a3,0x10
    53fc:	00c6e6b3          	or	a3,a3,a2
    5400:	02e58733          	mul	a4,a1,a4
    5404:	00e6fa63          	bleu	a4,a3,5418 <__umoddi3+0x20c>
    5408:	011686b3          	add	a3,a3,a7
    540c:	0116e663          	bltu	a3,a7,5418 <__umoddi3+0x20c>
    5410:	00e6f463          	bleu	a4,a3,5418 <__umoddi3+0x20c>
    5414:	011686b3          	add	a3,a3,a7
    5418:	40e68633          	sub	a2,a3,a4
    541c:	02a676b3          	remu	a3,a2,a0
    5420:	010e1e13          	slli	t3,t3,0x10
    5424:	010e5e13          	srli	t3,t3,0x10
    5428:	02a65633          	divu	a2,a2,a0
    542c:	01069693          	slli	a3,a3,0x10
    5430:	02c58633          	mul	a2,a1,a2
    5434:	01c6e5b3          	or	a1,a3,t3
    5438:	00c5fa63          	bleu	a2,a1,544c <__umoddi3+0x240>
    543c:	011585b3          	add	a1,a1,a7
    5440:	0115e663          	bltu	a1,a7,544c <__umoddi3+0x240>
    5444:	00c5f463          	bleu	a2,a1,544c <__umoddi3+0x240>
    5448:	011585b3          	add	a1,a1,a7
    544c:	40c585b3          	sub	a1,a1,a2
    5450:	ef1ff06f          	j	5340 <__umoddi3+0x134>
    5454:	e8d5eae3          	bltu	a1,a3,52e8 <__umoddi3+0xdc>
    5458:	00010737          	lui	a4,0x10
    545c:	04e6fc63          	bleu	a4,a3,54b4 <__umoddi3+0x2a8>
    5460:	0ff00e93          	li	t4,255
    5464:	00deb733          	sltu	a4,t4,a3
    5468:	00371713          	slli	a4,a4,0x3
    546c:	00006337          	lui	t1,0x6
    5470:	00e6d8b3          	srl	a7,a3,a4
    5474:	d0c30313          	addi	t1,t1,-756 # 5d0c <__clz_tab>
    5478:	006888b3          	add	a7,a7,t1
    547c:	0008ce83          	lbu	t4,0(a7) # 1000000 <__C_STACK_TOP__+0xff0000>
    5480:	02000e13          	li	t3,32
    5484:	00ee8eb3          	add	t4,t4,a4
    5488:	41de0e33          	sub	t3,t3,t4
    548c:	020e1e63          	bnez	t3,54c8 <__umoddi3+0x2bc>
    5490:	00b6e463          	bltu	a3,a1,5498 <__umoddi3+0x28c>
    5494:	00c56a63          	bltu	a0,a2,54a8 <__umoddi3+0x29c>
    5498:	40c507b3          	sub	a5,a0,a2
    549c:	40d585b3          	sub	a1,a1,a3
    54a0:	00f53533          	sltu	a0,a0,a5
    54a4:	40a58833          	sub	a6,a1,a0
    54a8:	00078513          	mv	a0,a5
    54ac:	00080593          	mv	a1,a6
    54b0:	e39ff06f          	j	52e8 <__umoddi3+0xdc>
    54b4:	010008b7          	lui	a7,0x1000
    54b8:	01000713          	li	a4,16
    54bc:	fb16e8e3          	bltu	a3,a7,546c <__umoddi3+0x260>
    54c0:	01800713          	li	a4,24
    54c4:	fa9ff06f          	j	546c <__umoddi3+0x260>
    54c8:	01d65733          	srl	a4,a2,t4
    54cc:	01c696b3          	sll	a3,a3,t3
    54d0:	00d766b3          	or	a3,a4,a3
    54d4:	01d557b3          	srl	a5,a0,t4
    54d8:	01d5d733          	srl	a4,a1,t4
    54dc:	01c595b3          	sll	a1,a1,t3
    54e0:	00b7e7b3          	or	a5,a5,a1
    54e4:	0106d593          	srli	a1,a3,0x10
    54e8:	02b77333          	remu	t1,a4,a1
    54ec:	01069f13          	slli	t5,a3,0x10
    54f0:	010f5f13          	srli	t5,t5,0x10
    54f4:	0107d893          	srli	a7,a5,0x10
    54f8:	01c61633          	sll	a2,a2,t3
    54fc:	01c51533          	sll	a0,a0,t3
    5500:	02b75733          	divu	a4,a4,a1
    5504:	01031313          	slli	t1,t1,0x10
    5508:	011368b3          	or	a7,t1,a7
    550c:	02ef0833          	mul	a6,t5,a4
    5510:	00070313          	mv	t1,a4
    5514:	0108fe63          	bleu	a6,a7,5530 <__umoddi3+0x324>
    5518:	00d888b3          	add	a7,a7,a3
    551c:	fff70313          	addi	t1,a4,-1 # ffff <__BSS_END__+0x99bf>
    5520:	00d8e863          	bltu	a7,a3,5530 <__umoddi3+0x324>
    5524:	0108f663          	bleu	a6,a7,5530 <__umoddi3+0x324>
    5528:	ffe70313          	addi	t1,a4,-2
    552c:	00d888b3          	add	a7,a7,a3
    5530:	410888b3          	sub	a7,a7,a6
    5534:	02b8ffb3          	remu	t6,a7,a1
    5538:	02b8d8b3          	divu	a7,a7,a1
    553c:	010f9f93          	slli	t6,t6,0x10
    5540:	031f05b3          	mul	a1,t5,a7
    5544:	01079f13          	slli	t5,a5,0x10
    5548:	010f5f13          	srli	t5,t5,0x10
    554c:	01efef33          	or	t5,t6,t5
    5550:	00088713          	mv	a4,a7
    5554:	00bf7e63          	bleu	a1,t5,5570 <__umoddi3+0x364>
    5558:	00df0f33          	add	t5,t5,a3
    555c:	fff88713          	addi	a4,a7,-1 # ffffff <__C_STACK_TOP__+0xfeffff>
    5560:	00df6863          	bltu	t5,a3,5570 <__umoddi3+0x364>
    5564:	00bf7663          	bleu	a1,t5,5570 <__umoddi3+0x364>
    5568:	ffe88713          	addi	a4,a7,-2
    556c:	00df0f33          	add	t5,t5,a3
    5570:	01031313          	slli	t1,t1,0x10
    5574:	000108b7          	lui	a7,0x10
    5578:	00e36333          	or	t1,t1,a4
    557c:	fff88793          	addi	a5,a7,-1 # ffff <__BSS_END__+0x99bf>
    5580:	01065813          	srli	a6,a2,0x10
    5584:	40bf0f33          	sub	t5,t5,a1
    5588:	00f375b3          	and	a1,t1,a5
    558c:	01035313          	srli	t1,t1,0x10
    5590:	00f677b3          	and	a5,a2,a5
    5594:	02f58733          	mul	a4,a1,a5
    5598:	02f307b3          	mul	a5,t1,a5
    559c:	030585b3          	mul	a1,a1,a6
    55a0:	03030333          	mul	t1,t1,a6
    55a4:	00f585b3          	add	a1,a1,a5
    55a8:	01075813          	srli	a6,a4,0x10
    55ac:	00b80833          	add	a6,a6,a1
    55b0:	00f87463          	bleu	a5,a6,55b8 <__umoddi3+0x3ac>
    55b4:	01130333          	add	t1,t1,a7
    55b8:	000107b7          	lui	a5,0x10
    55bc:	fff78793          	addi	a5,a5,-1 # ffff <__BSS_END__+0x99bf>
    55c0:	01085593          	srli	a1,a6,0x10
    55c4:	00f87833          	and	a6,a6,a5
    55c8:	01081813          	slli	a6,a6,0x10
    55cc:	00f77733          	and	a4,a4,a5
    55d0:	006585b3          	add	a1,a1,t1
    55d4:	00e80733          	add	a4,a6,a4
    55d8:	00bf6663          	bltu	t5,a1,55e4 <__umoddi3+0x3d8>
    55dc:	00bf1e63          	bne	t5,a1,55f8 <__umoddi3+0x3ec>
    55e0:	00e57c63          	bleu	a4,a0,55f8 <__umoddi3+0x3ec>
    55e4:	40c70633          	sub	a2,a4,a2
    55e8:	00c73733          	sltu	a4,a4,a2
    55ec:	40d585b3          	sub	a1,a1,a3
    55f0:	40e585b3          	sub	a1,a1,a4
    55f4:	00060713          	mv	a4,a2
    55f8:	40e50733          	sub	a4,a0,a4
    55fc:	00e53533          	sltu	a0,a0,a4
    5600:	40bf05b3          	sub	a1,t5,a1
    5604:	40a585b3          	sub	a1,a1,a0
    5608:	01d597b3          	sll	a5,a1,t4
    560c:	01c75733          	srl	a4,a4,t3
    5610:	00e7e533          	or	a0,a5,a4
    5614:	01c5d5b3          	srl	a1,a1,t3
    5618:	cd1ff06f          	j	52e8 <__umoddi3+0xdc>
    561c:	0000                	unimp
	...

Дизассемблирование раздела .rodata.str1.4:

00005620 <.rodata.str1.4>:
    5620:	65726f43          	0x65726f43
    5624:	614d                	addi	sp,sp,176
    5626:	6b72                	flw	fs6,28(sp)
    5628:	3120                	fld	fs0,96(a0)
    562a:	302e                	fld	ft0,232(sp)
    562c:	000a                	0xa
    562e:	0000                	unimp
    5630:	6e28                	flw	fa0,88(a2)
    5632:	6c75                	lui	s8,0x1d
    5634:	296c                	fld	fa1,208(a0)
    5636:	0000                	unimp
    5638:	6b36                	flw	fs6,76(sp)
    563a:	7020                	flw	fs0,96(s0)
    563c:	7265                	lui	tp,0xffff9
    563e:	6f66                	flw	ft10,88(sp)
    5640:	6d72                	flw	fs10,28(sp)
    5642:	6e61                	lui	t3,0x18
    5644:	72206563          	bltu	zero,sp,5d6e <__clz_tab+0x62>
    5648:	6e75                	lui	t3,0x1d
    564a:	7020                	flw	fs0,96(s0)
    564c:	7261                	lui	tp,0xffff8
    564e:	6d61                	lui	s10,0x18
    5650:	7465                	lui	s0,0xffff9
    5652:	7265                	lui	tp,0xffff9
    5654:	6f662073          	csrs	0x6f6,a2
    5658:	2072                	fld	ft0,280(sp)
    565a:	65726f63          	bltu	tp,s7,5cb8 <state_known_crc+0x24>
    565e:	616d                	addi	sp,sp,240
    5660:	6b72                	flw	fs6,28(sp)
    5662:	0a2e                	slli	s4,s4,0xb
    5664:	0000                	unimp
    5666:	0000                	unimp
    5668:	6b36                	flw	fs6,76(sp)
    566a:	7620                	flw	fs0,104(a2)
    566c:	6c61                	lui	s8,0x18
    566e:	6469                	lui	s0,0x1a
    5670:	7461                	lui	s0,0xffff8
    5672:	6f69                	lui	t5,0x1a
    5674:	206e                	fld	ft0,216(sp)
    5676:	7572                	flw	fa0,60(sp)
    5678:	206e                	fld	ft0,216(sp)
    567a:	6170                	flw	fa2,68(a0)
    567c:	6172                	flw	ft2,28(sp)
    567e:	656d                	lui	a0,0x1b
    5680:	6574                	flw	fa3,76(a0)
    5682:	7372                	flw	ft6,60(sp)
    5684:	6620                	flw	fs0,72(a2)
    5686:	6320726f          	jal	tp,ccb8 <__BSS_END__+0x6678>
    568a:	6d65726f          	jal	tp,5cd60 <__C_STACK_TOP__+0x4cd60>
    568e:	7261                	lui	tp,0xffff8
    5690:	000a2e6b          	0xa2e6b
    5694:	7250                	flw	fa2,36(a2)
    5696:	6c69666f          	jal	a2,9bd5c <__C_STACK_TOP__+0x8bd5c>
    569a:	2065                	jal	5742 <__umoddi3+0x536>
    569c:	656e6567          	0x656e6567
    56a0:	6172                	flw	ft2,28(sp)
    56a2:	6974                	flw	fa3,84(a0)
    56a4:	72206e6f          	jal	t3,bdc6 <__BSS_END__+0x5786>
    56a8:	6e75                	lui	t3,0x1d
    56aa:	7020                	flw	fs0,96(s0)
    56ac:	7261                	lui	tp,0xffff8
    56ae:	6d61                	lui	s10,0x18
    56b0:	7465                	lui	s0,0xffff9
    56b2:	7265                	lui	tp,0xffff9
    56b4:	6f662073          	csrs	0x6f6,a2
    56b8:	2072                	fld	ft0,280(sp)
    56ba:	65726f63          	bltu	tp,s7,5d18 <__clz_tab+0xc>
    56be:	616d                	addi	sp,sp,240
    56c0:	6b72                	flw	fs6,28(sp)
    56c2:	0a2e                	slli	s4,s4,0xb
    56c4:	0000                	unimp
    56c6:	0000                	unimp
    56c8:	4b32                	lw	s6,12(sp)
    56ca:	7020                	flw	fs0,96(s0)
    56cc:	7265                	lui	tp,0xffff9
    56ce:	6f66                	flw	ft10,88(sp)
    56d0:	6d72                	flw	fs10,28(sp)
    56d2:	6e61                	lui	t3,0x18
    56d4:	72206563          	bltu	zero,sp,5dfe <__clz_tab+0xf2>
    56d8:	6e75                	lui	t3,0x1d
    56da:	7020                	flw	fs0,96(s0)
    56dc:	7261                	lui	tp,0xffff8
    56de:	6d61                	lui	s10,0x18
    56e0:	7465                	lui	s0,0xffff9
    56e2:	7265                	lui	tp,0xffff9
    56e4:	6f662073          	csrs	0x6f6,a2
    56e8:	2072                	fld	ft0,280(sp)
    56ea:	65726f63          	bltu	tp,s7,5d48 <__clz_tab+0x3c>
    56ee:	616d                	addi	sp,sp,240
    56f0:	6b72                	flw	fs6,28(sp)
    56f2:	0a2e                	slli	s4,s4,0xb
    56f4:	0000                	unimp
    56f6:	0000                	unimp
    56f8:	4b32                	lw	s6,12(sp)
    56fa:	7620                	flw	fs0,104(a2)
    56fc:	6c61                	lui	s8,0x18
    56fe:	6469                	lui	s0,0x1a
    5700:	7461                	lui	s0,0xffff8
    5702:	6f69                	lui	t5,0x1a
    5704:	206e                	fld	ft0,216(sp)
    5706:	7572                	flw	fa0,60(sp)
    5708:	206e                	fld	ft0,216(sp)
    570a:	6170                	flw	fa2,68(a0)
    570c:	6172                	flw	ft2,28(sp)
    570e:	656d                	lui	a0,0x1b
    5710:	6574                	flw	fa3,76(a0)
    5712:	7372                	flw	ft6,60(sp)
    5714:	6620                	flw	fs0,72(a2)
    5716:	6320726f          	jal	tp,cd48 <__BSS_END__+0x6708>
    571a:	6d65726f          	jal	tp,5cdf0 <__C_STACK_TOP__+0x4cdf0>
    571e:	7261                	lui	tp,0xffff8
    5720:	000a2e6b          	0xa2e6b
    5724:	5d75255b          	0x5d75255b
    5728:	5245                	li	tp,-15
    572a:	4f52                	lw	t5,20(sp)
    572c:	2152                	fld	ft2,272(sp)
    572e:	6c20                	flw	fs0,88(s0)
    5730:	7369                	lui	t1,0xffffa
    5732:	2074                	fld	fa3,192(s0)
    5734:	20637263          	bleu	t1,t1,5938 <__umoddi3+0x72c>
    5738:	7830                	flw	fa2,112(s0)
    573a:	3025                	jal	4f62 <__udivdi3+0x18e>
    573c:	7834                	flw	fa3,112(s0)
    573e:	2d20                	fld	fs0,88(a0)
    5740:	7320                	flw	fs0,96(a4)
    5742:	6f68                	flw	fa0,92(a4)
    5744:	6c75                	lui	s8,0x1d
    5746:	2064                	fld	fs1,192(s0)
    5748:	6562                	flw	fa0,24(sp)
    574a:	3020                	fld	fs0,96(s0)
    574c:	2578                	fld	fa4,200(a0)
    574e:	3430                	fld	fa2,104(s0)
    5750:	0a78                	addi	a4,sp,284
    5752:	0000                	unimp
    5754:	5d75255b          	0x5d75255b
    5758:	5245                	li	tp,-15
    575a:	4f52                	lw	t5,20(sp)
    575c:	2152                	fld	ft2,272(sp)
    575e:	6d20                	flw	fs0,88(a0)
    5760:	7461                	lui	s0,0xffff8
    5762:	6972                	flw	fs2,28(sp)
    5764:	2078                	fld	fa4,192(s0)
    5766:	20637263          	bleu	t1,t1,596a <__umoddi3+0x75e>
    576a:	7830                	flw	fa2,112(s0)
    576c:	3025                	jal	4f94 <__udivdi3+0x1c0>
    576e:	7834                	flw	fa3,112(s0)
    5770:	2d20                	fld	fs0,88(a0)
    5772:	7320                	flw	fs0,96(a4)
    5774:	6f68                	flw	fa0,92(a4)
    5776:	6c75                	lui	s8,0x1d
    5778:	2064                	fld	fs1,192(s0)
    577a:	6562                	flw	fa0,24(sp)
    577c:	3020                	fld	fs0,96(s0)
    577e:	2578                	fld	fa4,200(a0)
    5780:	3430                	fld	fa2,104(s0)
    5782:	0a78                	addi	a4,sp,284
    5784:	0000                	unimp
    5786:	0000                	unimp
    5788:	5d75255b          	0x5d75255b
    578c:	5245                	li	tp,-15
    578e:	4f52                	lw	t5,20(sp)
    5790:	2152                	fld	ft2,272(sp)
    5792:	7320                	flw	fs0,96(a4)
    5794:	6174                	flw	fa3,68(a0)
    5796:	6574                	flw	fa3,76(a0)
    5798:	6320                	flw	fs0,64(a4)
    579a:	6372                	flw	ft6,28(sp)
    579c:	3020                	fld	fs0,96(s0)
    579e:	2578                	fld	fa4,200(a0)
    57a0:	3430                	fld	fa2,104(s0)
    57a2:	2078                	fld	fa4,192(s0)
    57a4:	202d                	jal	57ce <__umoddi3+0x5c2>
    57a6:	756f6873          	csrrsi	a6,0x756,30
    57aa:	646c                	flw	fa1,76(s0)
    57ac:	6220                	flw	fs0,64(a2)
    57ae:	2065                	jal	5856 <__umoddi3+0x64a>
    57b0:	7830                	flw	fa2,112(s0)
    57b2:	3025                	jal	4fda <__udivdi3+0x206>
    57b4:	7834                	flw	fa3,112(s0)
    57b6:	000a                	0xa
    57b8:	65726f43          	0x65726f43
    57bc:	614d                	addi	sp,sp,176
    57be:	6b72                	flw	fs6,28(sp)
    57c0:	5320                	lw	s0,96(a4)
    57c2:	7a69                	lui	s4,0xffffa
    57c4:	2065                	jal	586c <__umoddi3+0x660>
    57c6:	2020                	fld	fs0,64(s0)
    57c8:	3a20                	fld	fs0,112(a2)
    57ca:	2520                	fld	fs0,72(a0)
    57cc:	756c                	flw	fa1,108(a0)
    57ce:	000a                	0xa
    57d0:	6f54                	flw	fa3,28(a4)
    57d2:	6174                	flw	fa3,68(a0)
    57d4:	206c                	fld	fa1,192(s0)
    57d6:	6974                	flw	fa3,84(a0)
    57d8:	20736b63          	bltu	t1,t2,59ee <__umoddi3+0x7e2>
    57dc:	2020                	fld	fs0,64(s0)
    57de:	2020                	fld	fs0,64(s0)
    57e0:	3a20                	fld	fs0,112(a2)
    57e2:	2520                	fld	fs0,72(a0)
    57e4:	756c                	flw	fa1,108(a0)
    57e6:	000a                	0xa
    57e8:	6f54                	flw	fa3,28(a4)
    57ea:	6174                	flw	fa3,68(a0)
    57ec:	206c                	fld	fa1,192(s0)
    57ee:	6974                	flw	fa3,84(a0)
    57f0:	656d                	lui	a0,0x1b
    57f2:	2820                	fld	fs0,80(s0)
    57f4:	73636573          	csrrsi	a0,0x736,6
    57f8:	3a29                	jal	5112 <__udivdi3+0x33e>
    57fa:	2520                	fld	fs0,72(a0)
    57fc:	0a64                	addi	s1,sp,284
    57fe:	0000                	unimp
    5800:	7449                	lui	s0,0xffff2
    5802:	7265                	lui	tp,0xffff9
    5804:	7461                	lui	s0,0xffff8
    5806:	6f69                	lui	t5,0x1a
    5808:	736e                	flw	ft6,248(sp)
    580a:	6365532f          	0x6365532f
    580e:	2020                	fld	fs0,64(s0)
    5810:	3a20                	fld	fs0,112(a2)
    5812:	2520                	fld	fs0,72(a0)
    5814:	0a64                	addi	s1,sp,284
    5816:	0000                	unimp
    5818:	5245                	li	tp,-15
    581a:	4f52                	lw	t5,20(sp)
    581c:	2152                	fld	ft2,272(sp)
    581e:	4d20                	lw	s0,88(a0)
    5820:	7375                	lui	t1,0xffffd
    5822:	2074                	fld	fa3,192(s0)
    5824:	7865                	lui	a6,0xffff9
    5826:	6365                	lui	t1,0x19
    5828:	7475                	lui	s0,0xffffd
    582a:	2065                	jal	58d2 <__umoddi3+0x6c6>
    582c:	6f66                	flw	ft10,88(sp)
    582e:	2072                	fld	ft0,280(sp)
    5830:	7461                	lui	s0,0xffff8
    5832:	6c20                	flw	fs0,88(s0)
    5834:	6165                	addi	sp,sp,112
    5836:	31207473          	csrrci	s0,0x312,0
    583a:	2030                	fld	fa2,64(s0)
    583c:	73636573          	csrrsi	a0,0x736,6
    5840:	6620                	flw	fs0,72(a2)
    5842:	6120726f          	jal	tp,ce54 <__BSS_END__+0x6814>
    5846:	7620                	flw	fs0,104(a2)
    5848:	6c61                	lui	s8,0x18
    584a:	6469                	lui	s0,0x1a
    584c:	7220                	flw	fs0,96(a2)
    584e:	7365                	lui	t1,0xffff9
    5850:	6c75                	lui	s8,0x1d
    5852:	2174                	fld	fa3,192(a0)
    5854:	000a                	0xa
    5856:	0000                	unimp
    5858:	7449                	lui	s0,0xffff2
    585a:	7265                	lui	tp,0xffff9
    585c:	7461                	lui	s0,0xffff8
    585e:	6f69                	lui	t5,0x1a
    5860:	736e                	flw	ft6,248(sp)
    5862:	2020                	fld	fs0,64(s0)
    5864:	2020                	fld	fs0,64(s0)
    5866:	2020                	fld	fs0,64(s0)
    5868:	3a20                	fld	fs0,112(a2)
    586a:	2520                	fld	fs0,72(a0)
    586c:	756c                	flw	fa1,108(a0)
    586e:	000a                	0xa
    5870:	37434347          	fmsub.q	ft6,ft6,fs4,ft6,rmm
    5874:	312e                	fld	ft2,232(sp)
    5876:	312e                	fld	ft2,232(sp)
    5878:	3220                	fld	fs0,96(a2)
    587a:	3130                	fld	fa2,96(a0)
    587c:	30353037          	lui	zero,0x30353
    5880:	0039                	c.addi	zero,14
    5882:	0000                	unimp
    5884:	706d6f43          	fmadd.s	ft10,fs10,ft6,fa4,unknown
    5888:	6c69                	lui	s8,0x1a
    588a:	7265                	lui	tp,0xffff9
    588c:	7620                	flw	fs0,104(a2)
    588e:	7265                	lui	tp,0xffff9
    5890:	6e6f6973          	csrrsi	s2,0x6e6,30
    5894:	3a20                	fld	fs0,112(a2)
    5896:	2520                	fld	fs0,72(a0)
    5898:	00000a73          	0xa73
    589c:	4f2d                	li	t5,11
    589e:	2032                	fld	ft0,264(sp)
    58a0:	662d                	lui	a2,0xb
    58a2:	6e75                	lui	t3,0x1d
    58a4:	6f72                	flw	ft10,28(sp)
    58a6:	6c6c                	flw	fa1,92(s0)
    58a8:	6c2d                	lui	s8,0xb
    58aa:	73706f6f          	jal	t5,c7e0 <__BSS_END__+0x61a0>
    58ae:	2d20                	fld	fs0,88(a0)
    58b0:	7066                	flw	ft0,120(sp)
    58b2:	6565                	lui	a0,0x19
    58b4:	2d6c                	fld	fa1,216(a0)
    58b6:	6f6c                	flw	fa1,92(a4)
    58b8:	2073706f          	j	3d2be <__C_STACK_TOP__+0x2d2be>
    58bc:	662d                	lui	a2,0xb
    58be:	65736367          	0x65736367
    58c2:	732d                	lui	t1,0xfffeb
    58c4:	206d                	jal	596e <__umoddi3+0x762>
    58c6:	662d                	lui	a2,0xb
    58c8:	65736367          	0x65736367
    58cc:	6c2d                	lui	s8,0xb
    58ce:	7361                	lui	t1,0xffff8
    58d0:	0020                	addi	s0,sp,8
    58d2:	0000                	unimp
    58d4:	706d6f43          	fmadd.s	ft10,fs10,ft6,fa4,unknown
    58d8:	6c69                	lui	s8,0x1a
    58da:	7265                	lui	tp,0xffff9
    58dc:	6620                	flw	fs0,72(a2)
    58de:	616c                	flw	fa1,68(a0)
    58e0:	20207367          	0x20207367
    58e4:	3a20                	fld	fs0,112(a2)
    58e6:	2520                	fld	fs0,72(a0)
    58e8:	00000a73          	0xa73
    58ec:	54415453          	0x54415453
    58f0:	4349                	li	t1,18
    58f2:	0000                	unimp
    58f4:	654d                	lui	a0,0x13
    58f6:	6f6d                	lui	t5,0x1b
    58f8:	7972                	flw	fs2,60(sp)
    58fa:	6c20                	flw	fs0,88(s0)
    58fc:	7461636f          	jal	t1,1c042 <__C_STACK_TOP__+0xc042>
    5900:	6f69                	lui	t5,0x1a
    5902:	206e                	fld	ft0,216(sp)
    5904:	3a20                	fld	fs0,112(a2)
    5906:	2520                	fld	fs0,72(a0)
    5908:	00000a73          	0xa73
    590c:	64656573          	csrrsi	a0,0x646,10
    5910:	20637263          	bleu	t1,t1,5b14 <__umoddi3+0x908>
    5914:	2020                	fld	fs0,64(s0)
    5916:	2020                	fld	fs0,64(s0)
    5918:	2020                	fld	fs0,64(s0)
    591a:	2020                	fld	fs0,64(s0)
    591c:	3a20                	fld	fs0,112(a2)
    591e:	3020                	fld	fs0,96(s0)
    5920:	2578                	fld	fa4,200(a0)
    5922:	3430                	fld	fa2,104(s0)
    5924:	0a78                	addi	a4,sp,284
    5926:	0000                	unimp
    5928:	5d64255b          	0x5d64255b
    592c:	6c637263          	bleu	t1,t1,5ff0 <static_memblk+0x19c>
    5930:	7369                	lui	t1,0xffffa
    5932:	2074                	fld	fa3,192(s0)
    5934:	2020                	fld	fs0,64(s0)
    5936:	2020                	fld	fs0,64(s0)
    5938:	2020                	fld	fs0,64(s0)
    593a:	203a                	fld	ft0,392(sp)
    593c:	7830                	flw	fa2,112(s0)
    593e:	3025                	jal	5166 <__udivdi3+0x392>
    5940:	7834                	flw	fa3,112(s0)
    5942:	000a                	0xa
    5944:	5d64255b          	0x5d64255b
    5948:	6d637263          	bleu	s6,t1,600c <static_memblk+0x1b8>
    594c:	7461                	lui	s0,0xffff8
    594e:	6972                	flw	fs2,28(sp)
    5950:	2078                	fld	fa4,192(s0)
    5952:	2020                	fld	fs0,64(s0)
    5954:	2020                	fld	fs0,64(s0)
    5956:	203a                	fld	ft0,392(sp)
    5958:	7830                	flw	fa2,112(s0)
    595a:	3025                	jal	5182 <__udivdi3+0x3ae>
    595c:	7834                	flw	fa3,112(s0)
    595e:	000a                	0xa
    5960:	5d64255b          	0x5d64255b
    5964:	73637263          	bleu	s6,t1,6088 <static_memblk+0x234>
    5968:	6174                	flw	fa3,68(a0)
    596a:	6574                	flw	fa3,76(a0)
    596c:	2020                	fld	fs0,64(s0)
    596e:	2020                	fld	fs0,64(s0)
    5970:	2020                	fld	fs0,64(s0)
    5972:	203a                	fld	ft0,392(sp)
    5974:	7830                	flw	fa2,112(s0)
    5976:	3025                	jal	519e <__udivdi3+0x3ca>
    5978:	7834                	flw	fa3,112(s0)
    597a:	000a                	0xa
    597c:	5d64255b          	0x5d64255b
    5980:	66637263          	bleu	t1,t1,5fe4 <static_memblk+0x190>
    5984:	6e69                	lui	t3,0x1a
    5986:	6c61                	lui	s8,0x18
    5988:	2020                	fld	fs0,64(s0)
    598a:	2020                	fld	fs0,64(s0)
    598c:	2020                	fld	fs0,64(s0)
    598e:	203a                	fld	ft0,392(sp)
    5990:	7830                	flw	fa2,112(s0)
    5992:	3025                	jal	51ba <__udivdi3+0x3e6>
    5994:	7834                	flw	fa3,112(s0)
    5996:	000a                	0xa
    5998:	72726f43          	fmadd.d	ft10,ft4,ft7,fa4,unknown
    599c:	6365                	lui	t1,0x19
    599e:	2074                	fld	fa3,192(s0)
    59a0:	7265706f          	j	5d0c6 <__C_STACK_TOP__+0x4d0c6>
    59a4:	7461                	lui	s0,0xffff8
    59a6:	6f69                	lui	t5,0x1a
    59a8:	206e                	fld	ft0,216(sp)
    59aa:	6176                	flw	ft2,92(sp)
    59ac:	696c                	flw	fa1,84(a0)
    59ae:	6164                	flw	fs1,68(a0)
    59b0:	6574                	flw	fa3,76(a0)
    59b2:	2e64                	fld	fs1,216(a2)
    59b4:	5320                	lw	s0,96(a4)
    59b6:	6565                	lui	a0,0x19
    59b8:	5220                	lw	s0,96(a2)
    59ba:	4145                	li	sp,17
    59bc:	4d44                	lw	s1,28(a0)
    59be:	2e45                	jal	5d6e <__clz_tab+0x62>
    59c0:	646d                	lui	s0,0x1b
    59c2:	6620                	flw	fs0,72(a2)
    59c4:	7220726f          	jal	tp,d0e6 <__BSS_END__+0x6aa6>
    59c8:	6e75                	lui	t3,0x1d
    59ca:	6120                	flw	fs0,64(a0)
    59cc:	646e                	flw	fs0,216(sp)
    59ce:	7220                	flw	fs0,96(a2)
    59d0:	7065                	0x7065
    59d2:	6974726f          	jal	tp,4d868 <__C_STACK_TOP__+0x3d868>
    59d6:	676e                	flw	fa4,216(sp)
    59d8:	7220                	flw	fs0,96(a2)
    59da:	6c75                	lui	s8,0x1d
    59dc:	7365                	lui	t1,0xffff9
    59de:	0a2e                	slli	s4,s4,0xb
    59e0:	0000                	unimp
    59e2:	0000                	unimp
    59e4:	7245                	lui	tp,0xffff1
    59e6:	6f72                	flw	ft10,28(sp)
    59e8:	7372                	flw	ft6,60(sp)
    59ea:	6420                	flw	fs0,72(s0)
    59ec:	7465                	lui	s0,0xffff9
    59ee:	6365                	lui	t1,0x19
    59f0:	6574                	flw	fa3,76(a0)
    59f2:	0a64                	addi	s1,sp,284
    59f4:	0000                	unimp
    59f6:	0000                	unimp
    59f8:	6e6e6143          	fmadd.q	ft2,ft8,ft6,fa3,unknown
    59fc:	7620746f          	jal	s0,d15e <__BSS_END__+0x6b1e>
    5a00:	6c61                	lui	s8,0x18
    5a02:	6469                	lui	s0,0x1a
    5a04:	7461                	lui	s0,0xffff8
    5a06:	2065                	jal	5aae <__umoddi3+0x8a2>
    5a08:	7265706f          	j	5d12e <__C_STACK_TOP__+0x4d12e>
    5a0c:	7461                	lui	s0,0xffff8
    5a0e:	6f69                	lui	t5,0x1a
    5a10:	206e                	fld	ft0,216(sp)
    5a12:	6f66                	flw	ft10,88(sp)
    5a14:	2072                	fld	ft0,280(sp)
    5a16:	6874                	flw	fa3,84(s0)
    5a18:	7365                	lui	t1,0xffff9
    5a1a:	2065                	jal	5ac2 <__umoddi3+0x8b6>
    5a1c:	64656573          	csrrsi	a0,0x646,10
    5a20:	7620                	flw	fs0,104(a2)
    5a22:	6c61                	lui	s8,0x18
    5a24:	6575                	lui	a0,0x1d
    5a26:	70202c73          	csrr	s8,0x702
    5a2a:	656c                	flw	fa1,76(a0)
    5a2c:	7361                	lui	t1,0xffff8
    5a2e:	2065                	jal	5ad6 <__umoddi3+0x8ca>
    5a30:	706d6f63          	bltu	s10,t1,614e <static_memblk+0x2fa>
    5a34:	7261                	lui	tp,0xffff8
    5a36:	2065                	jal	5ade <__umoddi3+0x8d2>
    5a38:	68746977          	0x68746977
    5a3c:	7220                	flw	fs0,96(a2)
    5a3e:	7365                	lui	t1,0xffff9
    5a40:	6c75                	lui	s8,0x1d
    5a42:	7374                	flw	fa3,100(a4)
    5a44:	6f20                	flw	fs0,88(a4)
    5a46:	206e                	fld	ft0,216(sp)
    5a48:	2061                	jal	5ad0 <__umoddi3+0x8c4>
    5a4a:	776f6e6b          	0x776f6e6b
    5a4e:	206e                	fld	ft0,216(sp)
    5a50:	6c70                	flw	fa2,92(s0)
    5a52:	7461                	lui	s0,0xffff8
    5a54:	6f66                	flw	ft10,88(sp)
    5a56:	6d72                	flw	fs10,28(sp)
    5a58:	0a2e                	slli	s4,s4,0xb
    5a5a:	0000                	unimp
    5a5c:	74617453          	0x74617453
    5a60:	6369                	lui	t1,0x1a
    5a62:	0000                	unimp
    5a64:	6548                	flw	fa0,12(a0)
    5a66:	7061                	0x7061
    5a68:	0000                	unimp
    5a6a:	0000                	unimp
    5a6c:	63617453          	0x63617453
    5a70:	0000006b          	0x6b
    5a74:	3054                	fld	fa3,160(s0)
    5a76:	332e                	fld	ft6,232(sp)
    5a78:	2d65                	jal	6130 <static_memblk+0x2dc>
    5a7a:	4631                	li	a2,12
    5a7c:	0000                	unimp
    5a7e:	0000                	unimp
    5a80:	542d                	li	s0,-21
    5a82:	542e                	lw	s0,232(sp)
    5a84:	71542b2b          	0x71542b2b
    5a88:	0000                	unimp
    5a8a:	0000                	unimp
    5a8c:	5431                	li	s0,-20
    5a8e:	65342e33          	0x65342e33
    5a92:	7a34                	flw	fa3,112(a2)
    5a94:	0000                	unimp
    5a96:	0000                	unimp
    5a98:	302e3433          	0x302e3433
    5a9c:	2d65                	jal	6154 <static_memblk+0x300>
    5a9e:	5e54                	lw	a3,60(a2)
    5aa0:	0000                	unimp
    5aa2:	0000                	unimp
    5aa4:	2e35                	jal	5de0 <__clz_tab+0xd4>
    5aa6:	3035                	jal	52d2 <__umoddi3+0xc6>
    5aa8:	6530                	flw	fa2,72(a0)
    5aaa:	0000332b          	0x332b
    5aae:	0000                	unimp
    5ab0:	2e2d                	jal	5dea <__clz_tab+0xde>
    5ab2:	3231                	jal	53be <__umoddi3+0x1b2>
    5ab4:	322d6533          	0x322d6533
    5ab8:	0000                	unimp
    5aba:	0000                	unimp
    5abc:	382d                	jal	52f6 <__umoddi3+0xea>
    5abe:	382b6537          	lui	a0,0x382b6
    5ac2:	00003233          	snez	tp,zero
    5ac6:	0000                	unimp
    5ac8:	362e302b          	0x362e302b
    5acc:	2d65                	jal	6184 <static_memblk+0x330>
    5ace:	3231                	jal	53da <__umoddi3+0x1ce>
    5ad0:	0000                	unimp
    5ad2:	0000                	unimp
    5ad4:	352e3533          	0x352e3533
    5ad8:	3434                	fld	fa3,104(s0)
    5ada:	3030                	fld	fa2,96(s0)
    5adc:	0000                	unimp
    5ade:	0000                	unimp
    5ae0:	312e                	fld	ft2,232(sp)
    5ae2:	3332                	fld	ft6,296(sp)
    5ae4:	3534                	fld	fa3,104(a0)
    5ae6:	3030                	fld	fa2,96(s0)
    5ae8:	0000                	unimp
    5aea:	0000                	unimp
    5aec:	312d                	jal	5716 <__umoddi3+0x50a>
    5aee:	3031                	jal	52fa <__umoddi3+0xee>
    5af0:	372e                	fld	fa4,232(sp)
    5af2:	3030                	fld	fa2,96(s0)
    5af4:	0000                	unimp
    5af6:	0000                	unimp
    5af8:	362e302b          	0x362e302b
    5afc:	3434                	fld	fa3,104(s0)
    5afe:	3030                	fld	fa2,96(s0)
    5b00:	0000                	unimp
    5b02:	0000                	unimp
    5b04:	3035                	jal	5330 <__umoddi3+0x124>
    5b06:	3231                	jal	5412 <__umoddi3+0x206>
    5b08:	0000                	unimp
    5b0a:	0000                	unimp
    5b0c:	3231                	jal	5418 <__umoddi3+0x20c>
    5b0e:	00003433          	snez	s0,zero
    5b12:	0000                	unimp
    5b14:	382d                	jal	534e <__umoddi3+0x142>
    5b16:	00003437          	lui	s0,0x3
    5b1a:	0000                	unimp
    5b1c:	3232312b          	0x3232312b
    5b20:	0000                	unimp
	...

Дизассемблирование раздела .rodata:

00005b24 <list_known_crc-0x158>:
    5b24:	077e                	slli	a4,a4,0x1f
    5b26:	0000                	unimp
    5b28:	0a6c                	addi	a1,sp,284
    5b2a:	0000                	unimp
    5b2c:	0786                	slli	a5,a5,0x1
    5b2e:	0000                	unimp
    5b30:	0a6c                	addi	a1,sp,284
    5b32:	0000                	unimp
    5b34:	0a6c                	addi	a1,sp,284
    5b36:	0000                	unimp
    5b38:	0a6c                	addi	a1,sp,284
    5b3a:	0000                	unimp
    5b3c:	0a6c                	addi	a1,sp,284
    5b3e:	0000                	unimp
    5b40:	0790                	addi	a2,sp,960
    5b42:	0000                	unimp
    5b44:	0a6c                	addi	a1,sp,284
    5b46:	0000                	unimp
    5b48:	0a6c                	addi	a1,sp,284
    5b4a:	0000                	unimp
    5b4c:	07a6                	slli	a5,a5,0x9
    5b4e:	0000                	unimp
    5b50:	07b2                	slli	a5,a5,0xc
    5b52:	0000                	unimp
    5b54:	0a6c                	addi	a1,sp,284
    5b56:	0000                	unimp
    5b58:	07c6                	slli	a5,a5,0x11
    5b5a:	0000                	unimp
    5b5c:	07d2                	slli	a5,a5,0x14
    5b5e:	0000                	unimp
    5b60:	07d2                	slli	a5,a5,0x14
    5b62:	0000                	unimp
    5b64:	07d2                	slli	a5,a5,0x14
    5b66:	0000                	unimp
    5b68:	07d2                	slli	a5,a5,0x14
    5b6a:	0000                	unimp
    5b6c:	07d2                	slli	a5,a5,0x14
    5b6e:	0000                	unimp
    5b70:	07d2                	slli	a5,a5,0x14
    5b72:	0000                	unimp
    5b74:	07d2                	slli	a5,a5,0x14
    5b76:	0000                	unimp
    5b78:	07d2                	slli	a5,a5,0x14
    5b7a:	0000                	unimp
    5b7c:	07d2                	slli	a5,a5,0x14
    5b7e:	0000                	unimp
    5b80:	0a6c                	addi	a1,sp,284
    5b82:	0000                	unimp
    5b84:	0a6c                	addi	a1,sp,284
    5b86:	0000                	unimp
    5b88:	0a6c                	addi	a1,sp,284
    5b8a:	0000                	unimp
    5b8c:	0a6c                	addi	a1,sp,284
    5b8e:	0000                	unimp
    5b90:	0a6c                	addi	a1,sp,284
    5b92:	0000                	unimp
    5b94:	0a6c                	addi	a1,sp,284
    5b96:	0000                	unimp
    5b98:	0a6c                	addi	a1,sp,284
    5b9a:	0000                	unimp
    5b9c:	0a6c                	addi	a1,sp,284
    5b9e:	0000                	unimp
    5ba0:	0a6c                	addi	a1,sp,284
    5ba2:	0000                	unimp
    5ba4:	0a6c                	addi	a1,sp,284
    5ba6:	0000                	unimp
    5ba8:	0a6c                	addi	a1,sp,284
    5baa:	0000                	unimp
    5bac:	0a6c                	addi	a1,sp,284
    5bae:	0000                	unimp
    5bb0:	0a6c                	addi	a1,sp,284
    5bb2:	0000                	unimp
    5bb4:	0a6c                	addi	a1,sp,284
    5bb6:	0000                	unimp
    5bb8:	0a6c                	addi	a1,sp,284
    5bba:	0000                	unimp
    5bbc:	0a6c                	addi	a1,sp,284
    5bbe:	0000                	unimp
    5bc0:	0a6c                	addi	a1,sp,284
    5bc2:	0000                	unimp
    5bc4:	0a6c                	addi	a1,sp,284
    5bc6:	0000                	unimp
    5bc8:	0a6c                	addi	a1,sp,284
    5bca:	0000                	unimp
    5bcc:	0a6c                	addi	a1,sp,284
    5bce:	0000                	unimp
    5bd0:	0a6c                	addi	a1,sp,284
    5bd2:	0000                	unimp
    5bd4:	0a6c                	addi	a1,sp,284
    5bd6:	0000                	unimp
    5bd8:	0a6c                	addi	a1,sp,284
    5bda:	0000                	unimp
    5bdc:	0a6c                	addi	a1,sp,284
    5bde:	0000                	unimp
    5be0:	0a6c                	addi	a1,sp,284
    5be2:	0000                	unimp
    5be4:	0a6c                	addi	a1,sp,284
    5be6:	0000                	unimp
    5be8:	0a6c                	addi	a1,sp,284
    5bea:	0000                	unimp
    5bec:	0a6c                	addi	a1,sp,284
    5bee:	0000                	unimp
    5bf0:	0a6c                	addi	a1,sp,284
    5bf2:	0000                	unimp
    5bf4:	0a6c                	addi	a1,sp,284
    5bf6:	0000                	unimp
    5bf8:	080c                	addi	a1,sp,16
    5bfa:	0000                	unimp
    5bfc:	0a6c                	addi	a1,sp,284
    5bfe:	0000                	unimp
    5c00:	0a6c                	addi	a1,sp,284
    5c02:	0000                	unimp
    5c04:	0a6c                	addi	a1,sp,284
    5c06:	0000                	unimp
    5c08:	0a6c                	addi	a1,sp,284
    5c0a:	0000                	unimp
    5c0c:	0a6c                	addi	a1,sp,284
    5c0e:	0000                	unimp
    5c10:	0a6c                	addi	a1,sp,284
    5c12:	0000                	unimp
    5c14:	0a6c                	addi	a1,sp,284
    5c16:	0000                	unimp
    5c18:	0a6c                	addi	a1,sp,284
    5c1a:	0000                	unimp
    5c1c:	0a6c                	addi	a1,sp,284
    5c1e:	0000                	unimp
    5c20:	0a6c                	addi	a1,sp,284
    5c22:	0000                	unimp
    5c24:	0818                	addi	a4,sp,16
    5c26:	0000                	unimp
    5c28:	0824                	addi	s1,sp,24
    5c2a:	0000                	unimp
    5c2c:	0a6c                	addi	a1,sp,284
    5c2e:	0000                	unimp
    5c30:	04cc                	addi	a1,sp,580
    5c32:	0000                	unimp
    5c34:	0a6c                	addi	a1,sp,284
    5c36:	0000                	unimp
    5c38:	0a6c                	addi	a1,sp,284
    5c3a:	0000                	unimp
    5c3c:	0a6c                	addi	a1,sp,284
    5c3e:	0000                	unimp
    5c40:	0a6c                	addi	a1,sp,284
    5c42:	0000                	unimp
    5c44:	0a6c                	addi	a1,sp,284
    5c46:	0000                	unimp
    5c48:	087e                	slli	a6,a6,0x1f
    5c4a:	0000                	unimp
    5c4c:	0a6c                	addi	a1,sp,284
    5c4e:	0000                	unimp
    5c50:	0a6c                	addi	a1,sp,284
    5c52:	0000                	unimp
    5c54:	0888                	addi	a0,sp,80
    5c56:	0000                	unimp
    5c58:	088e                	slli	a7,a7,0x3
    5c5a:	0000                	unimp
    5c5c:	0a6c                	addi	a1,sp,284
    5c5e:	0000                	unimp
    5c60:	0a6c                	addi	a1,sp,284
    5c62:	0000                	unimp
    5c64:	08b6                	slli	a7,a7,0xd
    5c66:	0000                	unimp
    5c68:	0a6c                	addi	a1,sp,284
    5c6a:	0000                	unimp
    5c6c:	09ac                	addi	a1,sp,216
    5c6e:	0000                	unimp
    5c70:	0a6c                	addi	a1,sp,284
    5c72:	0000                	unimp
    5c74:	0a6c                	addi	a1,sp,284
    5c76:	0000                	unimp
    5c78:	0556                	slli	a0,a0,0x15
	...

00005c7c <list_known_crc>:
    5c7c:	d4b0                	sw	a2,104(s1)
    5c7e:	3340                	fld	fs0,160(a4)
    5c80:	6a79                	lui	s4,0x1e
    5c82:	e714                	fsw	fa3,8(a4)
    5c84:	e3c1                	bnez	a5,5d04 <errpat+0x8>
	...

00005c88 <matrix_known_crc>:
    5c88:	be52                	fsd	fs4,312(sp)
    5c8a:	1199                	addi	gp,gp,-26
    5c8c:	5608                	lw	a0,40(a2)
    5c8e:	07471fd7          	0x7471fd7
	...

00005c94 <state_known_crc>:
    5c94:	39bf5e47          	fmsub.s	ft8,ft10,fs11,ft7,unknown
    5c98:	e5a4                	fsw	fs1,72(a1)
    5c9a:	8e3a                	mv	t3,a4
    5c9c:	8d84                	0x8d84
    5c9e:	0000                	unimp
    5ca0:	3fe6                	fld	ft11,120(sp)
    5ca2:	0000                	unimp
    5ca4:	3fcc                	fld	fa1,184(a5)
    5ca6:	0000                	unimp
    5ca8:	3fd2                	fld	ft11,304(sp)
    5caa:	0000                	unimp
    5cac:	3fd8                	fld	fa4,184(a5)
    5cae:	0000                	unimp
    5cb0:	3fde                	fld	ft11,496(sp)
    5cb2:	0000                	unimp
    5cb4:	3fc6                	fld	ft11,112(sp)
    5cb6:	0000                	unimp
    5cb8:	440a                	lw	s0,128(sp)
    5cba:	0000                	unimp
    5cbc:	440a                	lw	s0,128(sp)
    5cbe:	0000                	unimp
    5cc0:	44ba                	lw	s1,140(sp)
    5cc2:	0000                	unimp
    5cc4:	44ba                	lw	s1,140(sp)
    5cc6:	0000                	unimp
    5cc8:	4554                	lw	a3,12(a0)
	...

00005ccc <intpat>:
    5ccc:	5b04                	lw	s1,48(a4)
    5cce:	0000                	unimp
    5cd0:	5b0c                	lw	a1,48(a4)
    5cd2:	0000                	unimp
    5cd4:	5b14                	lw	a3,48(a4)
    5cd6:	0000                	unimp
    5cd8:	5b1c                	lw	a5,48(a4)
	...

00005cdc <floatpat>:
    5cdc:	5ad4                	lw	a3,52(a3)
    5cde:	0000                	unimp
    5ce0:	5ae0                	lw	s0,116(a3)
    5ce2:	0000                	unimp
    5ce4:	5aec                	lw	a1,116(a3)
    5ce6:	0000                	unimp
    5ce8:	5af8                	lw	a4,116(a3)
	...

00005cec <scipat>:
    5cec:	5aa4                	lw	s1,112(a3)
    5cee:	0000                	unimp
    5cf0:	5ab0                	lw	a2,112(a3)
    5cf2:	0000                	unimp
    5cf4:	5abc                	lw	a5,112(a3)
    5cf6:	0000                	unimp
    5cf8:	5ac8                	lw	a0,52(a3)
	...

00005cfc <errpat>:
    5cfc:	5a74                	lw	a3,116(a2)
    5cfe:	0000                	unimp
    5d00:	5a80                	lw	s0,48(a3)
    5d02:	0000                	unimp
    5d04:	5a8c                	lw	a1,48(a3)
    5d06:	0000                	unimp
    5d08:	5a98                	lw	a4,48(a3)
	...

00005d0c <__clz_tab>:
    5d0c:	0100                	addi	s0,sp,128
    5d0e:	0202                	slli	tp,tp,0x0
    5d10:	03030303          	lb	t1,48(t1) # 1a030 <__C_STACK_TOP__+0xa030>
    5d14:	0404                	addi	s1,sp,512
    5d16:	0404                	addi	s1,sp,512
    5d18:	0404                	addi	s1,sp,512
    5d1a:	0404                	addi	s1,sp,512
    5d1c:	0505                	addi	a0,a0,1
    5d1e:	0505                	addi	a0,a0,1
    5d20:	0505                	addi	a0,a0,1
    5d22:	0505                	addi	a0,a0,1
    5d24:	0505                	addi	a0,a0,1
    5d26:	0505                	addi	a0,a0,1
    5d28:	0505                	addi	a0,a0,1
    5d2a:	0505                	addi	a0,a0,1
    5d2c:	0606                	slli	a2,a2,0x1
    5d2e:	0606                	slli	a2,a2,0x1
    5d30:	0606                	slli	a2,a2,0x1
    5d32:	0606                	slli	a2,a2,0x1
    5d34:	0606                	slli	a2,a2,0x1
    5d36:	0606                	slli	a2,a2,0x1
    5d38:	0606                	slli	a2,a2,0x1
    5d3a:	0606                	slli	a2,a2,0x1
    5d3c:	0606                	slli	a2,a2,0x1
    5d3e:	0606                	slli	a2,a2,0x1
    5d40:	0606                	slli	a2,a2,0x1
    5d42:	0606                	slli	a2,a2,0x1
    5d44:	0606                	slli	a2,a2,0x1
    5d46:	0606                	slli	a2,a2,0x1
    5d48:	0606                	slli	a2,a2,0x1
    5d4a:	0606                	slli	a2,a2,0x1
    5d4c:	07070707          	0x7070707
    5d50:	07070707          	0x7070707
    5d54:	07070707          	0x7070707
    5d58:	07070707          	0x7070707
    5d5c:	07070707          	0x7070707
    5d60:	07070707          	0x7070707
    5d64:	07070707          	0x7070707
    5d68:	07070707          	0x7070707
    5d6c:	07070707          	0x7070707
    5d70:	07070707          	0x7070707
    5d74:	07070707          	0x7070707
    5d78:	07070707          	0x7070707
    5d7c:	07070707          	0x7070707
    5d80:	07070707          	0x7070707
    5d84:	07070707          	0x7070707
    5d88:	07070707          	0x7070707
    5d8c:	0808                	addi	a0,sp,16
    5d8e:	0808                	addi	a0,sp,16
    5d90:	0808                	addi	a0,sp,16
    5d92:	0808                	addi	a0,sp,16
    5d94:	0808                	addi	a0,sp,16
    5d96:	0808                	addi	a0,sp,16
    5d98:	0808                	addi	a0,sp,16
    5d9a:	0808                	addi	a0,sp,16
    5d9c:	0808                	addi	a0,sp,16
    5d9e:	0808                	addi	a0,sp,16
    5da0:	0808                	addi	a0,sp,16
    5da2:	0808                	addi	a0,sp,16
    5da4:	0808                	addi	a0,sp,16
    5da6:	0808                	addi	a0,sp,16
    5da8:	0808                	addi	a0,sp,16
    5daa:	0808                	addi	a0,sp,16
    5dac:	0808                	addi	a0,sp,16
    5dae:	0808                	addi	a0,sp,16
    5db0:	0808                	addi	a0,sp,16
    5db2:	0808                	addi	a0,sp,16
    5db4:	0808                	addi	a0,sp,16
    5db6:	0808                	addi	a0,sp,16
    5db8:	0808                	addi	a0,sp,16
    5dba:	0808                	addi	a0,sp,16
    5dbc:	0808                	addi	a0,sp,16
    5dbe:	0808                	addi	a0,sp,16
    5dc0:	0808                	addi	a0,sp,16
    5dc2:	0808                	addi	a0,sp,16
    5dc4:	0808                	addi	a0,sp,16
    5dc6:	0808                	addi	a0,sp,16
    5dc8:	0808                	addi	a0,sp,16
    5dca:	0808                	addi	a0,sp,16
    5dcc:	0808                	addi	a0,sp,16
    5dce:	0808                	addi	a0,sp,16
    5dd0:	0808                	addi	a0,sp,16
    5dd2:	0808                	addi	a0,sp,16
    5dd4:	0808                	addi	a0,sp,16
    5dd6:	0808                	addi	a0,sp,16
    5dd8:	0808                	addi	a0,sp,16
    5dda:	0808                	addi	a0,sp,16
    5ddc:	0808                	addi	a0,sp,16
    5dde:	0808                	addi	a0,sp,16
    5de0:	0808                	addi	a0,sp,16
    5de2:	0808                	addi	a0,sp,16
    5de4:	0808                	addi	a0,sp,16
    5de6:	0808                	addi	a0,sp,16
    5de8:	0808                	addi	a0,sp,16
    5dea:	0808                	addi	a0,sp,16
    5dec:	0808                	addi	a0,sp,16
    5dee:	0808                	addi	a0,sp,16
    5df0:	0808                	addi	a0,sp,16
    5df2:	0808                	addi	a0,sp,16
    5df4:	0808                	addi	a0,sp,16
    5df6:	0808                	addi	a0,sp,16
    5df8:	0808                	addi	a0,sp,16
    5dfa:	0808                	addi	a0,sp,16
    5dfc:	0808                	addi	a0,sp,16
    5dfe:	0808                	addi	a0,sp,16
    5e00:	0808                	addi	a0,sp,16
    5e02:	0808                	addi	a0,sp,16
    5e04:	0808                	addi	a0,sp,16
    5e06:	0808                	addi	a0,sp,16
    5e08:	0808                	addi	a0,sp,16
    5e0a:	0808                	addi	a0,sp,16

Дизассемблирование раздела .data:

00005e0c <mem_name>:
    5e0c:	5a5c                	lw	a5,52(a2)
    5e0e:	0000                	unimp
    5e10:	5a64                	lw	s1,116(a2)
    5e12:	0000                	unimp
    5e14:	5a6c                	lw	a1,116(a2)
	...

Дизассемблирование раздела .sdata:

00005e20 <default_num_contexts>:
    5e20:	0001                	nop
	...

00005e24 <seed4_volatile>:
    5e24:	0001                	nop
	...

00005e28 <seed3_volatile>:
    5e28:	0066                	0x66
	...

Дизассемблирование раздела .tbss:

00005e40 <__BSS_START__>:
	...

Дизассемблирование раздела .sbss:

00005e40 <stop_time_val>:
    5e40:	0000                	unimp
	...

00005e44 <start_time_val>:
    5e44:	0000                	unimp
	...

00005e48 <seed5_volatile>:
    5e48:	0000                	unimp
	...

00005e4c <seed2_volatile>:
    5e4c:	0000                	unimp
	...

00005e50 <seed1_volatile>:
    5e50:	0000                	unimp
	...

Дизассемблирование раздела .bss:

00005e54 <static_memblk>:
	...

Дизассемблирование раздела .stack:

0000fc00 <__C_STACK_TOP__-0x400>:
	...

Дизассемблирование раздела .comment:

00000000 <.comment>:
   0:	3a434347          	fmsub.d	ft6,ft6,ft4,ft7,rmm
   4:	2820                	fld	fs0,80(s0)
   6:	29554e47          	fmsub.s	ft8,fa0,fs5,ft5,rmm
   a:	3720                	fld	fs0,104(a4)
   c:	312e                	fld	ft2,232(sp)
   e:	312e                	fld	ft2,232(sp)
  10:	3220                	fld	fs0,96(a2)
  12:	3130                	fld	fa2,96(a0)
  14:	30353037          	lui	zero,0x30353
  18:	0039                	c.addi	zero,14

Дизассемблирование раздела .debug_info:

00000000 <.debug_info>:
       0:	11a9                	addi	gp,gp,-22
       2:	0000                	unimp
       4:	0004                	addi	s1,sp,0
       6:	0000                	unimp
       8:	0000                	unimp
       a:	0104                	addi	s1,sp,128
       c:	006a                	0x6a
       e:	0000                	unimp
      10:	a30c                	fsd	fa1,0(a4)
      12:	0001                	nop
      14:	2c00                	fld	fs0,24(s0)
      16:	0002                	0x2
      18:	7800                	flw	fs0,48(s0)
      1a:	0049                	c.addi	zero,18
      1c:	5800                	lw	s0,48(s0)
      1e:	0004                	addi	s1,sp,0
      20:	0000                	unimp
      22:	0000                	unimp
      24:	0200                	addi	s0,sp,256
      26:	0704                	addi	s1,sp,896
      28:	03d0                	addi	a2,sp,452
      2a:	0000                	unimp
      2c:	0802                	slli	a6,a6,0x0
      2e:	0003c607          	flq	fa2,0(t2)
      32:	0300                	addi	s0,sp,384
      34:	0504                	addi	s1,sp,640
      36:	6e69                	lui	t3,0x1a
      38:	0074                	addi	a3,sp,12
      3a:	0802                	slli	a6,a6,0x0
      3c:	e005                	bnez	s0,5c <buflen.1776+0x1c>
      3e:	0002                	0x2
      40:	0200                	addi	s0,sp,256
      42:	0410                	addi	a2,sp,512
      44:	0000015b          	0x15b
      48:	0102                	slli	sp,sp,0x0
      4a:	9606                	add	a2,a2,ra
      4c:	0006                	0x6
      4e:	0200                	addi	s0,sp,256
      50:	0801                	addi	a6,a6,0
      52:	0694                	addi	a3,sp,832
      54:	0000                	unimp
      56:	0202                	slli	tp,tp,0x0
      58:	0005                	c.addi	zero,1
      5a:	0000                	unimp
      5c:	0200                	addi	s0,sp,256
      5e:	0702                	slli	a4,a4,0x0
      60:	03e6                	slli	t2,t2,0x19
      62:	0000                	unimp
      64:	0402                	slli	s0,s0,0x0
      66:	e505                	bnez	a0,8e <buflen.1776+0x4e>
      68:	0002                	0x2
      6a:	0200                	addi	s0,sp,256
      6c:	0704                	addi	s1,sp,896
      6e:	000003cb          	fnmsub.s	ft7,ft0,ft0,ft0,rne
      72:	4104                	lw	s1,0(a0)
      74:	0005                	c.addi	zero,1
      76:	0200                	addi	s0,sp,256
      78:	00003307          	fld	ft6,0(zero) # 30353000 <__C_STACK_TOP__+0x30343000>
      7c:	0400                	addi	s0,sp,512
      7e:	0511                	addi	a0,a0,4
      80:	0000                	unimp
      82:	00642c03          	lw	s8,6(s0) # 3006 <matrix_mul_const+0x46>
      86:	0000                	unimp
      88:	2704                	fld	fs1,8(a4)
      8a:	0006                	0x6
      8c:	0300                	addi	s0,sp,384
      8e:	6472                	flw	fs0,28(sp)
      90:	0000                	unimp
      92:	0400                	addi	s0,sp,512
      94:	06fe                	slli	a3,a3,0x1f
      96:	0000                	unimp
      98:	00339103          	lh	sp,3(t2)
      9c:	0000                	unimp
      9e:	4205                	li	tp,1
      a0:	0004                	addi	s1,sp,0
      a2:	0400                	addi	s0,sp,512
      a4:	0165                	addi	sp,sp,25
      a6:	0025                	c.addi	zero,9
      a8:	0000                	unimp
      aa:	0406                	slli	s0,s0,0x1
      ac:	00c9a603          	lw	a2,12(s3)
      b0:	0000                	unimp
      b2:	00042d07          	flw	fs10,0(s0)
      b6:	0300                	addi	s0,sp,384
      b8:	9ea8                	0x9ea8
      ba:	0000                	unimp
      bc:	0700                	addi	s0,sp,896
      be:	0398                	addi	a4,sp,448
      c0:	0000                	unimp
      c2:	00c9a903          	lw	s2,12(s3)
      c6:	0000                	unimp
      c8:	0800                	addi	s0,sp,16
      ca:	0000004f          	fnmadd.s	ft0,ft0,ft0,ft0,rne
      ce:	00d9                	addi	ra,ra,22
      d0:	0000                	unimp
      d2:	2509                	jal	6d4 <vprintfmt.constprop.0+0x25e>
      d4:	0000                	unimp
      d6:	0300                	addi	s0,sp,384
      d8:	0a00                	addi	s0,sp,272
      da:	0308                	addi	a0,sp,384
      dc:	0000faa3          	0xfaa3
      e0:	0b00                	addi	s0,sp,400
      e2:	0488                	addi	a0,sp,576
      e4:	0000                	unimp
      e6:	0033a503          	lw	a0,3(t2)
      ea:	0000                	unimp
      ec:	0b00                	addi	s0,sp,400
      ee:	0619                	addi	a2,a2,6
      f0:	0000                	unimp
      f2:	00aaaa03          	lw	s4,10(s5)
      f6:	0000                	unimp
      f8:	0004                	addi	s1,sp,0
      fa:	3604                	fld	fs1,40(a2)
      fc:	0005                	c.addi	zero,1
      fe:	0300                	addi	s0,sp,384
     100:	0000d9ab          	0xd9ab
     104:	0400                	addi	s0,sp,512
     106:	0590                	addi	a2,sp,704
     108:	0000                	unimp
     10a:	0072af03          	lw	t5,7(t0)
     10e:	0000                	unimp
     110:	040c                	addi	a1,sp,512
     112:	a704                	fsd	fs1,8(a4)
     114:	0006                	0x6
     116:	0500                	addi	s0,sp,640
     118:	6b16                	flw	fs6,68(sp)
     11a:	0000                	unimp
     11c:	0d00                	addi	s0,sp,656
     11e:	04c1                	addi	s1,s1,16
     120:	0000                	unimp
     122:	0518                	addi	a4,sp,640
     124:	0001702f          	0x1702f
     128:	0b00                	addi	s0,sp,400
     12a:	07c0                	addi	s0,sp,964
     12c:	0000                	unimp
     12e:	3105                	jal	fffffd4e <__C_STACK_TOP__+0xfffefd4e>
     130:	0170                	addi	a2,sp,140
     132:	0000                	unimp
     134:	0e00                	addi	s0,sp,784
     136:	6b5f 0500 3332      	0x333205006b5f
     13c:	0000                	unimp
     13e:	0400                	addi	s0,sp,512
     140:	0005f60b          	0x5f60b
     144:	0500                	addi	s0,sp,640
     146:	3332                	fld	ft6,296(sp)
     148:	0000                	unimp
     14a:	0800                	addi	s0,sp,16
     14c:	00033c0b          	0x33c0b
     150:	0500                	addi	s0,sp,640
     152:	3332                	fld	ft6,296(sp)
     154:	0000                	unimp
     156:	0c00                	addi	s0,sp,528
     158:	0002c20b          	0x2c20b
     15c:	0500                	addi	s0,sp,640
     15e:	3332                	fld	ft6,296(sp)
     160:	0000                	unimp
     162:	1000                	addi	s0,sp,32
     164:	5f0e                	lw	t5,224(sp)
     166:	0078                	addi	a4,sp,12
     168:	3305                	jal	fffffe88 <__C_STACK_TOP__+0xfffefe88>
     16a:	0176                	slli	sp,sp,0x1d
     16c:	0000                	unimp
     16e:	0014                	addi	a3,sp,0
     170:	011d040f          	0x11d040f
     174:	0000                	unimp
     176:	1208                	addi	a0,sp,288
     178:	0001                	nop
     17a:	8600                	0x8600
     17c:	0001                	nop
     17e:	0900                	addi	s0,sp,144
     180:	0025                	c.addi	zero,9
     182:	0000                	unimp
     184:	0000                	unimp
     186:	7b0d                	lui	s6,0xfffe3
     188:	24000003          	lb	zero,576(zero) # 240 <_start+0x40>
     18c:	3705                	jal	ac <buflen.1776+0x6c>
     18e:	01ff                	0x1ff
     190:	0000                	unimp
     192:	0001930b          	0x1930b
     196:	0500                	addi	s0,sp,640
     198:	3339                	jal	fffffea6 <__C_STACK_TOP__+0xfffefea6>
     19a:	0000                	unimp
     19c:	0000                	unimp
     19e:	00075c0b          	0x75c0b
     1a2:	0500                	addi	s0,sp,640
     1a4:	333a                	fld	ft6,424(sp)
     1a6:	0000                	unimp
     1a8:	0400                	addi	s0,sp,512
     1aa:	0002010b          	0x2010b
     1ae:	0500                	addi	s0,sp,640
     1b0:	0000333b          	0x333b
     1b4:	0800                	addi	s0,sp,16
     1b6:	0007b10b          	0x7b10b
     1ba:	0500                	addi	s0,sp,640
     1bc:	333c                	fld	fa5,96(a4)
     1be:	0000                	unimp
     1c0:	0c00                	addi	s0,sp,528
     1c2:	0004eb0b          	0x4eb0b
     1c6:	0500                	addi	s0,sp,640
     1c8:	333d                	jal	fffffef6 <__C_STACK_TOP__+0xfffefef6>
     1ca:	0000                	unimp
     1cc:	1000                	addi	s0,sp,32
     1ce:	00047e0b          	0x47e0b
     1d2:	0500                	addi	s0,sp,640
     1d4:	333e                	fld	ft6,488(sp)
     1d6:	0000                	unimp
     1d8:	1400                	addi	s0,sp,544
     1da:	0006e70b          	0x6e70b
     1de:	0500                	addi	s0,sp,640
     1e0:	0000333f 980b1800 	0x980b18000000333f
     1e8:	05000007          	0x5000007
     1ec:	3340                	fld	fs0,160(a4)
     1ee:	0000                	unimp
     1f0:	1c00                	addi	s0,sp,560
     1f2:	0007420b          	0x7420b
     1f6:	0500                	addi	s0,sp,640
     1f8:	3341                	jal	ffffff78 <__C_STACK_TOP__+0xfffeff78>
     1fa:	0000                	unimp
     1fc:	2000                	fld	fs0,0(s0)
     1fe:	1000                	addi	s0,sp,32
     200:	021e                	slli	tp,tp,0x7
     202:	0000                	unimp
     204:	0108                	addi	a0,sp,128
     206:	4a05                	li	s4,1
     208:	0000023f 00032f0b 	0x32f0b0000023f
     210:	0500                	addi	s0,sp,640
     212:	00023f4b          	fnmsub.s	ft10,ft4,ft0,ft0,rup
     216:	0000                	unimp
     218:	00056c0b          	0x56c0b
     21c:	0500                	addi	s0,sp,640
     21e:	3f4c                	fld	fa1,184(a4)
     220:	0002                	0x2
     222:	8000                	0x8000
     224:	8b11                	andi	a4,a4,4
     226:	0006                	0x6
     228:	0500                	addi	s0,sp,640
     22a:	124e                	slli	tp,tp,0x33
     22c:	0001                	nop
     22e:	0000                	unimp
     230:	1101                	addi	sp,sp,-32
     232:	02ba                	slli	t0,t0,0xe
     234:	0000                	unimp
     236:	5105                	li	sp,-31
     238:	0112                	slli	sp,sp,0x4
     23a:	0000                	unimp
     23c:	0104                	addi	s1,sp,128
     23e:	0800                	addi	s0,sp,16
     240:	0110                	addi	a2,sp,128
     242:	0000                	unimp
     244:	0000024f          	fnmadd.s	ft4,ft0,ft0,ft0,rne
     248:	2509                	jal	84a <vprintfmt.constprop.0+0x3d4>
     24a:	0000                	unimp
     24c:	1f00                	addi	s0,sp,944
     24e:	1000                	addi	s0,sp,32
     250:	04f4                	addi	a3,sp,588
     252:	0000                	unimp
     254:	0190                	addi	a2,sp,192
     256:	5d05                	li	s10,-31
     258:	028d                	addi	t0,t0,3
     25a:	0000                	unimp
     25c:	0007c00b          	0x7c00b
     260:	0500                	addi	s0,sp,640
     262:	8d5e                	mv	s10,s7
     264:	0002                	0x2
     266:	0000                	unimp
     268:	0005df0b          	0x5df0b
     26c:	0500                	addi	s0,sp,640
     26e:	335f 0000 0400      	0x4000000335f
     274:	0003370b          	0x3370b
     278:	0500                	addi	s0,sp,640
     27a:	9361                	srli	a4,a4,0x38
     27c:	0002                	0x2
     27e:	0800                	addi	s0,sp,16
     280:	00021e0b          	0x21e0b
     284:	0500                	addi	s0,sp,640
     286:	ff62                	fsw	fs8,188(sp)
     288:	0001                	nop
     28a:	8800                	0x8800
     28c:	0f00                	addi	s0,sp,912
     28e:	4f04                	lw	s1,24(a4)
     290:	0002                	0x2
     292:	0800                	addi	s0,sp,16
     294:	000002a3          	sb	zero,5(zero) # 5 <buf.1775+0x5>
     298:	000002a3          	sb	zero,5(zero) # 5 <buf.1775+0x5>
     29c:	2509                	jal	89e <vprintfmt.constprop.0+0x428>
     29e:	0000                	unimp
     2a0:	1f00                	addi	s0,sp,944
     2a2:	0f00                	addi	s0,sp,912
     2a4:	a904                	fsd	fs1,16(a0)
     2a6:	0002                	0x2
     2a8:	1200                	addi	s0,sp,288
     2aa:	aa0d                	j	3dc <printf_putch+0x6c>
     2ac:	08000007          	0x8000007
     2b0:	7505                	lui	a0,0xfffe1
     2b2:	000002cf          	fnmadd.s	ft5,ft0,ft0,ft0,rne
     2b6:	0001fb0b          	0x1fb0b
     2ba:	0500                	addi	s0,sp,640
     2bc:	cf76                	sw	t4,156(sp)
     2be:	0002                	0x2
     2c0:	0000                	unimp
     2c2:	0006380b          	0x6380b
     2c6:	0500                	addi	s0,sp,640
     2c8:	00003377          	0x3377
     2cc:	0400                	addi	s0,sp,512
     2ce:	0f00                	addi	s0,sp,912
     2d0:	4f04                	lw	s1,24(a4)
     2d2:	0000                	unimp
     2d4:	0d00                	addi	s0,sp,656
     2d6:	000005bb          	0x5bb
     2da:	0568                	addi	a0,sp,652
     2dc:	ffb5                	bnez	a5,258 <_start+0x58>
     2de:	0e000003          	lb	zero,224(zero) # e0 <buflen.1776+0xa0>
     2e2:	705f 0500 cfb6      	0xcfb60500705f
     2e8:	0002                	0x2
     2ea:	0000                	unimp
     2ec:	5f0e                	lw	t5,224(sp)
     2ee:	0072                	0x72
     2f0:	b705                	j	210 <_start+0x10>
     2f2:	00000033          	add	zero,zero,zero
     2f6:	0e04                	addi	s1,sp,784
     2f8:	775f 0500 33b8      	0x33b80500775f
     2fe:	0000                	unimp
     300:	0800                	addi	s0,sp,16
     302:	0002b30b          	0x2b30b
     306:	0500                	addi	s0,sp,640
     308:	56b9                	li	a3,-18
     30a:	0000                	unimp
     30c:	0c00                	addi	s0,sp,528
     30e:	0003a70b          	0x3a70b
     312:	0500                	addi	s0,sp,640
     314:	56ba                	lw	a3,172(sp)
     316:	0000                	unimp
     318:	0e00                	addi	s0,sp,784
     31a:	5f0e                	lw	t5,224(sp)
     31c:	6662                	flw	fa2,24(sp)
     31e:	0500                	addi	s0,sp,640
     320:	0002aabb          	0x2aabb
     324:	1000                	addi	s0,sp,32
     326:	0001430b          	0x1430b
     32a:	0500                	addi	s0,sp,640
     32c:	33bc                	fld	fa5,96(a5)
     32e:	0000                	unimp
     330:	1800                	addi	s0,sp,48
     332:	0002a30b          	0x2a30b
     336:	0500                	addi	s0,sp,640
     338:	000110c3          	fmadd.s	ft1,ft2,ft0,ft0,rtz
     33c:	1c00                	addi	s0,sp,560
     33e:	0005530b          	0x5530b
     342:	0500                	addi	s0,sp,640
     344:	6cc5                	lui	s9,0x11
     346:	0005                	c.addi	zero,1
     348:	2000                	fld	fs0,0(s0)
     34a:	0004770b          	0x4770b
     34e:	0500                	addi	s0,sp,640
     350:	00059bc7          	fmsub.s	fs7,fa1,ft0,ft0,rtz
     354:	2400                	fld	fs0,8(s0)
     356:	0006210b          	0x6210b
     35a:	0500                	addi	s0,sp,640
     35c:	bfca                	fsd	fs2,504(sp)
     35e:	0005                	c.addi	zero,1
     360:	2800                	fld	fs0,16(s0)
     362:	00019c0b          	0x19c0b
     366:	0500                	addi	s0,sp,640
     368:	0005d9cb          	fnmsub.s	fs3,fa1,ft0,ft0,unknown
     36c:	2c00                	fld	fs0,24(s0)
     36e:	5f0e                	lw	t5,224(sp)
     370:	6275                	lui	tp,0x1d
     372:	0500                	addi	s0,sp,640
     374:	aace                	fsd	fs3,336(sp)
     376:	0002                	0x2
     378:	3000                	fld	fs0,32(s0)
     37a:	5f0e                	lw	t5,224(sp)
     37c:	7075                	0x7075
     37e:	0500                	addi	s0,sp,640
     380:	0002cfcf          	fnmadd.s	ft11,ft5,ft0,ft0,rmm
     384:	3800                	fld	fs0,48(s0)
     386:	5f0e                	lw	t5,224(sp)
     388:	7275                	lui	tp,0xffffd
     38a:	0500                	addi	s0,sp,640
     38c:	33d0                	fld	fa2,160(a5)
     38e:	0000                	unimp
     390:	3c00                	fld	fs0,56(s0)
     392:	0001f50b          	0x1f50b
     396:	0500                	addi	s0,sp,640
     398:	0005dfd3          	fadd.s	ft11,fa1,ft0,unknown
     39c:	4000                	lw	s0,0(s0)
     39e:	00072a0b          	0x72a0b
     3a2:	0500                	addi	s0,sp,640
     3a4:	efd4                	fsw	fa3,28(a5)
     3a6:	0005                	c.addi	zero,1
     3a8:	4300                	lw	s0,0(a4)
     3aa:	5f0e                	lw	t5,224(sp)
     3ac:	626c                	flw	fa1,68(a2)
     3ae:	0500                	addi	s0,sp,640
     3b0:	0002aad7          	0x2aad7
     3b4:	4400                	lw	s0,8(s0)
     3b6:	00062f0b          	0x62f0b
     3ba:	0500                	addi	s0,sp,640
     3bc:	33da                	fld	ft7,432(sp)
     3be:	0000                	unimp
     3c0:	4c00                	lw	s0,24(s0)
     3c2:	0004b90b          	0x4b90b
     3c6:	0500                	addi	s0,sp,640
     3c8:	00007ddb          	0x7ddb
     3cc:	5000                	lw	s0,32(s0)
     3ce:	0000550b          	0x550b
     3d2:	0500                	addi	s0,sp,640
     3d4:	1dde                	slli	s11,s11,0x37
     3d6:	0004                	addi	s1,sp,0
     3d8:	5400                	lw	s0,40(s0)
     3da:	0004490b          	0x4490b
     3de:	0500                	addi	s0,sp,640
     3e0:	05e2                	slli	a1,a1,0x18
     3e2:	0001                	nop
     3e4:	5800                	lw	s0,48(s0)
     3e6:	00038f0b          	0x38f0b
     3ea:	0500                	addi	s0,sp,640
     3ec:	fae4                	fsw	fs1,116(a3)
     3ee:	0000                	unimp
     3f0:	5c00                	lw	s0,56(s0)
     3f2:	0005990b          	0x5990b
     3f6:	0500                	addi	s0,sp,640
     3f8:	33e5                	jal	1e0 <machine_trap_entry+0x20>
     3fa:	0000                	unimp
     3fc:	6400                	flw	fs0,8(s0)
     3fe:	1300                	addi	s0,sp,416
     400:	00000093          	li	ra,0
     404:	041d                	addi	s0,s0,7
     406:	0000                	unimp
     408:	1d14                	addi	a3,sp,688
     40a:	0004                	addi	s1,sp,0
     40c:	1400                	addi	s0,sp,544
     40e:	0110                	addi	a2,sp,128
     410:	0000                	unimp
     412:	5a14                	lw	a3,48(a2)
     414:	0005                	c.addi	zero,1
     416:	1400                	addi	s0,sp,544
     418:	00000033          	add	zero,zero,zero
     41c:	0f00                	addi	s0,sp,912
     41e:	2804                	fld	fs1,16(s0)
     420:	0004                	addi	s1,sp,0
     422:	1500                	addi	s0,sp,672
     424:	041d                	addi	s0,s0,7
     426:	0000                	unimp
     428:	fe16                	fsw	ft5,60(sp)
     42a:	0005                	c.addi	zero,1
     42c:	2800                	fld	fs0,16(s0)
     42e:	0504                	addi	s1,sp,640
     430:	0239                	addi	tp,tp,14
     432:	055a                	slli	a0,a0,0x16
     434:	0000                	unimp
     436:	00058917          	auipc	s2,0x58
     43a:	0500                	addi	s0,sp,640
     43c:	0033023b          	0x33023b
     440:	0000                	unimp
     442:	1700                	addi	s0,sp,928
     444:	000006f7          	0x6f7
     448:	4005                	0x4005
     44a:	4602                	lw	a2,0(sp)
     44c:	0006                	0x6
     44e:	0400                	addi	s0,sp,512
     450:	0006df17          	auipc	t5,0x6d
     454:	0500                	addi	s0,sp,640
     456:	0240                	addi	s0,sp,260
     458:	0646                	slli	a2,a2,0x11
     45a:	0000                	unimp
     45c:	1708                	addi	a0,sp,928
     45e:	0342                	slli	t1,t1,0x10
     460:	0000                	unimp
     462:	4005                	0x4005
     464:	4602                	lw	a2,0(sp)
     466:	0006                	0x6
     468:	0c00                	addi	s0,sp,528
     46a:	0005da17          	auipc	s4,0x5d
     46e:	0500                	addi	s0,sp,640
     470:	0242                	slli	tp,tp,0x10
     472:	00000033          	add	zero,zero,zero
     476:	1710                	addi	a2,sp,928
     478:	0024                	addi	s1,sp,8
     47a:	0000                	unimp
     47c:	4305                	li	t1,1
     47e:	2802                	fld	fa6,0(sp)
     480:	0008                	addi	a0,sp,0
     482:	1400                	addi	s0,sp,544
     484:	00036217          	auipc	tp,0x36
     488:	0500                	addi	s0,sp,640
     48a:	0246                	slli	tp,tp,0x11
     48c:	00000033          	add	zero,zero,zero
     490:	1730                	addi	a2,sp,936
     492:	05e4                	addi	s1,sp,716
     494:	0000                	unimp
     496:	4705                	li	a4,1
     498:	3d02                	fld	fs10,32(sp)
     49a:	0008                	addi	a0,sp,0
     49c:	3400                	fld	fs0,40(s0)
     49e:	00050617          	auipc	a2,0x50
     4a2:	0500                	addi	s0,sp,640
     4a4:	0249                	addi	tp,tp,18
     4a6:	00000033          	add	zero,zero,zero
     4aa:	1738                	addi	a4,sp,936
     4ac:	05ec                	addi	a1,sp,716
     4ae:	0000                	unimp
     4b0:	4b05                	li	s6,1
     4b2:	4e02                	lw	t3,0(sp)
     4b4:	0008                	addi	a0,sp,0
     4b6:	3c00                	fld	fs0,56(s0)
     4b8:	00042517          	auipc	a0,0x42
     4bc:	0500                	addi	s0,sp,640
     4be:	024e                	slli	tp,tp,0x13
     4c0:	0170                	addi	a2,sp,140
     4c2:	0000                	unimp
     4c4:	1740                	addi	s0,sp,932
     4c6:	02ce                	slli	t0,t0,0x13
     4c8:	0000                	unimp
     4ca:	4f05                	li	t5,1
     4cc:	3302                	fld	ft6,32(sp)
     4ce:	0000                	unimp
     4d0:	4400                	lw	s0,8(s0)
     4d2:	00079317          	auipc	t1,0x79
     4d6:	0500                	addi	s0,sp,640
     4d8:	0250                	addi	a2,sp,260
     4da:	0170                	addi	a2,sp,140
     4dc:	0000                	unimp
     4de:	1748                	addi	a0,sp,932
     4e0:	0522                	slli	a0,a0,0x8
     4e2:	0000                	unimp
     4e4:	5105                	li	sp,-31
     4e6:	5402                	lw	s0,32(sp)
     4e8:	0008                	addi	a0,sp,0
     4ea:	4c00                	lw	s0,24(s0)
     4ec:	00039f17          	auipc	t5,0x39
     4f0:	0500                	addi	s0,sp,640
     4f2:	0254                	addi	a3,sp,260
     4f4:	00000033          	add	zero,zero,zero
     4f8:	1750                	addi	a2,sp,932
     4fa:	000002fb          	0x2fb
     4fe:	5505                	li	a0,-31
     500:	5a02                	lw	s4,32(sp)
     502:	0005                	c.addi	zero,1
     504:	5400                	lw	s0,40(s0)
     506:	00058217          	auipc	tp,0x58
     50a:	0500                	addi	s0,sp,640
     50c:	0278                	addi	a4,sp,268
     50e:	0806                	slli	a6,a6,0x1
     510:	0000                	unimp
     512:	1858                	addi	a4,sp,52
     514:	04f4                	addi	a3,sp,588
     516:	0000                	unimp
     518:	7c05                	lui	s8,0xfffe1
     51a:	8d02                	jr	s10
     51c:	0002                	0x2
     51e:	4800                	lw	s0,16(s0)
     520:	1801                	addi	a6,a6,-32
     522:	00000403          	lb	s0,0(zero) # 0 <buf.1775>
     526:	7d05                	lui	s10,0xfffe1
     528:	4f02                	lw	t5,0(sp)
     52a:	0002                	0x2
     52c:	4c00                	lw	s0,24(s0)
     52e:	1801                	addi	a6,a6,-32
     530:	0711                	addi	a4,a4,4
     532:	0000                	unimp
     534:	8105                	srli	a0,a0,0x1
     536:	6502                	flw	fa0,0(sp)
     538:	0008                	addi	a0,sp,0
     53a:	dc00                	sw	s0,56(s0)
     53c:	1802                	slli	a6,a6,0x20
     53e:	000002ab          	0x2ab
     542:	8605                	srai	a2,a2,0x1
     544:	0b02                	slli	s6,s6,0x0
     546:	0006                	0x6
     548:	e000                	fsw	fs0,0(s0)
     54a:	1802                	slli	a6,a6,0x20
     54c:	0219                	addi	tp,tp,6
     54e:	0000                	unimp
     550:	8705                	srai	a4,a4,0x1
     552:	7102                	flw	ft2,32(sp)
     554:	0008                	addi	a0,sp,0
     556:	ec00                	fsw	fs0,24(s0)
     558:	0002                	0x2
     55a:	0560040f          	0x560040f
     55e:	0000                	unimp
     560:	0102                	slli	sp,sp,0x0
     562:	9d08                	0x9d08
     564:	0006                	0x6
     566:	1500                	addi	s0,sp,672
     568:	0560                	addi	s0,sp,652
     56a:	0000                	unimp
     56c:	03ff040f          	0x3ff040f
     570:	0000                	unimp
     572:	00009313          	slli	t1,ra,0x0
     576:	9000                	0x9000
     578:	0005                	c.addi	zero,1
     57a:	1400                	addi	s0,sp,544
     57c:	041d                	addi	s0,s0,7
     57e:	0000                	unimp
     580:	1014                	addi	a3,sp,32
     582:	0001                	nop
     584:	1400                	addi	s0,sp,544
     586:	0590                	addi	a2,sp,704
     588:	0000                	unimp
     58a:	3314                	fld	fa3,32(a4)
     58c:	0000                	unimp
     58e:	0000                	unimp
     590:	0567040f          	0x567040f
     594:	0000                	unimp
     596:	9015                	srli	s0,s0,0x25
     598:	0005                	c.addi	zero,1
     59a:	0f00                	addi	s0,sp,912
     59c:	7204                	flw	fs1,32(a2)
     59e:	0005                	c.addi	zero,1
     5a0:	1300                	addi	s0,sp,416
     5a2:	0088                	addi	a0,sp,64
     5a4:	0000                	unimp
     5a6:	000005bf 00041d14 	0x41d14000005bf
     5ae:	1400                	addi	s0,sp,544
     5b0:	0110                	addi	a2,sp,128
     5b2:	0000                	unimp
     5b4:	8814                	0x8814
     5b6:	0000                	unimp
     5b8:	1400                	addi	s0,sp,544
     5ba:	00000033          	add	zero,zero,zero
     5be:	0f00                	addi	s0,sp,912
     5c0:	a104                	fsd	fs1,0(a0)
     5c2:	0005                	c.addi	zero,1
     5c4:	1300                	addi	s0,sp,416
     5c6:	00000033          	add	zero,zero,zero
     5ca:	05d9                	addi	a1,a1,22
     5cc:	0000                	unimp
     5ce:	1d14                	addi	a3,sp,688
     5d0:	0004                	addi	s1,sp,0
     5d2:	1400                	addi	s0,sp,544
     5d4:	0110                	addi	a2,sp,128
     5d6:	0000                	unimp
     5d8:	0f00                	addi	s0,sp,912
     5da:	c504                	sw	s1,8(a0)
     5dc:	0005                	c.addi	zero,1
     5de:	0800                	addi	s0,sp,16
     5e0:	0000004f          	fnmadd.s	ft0,ft0,ft0,ft0,rne
     5e4:	000005ef          	jal	a1,5e4 <vprintfmt.constprop.0+0x16e>
     5e8:	2509                	jal	bea <putchar+0x6c>
     5ea:	0000                	unimp
     5ec:	0200                	addi	s0,sp,256
     5ee:	0800                	addi	s0,sp,16
     5f0:	0000004f          	fnmadd.s	ft0,ft0,ft0,ft0,rne
     5f4:	05ff                	0x5ff
     5f6:	0000                	unimp
     5f8:	2509                	jal	bfa <putchar+0x7c>
     5fa:	0000                	unimp
     5fc:	0000                	unimp
     5fe:	0500                	addi	s0,sp,640
     600:	000002c7          	fmsub.s	ft5,ft0,ft0,ft0,rne
     604:	1f05                	addi	t5,t5,-31
     606:	d501                	beqz	a0,50e <vprintfmt.constprop.0+0x98>
     608:	0002                	0x2
     60a:	1900                	addi	s0,sp,176
     60c:	06f1                	addi	a3,a3,28
     60e:	0000                	unimp
     610:	050c                	addi	a1,sp,640
     612:	06400123          	sb	tp,98(zero) # 62 <buflen.1776+0x22>
     616:	0000                	unimp
     618:	0007c017          	auipc	zero,0x7c
     61c:	0500                	addi	s0,sp,640
     61e:	0125                	addi	sp,sp,9
     620:	0640                	addi	s0,sp,772
     622:	0000                	unimp
     624:	1700                	addi	s0,sp,928
     626:	000003bf 33012605 	0x33012605000003bf
     62e:	0000                	unimp
     630:	0400                	addi	s0,sp,512
     632:	0005a117          	auipc	sp,0x5a
     636:	0500                	addi	s0,sp,640
     638:	06460127          	0x6460127
     63c:	0000                	unimp
     63e:	0008                	addi	a0,sp,0
     640:	060b040f          	0x60b040f
     644:	0000                	unimp
     646:	05ff040f          	0x5ff040f
     64a:	0000                	unimp
     64c:	1c19                	addi	s8,s8,-26
     64e:	0000                	unimp
     650:	0e00                	addi	s0,sp,784
     652:	3f05                	jal	582 <vprintfmt.constprop.0+0x10c>
     654:	8101                	srli	a0,a0,0x0
     656:	0006                	0x6
     658:	1700                	addi	s0,sp,928
     65a:	0000065b          	0x65b
     65e:	4005                	0x4005
     660:	8101                	srli	a0,a0,0x0
     662:	0006                	0x6
     664:	0000                	unimp
     666:	00045417          	auipc	s0,0x45
     66a:	0500                	addi	s0,sp,640
     66c:	0141                	addi	sp,sp,16
     66e:	0681                	addi	a3,a3,0
     670:	0000                	unimp
     672:	1706                	slli	a4,a4,0x21
     674:	06a2                	slli	a3,a3,0x8
     676:	0000                	unimp
     678:	4205                	li	tp,1
     67a:	5d01                	li	s10,-32
     67c:	0000                	unimp
     67e:	0c00                	addi	s0,sp,528
     680:	0800                	addi	s0,sp,16
     682:	005d                	c.addi	zero,23
     684:	0000                	unimp
     686:	0691                	addi	a3,a3,4
     688:	0000                	unimp
     68a:	2509                	jal	c8c <sc_printf+0x4>
     68c:	0000                	unimp
     68e:	0200                	addi	s0,sp,256
     690:	1a00                	addi	s0,sp,304
     692:	05d0                	addi	a2,sp,708
     694:	0259                	addi	tp,tp,22
     696:	0792                	slli	a5,a5,0x4
     698:	0000                	unimp
     69a:	00049017          	auipc	zero,0x49
     69e:	0500                	addi	s0,sp,640
     6a0:	0025025b          	0x25025b
     6a4:	0000                	unimp
     6a6:	1700                	addi	s0,sp,928
     6a8:	00000677          	0x677
     6ac:	5c05                	li	s8,-31
     6ae:	5a02                	lw	s4,32(sp)
     6b0:	0005                	c.addi	zero,1
     6b2:	0400                	addi	s0,sp,512
     6b4:	00041817          	auipc	a6,0x41
     6b8:	0500                	addi	s0,sp,640
     6ba:	025d                	addi	tp,tp,23
     6bc:	0792                	slli	a5,a5,0x4
     6be:	0000                	unimp
     6c0:	1708                	addi	a0,sp,928
     6c2:	074d                	addi	a4,a4,19
     6c4:	0000                	unimp
     6c6:	5e05                	li	t3,-31
     6c8:	8602                	jr	a2
     6ca:	0001                	nop
     6cc:	2400                	fld	fs0,8(s0)
     6ce:	00034a17          	auipc	s4,0x34
     6d2:	0500                	addi	s0,sp,640
     6d4:	025f 0033 0000      	0x33025f
     6da:	1748                	addi	a0,sp,932
     6dc:	000007bb          	0x7bb
     6e0:	6005                	0x6005
     6e2:	2c02                	fld	fs8,0(sp)
     6e4:	0000                	unimp
     6e6:	5000                	lw	s0,32(s0)
     6e8:	00076517          	auipc	a0,0x76
     6ec:	0500                	addi	s0,sp,640
     6ee:	0261                	addi	tp,tp,24
     6f0:	064c                	addi	a1,sp,772
     6f2:	0000                	unimp
     6f4:	1758                	addi	a4,sp,932
     6f6:	05cd                	addi	a1,a1,19
     6f8:	0000                	unimp
     6fa:	6205                	lui	tp,0x1
     6fc:	fa02                	fsw	ft0,52(sp)
     6fe:	0000                	unimp
     700:	6800                	flw	fs0,16(s0)
     702:	00078517          	auipc	a0,0x78
     706:	0500                	addi	s0,sp,640
     708:	00fa0263          	beq	s4,a5,70c <vprintfmt.constprop.0+0x296>
     70c:	0000                	unimp
     70e:	1770                	addi	a2,sp,940
     710:	0000020b          	0x20b
     714:	6405                	lui	s0,0x1
     716:	fa02                	fsw	ft0,52(sp)
     718:	0000                	unimp
     71a:	7800                	flw	fs0,48(s0)
     71c:	00070717          	auipc	a4,0x70
     720:	0500                	addi	s0,sp,640
     722:	0265                	addi	tp,tp,25
     724:	07a2                	slli	a5,a5,0x8
     726:	0000                	unimp
     728:	1780                	addi	s0,sp,992
     72a:	040c                	addi	a1,sp,512
     72c:	0000                	unimp
     72e:	6605                	lui	a2,0x1
     730:	b202                	fsd	ft0,288(sp)
     732:	88000007          	0x88000007
     736:	00004817          	auipc	a6,0x4
     73a:	0500                	addi	s0,sp,640
     73c:	00330267          	jalr	tp,3(t1) # 794d5 <__C_STACK_TOP__+0x694d5>
     740:	0000                	unimp
     742:	17a0                	addi	s0,sp,1000
     744:	0314                	addi	a3,sp,384
     746:	0000                	unimp
     748:	6805                	lui	a6,0x1
     74a:	fa02                	fsw	ft0,52(sp)
     74c:	0000                	unimp
     74e:	a400                	fsd	fs0,8(s0)
     750:	00017c17          	auipc	s8,0x17
     754:	0500                	addi	s0,sp,640
     756:	0269                	addi	tp,tp,26
     758:	00fa                	slli	ra,ra,0x1e
     75a:	0000                	unimp
     75c:	17ac                	addi	a1,sp,1000
     75e:	00000303          	lb	t1,0(zero) # 4969a <__C_STACK_TOP__+0x3969a>
     762:	6a05                	lui	s4,0x1
     764:	fa02                	fsw	ft0,52(sp)
     766:	0000                	unimp
     768:	b400                	fsd	fs0,40(s0)
     76a:	00005b17          	auipc	s6,0x5
     76e:	0500                	addi	s0,sp,640
     770:	00fa026b          	0xfa026b
     774:	0000                	unimp
     776:	17bc                	addi	a5,sp,1000
     778:	0128                	addi	a0,sp,136
     77a:	0000                	unimp
     77c:	6c05                	lui	s8,0x1
     77e:	fa02                	fsw	ft0,52(sp)
     780:	0000                	unimp
     782:	c400                	sw	s0,8(s0)
     784:	00058717          	auipc	a4,0x58
     788:	0500                	addi	s0,sp,640
     78a:	026d                	addi	tp,tp,27
     78c:	00000033          	add	zero,zero,zero
     790:	00cc                	addi	a1,sp,68
     792:	6008                	flw	fa0,0(s0)
     794:	0005                	c.addi	zero,1
     796:	a200                	fsd	fs0,0(a2)
     798:	09000007          	0x9000007
     79c:	0025                	c.addi	zero,9
     79e:	0000                	unimp
     7a0:	0019                	c.addi	zero,6
     7a2:	6008                	flw	fa0,0(s0)
     7a4:	0005                	c.addi	zero,1
     7a6:	b200                	fsd	fs0,32(a2)
     7a8:	09000007          	0x9000007
     7ac:	0025                	c.addi	zero,9
     7ae:	0000                	unimp
     7b0:	60080007          	0x60080007
     7b4:	0005                	c.addi	zero,1
     7b6:	c200                	sw	s0,0(a2)
     7b8:	09000007          	0x9000007
     7bc:	0025                	c.addi	zero,9
     7be:	0000                	unimp
     7c0:	f01a0017          	auipc	zero,0xf01a0
     7c4:	7205                	lui	tp,0xfffe1
     7c6:	e602                	fsw	ft0,12(sp)
     7c8:	17000007          	0x17000007
     7cc:	00000433          	add	s0,zero,zero
     7d0:	7505                	lui	a0,0xfffe1
     7d2:	e602                	fsw	ft0,12(sp)
     7d4:	00000007          	0x7
     7d8:	00035917          	auipc	s2,0x35
     7dc:	0500                	addi	s0,sp,640
     7de:	0276                	slli	tp,tp,0x1d
     7e0:	07f6                	slli	a5,a5,0x1d
     7e2:	0000                	unimp
     7e4:	0078                	addi	a4,sp,12
     7e6:	cf08                	sw	a0,24(a4)
     7e8:	0002                	0x2
     7ea:	f600                	fsw	fs0,40(a2)
     7ec:	09000007          	0x9000007
     7f0:	0025                	c.addi	zero,9
     7f2:	0000                	unimp
     7f4:	001d                	c.addi	zero,7
     7f6:	2508                	fld	fa0,8(a0)
     7f8:	0000                	unimp
     7fa:	0600                	addi	s0,sp,768
     7fc:	0008                	addi	a0,sp,0
     7fe:	0900                	addi	s0,sp,144
     800:	0025                	c.addi	zero,9
     802:	0000                	unimp
     804:	001d                	c.addi	zero,7
     806:	5705f01b          	0x5705f01b
     80a:	2802                	fld	fa6,0(sp)
     80c:	0008                	addi	a0,sp,0
     80e:	1c00                	addi	s0,sp,560
     810:	05fe                	slli	a1,a1,0x1f
     812:	0000                	unimp
     814:	6e05                	lui	t3,0x1
     816:	9102                	jalr	sp
     818:	0006                	0x6
     81a:	1c00                	addi	s0,sp,560
     81c:	0730                	addi	a2,sp,904
     81e:	0000                	unimp
     820:	7705                	lui	a4,0xfffe1
     822:	c202                	sw	zero,4(sp)
     824:	00000007          	0x7
     828:	6008                	flw	fa0,0(s0)
     82a:	0005                	c.addi	zero,1
     82c:	3800                	fld	fs0,48(s0)
     82e:	0008                	addi	a0,sp,0
     830:	0900                	addi	s0,sp,144
     832:	0025                	c.addi	zero,9
     834:	0000                	unimp
     836:	0018                	addi	a4,sp,0
     838:	711d                	addi	sp,sp,-96
     83a:	0001                	nop
     83c:	0f00                	addi	s0,sp,912
     83e:	3804                	fld	fs1,48(s0)
     840:	0008                	addi	a0,sp,0
     842:	1e00                	addi	s0,sp,816
     844:	084e                	slli	a6,a6,0x13
     846:	0000                	unimp
     848:	1d14                	addi	a3,sp,688
     84a:	0004                	addi	s1,sp,0
     84c:	0000                	unimp
     84e:	0843040f          	0x843040f
     852:	0000                	unimp
     854:	0170040f          	0x170040f
     858:	0000                	unimp
     85a:	651e                	flw	fa0,196(sp)
     85c:	0008                	addi	a0,sp,0
     85e:	1400                	addi	s0,sp,544
     860:	00000033          	add	zero,zero,zero
     864:	0f00                	addi	s0,sp,912
     866:	6b04                	flw	fs1,16(a4)
     868:	0008                	addi	a0,sp,0
     86a:	0f00                	addi	s0,sp,912
     86c:	5a04                	lw	s1,48(a2)
     86e:	0008                	addi	a0,sp,0
     870:	0800                	addi	s0,sp,16
     872:	05ff                	0x5ff
     874:	0000                	unimp
     876:	0881                	addi	a7,a7,0
     878:	0000                	unimp
     87a:	2509                	jal	e7c <core_list_undo_remove+0x8>
     87c:	0000                	unimp
     87e:	0200                	addi	s0,sp,256
     880:	1f00                	addi	s0,sp,944
     882:	000006cb          	fnmsub.s	fa3,ft0,ft0,ft0,rne
     886:	fe05                	bnez	a2,7be <vprintfmt.constprop.0+0x348>
     888:	1d02                	slli	s10,s10,0x20
     88a:	0004                	addi	s1,sp,0
     88c:	1f00                	addi	s0,sp,944
     88e:	06c4                	addi	s1,sp,836
     890:	0000                	unimp
     892:	ff05                	bnez	a4,7ca <vprintfmt.constprop.0+0x354>
     894:	2302                	fld	ft6,0(sp)
     896:	0004                	addi	s1,sp,0
     898:	0800                	addi	s0,sp,16
     89a:	0596                	slli	a1,a1,0x5
     89c:	0000                	unimp
     89e:	08a4                	addi	s1,sp,88
     8a0:	0000                	unimp
     8a2:	0020                	addi	s0,sp,8
     8a4:	9915                	andi	a0,a0,-27
     8a6:	0008                	addi	a0,sp,0
     8a8:	2100                	fld	fs0,0(a0)
     8aa:	02ee                	slli	t0,t0,0x1b
     8ac:	0000                	unimp
     8ae:	1406                	slli	s0,s0,0x21
     8b0:	08a4                	addi	s1,sp,88
     8b2:	0000                	unimp
     8b4:	c321                	beqz	a4,8f4 <vprintfmt.constprop.0+0x47e>
     8b6:	0005                	c.addi	zero,1
     8b8:	0600                	addi	s0,sp,768
     8ba:	3315                	jal	5de <vprintfmt.constprop.0+0x168>
     8bc:	0000                	unimp
     8be:	0f00                	addi	s0,sp,912
     8c0:	c504                	sw	s1,8(a0)
     8c2:	0008                	addi	a0,sp,0
     8c4:	1300                	addi	s0,sp,416
     8c6:	00000033          	add	zero,zero,zero
     8ca:	08d9                	addi	a7,a7,22
     8cc:	0000                	unimp
     8ce:	d914                	sw	a3,48(a0)
     8d0:	0008                	addi	a0,sp,0
     8d2:	1400                	addi	s0,sp,544
     8d4:	08d9                	addi	a7,a7,22
     8d6:	0000                	unimp
     8d8:	0f00                	addi	s0,sp,912
     8da:	df04                	sw	s1,56(a4)
     8dc:	0008                	addi	a0,sp,0
     8de:	2200                	fld	fs0,0(a2)
     8e0:	fc21                	bnez	s0,838 <vprintfmt.constprop.0+0x3c2>
     8e2:	0004                	addi	s1,sp,0
     8e4:	0700                	addi	s0,sp,896
     8e6:	00055a63          	bgez	a0,8fa <vprintfmt.constprop.0+0x484>
     8ea:	2100                	fld	fs0,0(a0)
     8ec:	043a                	slli	s0,s0,0xe
     8ee:	0000                	unimp
     8f0:	1008                	addi	a0,sp,32
     8f2:	08f6                	slli	a7,a7,0x1d
     8f4:	0000                	unimp
     8f6:	055a040f          	0x55a040f
     8fa:	0000                	unimp
     8fc:	ff21                	bnez	a4,854 <vprintfmt.constprop.0+0x3de>
     8fe:	0004                	addi	s1,sp,0
     900:	0800                	addi	s0,sp,16
     902:	5ae2                	lw	s5,56(sp)
     904:	0005                	c.addi	zero,1
     906:	2100                	fld	fs0,0(a0)
     908:	014c                	addi	a1,sp,132
     90a:	0000                	unimp
     90c:	e308                	fsw	fa0,0(a4)
     90e:	00000033          	add	zero,zero,zero
     912:	6121                	addi	sp,sp,64
     914:	0006                	0x6
     916:	0800                	addi	s0,sp,16
     918:	000033e3          	0x33e3
     91c:	2100                	fld	fs0,0(a0)
     91e:	0774                	addi	a3,sp,908
     920:	0000                	unimp
     922:	e308                	fsw	fa0,0(a4)
     924:	00000033          	add	zero,zero,zero
     928:	6e21                	lui	t3,0x8
     92a:	0004                	addi	s1,sp,0
     92c:	0800                	addi	s0,sp,16
     92e:	33e5                	jal	716 <vprintfmt.constprop.0+0x2a0>
     930:	0000                	unimp
     932:	2100                	fld	fs0,0(a0)
     934:	052c                	addi	a1,sp,648
     936:	0000                	unimp
     938:	9a09                	andi	a2,a2,-30
     93a:	0064                	addi	s1,sp,12
     93c:	0000                	unimp
     93e:	2f21                	jal	1056 <core_bench_list+0x24>
     940:	0000                	unimp
     942:	0900                	addi	s0,sp,144
     944:	0000339b          	0x339b
     948:	0800                	addi	s0,sp,16
     94a:	055a                	slli	a0,a0,0x16
     94c:	0000                	unimp
     94e:	0959                	addi	s2,s2,22
     950:	0000                	unimp
     952:	2509                	jal	f54 <core_list_mergesort+0x6c>
     954:	0000                	unimp
     956:	0100                	addi	s0,sp,128
     958:	2100                	fld	fs0,0(a0)
     95a:	0000018b          	0x18b
     95e:	9e09                	0x9e09
     960:	0949                	addi	s2,s2,18
     962:	0000                	unimp
     964:	ad04                	fsd	fs1,24(a0)
     966:	0a000003          	lb	zero,160(zero) # f01a0860 <__C_STACK_TOP__+0xf0190860>
     96a:	252a                	fld	fa0,136(sp)
     96c:	0000                	unimp
     96e:	0400                	addi	s0,sp,512
     970:	05b1                	addi	a1,a1,12
     972:	0000                	unimp
     974:	2f0a                	fld	ft10,128(sp)
     976:	097a                	slli	s2,s2,0x1e
     978:	0000                	unimp
     97a:	0980040f          	0x980040f
     97e:	0000                	unimp
     980:	00096413          	ori	s0,s2,0
     984:	8f00                	0x8f00
     986:	0009                	c.addi	zero,2
     988:	1400                	addi	s0,sp,544
     98a:	08d9                	addi	a7,a7,22
     98c:	0000                	unimp
     98e:	0400                	addi	s0,sp,512
     990:	07c6                	slli	a5,a5,0x11
     992:	0000                	unimp
     994:	360a                	fld	fa2,160(sp)
     996:	000008bf 00000a21 	0xa21000008bf
     99e:	0a00                	addi	s0,sp,272
     9a0:	00096fbb          	0x96fbb
     9a4:	2100                	fld	fs0,0(a0)
     9a6:	000006af          	0x6af
     9aa:	be0a                	fsd	ft2,312(sp)
     9ac:	0000098f          	0x98f
     9b0:	00038023          	sb	zero,0(t2)
     9b4:	0700                	addi	s0,sp,896
     9b6:	2504                	fld	fs1,8(a0)
     9b8:	0000                	unimp
     9ba:	0b00                	addi	s0,sp,400
     9bc:	e618                	fsw	fa4,8(a2)
     9be:	0009                	c.addi	zero,2
     9c0:	2400                	fld	fs0,8(s0)
     9c2:	0562                	slli	a0,a0,0x18
     9c4:	0000                	unimp
     9c6:	2400                	fld	fs0,8(s0)
     9c8:	04d2                	slli	s1,s1,0x14
     9ca:	0000                	unimp
     9cc:	2401                	jal	bcc <putchar+0x4e>
     9ce:	049d                	addi	s1,s1,7
     9d0:	0000                	unimp
     9d2:	2402                	fld	fs0,0(sp)
     9d4:	0559                	addi	a0,a0,22
     9d6:	0000                	unimp
     9d8:	077b2403          	lw	s0,119(s6) # 57e1 <__umoddi3+0x5d5>
     9dc:	0000                	unimp
     9de:	2404                	fld	fs1,8(s0)
     9e0:	076a                	slli	a4,a4,0x1a
     9e2:	0000                	unimp
     9e4:	0005                	c.addi	zero,1
     9e6:	6721                	lui	a4,0x8
     9e8:	0001                	nop
     9ea:	0b00                	addi	s0,sp,400
     9ec:	b020                	fsd	fs0,96(s0)
     9ee:	0009                	c.addi	zero,2
     9f0:	2300                	fld	fs0,0(a4)
     9f2:	04a8                	addi	a0,sp,584
     9f4:	0000                	unimp
     9f6:	00250407          	0x250407
     9fa:	0000                	unimp
     9fc:	0a15220b          	0xa15220b
     a00:	0000                	unimp
     a02:	a724                	fsd	fs1,72(a4)
     a04:	0005                	c.addi	zero,1
     a06:	0000                	unimp
     a08:	7824                	flw	fs1,112(s0)
     a0a:	0005                	c.addi	zero,1
     a0c:	0100                	addi	s0,sp,128
     a0e:	8424                	0x8424
     a10:	0006                	0x6
     a12:	0200                	addi	s0,sp,256
     a14:	2100                	fld	fs0,0(a0)
     a16:	0322                	slli	t1,t1,0x8
     a18:	0000                	unimp
     a1a:	09f1270b          	0x9f1270b
     a1e:	0000                	unimp
     a20:	5f21                	li	t5,-24
     a22:	0004                	addi	s1,sp,0
     a24:	0c00                	addi	s0,sp,528
     a26:	a425                	j	c4e <putchar+0xd0>
     a28:	0008                	addi	a0,sp,0
     a2a:	2100                	fld	fs0,0(a0)
     a2c:	0000064b          	fnmsub.s	fa2,ft0,ft0,ft0,rne
     a30:	310c                	fld	fa1,32(a0)
     a32:	08a4                	addi	s1,sp,88
     a34:	0000                	unimp
     a36:	a204                	fsd	fs1,0(a2)
     a38:	0d000007          	0xd000007
     a3c:	00004f7b          	0x4f7b
     a40:	1500                	addi	s0,sp,672
     a42:	0a36                	slli	s4,s4,0xd
     a44:	0000                	unimp
     a46:	d904                	sw	s1,48(a0)
     a48:	0002                	0x2
     a4a:	0d00                	addi	s0,sp,656
     a4c:	3380                	fld	fs0,32(a5)
     a4e:	0000                	unimp
     a50:	0400                	addi	s0,sp,512
     a52:	02d8                	addi	a4,sp,324
     a54:	0000                	unimp
     a56:	810d                	srli	a0,a0,0x3
     a58:	0025                	c.addi	zero,9
     a5a:	0000                	unimp
     a5c:	d804                	sw	s1,48(s0)
     a5e:	0006                	0x6
     a60:	0d00                	addi	s0,sp,656
     a62:	3a84                	fld	fs1,48(a3)
     a64:	0000                	unimp
     a66:	0400                	addi	s0,sp,512
     a68:	000006d7          	0x6d7
     a6c:	850d                	srai	a0,a0,0x3
     a6e:	002c                	addi	a1,sp,8
     a70:	0000                	unimp
     a72:	0402                	slli	s0,s0,0x0
     a74:	e504                	fsw	fs1,8(a0)
     a76:	0004                	addi	s1,sp,0
     a78:	0200                	addi	s0,sp,256
     a7a:	0308                	addi	a0,sp,384
     a7c:	04dd                	addi	s1,s1,23
     a7e:	0000                	unimp
     a80:	0802                	slli	a6,a6,0x0
     a82:	6004                	flw	fs1,0(s0)
     a84:	0001                	nop
     a86:	0200                	addi	s0,sp,256
     a88:	0310                	addi	a2,sp,384
     a8a:	0039                	c.addi	zero,14
     a8c:	0000                	unimp
     a8e:	2002                	fld	ft0,0(sp)
     a90:	00015303          	lhu	t1,0(sp) # 5a632 <__C_STACK_TOP__+0x4a632>
     a94:	1900                	addi	s0,sp,176
     a96:	03dd                	addi	t2,t2,23
     a98:	0000                	unimp
     a9a:	0d08                	addi	a0,sp,656
     a9c:	01ed                	addi	gp,gp,27
     a9e:	0abd                	addi	s5,s5,15
     aa0:	0000                	unimp
     aa2:	6c25                	lui	s8,0x9
     aa4:	0d00776f          	jal	a4,7b74 <__BSS_END__+0x1534>
     aa8:	01ed                	addi	gp,gp,27
     aaa:	0a46                	slli	s4,s4,0x11
     aac:	0000                	unimp
     aae:	1700                	addi	s0,sp,928
     ab0:	0668                	addi	a0,sp,780
     ab2:	0000                	unimp
     ab4:	ed0d                	bnez	a0,aee <vprintfmt.constprop.0+0x678>
     ab6:	4601                	li	a2,0
     ab8:	000a                	0xa
     aba:	0400                	addi	s0,sp,512
     abc:	1b00                	addi	s0,sp,432
     abe:	0d08                	addi	a0,sp,656
     ac0:	01f4                	addi	a3,sp,204
     ac2:	0adc                	addi	a5,sp,340
     ac4:	0000                	unimp
     ac6:	7326                	flw	ft6,104(sp)
     ac8:	0d00                	addi	s0,sp,656
     aca:	01f6                	slli	gp,gp,0x1d
     acc:	0a95                	addi	s5,s5,5
     ace:	0000                	unimp
     ad0:	6c26                	flw	fs8,72(sp)
     ad2:	006c                	addi	a1,sp,12
     ad4:	f70d                	bnez	a4,9fe <vprintfmt.constprop.0+0x588>
     ad6:	5c01                	li	s8,-32
     ad8:	000a                	0xa
     ada:	0000                	unimp
     adc:	b705                	j	9fc <vprintfmt.constprop.0+0x586>
     ade:	0d000003          	lb	zero,208(zero) # d0 <buflen.1776+0x90>
     ae2:	01f8                	addi	a4,sp,204
     ae4:	0abd                	addi	s5,s5,15
     ae6:	0000                	unimp
     ae8:	dc15                	beqz	s0,a24 <vprintfmt.constprop.0+0x5ae>
     aea:	000a                	0xa
     aec:	0800                	addi	s0,sp,16
     aee:	0a41                	addi	s4,s4,16
     af0:	0000                	unimp
     af2:	0afd                	addi	s5,s5,31
     af4:	0000                	unimp
     af6:	2509                	jal	10f8 <core_bench_list+0xc6>
     af8:	0000                	unimp
     afa:	ff00                	fsw	fs0,56(a4)
     afc:	1500                	addi	s0,sp,672
     afe:	0aed                	addi	s5,s5,27
     b00:	0000                	unimp
     b02:	1b1f 0007 0d00      	0xd0000071b1f
     b08:	01fc                	addi	a5,sp,204
     b0a:	0afd                	addi	s5,s5,31
     b0c:	0000                	unimp
     b0e:	f91f 0003 0d00      	0xd000003f91f
     b14:	0202                	slli	tp,tp,0x0
     b16:	0afd                	addi	s5,s5,31
     b18:	0000                	unimp
     b1a:	0004c927          	fsq	ft0,18(s1)
     b1e:	0100                	addi	s0,sp,128
     b20:	04e6                	slli	s1,s1,0x19
     b22:	0a5c                	addi	a5,sp,276
     b24:	0000                	unimp
     b26:	4978                	lw	a4,84(a0)
     b28:	0000                	unimp
     b2a:	0458                	addi	a4,sp,516
     b2c:	0000                	unimp
     b2e:	9c01                	0x9c01
     b30:	0e75                	addi	t3,t3,29
     b32:	0000                	unimp
     b34:	7528                	flw	fa0,104(a0)
     b36:	0100                	addi	s0,sp,128
     b38:	04e6                	slli	s1,s1,0x19
     b3a:	0a5c                	addi	a5,sp,276
     b3c:	0000                	unimp
     b3e:	0000                	unimp
     b40:	0000                	unimp
     b42:	7628                	flw	fa0,104(a2)
     b44:	0100                	addi	s0,sp,128
     b46:	04e6                	slli	s1,s1,0x19
     b48:	0a5c                	addi	a5,sp,276
     b4a:	0000                	unimp
     b4c:	0028                	addi	a0,sp,8
     b4e:	0000                	unimp
     b50:	6329                	lui	t1,0xa
     b52:	0100                	addi	s0,sp,128
     b54:	04e8                	addi	a0,sp,588
     b56:	0a46                	slli	s4,s4,0x11
     b58:	0000                	unimp
     b5a:	0050                	addi	a2,sp,4
     b5c:	0000                	unimp
     b5e:	7529                	lui	a0,0xfffea
     b60:	0075                	c.addi	zero,29
     b62:	e901                	bnez	a0,b72 <vprintfmt.constprop.0+0x6fc>
     b64:	dc04                	sw	s1,56(s0)
     b66:	000a                	0xa
     b68:	7c00                	flw	fs0,56(s0)
     b6a:	0000                	unimp
     b6c:	2900                	fld	fs0,16(a0)
     b6e:	7676                	flw	fa2,124(sp)
     b70:	0100                	addi	s0,sp,128
     b72:	04ea                	slli	s1,s1,0x1a
     b74:	0adc                	addi	a5,sp,340
     b76:	0000                	unimp
     b78:	00a4                	addi	s1,sp,72
     b7a:	0000                	unimp
     b7c:	7729                	lui	a4,0xfffea
     b7e:	0100                	addi	s0,sp,128
     b80:	0a5c04eb          	0xa5c04eb
     b84:	0000                	unimp
     b86:	014c                	addi	a1,sp,132
     b88:	0000                	unimp
     b8a:	752a                	flw	fa0,168(sp)
     b8c:	000e                	0xe
     b8e:	a800                	fsd	fs0,16(s0)
     b90:	0049                	c.addi	zero,18
     b92:	0000                	unimp
     b94:	0000                	unimp
     b96:	0100                	addi	s0,sp,128
     b98:	9a2b04f3          	0x9a2b04f3
     b9c:	000e                	0xe
     b9e:	8400                	0x8400
     ba0:	0001                	nop
     ba2:	2b00                	fld	fs0,16(a4)
     ba4:	0e90                	addi	a2,sp,848
     ba6:	0000                	unimp
     ba8:	01ac                	addi	a1,sp,200
     baa:	0000                	unimp
     bac:	862c                	0x862c
     bae:	000e                	0xe
     bb0:	2d00                	fld	fs0,24(a0)
     bb2:	0000                	unimp
     bb4:	0000                	unimp
     bb6:	a52e                	fsd	fa1,136(sp)
     bb8:	000e                	0xe
     bba:	2e00                	fld	fs0,24(a2)
     bbc:	0eb0                	addi	a2,sp,856
     bbe:	0000                	unimp
     bc0:	bb2e                	fsd	fa1,432(sp)
     bc2:	000e                	0xe
     bc4:	2f00                	fld	fs0,24(a4)
     bc6:	0ec6                	slli	t4,t4,0x11
     bc8:	0000                	unimp
     bca:	0244                	addi	s1,sp,260
     bcc:	0000                	unimp
     bce:	000ed12f          	0xed12f
     bd2:	8300                	0x8300
     bd4:	0002                	0x2
     bd6:	2f00                	fld	fs0,24(a4)
     bd8:	0edc                	addi	a5,sp,852
     bda:	0000                	unimp
     bdc:	02f9                	addi	t0,t0,30
     bde:	0000                	unimp
     be0:	000ee72f          	0xee72f
     be4:	6f00                	flw	fs0,24(a4)
     be6:	2f000003          	lb	zero,752(zero) # 2f0 <trap_entry+0x8c>
     bea:	0ef2                	slli	t4,t4,0x1c
     bec:	0000                	unimp
     bee:	000003cf          	fnmadd.s	ft7,ft0,ft0,ft0,rne
     bf2:	000efd2f          	0xefd2f
     bf6:	ed00                	fsw	fs0,24(a0)
     bf8:	2f000003          	lb	zero,752(zero) # 2f0 <trap_entry+0x8c>
     bfc:	0f08                	addi	a0,sp,912
     bfe:	0000                	unimp
     c00:	0401                	addi	s0,s0,0
     c02:	0000                	unimp
     c04:	000f132f          	0xf132f
     c08:	2100                	fld	fs0,0(a0)
     c0a:	0004                	addi	s1,sp,0
     c0c:	2f00                	fld	fs0,24(a4)
     c0e:	0f1d                	addi	t5,t5,7
     c10:	0000                	unimp
     c12:	0000043f 000f282e 	0xf282e0000043f
     c1a:	3000                	fld	fs0,32(s0)
     c1c:	00000f33          	add	t5,zero,zero
     c20:	0018                	addi	a4,sp,0
     c22:	0000                	unimp
     c24:	00000c3b          	0xc3b
     c28:	000f382f          	0xf382f
     c2c:	7e00                	flw	fs0,56(a2)
     c2e:	0004                	addi	s1,sp,0
     c30:	2f00                	fld	fs0,24(a4)
     c32:	0f44                	addi	s1,sp,916
     c34:	0000                	unimp
     c36:	049c                	addi	a5,sp,576
     c38:	0000                	unimp
     c3a:	3100                	fld	fs0,32(a0)
     c3c:	0f51                	addi	t5,t5,20
     c3e:	0000                	unimp
     c40:	4a0c                	lw	a1,16(a2)
     c42:	0000                	unimp
     c44:	0070                	addi	a2,sp,12
     c46:	0000                	unimp
     c48:	0c88                	addi	a0,sp,592
     c4a:	0000                	unimp
     c4c:	000f562f          	0xf562f
     c50:	af00                	fsd	fs0,24(a4)
     c52:	0004                	addi	s1,sp,0
     c54:	2f00                	fld	fs0,24(a4)
     c56:	0f62                	slli	t5,t5,0x18
     c58:	0000                	unimp
     c5a:	04c2                	slli	s1,s1,0x10
     c5c:	0000                	unimp
     c5e:	6e2e                	flw	ft8,200(sp)
     c60:	2f00000f          	0x2f00000f
     c64:	0f7a                	slli	t5,t5,0x1e
     c66:	0000                	unimp
     c68:	04e6                	slli	s1,s1,0x19
     c6a:	0000                	unimp
     c6c:	000f862f          	0xf862f
     c70:	f900                	fsw	fs0,48(a0)
     c72:	0004                	addi	s1,sp,0
     c74:	2f00                	fld	fs0,24(a4)
     c76:	0f92                	slli	t6,t6,0x4
     c78:	0000                	unimp
     c7a:	00000517          	auipc	a0,0x0
     c7e:	000f9e2f          	0xf9e2f
     c82:	3500                	fld	fs0,40(a0)
     c84:	0005                	c.addi	zero,1
     c86:	0000                	unimp
     c88:	ab30                	fsd	fa2,80(a4)
     c8a:	3000000f          	0x3000000f
     c8e:	0000                	unimp
     c90:	a800                	fsd	fs0,16(s0)
     c92:	000c                	addi	a1,sp,0
     c94:	2f00                	fld	fs0,24(a4)
     c96:	0fb0                	addi	a2,sp,984
     c98:	0000                	unimp
     c9a:	00000553          	fadd.s	fa0,ft0,ft0,rne
     c9e:	000fbc2f          	0xfbc2f
     ca2:	7100                	flw	fs0,32(a0)
     ca4:	0005                	c.addi	zero,1
     ca6:	0000                	unimp
     ca8:	2331                	jal	11b4 <core_bench_list+0x182>
     caa:	0010                	addi	a2,sp,0
     cac:	f400                	fsw	fs0,40(s0)
     cae:	004a                	0x4a
     cb0:	7400                	flw	fs0,40(s0)
     cb2:	0000                	unimp
     cb4:	f900                	fsw	fs0,48(a0)
     cb6:	000c                	addi	a1,sp,0
     cb8:	2f00                	fld	fs0,24(a4)
     cba:	1028                	addi	a0,sp,40
     cbc:	0000                	unimp
     cbe:	0584                	addi	s1,sp,704
     cc0:	0000                	unimp
     cc2:	0010342f          	0x10342f
     cc6:	9700                	0x9700
     cc8:	0005                	c.addi	zero,1
     cca:	2f00                	fld	fs0,24(a4)
     ccc:	1040                	addi	s0,sp,36
     cce:	0000                	unimp
     cd0:	000005bb          	0x5bb
     cd4:	00104c2f          	0x104c2f
     cd8:	ce00                	sw	s0,24(a2)
     cda:	0005                	c.addi	zero,1
     cdc:	2f00                	fld	fs0,24(a4)
     cde:	1058                	addi	a4,sp,36
     ce0:	0000                	unimp
     ce2:	05e1                	addi	a1,a1,24
     ce4:	0000                	unimp
     ce6:	0010642f          	0x10642f
     cea:	0a00                	addi	s0,sp,272
     cec:	0006                	0x6
     cee:	2f00                	fld	fs0,24(a4)
     cf0:	1070                	addi	a2,sp,44
     cf2:	0000                	unimp
     cf4:	0628                	addi	a0,sp,776
     cf6:	0000                	unimp
     cf8:	3000                	fld	fs0,32(s0)
     cfa:	0fc9                	addi	t6,t6,18
     cfc:	0000                	unimp
     cfe:	0048                	addi	a0,sp,4
     d00:	0000                	unimp
     d02:	0d46                	slli	s10,s10,0x11
     d04:	0000                	unimp
     d06:	000fce2f          	0xfce2f
     d0a:	4600                	lw	s0,8(a2)
     d0c:	0006                	0x6
     d0e:	2f00                	fld	fs0,24(a4)
     d10:	0fda                	slli	t6,t6,0x16
     d12:	0000                	unimp
     d14:	0659                	addi	a2,a2,22
     d16:	0000                	unimp
     d18:	000fe62f          	0xfe62f
     d1c:	7d00                	flw	fs0,56(a0)
     d1e:	0006                	0x6
     d20:	2f00                	fld	fs0,24(a4)
     d22:	0ff2                	slli	t6,t6,0x1c
     d24:	0000                	unimp
     d26:	06d6                	slli	a3,a3,0x15
     d28:	0000                	unimp
     d2a:	000ffe2f          	0xffe2f
     d2e:	e900                	fsw	fs0,16(a0)
     d30:	0006                	0x6
     d32:	2f00                	fld	fs0,24(a4)
     d34:	100a                	0x100a
     d36:	0000                	unimp
     d38:	0722                	slli	a4,a4,0x8
     d3a:	0000                	unimp
     d3c:	0010162f          	0x10162f
     d40:	4000                	lw	s0,0(s0)
     d42:	00000007          	0x7
     d46:	7d30                	flw	fa2,120(a0)
     d48:	0010                	addi	a2,sp,0
     d4a:	6000                	flw	fs0,0(s0)
     d4c:	0000                	unimp
     d4e:	6600                	flw	fs0,8(a2)
     d50:	000d                	c.addi	zero,3
     d52:	2f00                	fld	fs0,24(a4)
     d54:	1082                	slli	ra,ra,0x20
     d56:	0000                	unimp
     d58:	075e                	slli	a4,a4,0x17
     d5a:	0000                	unimp
     d5c:	00108e2f          	0x108e2f
     d60:	9200                	0x9200
     d62:	00000007          	0x7
     d66:	9b31                	andi	a4,a4,-20
     d68:	0010                	addi	a2,sp,0
     d6a:	4c00                	lw	s0,24(s0)
     d6c:	004c                	addi	a1,sp,4
     d6e:	1000                	addi	s0,sp,32
     d70:	0000                	unimp
     d72:	8100                	0x8100
     d74:	000d                	c.addi	zero,3
     d76:	2f00                	fld	fs0,24(a4)
     d78:	10a0                	addi	s0,sp,104
     d7a:	0000                	unimp
     d7c:	07b0                	addi	a2,sp,968
     d7e:	0000                	unimp
     d80:	3200                	fld	fs0,32(a2)
     d82:	10ad                	addi	ra,ra,-21
     d84:	0000                	unimp
     d86:	4c7c                	lw	a5,92(s0)
     d88:	0000                	unimp
     d8a:	0154                	addi	a3,sp,132
     d8c:	0000                	unimp
     d8e:	0010ae2f          	amoadd.w	t3,ra,(ra)
     d92:	c300                	sw	s0,0(a4)
     d94:	2f000007          	0x2f000007
     d98:	10b9                	addi	ra,ra,-18
     d9a:	0000                	unimp
     d9c:	07e1                	addi	a5,a5,24
     d9e:	0000                	unimp
     da0:	c430                	sw	a2,72(s0)
     da2:	0010                	addi	a2,sp,0
     da4:	7800                	flw	fs0,48(s0)
     da6:	0000                	unimp
     da8:	ed00                	fsw	fs0,24(a0)
     daa:	000d                	c.addi	zero,3
     dac:	2f00                	fld	fs0,24(a4)
     dae:	10c9                	addi	ra,ra,-14
     db0:	0000                	unimp
     db2:	080a                	slli	a6,a6,0x2
     db4:	0000                	unimp
     db6:	0010d52f          	0x10d52f
     dba:	2c00                	fld	fs0,24(s0)
     dbc:	0008                	addi	a0,sp,0
     dbe:	2f00                	fld	fs0,24(a4)
     dc0:	10e1                	addi	ra,ra,-8
     dc2:	0000                	unimp
     dc4:	0850                	addi	a2,sp,20
     dc6:	0000                	unimp
     dc8:	0010ed2f          	0x10ed2f
     dcc:	6e00                	flw	fs0,24(a2)
     dce:	0008                	addi	a0,sp,0
     dd0:	2f00                	fld	fs0,24(a4)
     dd2:	10f9                	addi	ra,ra,-2
     dd4:	0000                	unimp
     dd6:	088c                	addi	a1,sp,80
     dd8:	0000                	unimp
     dda:	0011052f          	0x11052f
     dde:	b500                	fsd	fs0,40(a0)
     de0:	0008                	addi	a0,sp,0
     de2:	2f00                	fld	fs0,24(a4)
     de4:	1111                	addi	sp,sp,-28
     de6:	0000                	unimp
     de8:	08de                	slli	a7,a7,0x17
     dea:	0000                	unimp
     dec:	3000                	fld	fs0,32(s0)
     dee:	111e                	slli	sp,sp,0x27
     df0:	0000                	unimp
     df2:	00a0                	addi	s0,sp,72
     df4:	0000                	unimp
     df6:	00000e3f 0011232f 	0x11232f00000e3f
     dfe:	0c00                	addi	s0,sp,528
     e00:	0009                	c.addi	zero,2
     e02:	2f00                	fld	fs0,24(a4)
     e04:	0000112f          	0x112f
     e08:	091f 0000 3b2f      	0x3b2f0000091f
     e0e:	0011                	c.addi	zero,4
     e10:	3200                	fld	fs0,32(a2)
     e12:	0009                	c.addi	zero,2
     e14:	3300                	fld	fs0,32(a4)
     e16:	00001147          	fmsub.s	ft2,ft0,ft0,ft0,rtz
     e1a:	5601                	li	a2,-32
     e1c:	0011532f          	0x11532f
     e20:	4500                	lw	s0,8(a0)
     e22:	0009                	c.addi	zero,2
     e24:	2f00                	fld	fs0,24(a4)
     e26:	115f 0000 0958      	0x9580000115f
     e2c:	0000                	unimp
     e2e:	00116b2f          	0x116b2f
     e32:	8b00                	0x8b00
     e34:	0009                	c.addi	zero,2
     e36:	3300                	fld	fs0,32(a4)
     e38:	00001177          	0x1177
     e3c:	6001                	0x6001
     e3e:	3100                	fld	fs0,32(a0)
     e40:	1184                	addi	s1,sp,224
     e42:	0000                	unimp
     e44:	4d98                	lw	a4,24(a1)
     e46:	0000                	unimp
     e48:	0014                	addi	a3,sp,0
     e4a:	0000                	unimp
     e4c:	0e5a                	slli	t3,t3,0x16
     e4e:	0000                	unimp
     e50:	0011892f          	0x11892f
     e54:	9e00                	0x9e00
     e56:	0009                	c.addi	zero,2
     e58:	0000                	unimp
     e5a:	9632                	add	a2,a2,a2
     e5c:	0011                	c.addi	zero,4
     e5e:	ac00                	fsd	fs0,24(s0)
     e60:	004d                	c.addi	zero,19
     e62:	1000                	addi	s0,sp,32
     e64:	0000                	unimp
     e66:	2f00                	fld	fs0,24(a4)
     e68:	00001197          	auipc	gp,0x1
     e6c:	09b1                	addi	s3,s3,12
     e6e:	0000                	unimp
     e70:	0000                	unimp
     e72:	0000                	unimp
     e74:	3400                	fld	fs0,40(s0)
     e76:	063e                	slli	a2,a2,0xf
     e78:	0000                	unimp
     e7a:	f601                	bnez	a2,d82 <calc_func+0x8e>
     e7c:	000a6703          	0xa6703
     e80:	0300                	addi	s0,sp,384
     e82:	11a6                	slli	gp,gp,0x29
     e84:	0000                	unimp
     e86:	6e35                	lui	t3,0xd
     e88:	0100                	addi	s0,sp,128
     e8a:	03f6                	slli	t2,t2,0x1d
     e8c:	00000a67          	jalr	s4,zero
     e90:	6435                	lui	s0,0xd
     e92:	0100                	addi	s0,sp,128
     e94:	03f6                	slli	t2,t2,0x1d
     e96:	00000a67          	jalr	s4,zero
     e9a:	7235                	lui	tp,0xfffed
     e9c:	0070                	addi	a2,sp,12
     e9e:	f601                	bnez	a2,da6 <calc_func+0xb2>
     ea0:	0011a603          	lw	a2,1(gp) # 1e69 <matrix_test+0x38b>
     ea4:	3600                	fld	fs0,40(a2)
     ea6:	6e6e                	flw	ft8,216(sp)
     ea8:	0100                	addi	s0,sp,128
     eaa:	03f8                	addi	a4,sp,460
     eac:	0ae8                	addi	a0,sp,348
     eae:	0000                	unimp
     eb0:	6436                	flw	fs0,76(sp)
     eb2:	0064                	addi	s1,sp,12
     eb4:	f901                	bnez	a0,dc4 <calc_func+0xd0>
     eb6:	000ae803          	0xae803
     eba:	3600                	fld	fs0,40(a2)
     ebc:	7272                	flw	ft4,60(sp)
     ebe:	0100                	addi	s0,sp,128
     ec0:	03fa                	slli	t2,t2,0x1e
     ec2:	0adc                	addi	a5,sp,340
     ec4:	0000                	unimp
     ec6:	6436                	flw	fs0,76(sp)
     ec8:	0030                	addi	a2,sp,8
     eca:	fb01                	bnez	a4,dda <cmp_complex+0xa>
     ecc:	000a5103          	lhu	sp,0(s4) # 1000 <core_list_mergesort+0x118>
     ed0:	3600                	fld	fs0,40(a2)
     ed2:	3164                	fld	fs1,224(a0)
     ed4:	0100                	addi	s0,sp,128
     ed6:	0a5103fb          	0xa5103fb
     eda:	0000                	unimp
     edc:	6e36                	flw	ft8,76(sp)
     ede:	0030                	addi	a2,sp,8
     ee0:	fb01                	bnez	a4,df0 <cmp_complex+0x20>
     ee2:	000a5103          	lhu	sp,0(s4)
     ee6:	3600                	fld	fs0,40(a2)
     ee8:	316e                	fld	ft2,248(sp)
     eea:	0100                	addi	s0,sp,128
     eec:	0a5103fb          	0xa5103fb
     ef0:	0000                	unimp
     ef2:	6e36                	flw	ft8,76(sp)
     ef4:	0032                	0x32
     ef6:	fb01                	bnez	a4,e06 <copy_info+0xc>
     ef8:	000a5103          	lhu	sp,0(s4)
     efc:	3600                	fld	fs0,40(a2)
     efe:	3071                	jal	78a <vprintfmt.constprop.0+0x314>
     f00:	0100                	addi	s0,sp,128
     f02:	03fc                	addi	a5,sp,460
     f04:	0a51                	addi	s4,s4,20
     f06:	0000                	unimp
     f08:	7136                	flw	ft2,108(sp)
     f0a:	0031                	c.addi	zero,12
     f0c:	fc01                	bnez	s0,e24 <core_list_insert_new+0x18>
     f0e:	000a5103          	lhu	sp,0(s4)
     f12:	3600                	fld	fs0,40(a2)
     f14:	0062                	0x62
     f16:	fd01                	bnez	a0,e2e <core_list_insert_new+0x22>
     f18:	000a5103          	lhu	sp,0(s4)
     f1c:	3600                	fld	fs0,40(a2)
     f1e:	6d62                	flw	fs10,24(sp)
     f20:	0100                	addi	s0,sp,128
     f22:	03fd                	addi	t2,t2,31
     f24:	0a51                	addi	s4,s4,20
     f26:	0000                	unimp
     f28:	7736                	flw	fa4,108(sp)
     f2a:	c6010077          	0xc6010077
     f2e:	e804                	fsw	fs1,16(s0)
     f30:	000a                	0xa
     f32:	3700                	fld	fs0,40(a4)
     f34:	0f51                	addi	t5,t5,20
     f36:	0000                	unimp
     f38:	bf38                	fsd	fa4,120(a4)
     f3a:	0006                	0x6
     f3c:	0100                	addi	s0,sp,128
     f3e:	042d                	addi	s0,s0,11
     f40:	0a51                	addi	s4,s4,20
     f42:	0000                	unimp
     f44:	5f36                	lw	t5,108(sp)
     f46:	615f 0100 042d      	0x42d0100615f
     f4c:	0a51                	addi	s4,s4,20
     f4e:	0000                	unimp
     f50:	3700                	fld	fs0,40(a4)
     f52:	00000fab          	0xfab
     f56:	3e38                	fld	fa4,120(a2)
     f58:	0001                	nop
     f5a:	0100                	addi	s0,sp,128
     f5c:	0439                	addi	s0,s0,14
     f5e:	0a51                	addi	s4,s4,20
     f60:	0000                	unimp
     f62:	3938                	fld	fa4,112(a0)
     f64:	0001                	nop
     f66:	0100                	addi	s0,sp,128
     f68:	0439                	addi	s0,s0,14
     f6a:	0a51                	addi	s4,s4,20
     f6c:	0000                	unimp
     f6e:	7238                	flw	fa4,96(a2)
     f70:	0006                	0x6
     f72:	0100                	addi	s0,sp,128
     f74:	0439                	addi	s0,s0,14
     f76:	0a51                	addi	s4,s4,20
     f78:	0000                	unimp
     f7a:	6d38                	flw	fa4,88(a0)
     f7c:	0006                	0x6
     f7e:	0100                	addi	s0,sp,128
     f80:	0439                	addi	s0,s0,14
     f82:	0a51                	addi	s4,s4,20
     f84:	0000                	unimp
     f86:	3d38                	fld	fa4,120(a0)
     f88:	01000007          	0x1000007
     f8c:	0439                	addi	s0,s0,14
     f8e:	0a51                	addi	s4,s4,20
     f90:	0000                	unimp
     f92:	3838                	fld	fa4,112(s0)
     f94:	01000007          	0x1000007
     f98:	0439                	addi	s0,s0,14
     f9a:	0a51                	addi	s4,s4,20
     f9c:	0000                	unimp
     f9e:	5f36                	lw	t5,108(sp)
     fa0:	6d5f 0100 0439      	0x43901006d5f
     fa6:	0a51                	addi	s4,s4,20
     fa8:	0000                	unimp
     faa:	3700                	fld	fs0,40(a4)
     fac:	0fc9                	addi	t6,t6,18
     fae:	0000                	unimp
     fb0:	bf38                	fsd	fa4,120(a4)
     fb2:	0006                	0x6
     fb4:	0100                	addi	s0,sp,128
     fb6:	0445                	addi	s0,s0,17
     fb8:	0a51                	addi	s4,s4,20
     fba:	0000                	unimp
     fbc:	5f36                	lw	t5,108(sp)
     fbe:	615f 0100 0445      	0x4450100615f
     fc4:	0a51                	addi	s4,s4,20
     fc6:	0000                	unimp
     fc8:	3700                	fld	fs0,40(a4)
     fca:	00001023          	sh	zero,0(zero) # 0 <buf.1775>
     fce:	3e38                	fld	fa4,120(a2)
     fd0:	0001                	nop
     fd2:	0100                	addi	s0,sp,128
     fd4:	045e                	slli	s0,s0,0x17
     fd6:	0a51                	addi	s4,s4,20
     fd8:	0000                	unimp
     fda:	3938                	fld	fa4,112(a0)
     fdc:	0001                	nop
     fde:	0100                	addi	s0,sp,128
     fe0:	045e                	slli	s0,s0,0x17
     fe2:	0a51                	addi	s4,s4,20
     fe4:	0000                	unimp
     fe6:	7238                	flw	fa4,96(a2)
     fe8:	0006                	0x6
     fea:	0100                	addi	s0,sp,128
     fec:	045e                	slli	s0,s0,0x17
     fee:	0a51                	addi	s4,s4,20
     ff0:	0000                	unimp
     ff2:	6d38                	flw	fa4,88(a0)
     ff4:	0006                	0x6
     ff6:	0100                	addi	s0,sp,128
     ff8:	045e                	slli	s0,s0,0x17
     ffa:	0a51                	addi	s4,s4,20
     ffc:	0000                	unimp
     ffe:	3d38                	fld	fa4,120(a0)
    1000:	01000007          	0x1000007
    1004:	045e                	slli	s0,s0,0x17
    1006:	0a51                	addi	s4,s4,20
    1008:	0000                	unimp
    100a:	3838                	fld	fa4,112(s0)
    100c:	01000007          	0x1000007
    1010:	045e                	slli	s0,s0,0x17
    1012:	0a51                	addi	s4,s4,20
    1014:	0000                	unimp
    1016:	5f36                	lw	t5,108(sp)
    1018:	6d5f 0100 045e      	0x45e01006d5f
    101e:	0a51                	addi	s4,s4,20
    1020:	0000                	unimp
    1022:	3700                	fld	fs0,40(a4)
    1024:	107d                	c.addi	zero,-1
    1026:	0000                	unimp
    1028:	3e38                	fld	fa4,120(a2)
    102a:	0001                	nop
    102c:	0100                	addi	s0,sp,128
    102e:	0a510463          	beq	sp,t0,10d6 <core_bench_list+0xa4>
    1032:	0000                	unimp
    1034:	3938                	fld	fa4,112(a0)
    1036:	0001                	nop
    1038:	0100                	addi	s0,sp,128
    103a:	0a510463          	beq	sp,t0,10e2 <core_bench_list+0xb0>
    103e:	0000                	unimp
    1040:	7238                	flw	fa4,96(a2)
    1042:	0006                	0x6
    1044:	0100                	addi	s0,sp,128
    1046:	0a510463          	beq	sp,t0,10ee <core_bench_list+0xbc>
    104a:	0000                	unimp
    104c:	6d38                	flw	fa4,88(a0)
    104e:	0006                	0x6
    1050:	0100                	addi	s0,sp,128
    1052:	0a510463          	beq	sp,t0,10fa <core_bench_list+0xc8>
    1056:	0000                	unimp
    1058:	3d38                	fld	fa4,120(a0)
    105a:	01000007          	0x1000007
    105e:	0a510463          	beq	sp,t0,1106 <core_bench_list+0xd4>
    1062:	0000                	unimp
    1064:	3838                	fld	fa4,112(s0)
    1066:	01000007          	0x1000007
    106a:	0a510463          	beq	sp,t0,1112 <core_bench_list+0xe0>
    106e:	0000                	unimp
    1070:	5f36                	lw	t5,108(sp)
    1072:	6d5f 0100 0463      	0x46301006d5f
    1078:	0a51                	addi	s4,s4,20
    107a:	0000                	unimp
    107c:	3700                	fld	fs0,40(a4)
    107e:	0000109b          	0x109b
    1082:	bf38                	fsd	fa4,120(a4)
    1084:	0006                	0x6
    1086:	0100                	addi	s0,sp,128
    1088:	0486                	slli	s1,s1,0x1
    108a:	0a51                	addi	s4,s4,20
    108c:	0000                	unimp
    108e:	5f36                	lw	t5,108(sp)
    1090:	615f 0100 0486      	0x4860100615f
    1096:	0a51                	addi	s4,s4,20
    1098:	0000                	unimp
    109a:	3700                	fld	fs0,40(a4)
    109c:	10ad                	addi	ra,ra,-21
    109e:	0000                	unimp
    10a0:	5f36                	lw	t5,108(sp)
    10a2:	785f 0100 0494      	0x4940100785f
    10a8:	0a51                	addi	s4,s4,20
    10aa:	0000                	unimp
    10ac:	3900                	fld	fs0,48(a0)
    10ae:	6d36                	flw	fs10,76(sp)
    10b0:	0031                	c.addi	zero,12
    10b2:	a401                	j	12b2 <core_list_init+0xae>
    10b4:	5104                	lw	s1,32(a0)
    10b6:	000a                	0xa
    10b8:	3600                	fld	fs0,40(a2)
    10ba:	306d                	jal	964 <vprintfmt.constprop.0+0x4ee>
    10bc:	0100                	addi	s0,sp,128
    10be:	04a4                	addi	s1,sp,584
    10c0:	0a51                	addi	s4,s4,20
    10c2:	0000                	unimp
    10c4:	00111e37          	lui	t3,0x111
    10c8:	3800                	fld	fs0,48(s0)
    10ca:	013e                	slli	sp,sp,0xf
    10cc:	0000                	unimp
    10ce:	af01                	j	17de <core_init_matrix+0x2>
    10d0:	5104                	lw	s1,32(a0)
    10d2:	000a                	0xa
    10d4:	3800                	fld	fs0,48(s0)
    10d6:	0139                	addi	sp,sp,14
    10d8:	0000                	unimp
    10da:	af01                	j	17ea <core_init_matrix+0xe>
    10dc:	5104                	lw	s1,32(a0)
    10de:	000a                	0xa
    10e0:	3800                	fld	fs0,48(s0)
    10e2:	0672                	slli	a2,a2,0x1c
    10e4:	0000                	unimp
    10e6:	af01                	j	17f6 <core_init_matrix+0x1a>
    10e8:	5104                	lw	s1,32(a0)
    10ea:	000a                	0xa
    10ec:	3800                	fld	fs0,48(s0)
    10ee:	066d                	addi	a2,a2,27
    10f0:	0000                	unimp
    10f2:	af01                	j	1802 <core_init_matrix+0x26>
    10f4:	5104                	lw	s1,32(a0)
    10f6:	000a                	0xa
    10f8:	3800                	fld	fs0,48(s0)
    10fa:	073d                	addi	a4,a4,15
    10fc:	0000                	unimp
    10fe:	af01                	j	180e <core_init_matrix+0x32>
    1100:	5104                	lw	s1,32(a0)
    1102:	000a                	0xa
    1104:	3800                	fld	fs0,48(s0)
    1106:	0738                	addi	a4,sp,904
    1108:	0000                	unimp
    110a:	af01                	j	181a <core_init_matrix+0x3e>
    110c:	5104                	lw	s1,32(a0)
    110e:	000a                	0xa
    1110:	3600                	fld	fs0,40(a2)
    1112:	5f5f 006d af01      	0xaf01006d5f5f
    1118:	5104                	lw	s1,32(a0)
    111a:	000a                	0xa
    111c:	0000                	unimp
    111e:	00118437          	lui	s0,0x118
    1122:	3800                	fld	fs0,48(s0)
    1124:	0605                	addi	a2,a2,1
    1126:	0000                	unimp
    1128:	b001                	j	928 <vprintfmt.constprop.0+0x4b2>
    112a:	5104                	lw	s1,32(a0)
    112c:	000a                	0xa
    112e:	3800                	fld	fs0,48(s0)
    1130:	060a                	slli	a2,a2,0x2
    1132:	0000                	unimp
    1134:	b001                	j	934 <vprintfmt.constprop.0+0x4be>
    1136:	5104                	lw	s1,32(a0)
    1138:	000a                	0xa
    113a:	3800                	fld	fs0,48(s0)
    113c:	0000060f          	0x60f
    1140:	b001                	j	940 <vprintfmt.constprop.0+0x4ca>
    1142:	5104                	lw	s1,32(a0)
    1144:	000a                	0xa
    1146:	3800                	fld	fs0,48(s0)
    1148:	0614                	addi	a3,sp,768
    114a:	0000                	unimp
    114c:	b001                	j	94c <vprintfmt.constprop.0+0x4d6>
    114e:	5104                	lw	s1,32(a0)
    1150:	000a                	0xa
    1152:	3800                	fld	fs0,48(s0)
    1154:	045a                	slli	s0,s0,0x16
    1156:	0000                	unimp
    1158:	b001                	j	958 <vprintfmt.constprop.0+0x4e2>
    115a:	5104                	lw	s1,32(a0)
    115c:	000a                	0xa
    115e:	3800                	fld	fs0,48(s0)
    1160:	051d                	addi	a0,a0,7
    1162:	0000                	unimp
    1164:	b001                	j	964 <vprintfmt.constprop.0+0x4ee>
    1166:	5104                	lw	s1,32(a0)
    1168:	000a                	0xa
    116a:	3800                	fld	fs0,48(s0)
    116c:	0000044f          	fnmadd.s	fs0,ft0,ft0,ft0,rne
    1170:	b001                	j	970 <vprintfmt.constprop.0+0x4fa>
    1172:	5104                	lw	s1,32(a0)
    1174:	000a                	0xa
    1176:	3800                	fld	fs0,48(s0)
    1178:	0518                	addi	a4,sp,640
    117a:	0000                	unimp
    117c:	b001                	j	97c <vprintfmt.constprop.0+0x506>
    117e:	5104                	lw	s1,32(a0)
    1180:	000a                	0xa
    1182:	0000                	unimp
    1184:	00119637          	lui	a2,0x119
    1188:	3600                	fld	fs0,40(a2)
    118a:	5f5f 0078 b501      	0xb50100785f5f
    1190:	5104                	lw	s1,32(a0)
    1192:	000a                	0xa
    1194:	0000                	unimp
    1196:	3639                	jal	ca4 <sc_printf+0x1c>
    1198:	5f5f 0078 bd01      	0xbd0100785f5f
    119e:	5104                	lw	s1,32(a0)
    11a0:	000a                	0xa
    11a2:	0000                	unimp
    11a4:	0000                	unimp
    11a6:	0a67040f          	0xa67040f
    11aa:	0000                	unimp
    11ac:	2600                	fld	fs0,8(a2)
    11ae:	0011                	c.addi	zero,4
    11b0:	0400                	addi	s0,sp,512
    11b2:	b300                	fsd	fs0,32(a4)
    11b4:	0002                	0x2
    11b6:	0400                	addi	s0,sp,512
    11b8:	6a01                	lui	s4,0x0
    11ba:	0000                	unimp
    11bc:	0c00                	addi	s0,sp,528
    11be:	000001a3          	sb	zero,3(zero) # 3 <buf.1775+0x3>
    11c2:	022c                	addi	a1,sp,264
    11c4:	0000                	unimp
    11c6:	4dd4                	lw	a3,28(a1)
    11c8:	0000                	unimp
    11ca:	0434                	addi	a3,sp,520
    11cc:	0000                	unimp
    11ce:	042e                	slli	s0,s0,0xb
    11d0:	0000                	unimp
    11d2:	0802                	slli	a6,a6,0x0
    11d4:	0003c607          	flq	fa2,0(t2)
    11d8:	0200                	addi	s0,sp,256
    11da:	0704                	addi	s1,sp,896
    11dc:	03d0                	addi	a2,sp,452
    11de:	0000                	unimp
    11e0:	69050403          	lb	s0,1680(a0) # 130a <core_list_init+0x106>
    11e4:	746e                	flw	fs0,248(sp)
    11e6:	0200                	addi	s0,sp,256
    11e8:	0508                	addi	a0,sp,640
    11ea:	02e0                	addi	s0,sp,332
    11ec:	0000                	unimp
    11ee:	1002                	0x1002
    11f0:	5b04                	lw	s1,48(a4)
    11f2:	0001                	nop
    11f4:	0200                	addi	s0,sp,256
    11f6:	0601                	addi	a2,a2,0
    11f8:	0696                	slli	a3,a3,0x5
    11fa:	0000                	unimp
    11fc:	0102                	slli	sp,sp,0x0
    11fe:	9408                	0x9408
    1200:	0006                	0x6
    1202:	0200                	addi	s0,sp,256
    1204:	0502                	slli	a0,a0,0x0
    1206:	0000                	unimp
    1208:	0000                	unimp
    120a:	0202                	slli	tp,tp,0x0
    120c:	0003e607          	0x3e607
    1210:	0200                	addi	s0,sp,256
    1212:	0504                	addi	s1,sp,640
    1214:	02e5                	addi	t0,t0,25
    1216:	0000                	unimp
    1218:	0402                	slli	s0,s0,0x0
    121a:	0003cb07          	flq	fs6,0(t2)
    121e:	0400                	addi	s0,sp,512
    1220:	0541                	addi	a0,a0,16
    1222:	0000                	unimp
    1224:	0702                	slli	a4,a4,0x0
    1226:	00000033          	add	zero,zero,zero
    122a:	1104                	addi	s1,sp,160
    122c:	0005                	c.addi	zero,1
    122e:	0300                	addi	s0,sp,384
    1230:	642c                	flw	fa1,72(s0)
    1232:	0000                	unimp
    1234:	0400                	addi	s0,sp,512
    1236:	00000627          	0x627
    123a:	00647203          	0x647203
    123e:	0000                	unimp
    1240:	fe04                	fsw	fs1,56(a2)
    1242:	0006                	0x6
    1244:	0300                	addi	s0,sp,384
    1246:	3391                	jal	f8a <core_list_mergesort+0xa2>
    1248:	0000                	unimp
    124a:	0500                	addi	s0,sp,640
    124c:	0442                	slli	s0,s0,0x10
    124e:	0000                	unimp
    1250:	6504                	flw	fs1,8(a0)
    1252:	2c01                	jal	1462 <core_list_init+0x25e>
    1254:	0000                	unimp
    1256:	0600                	addi	s0,sp,768
    1258:	0304                	addi	s1,sp,384
    125a:	c9a6                	sw	s1,208(sp)
    125c:	0000                	unimp
    125e:	0700                	addi	s0,sp,896
    1260:	042d                	addi	s0,s0,11
    1262:	0000                	unimp
    1264:	009ea803          	lw	a6,9(t4)
    1268:	0000                	unimp
    126a:	00039807          	0x39807
    126e:	0300                	addi	s0,sp,384
    1270:	c9a9                	beqz	a1,12c2 <core_list_init+0xbe>
    1272:	0000                	unimp
    1274:	0000                	unimp
    1276:	4f08                	lw	a0,24(a4)
    1278:	0000                	unimp
    127a:	d900                	sw	s0,48(a0)
    127c:	0000                	unimp
    127e:	0900                	addi	s0,sp,144
    1280:	002c                	addi	a1,sp,8
    1282:	0000                	unimp
    1284:	080a0003          	lb	zero,128(s4) # 80 <buflen.1776+0x40>
    1288:	00faa303          	lw	t1,15(s5)
    128c:	0000                	unimp
    128e:	0004880b          	0x4880b
    1292:	0300                	addi	s0,sp,384
    1294:	33a5                	jal	ffc <core_list_mergesort+0x114>
    1296:	0000                	unimp
    1298:	0000                	unimp
    129a:	0006190b          	0x6190b
    129e:	0300                	addi	s0,sp,384
    12a0:	aaaa                	fsd	fa0,336(sp)
    12a2:	0000                	unimp
    12a4:	0400                	addi	s0,sp,512
    12a6:	0400                	addi	s0,sp,512
    12a8:	0536                	slli	a0,a0,0xd
    12aa:	0000                	unimp
    12ac:	00d9ab03          	lw	s6,13(s3)
    12b0:	0000                	unimp
    12b2:	9004                	0x9004
    12b4:	0005                	c.addi	zero,1
    12b6:	0300                	addi	s0,sp,384
    12b8:	000072af          	0x72af
    12bc:	0c00                	addi	s0,sp,528
    12be:	0404                	addi	s1,sp,512
    12c0:	000006a7          	0x6a7
    12c4:	1605                	addi	a2,a2,-31
    12c6:	0000006b          	0x6b
    12ca:	c10d                	beqz	a0,12ec <core_list_init+0xe8>
    12cc:	0004                	addi	s1,sp,0
    12ce:	1800                	addi	s0,sp,48
    12d0:	2f05                	jal	1a00 <core_init_matrix+0x224>
    12d2:	0170                	addi	a2,sp,140
    12d4:	0000                	unimp
    12d6:	0007c00b          	0x7c00b
    12da:	0500                	addi	s0,sp,640
    12dc:	7031                	0x7031
    12de:	0001                	nop
    12e0:	0000                	unimp
    12e2:	5f0e                	lw	t5,224(sp)
    12e4:	3205006b          	0x3205006b
    12e8:	00000033          	add	zero,zero,zero
    12ec:	0b04                	addi	s1,sp,400
    12ee:	05f6                	slli	a1,a1,0x1d
    12f0:	0000                	unimp
    12f2:	3205                	jal	c12 <putchar+0x94>
    12f4:	00000033          	add	zero,zero,zero
    12f8:	0b08                	addi	a0,sp,400
    12fa:	033c                	addi	a5,sp,392
    12fc:	0000                	unimp
    12fe:	3205                	jal	c1e <putchar+0xa0>
    1300:	00000033          	add	zero,zero,zero
    1304:	0b0c                	addi	a1,sp,400
    1306:	02c2                	slli	t0,t0,0x10
    1308:	0000                	unimp
    130a:	3205                	jal	c2a <putchar+0xac>
    130c:	00000033          	add	zero,zero,zero
    1310:	0e10                	addi	a2,sp,784
    1312:	785f 0500 7633      	0x76330500785f
    1318:	0001                	nop
    131a:	1400                	addi	s0,sp,544
    131c:	0f00                	addi	s0,sp,912
    131e:	1d04                	addi	s1,sp,688
    1320:	0001                	nop
    1322:	0800                	addi	s0,sp,16
    1324:	0112                	slli	sp,sp,0x4
    1326:	0000                	unimp
    1328:	0186                	slli	gp,gp,0x1
    132a:	0000                	unimp
    132c:	2c09                	jal	153e <core_list_init+0x33a>
    132e:	0000                	unimp
    1330:	0000                	unimp
    1332:	0d00                	addi	s0,sp,656
    1334:	0000037b          	0x37b
    1338:	0524                	addi	s1,sp,648
    133a:	0001ff37          	lui	t5,0x1f
    133e:	0b00                	addi	s0,sp,400
    1340:	00000193          	li	gp,0
    1344:	3905                	jal	f74 <core_list_mergesort+0x8c>
    1346:	00000033          	add	zero,zero,zero
    134a:	0b00                	addi	s0,sp,400
    134c:	075c                	addi	a5,sp,900
    134e:	0000                	unimp
    1350:	3a05                	jal	c80 <putchar+0x102>
    1352:	00000033          	add	zero,zero,zero
    1356:	0b04                	addi	s1,sp,400
    1358:	0201                	addi	tp,tp,0
    135a:	0000                	unimp
    135c:	3b05                	jal	108c <core_bench_list+0x5a>
    135e:	00000033          	add	zero,zero,zero
    1362:	0b08                	addi	a0,sp,400
    1364:	07b1                	addi	a5,a5,12
    1366:	0000                	unimp
    1368:	3c05                	jal	d98 <calc_func+0xa4>
    136a:	00000033          	add	zero,zero,zero
    136e:	0b0c                	addi	a1,sp,400
    1370:	000004eb          	0x4eb
    1374:	3d05                	jal	11a4 <core_bench_list+0x172>
    1376:	00000033          	add	zero,zero,zero
    137a:	0b10                	addi	a2,sp,400
    137c:	047e                	slli	s0,s0,0x1f
    137e:	0000                	unimp
    1380:	3e05                	jal	eb0 <core_list_find+0x2c>
    1382:	00000033          	add	zero,zero,zero
    1386:	0b14                	addi	a3,sp,400
    1388:	000006e7          	jalr	a3,zero
    138c:	3f05                	jal	12bc <core_list_init+0xb8>
    138e:	00000033          	add	zero,zero,zero
    1392:	0b18                	addi	a4,sp,400
    1394:	0798                	addi	a4,sp,960
    1396:	0000                	unimp
    1398:	4005                	0x4005
    139a:	00000033          	add	zero,zero,zero
    139e:	0b1c                	addi	a5,sp,400
    13a0:	0742                	slli	a4,a4,0x10
    13a2:	0000                	unimp
    13a4:	4105                	li	sp,1
    13a6:	00000033          	add	zero,zero,zero
    13aa:	0020                	addi	s0,sp,8
    13ac:	1e10                	addi	a2,sp,816
    13ae:	0002                	0x2
    13b0:	0800                	addi	s0,sp,16
    13b2:	0501                	addi	a0,a0,0
    13b4:	3f4a                	fld	ft10,176(sp)
    13b6:	0002                	0x2
    13b8:	0b00                	addi	s0,sp,400
    13ba:	0000032f          	0x32f
    13be:	4b05                	li	s6,1
    13c0:	0000023f 056c0b00 	0x56c0b000000023f
    13c8:	0000                	unimp
    13ca:	4c05                	li	s8,1
    13cc:	0000023f 068b1180 	0x68b11800000023f
    13d4:	0000                	unimp
    13d6:	4e05                	li	t3,1
    13d8:	0112                	slli	sp,sp,0x4
    13da:	0000                	unimp
    13dc:	0100                	addi	s0,sp,128
    13de:	ba11                	j	cf2 <cmp_idx+0x44>
    13e0:	0002                	0x2
    13e2:	0500                	addi	s0,sp,640
    13e4:	1251                	addi	tp,tp,-12
    13e6:	0001                	nop
    13e8:	0400                	addi	s0,sp,512
    13ea:	0001                	nop
    13ec:	1008                	addi	a0,sp,32
    13ee:	0001                	nop
    13f0:	4f00                	lw	s0,24(a4)
    13f2:	0002                	0x2
    13f4:	0900                	addi	s0,sp,144
    13f6:	002c                	addi	a1,sp,8
    13f8:	0000                	unimp
    13fa:	001f f410 0004      	0x4f410001f
    1400:	9000                	0x9000
    1402:	0501                	addi	a0,a0,0
    1404:	8d5d                	or	a0,a0,a5
    1406:	0002                	0x2
    1408:	0b00                	addi	s0,sp,400
    140a:	07c0                	addi	s0,sp,964
    140c:	0000                	unimp
    140e:	5e05                	li	t3,-31
    1410:	028d                	addi	t0,t0,3
    1412:	0000                	unimp
    1414:	0b00                	addi	s0,sp,400
    1416:	05df 0000 5f05      	0x5f05000005df
    141c:	00000033          	add	zero,zero,zero
    1420:	0b04                	addi	s1,sp,400
    1422:	00000337          	lui	t1,0x0
    1426:	6105                	addi	sp,sp,32
    1428:	00000293          	li	t0,0
    142c:	0b08                	addi	a0,sp,400
    142e:	021e                	slli	tp,tp,0x7
    1430:	0000                	unimp
    1432:	6205                	lui	tp,0x1
    1434:	01ff                	0x1ff
    1436:	0000                	unimp
    1438:	0088                	addi	a0,sp,64
    143a:	024f040f          	0x24f040f
    143e:	0000                	unimp
    1440:	a308                	fsd	fa0,0(a4)
    1442:	0002                	0x2
    1444:	a300                	fsd	fs0,0(a4)
    1446:	0002                	0x2
    1448:	0900                	addi	s0,sp,144
    144a:	002c                	addi	a1,sp,8
    144c:	0000                	unimp
    144e:	001f 040f 02a9      	0x2a9040f001f
    1454:	0000                	unimp
    1456:	0d12                	slli	s10,s10,0x4
    1458:	07aa                	slli	a5,a5,0xa
    145a:	0000                	unimp
    145c:	0508                	addi	a0,sp,640
    145e:	cf75                	beqz	a4,155a <core_list_init+0x356>
    1460:	0002                	0x2
    1462:	0b00                	addi	s0,sp,400
    1464:	000001fb          	0x1fb
    1468:	7605                	lui	a2,0xfffe1
    146a:	000002cf          	fnmadd.s	ft5,ft0,ft0,ft0,rne
    146e:	0b00                	addi	s0,sp,400
    1470:	0638                	addi	a4,sp,776
    1472:	0000                	unimp
    1474:	7705                	lui	a4,0xfffe1
    1476:	00000033          	add	zero,zero,zero
    147a:	0004                	addi	s1,sp,0
    147c:	004f040f          	0x4f040f
    1480:	0000                	unimp
    1482:	bb0d                	j	11b4 <core_bench_list+0x182>
    1484:	0005                	c.addi	zero,1
    1486:	6800                	flw	fs0,16(s0)
    1488:	b505                	j	12a8 <core_list_init+0xa4>
    148a:	03ff                	0x3ff
    148c:	0000                	unimp
    148e:	5f0e                	lw	t5,224(sp)
    1490:	0070                	addi	a2,sp,12
    1492:	b605                	j	fb2 <core_list_mergesort+0xca>
    1494:	000002cf          	fnmadd.s	ft5,ft0,ft0,ft0,rne
    1498:	0e00                	addi	s0,sp,784
    149a:	725f 0500 33b7      	0x33b70500725f
    14a0:	0000                	unimp
    14a2:	0400                	addi	s0,sp,512
    14a4:	5f0e                	lw	t5,224(sp)
    14a6:	b8050077          	0xb8050077
    14aa:	00000033          	add	zero,zero,zero
    14ae:	0b08                	addi	a0,sp,400
    14b0:	000002b3          	add	t0,zero,zero
    14b4:	b905                	j	10e4 <core_bench_list+0xb2>
    14b6:	0056                	0x56
    14b8:	0000                	unimp
    14ba:	0b0c                	addi	a1,sp,400
    14bc:	000003a7          	0x3a7
    14c0:	ba05                	j	df0 <cmp_complex+0x20>
    14c2:	0056                	0x56
    14c4:	0000                	unimp
    14c6:	0e0e                	slli	t3,t3,0x3
    14c8:	625f 0066 bb05      	0xbb050066625f
    14ce:	02aa                	slli	t0,t0,0xa
    14d0:	0000                	unimp
    14d2:	0b10                	addi	a2,sp,400
    14d4:	00000143          	fmadd.s	ft2,ft0,ft0,ft0,rne
    14d8:	bc05                	j	f08 <core_list_mergesort+0x20>
    14da:	00000033          	add	zero,zero,zero
    14de:	0b18                	addi	a4,sp,400
    14e0:	000002a3          	sb	zero,5(zero) # 5 <buf.1775+0x5>
    14e4:	c305                	beqz	a4,1504 <core_list_init+0x300>
    14e6:	0110                	addi	a2,sp,128
    14e8:	0000                	unimp
    14ea:	0b1c                	addi	a5,sp,400
    14ec:	00000553          	fadd.s	fa0,ft0,ft0,rne
    14f0:	c505                	beqz	a0,1518 <core_list_init+0x314>
    14f2:	056c                	addi	a1,sp,652
    14f4:	0000                	unimp
    14f6:	0b20                	addi	s0,sp,408
    14f8:	00000477          	0x477
    14fc:	c705                	beqz	a4,1524 <core_list_init+0x320>
    14fe:	0000059b          	0x59b
    1502:	0b24                	addi	s1,sp,408
    1504:	0621                	addi	a2,a2,8
    1506:	0000                	unimp
    1508:	ca05                	beqz	a2,1538 <core_list_init+0x334>
    150a:	000005bf 019c0b28 	0x19c0b28000005bf
    1512:	0000                	unimp
    1514:	cb05                	beqz	a4,1544 <core_list_init+0x340>
    1516:	05d9                	addi	a1,a1,22
    1518:	0000                	unimp
    151a:	0e2c                	addi	a1,sp,792
    151c:	755f 0062 ce05      	0xce050062755f
    1522:	02aa                	slli	t0,t0,0xa
    1524:	0000                	unimp
    1526:	0e30                	addi	a2,sp,792
    1528:	755f 0070 cf05      	0xcf050070755f
    152e:	000002cf          	fnmadd.s	ft5,ft0,ft0,ft0,rne
    1532:	0e38                	addi	a4,sp,792
    1534:	755f 0072 d005      	0xd0050072755f
    153a:	00000033          	add	zero,zero,zero
    153e:	0b3c                	addi	a5,sp,408
    1540:	01f5                	addi	gp,gp,29
    1542:	0000                	unimp
    1544:	d305                	beqz	a4,1464 <core_list_init+0x260>
    1546:	05df 0000 0b40      	0xb40000005df
    154c:	072a                	slli	a4,a4,0xa
    154e:	0000                	unimp
    1550:	d405                	beqz	s0,1478 <core_list_init+0x274>
    1552:	000005ef          	jal	a1,1552 <core_list_init+0x34e>
    1556:	6c5f0e43          	0x6c5f0e43
    155a:	0062                	0x62
    155c:	d705                	beqz	a4,1484 <core_list_init+0x280>
    155e:	02aa                	slli	t0,t0,0xa
    1560:	0000                	unimp
    1562:	0b44                	addi	s1,sp,404
    1564:	0000062f          	0x62f
    1568:	da05                	beqz	a2,1498 <core_list_init+0x294>
    156a:	00000033          	add	zero,zero,zero
    156e:	0b4c                	addi	a1,sp,404
    1570:	04b9                	addi	s1,s1,14
    1572:	0000                	unimp
    1574:	db05                	beqz	a4,14a4 <core_list_init+0x2a0>
    1576:	007d                	c.addi	zero,31
    1578:	0000                	unimp
    157a:	0b50                	addi	a2,sp,404
    157c:	0055                	c.addi	zero,21
    157e:	0000                	unimp
    1580:	de05                	beqz	a2,14b8 <core_list_init+0x2b4>
    1582:	041d                	addi	s0,s0,7
    1584:	0000                	unimp
    1586:	0b54                	addi	a3,sp,404
    1588:	0449                	addi	s0,s0,18
    158a:	0000                	unimp
    158c:	e205                	bnez	a2,15ac <core_list_init+0x3a8>
    158e:	0105                	addi	sp,sp,1
    1590:	0000                	unimp
    1592:	0b58                	addi	a4,sp,404
    1594:	0000038f          	0x38f
    1598:	e405                	bnez	s0,15c0 <core_list_init+0x3bc>
    159a:	00fa                	slli	ra,ra,0x1e
    159c:	0000                	unimp
    159e:	0b5c                	addi	a5,sp,404
    15a0:	0599                	addi	a1,a1,6
    15a2:	0000                	unimp
    15a4:	e505                	bnez	a0,15cc <core_list_init+0x3c8>
    15a6:	00000033          	add	zero,zero,zero
    15aa:	0064                	addi	s1,sp,12
    15ac:	00009313          	slli	t1,ra,0x0
    15b0:	1d00                	addi	s0,sp,688
    15b2:	0004                	addi	s1,sp,0
    15b4:	1400                	addi	s0,sp,544
    15b6:	041d                	addi	s0,s0,7
    15b8:	0000                	unimp
    15ba:	1014                	addi	a3,sp,32
    15bc:	0001                	nop
    15be:	1400                	addi	s0,sp,544
    15c0:	055a                	slli	a0,a0,0x16
    15c2:	0000                	unimp
    15c4:	3314                	fld	fa3,32(a4)
    15c6:	0000                	unimp
    15c8:	0000                	unimp
    15ca:	0428040f          	0x428040f
    15ce:	0000                	unimp
    15d0:	1d15                	addi	s10,s10,-27
    15d2:	0004                	addi	s1,sp,0
    15d4:	1600                	addi	s0,sp,800
    15d6:	05fe                	slli	a1,a1,0x1f
    15d8:	0000                	unimp
    15da:	0428                	addi	a0,sp,520
    15dc:	3905                	jal	120c <core_list_init+0x8>
    15de:	5a02                	lw	s4,32(sp)
    15e0:	0005                	c.addi	zero,1
    15e2:	1700                	addi	s0,sp,928
    15e4:	0589                	addi	a1,a1,2
    15e6:	0000                	unimp
    15e8:	3b05                	jal	1318 <core_list_init+0x114>
    15ea:	3302                	fld	ft6,32(sp)
    15ec:	0000                	unimp
    15ee:	0000                	unimp
    15f0:	0006f717          	auipc	a4,0x6f
    15f4:	0500                	addi	s0,sp,640
    15f6:	0240                	addi	s0,sp,260
    15f8:	0646                	slli	a2,a2,0x11
    15fa:	0000                	unimp
    15fc:	1704                	addi	s1,sp,928
    15fe:	06df 0000 4005      	0x4005000006df
    1604:	4602                	lw	a2,0(sp)
    1606:	0006                	0x6
    1608:	0800                	addi	s0,sp,16
    160a:	00034217          	auipc	tp,0x34
    160e:	0500                	addi	s0,sp,640
    1610:	0240                	addi	s0,sp,260
    1612:	0646                	slli	a2,a2,0x11
    1614:	0000                	unimp
    1616:	170c                	addi	a1,sp,928
    1618:	05da                	slli	a1,a1,0x16
    161a:	0000                	unimp
    161c:	4205                	li	tp,1
    161e:	3302                	fld	ft6,32(sp)
    1620:	0000                	unimp
    1622:	1000                	addi	s0,sp,32
    1624:	00002417          	auipc	s0,0x2
    1628:	0500                	addi	s0,sp,640
    162a:	08280243          	fmadd.s	ft4,fa6,ft2,ft1,rne
    162e:	0000                	unimp
    1630:	1714                	addi	a3,sp,928
    1632:	0362                	slli	t1,t1,0x18
    1634:	0000                	unimp
    1636:	4605                	li	a2,1
    1638:	3302                	fld	ft6,32(sp)
    163a:	0000                	unimp
    163c:	3000                	fld	fs0,32(s0)
    163e:	0005e417          	auipc	s0,0x5e
    1642:	0500                	addi	s0,sp,640
    1644:	083d0247          	fmsub.s	ft4,fs10,ft3,ft1,rne
    1648:	0000                	unimp
    164a:	1734                	addi	a3,sp,936
    164c:	0506                	slli	a0,a0,0x1
    164e:	0000                	unimp
    1650:	4905                	li	s2,1
    1652:	3302                	fld	ft6,32(sp)
    1654:	0000                	unimp
    1656:	3800                	fld	fs0,48(s0)
    1658:	0005ec17          	auipc	s8,0x5e
    165c:	0500                	addi	s0,sp,640
    165e:	084e024b          	fnmsub.s	ft4,ft8,ft4,ft1,rne
    1662:	0000                	unimp
    1664:	173c                	addi	a5,sp,936
    1666:	0425                	addi	s0,s0,9
    1668:	0000                	unimp
    166a:	4e05                	li	t3,1
    166c:	7002                	flw	ft0,32(sp)
    166e:	0001                	nop
    1670:	4000                	lw	s0,0(s0)
    1672:	0002ce17          	auipc	t3,0x2c
    1676:	0500                	addi	s0,sp,640
    1678:	0033024f          	fnmadd.s	ft4,ft6,ft3,ft0,rne
    167c:	0000                	unimp
    167e:	1744                	addi	s1,sp,932
    1680:	00000793          	li	a5,0
    1684:	5005                	0x5005
    1686:	7002                	flw	ft0,32(sp)
    1688:	0001                	nop
    168a:	4800                	lw	s0,16(s0)
    168c:	00052217          	auipc	tp,0x52
    1690:	0500                	addi	s0,sp,640
    1692:	0251                	addi	tp,tp,20
    1694:	0854                	addi	a3,sp,20
    1696:	0000                	unimp
    1698:	174c                	addi	a1,sp,932
    169a:	039f 0000 5405      	0x54050000039f
    16a0:	3302                	fld	ft6,32(sp)
    16a2:	0000                	unimp
    16a4:	5000                	lw	s0,32(s0)
    16a6:	0002fb17          	auipc	s6,0x2f
    16aa:	0500                	addi	s0,sp,640
    16ac:	0255                	addi	tp,tp,21
    16ae:	055a                	slli	a0,a0,0x16
    16b0:	0000                	unimp
    16b2:	1754                	addi	a3,sp,932
    16b4:	0582                	slli	a1,a1,0x0
    16b6:	0000                	unimp
    16b8:	7805                	lui	a6,0xfffe1
    16ba:	0602                	slli	a2,a2,0x0
    16bc:	0008                	addi	a0,sp,0
    16be:	5800                	lw	s0,48(s0)
    16c0:	f418                	fsw	fa4,40(s0)
    16c2:	0004                	addi	s1,sp,0
    16c4:	0500                	addi	s0,sp,640
    16c6:	027c                	addi	a5,sp,268
    16c8:	028d                	addi	t0,t0,3
    16ca:	0000                	unimp
    16cc:	0148                	addi	a0,sp,132
    16ce:	0318                	addi	a4,sp,384
    16d0:	0004                	addi	s1,sp,0
    16d2:	0500                	addi	s0,sp,640
    16d4:	027d                	addi	tp,tp,31
    16d6:	0000024f          	fnmadd.s	ft4,ft0,ft0,ft0,rne
    16da:	014c                	addi	a1,sp,132
    16dc:	1118                	addi	a4,sp,160
    16de:	05000007          	0x5000007
    16e2:	0281                	addi	t0,t0,0
    16e4:	0865                	addi	a6,a6,25
    16e6:	0000                	unimp
    16e8:	02dc                	addi	a5,sp,324
    16ea:	ab18                	fsd	fa4,16(a4)
    16ec:	0002                	0x2
    16ee:	0500                	addi	s0,sp,640
    16f0:	0286                	slli	t0,t0,0x1
    16f2:	0000060b          	0x60b
    16f6:	02e0                	addi	s0,sp,332
    16f8:	1918                	addi	a4,sp,176
    16fa:	0002                	0x2
    16fc:	0500                	addi	s0,sp,640
    16fe:	08710287          	0x8710287
    1702:	0000                	unimp
    1704:	02ec                	addi	a1,sp,332
    1706:	0f00                	addi	s0,sp,912
    1708:	6004                	flw	fs1,0(s0)
    170a:	0005                	c.addi	zero,1
    170c:	0200                	addi	s0,sp,256
    170e:	0801                	addi	a6,a6,0
    1710:	069d                	addi	a3,a3,7
    1712:	0000                	unimp
    1714:	6015                	0x6015
    1716:	0005                	c.addi	zero,1
    1718:	0f00                	addi	s0,sp,912
    171a:	ff04                	fsw	fs1,56(a4)
    171c:	13000003          	lb	zero,304(zero) # 130 <SIM_STOP+0x38>
    1720:	00000093          	li	ra,0
    1724:	0590                	addi	a2,sp,704
    1726:	0000                	unimp
    1728:	1d14                	addi	a3,sp,688
    172a:	0004                	addi	s1,sp,0
    172c:	1400                	addi	s0,sp,544
    172e:	0110                	addi	a2,sp,128
    1730:	0000                	unimp
    1732:	9014                	0x9014
    1734:	0005                	c.addi	zero,1
    1736:	1400                	addi	s0,sp,544
    1738:	00000033          	add	zero,zero,zero
    173c:	0f00                	addi	s0,sp,912
    173e:	6704                	flw	fs1,8(a4)
    1740:	0005                	c.addi	zero,1
    1742:	1500                	addi	s0,sp,672
    1744:	0590                	addi	a2,sp,704
    1746:	0000                	unimp
    1748:	0572040f          	0x572040f
    174c:	0000                	unimp
    174e:	00008813          	mv	a6,ra
    1752:	bf00                	fsd	fs0,56(a4)
    1754:	0005                	c.addi	zero,1
    1756:	1400                	addi	s0,sp,544
    1758:	041d                	addi	s0,s0,7
    175a:	0000                	unimp
    175c:	1014                	addi	a3,sp,32
    175e:	0001                	nop
    1760:	1400                	addi	s0,sp,544
    1762:	0088                	addi	a0,sp,64
    1764:	0000                	unimp
    1766:	3314                	fld	fa3,32(a4)
    1768:	0000                	unimp
    176a:	0000                	unimp
    176c:	05a1040f          	0x5a1040f
    1770:	0000                	unimp
    1772:	00003313          	sltiu	t1,zero,0
    1776:	d900                	sw	s0,48(a0)
    1778:	0005                	c.addi	zero,1
    177a:	1400                	addi	s0,sp,544
    177c:	041d                	addi	s0,s0,7
    177e:	0000                	unimp
    1780:	1014                	addi	a3,sp,32
    1782:	0001                	nop
    1784:	0000                	unimp
    1786:	05c5040f          	0x5c5040f
    178a:	0000                	unimp
    178c:	4f08                	lw	a0,24(a4)
    178e:	0000                	unimp
    1790:	ef00                	fsw	fs0,24(a4)
    1792:	0005                	c.addi	zero,1
    1794:	0900                	addi	s0,sp,144
    1796:	002c                	addi	a1,sp,8
    1798:	0000                	unimp
    179a:	0002                	0x2
    179c:	4f08                	lw	a0,24(a4)
    179e:	0000                	unimp
    17a0:	ff00                	fsw	fs0,56(a4)
    17a2:	0005                	c.addi	zero,1
    17a4:	0900                	addi	s0,sp,144
    17a6:	002c                	addi	a1,sp,8
    17a8:	0000                	unimp
    17aa:	0000                	unimp
    17ac:	c705                	beqz	a4,17d4 <core_list_init+0x5d0>
    17ae:	0002                	0x2
    17b0:	0500                	addi	s0,sp,640
    17b2:	011f 02d5 0000      	0x2d5011f
    17b8:	f119                	bnez	a0,16be <core_list_init+0x4ba>
    17ba:	0006                	0x6
    17bc:	0c00                	addi	s0,sp,528
    17be:	2305                	jal	1cde <matrix_test+0x200>
    17c0:	4001                	0x4001
    17c2:	0006                	0x6
    17c4:	1700                	addi	s0,sp,928
    17c6:	07c0                	addi	s0,sp,964
    17c8:	0000                	unimp
    17ca:	2505                	jal	1dea <matrix_test+0x30c>
    17cc:	4001                	0x4001
    17ce:	0006                	0x6
    17d0:	0000                	unimp
    17d2:	0003bf17          	auipc	t5,0x3b
    17d6:	0500                	addi	s0,sp,640
    17d8:	0126                	slli	sp,sp,0x9
    17da:	00000033          	add	zero,zero,zero
    17de:	1704                	addi	s1,sp,928
    17e0:	05a1                	addi	a1,a1,8
    17e2:	0000                	unimp
    17e4:	2705                	jal	1f04 <matrix_test+0x426>
    17e6:	4601                	li	a2,0
    17e8:	0006                	0x6
    17ea:	0800                	addi	s0,sp,16
    17ec:	0f00                	addi	s0,sp,912
    17ee:	0b04                	addi	s1,sp,400
    17f0:	0006                	0x6
    17f2:	0f00                	addi	s0,sp,912
    17f4:	ff04                	fsw	fs1,56(a4)
    17f6:	0005                	c.addi	zero,1
    17f8:	1900                	addi	s0,sp,176
    17fa:	001c                	addi	a5,sp,0
    17fc:	0000                	unimp
    17fe:	050e                	slli	a0,a0,0x3
    1800:	0681013f 5b170000 	0x5b1700000681013f
    1808:	0006                	0x6
    180a:	0500                	addi	s0,sp,640
    180c:	0140                	addi	s0,sp,132
    180e:	0681                	addi	a3,a3,0
    1810:	0000                	unimp
    1812:	1700                	addi	s0,sp,928
    1814:	0454                	addi	a3,sp,516
    1816:	0000                	unimp
    1818:	4105                	li	sp,1
    181a:	8101                	srli	a0,a0,0x0
    181c:	0006                	0x6
    181e:	0600                	addi	s0,sp,768
    1820:	0006a217          	auipc	tp,0x6a
    1824:	0500                	addi	s0,sp,640
    1826:	0142                	slli	sp,sp,0x10
    1828:	005d                	c.addi	zero,23
    182a:	0000                	unimp
    182c:	000c                	addi	a1,sp,0
    182e:	5d08                	lw	a0,56(a0)
    1830:	0000                	unimp
    1832:	9100                	0x9100
    1834:	0006                	0x6
    1836:	0900                	addi	s0,sp,144
    1838:	002c                	addi	a1,sp,8
    183a:	0000                	unimp
    183c:	0002                	0x2
    183e:	d01a                	sw	t1,32(sp)
    1840:	5905                	li	s2,-31
    1842:	9202                	jalr	tp
    1844:	17000007          	0x17000007
    1848:	0490                	addi	a2,sp,576
    184a:	0000                	unimp
    184c:	5b05                	li	s6,-31
    184e:	2c02                	fld	fs8,0(sp)
    1850:	0000                	unimp
    1852:	0000                	unimp
    1854:	00067717          	auipc	a4,0x67
    1858:	0500                	addi	s0,sp,640
    185a:	025c                	addi	a5,sp,260
    185c:	055a                	slli	a0,a0,0x16
    185e:	0000                	unimp
    1860:	1704                	addi	s1,sp,928
    1862:	0418                	addi	a4,sp,512
    1864:	0000                	unimp
    1866:	5d05                	li	s10,-31
    1868:	9202                	jalr	tp
    186a:	08000007          	0x8000007
    186e:	00074d17          	auipc	s10,0x74
    1872:	0500                	addi	s0,sp,640
    1874:	025e                	slli	tp,tp,0x17
    1876:	0186                	slli	gp,gp,0x1
    1878:	0000                	unimp
    187a:	1724                	addi	s1,sp,936
    187c:	034a                	slli	t1,t1,0x12
    187e:	0000                	unimp
    1880:	5f05                	li	t5,-31
    1882:	3302                	fld	ft6,32(sp)
    1884:	0000                	unimp
    1886:	4800                	lw	s0,16(s0)
    1888:	0007bb17          	auipc	s6,0x7b
    188c:	0500                	addi	s0,sp,640
    188e:	0260                	addi	s0,sp,268
    1890:	0025                	c.addi	zero,9
    1892:	0000                	unimp
    1894:	1750                	addi	a2,sp,932
    1896:	0765                	addi	a4,a4,25
    1898:	0000                	unimp
    189a:	6105                	addi	sp,sp,32
    189c:	4c02                	lw	s8,0(sp)
    189e:	0006                	0x6
    18a0:	5800                	lw	s0,48(s0)
    18a2:	0005cd17          	auipc	s10,0x5c
    18a6:	0500                	addi	s0,sp,640
    18a8:	0262                	slli	tp,tp,0x18
    18aa:	00fa                	slli	ra,ra,0x1e
    18ac:	0000                	unimp
    18ae:	1768                	addi	a0,sp,940
    18b0:	0785                	addi	a5,a5,1
    18b2:	0000                	unimp
    18b4:	6305                	lui	t1,0x1
    18b6:	fa02                	fsw	ft0,52(sp)
    18b8:	0000                	unimp
    18ba:	7000                	flw	fs0,32(s0)
    18bc:	00020b17          	auipc	s6,0x20
    18c0:	0500                	addi	s0,sp,640
    18c2:	0264                	addi	s1,sp,268
    18c4:	00fa                	slli	ra,ra,0x1e
    18c6:	0000                	unimp
    18c8:	1778                	addi	a4,sp,940
    18ca:	00000707          	0x707
    18ce:	6505                	lui	a0,0x1
    18d0:	a202                	fsd	ft0,256(sp)
    18d2:	80000007          	0x80000007
    18d6:	00040c17          	auipc	s8,0x40
    18da:	0500                	addi	s0,sp,640
    18dc:	0266                	slli	tp,tp,0x19
    18de:	07b2                	slli	a5,a5,0xc
    18e0:	0000                	unimp
    18e2:	1788                	addi	a0,sp,992
    18e4:	0048                	addi	a0,sp,4
    18e6:	0000                	unimp
    18e8:	6705                	lui	a4,0x1
    18ea:	3302                	fld	ft6,32(sp)
    18ec:	0000                	unimp
    18ee:	a000                	fsd	fs0,0(s0)
    18f0:	00031417          	auipc	s0,0x31
    18f4:	0500                	addi	s0,sp,640
    18f6:	0268                	addi	a0,sp,268
    18f8:	00fa                	slli	ra,ra,0x1e
    18fa:	0000                	unimp
    18fc:	17a4                	addi	s1,sp,1000
    18fe:	017c                	addi	a5,sp,140
    1900:	0000                	unimp
    1902:	6905                	lui	s2,0x1
    1904:	fa02                	fsw	ft0,52(sp)
    1906:	0000                	unimp
    1908:	ac00                	fsd	fs0,24(s0)
    190a:	00030317          	auipc	t1,0x30
    190e:	0500                	addi	s0,sp,640
    1910:	026a                	slli	tp,tp,0x1a
    1912:	00fa                	slli	ra,ra,0x1e
    1914:	0000                	unimp
    1916:	17b4                	addi	a3,sp,1000
    1918:	0000005b          	0x5b
    191c:	6b05                	lui	s6,0x1
    191e:	fa02                	fsw	ft0,52(sp)
    1920:	0000                	unimp
    1922:	bc00                	fsd	fs0,56(s0)
    1924:	00012817          	auipc	a6,0x12
    1928:	0500                	addi	s0,sp,640
    192a:	026c                	addi	a1,sp,268
    192c:	00fa                	slli	ra,ra,0x1e
    192e:	0000                	unimp
    1930:	17c4                	addi	s1,sp,996
    1932:	00000587          	0x587
    1936:	6d05                	lui	s10,0x1
    1938:	3302                	fld	ft6,32(sp)
    193a:	0000                	unimp
    193c:	cc00                	sw	s0,24(s0)
    193e:	0800                	addi	s0,sp,16
    1940:	0560                	addi	s0,sp,652
    1942:	0000                	unimp
    1944:	07a2                	slli	a5,a5,0x8
    1946:	0000                	unimp
    1948:	2c09                	jal	1b5a <matrix_test+0x7c>
    194a:	0000                	unimp
    194c:	1900                	addi	s0,sp,176
    194e:	0800                	addi	s0,sp,16
    1950:	0560                	addi	s0,sp,652
    1952:	0000                	unimp
    1954:	07b2                	slli	a5,a5,0xc
    1956:	0000                	unimp
    1958:	2c09                	jal	1b6a <matrix_test+0x8c>
    195a:	0000                	unimp
    195c:	0700                	addi	s0,sp,896
    195e:	0800                	addi	s0,sp,16
    1960:	0560                	addi	s0,sp,652
    1962:	0000                	unimp
    1964:	07c2                	slli	a5,a5,0x10
    1966:	0000                	unimp
    1968:	2c09                	jal	1b7a <matrix_test+0x9c>
    196a:	0000                	unimp
    196c:	1700                	addi	s0,sp,928
    196e:	1a00                	addi	s0,sp,304
    1970:	05f0                	addi	a2,sp,716
    1972:	0272                	slli	tp,tp,0x1c
    1974:	07e6                	slli	a5,a5,0x19
    1976:	0000                	unimp
    1978:	00043317          	auipc	t1,0x43
    197c:	0500                	addi	s0,sp,640
    197e:	0275                	addi	tp,tp,29
    1980:	07e6                	slli	a5,a5,0x19
    1982:	0000                	unimp
    1984:	1700                	addi	s0,sp,928
    1986:	0359                	addi	t1,t1,22
    1988:	0000                	unimp
    198a:	7605                	lui	a2,0xfffe1
    198c:	f602                	fsw	ft0,44(sp)
    198e:	78000007          	0x78000007
    1992:	0800                	addi	s0,sp,16
    1994:	000002cf          	fnmadd.s	ft5,ft0,ft0,ft0,rne
    1998:	07f6                	slli	a5,a5,0x1d
    199a:	0000                	unimp
    199c:	2c09                	jal	1bae <matrix_test+0xd0>
    199e:	0000                	unimp
    19a0:	1d00                	addi	s0,sp,688
    19a2:	0800                	addi	s0,sp,16
    19a4:	002c                	addi	a1,sp,8
    19a6:	0000                	unimp
    19a8:	0806                	slli	a6,a6,0x1
    19aa:	0000                	unimp
    19ac:	2c09                	jal	1bbe <matrix_test+0xe0>
    19ae:	0000                	unimp
    19b0:	1d00                	addi	s0,sp,688
    19b2:	1b00                	addi	s0,sp,432
    19b4:	05f0                	addi	a2,sp,716
    19b6:	08280257          	0x8280257
    19ba:	0000                	unimp
    19bc:	fe1c                	fsw	fa5,56(a2)
    19be:	0005                	c.addi	zero,1
    19c0:	0500                	addi	s0,sp,640
    19c2:	026e                	slli	tp,tp,0x1b
    19c4:	0691                	addi	a3,a3,4
    19c6:	0000                	unimp
    19c8:	301c                	fld	fa5,32(s0)
    19ca:	05000007          	0x5000007
    19ce:	07c20277          	0x7c20277
    19d2:	0000                	unimp
    19d4:	0800                	addi	s0,sp,16
    19d6:	0560                	addi	s0,sp,652
    19d8:	0000                	unimp
    19da:	0838                	addi	a4,sp,24
    19dc:	0000                	unimp
    19de:	2c09                	jal	1bf0 <matrix_test+0x112>
    19e0:	0000                	unimp
    19e2:	1800                	addi	s0,sp,48
    19e4:	1d00                	addi	s0,sp,688
    19e6:	0171                	addi	sp,sp,28
    19e8:	0000                	unimp
    19ea:	0838040f          	0x838040f
    19ee:	0000                	unimp
    19f0:	4e1e                	lw	t3,196(sp)
    19f2:	0008                	addi	a0,sp,0
    19f4:	1400                	addi	s0,sp,544
    19f6:	041d                	addi	s0,s0,7
    19f8:	0000                	unimp
    19fa:	0f00                	addi	s0,sp,912
    19fc:	4304                	lw	s1,0(a4)
    19fe:	0008                	addi	a0,sp,0
    1a00:	0f00                	addi	s0,sp,912
    1a02:	7004                	flw	fs1,32(s0)
    1a04:	0001                	nop
    1a06:	1e00                	addi	s0,sp,816
    1a08:	0865                	addi	a6,a6,25
    1a0a:	0000                	unimp
    1a0c:	3314                	fld	fa3,32(a4)
    1a0e:	0000                	unimp
    1a10:	0000                	unimp
    1a12:	086b040f          	0x86b040f
    1a16:	0000                	unimp
    1a18:	085a040f          	0x85a040f
    1a1c:	0000                	unimp
    1a1e:	ff08                	fsw	fa0,56(a4)
    1a20:	0005                	c.addi	zero,1
    1a22:	8100                	0x8100
    1a24:	0008                	addi	a0,sp,0
    1a26:	0900                	addi	s0,sp,144
    1a28:	002c                	addi	a1,sp,8
    1a2a:	0000                	unimp
    1a2c:	0002                	0x2
    1a2e:	cb1f 0006 0500      	0x5000006cb1f
    1a34:	02fe                	slli	t0,t0,0x1f
    1a36:	041d                	addi	s0,s0,7
    1a38:	0000                	unimp
    1a3a:	c41f 0006 0500      	0x5000006c41f
    1a40:	02ff                	0x2ff
    1a42:	00000423          	sb	zero,8(zero) # 8 <buf.1775+0x8>
    1a46:	9608                	0x9608
    1a48:	0005                	c.addi	zero,1
    1a4a:	a400                	fsd	fs0,8(s0)
    1a4c:	0008                	addi	a0,sp,0
    1a4e:	2000                	fld	fs0,0(s0)
    1a50:	1500                	addi	s0,sp,672
    1a52:	0899                	addi	a7,a7,6
    1a54:	0000                	unimp
    1a56:	ee21                	bnez	a2,1aae <core_init_matrix+0x2d2>
    1a58:	0002                	0x2
    1a5a:	0600                	addi	s0,sp,768
    1a5c:	a414                	fsd	fa3,8(s0)
    1a5e:	0008                	addi	a0,sp,0
    1a60:	2100                	fld	fs0,0(a0)
    1a62:	000005c3          	fmadd.s	fa1,ft0,ft0,ft0,rne
    1a66:	1506                	slli	a0,a0,0x21
    1a68:	00000033          	add	zero,zero,zero
    1a6c:	08c5040f          	0x8c5040f
    1a70:	0000                	unimp
    1a72:	00003313          	sltiu	t1,zero,0
    1a76:	d900                	sw	s0,48(a0)
    1a78:	0008                	addi	a0,sp,0
    1a7a:	1400                	addi	s0,sp,544
    1a7c:	08d9                	addi	a7,a7,22
    1a7e:	0000                	unimp
    1a80:	d914                	sw	a3,48(a0)
    1a82:	0008                	addi	a0,sp,0
    1a84:	0000                	unimp
    1a86:	08df040f          	0x8df040f
    1a8a:	0000                	unimp
    1a8c:	2122                	fld	ft2,8(sp)
    1a8e:	04fc                	addi	a5,sp,588
    1a90:	0000                	unimp
    1a92:	055a6307          	0x55a6307
    1a96:	0000                	unimp
    1a98:	3a21                	jal	13b0 <core_list_init+0x1ac>
    1a9a:	0004                	addi	s1,sp,0
    1a9c:	0800                	addi	s0,sp,16
    1a9e:	f610                	fsw	fa2,40(a2)
    1aa0:	0008                	addi	a0,sp,0
    1aa2:	0f00                	addi	s0,sp,912
    1aa4:	5a04                	lw	s1,48(a2)
    1aa6:	0005                	c.addi	zero,1
    1aa8:	2100                	fld	fs0,0(a0)
    1aaa:	04ff                	0x4ff
    1aac:	0000                	unimp
    1aae:	e208                	fsw	fa0,0(a2)
    1ab0:	055a                	slli	a0,a0,0x16
    1ab2:	0000                	unimp
    1ab4:	4c21                	li	s8,8
    1ab6:	0001                	nop
    1ab8:	0800                	addi	s0,sp,16
    1aba:	000033e3          	0x33e3
    1abe:	2100                	fld	fs0,0(a0)
    1ac0:	0661                	addi	a2,a2,24
    1ac2:	0000                	unimp
    1ac4:	e308                	fsw	fa0,0(a4)
    1ac6:	00000033          	add	zero,zero,zero
    1aca:	7421                	lui	s0,0xfffe8
    1acc:	08000007          	0x8000007
    1ad0:	000033e3          	0x33e3
    1ad4:	2100                	fld	fs0,0(a0)
    1ad6:	046e                	slli	s0,s0,0x1b
    1ad8:	0000                	unimp
    1ada:	e508                	fsw	fa0,8(a0)
    1adc:	00000033          	add	zero,zero,zero
    1ae0:	2c21                	jal	1cf8 <matrix_test+0x21a>
    1ae2:	0005                	c.addi	zero,1
    1ae4:	0900                	addi	s0,sp,144
    1ae6:	649a                	flw	fs1,132(sp)
    1ae8:	0000                	unimp
    1aea:	2100                	fld	fs0,0(a0)
    1aec:	0000002f          	0x2f
    1af0:	9b09                	andi	a4,a4,-30
    1af2:	00000033          	add	zero,zero,zero
    1af6:	5a08                	lw	a0,48(a2)
    1af8:	0005                	c.addi	zero,1
    1afa:	5900                	lw	s0,48(a0)
    1afc:	0009                	c.addi	zero,2
    1afe:	0900                	addi	s0,sp,144
    1b00:	002c                	addi	a1,sp,8
    1b02:	0000                	unimp
    1b04:	0001                	nop
    1b06:	8b21                	andi	a4,a4,8
    1b08:	0001                	nop
    1b0a:	0900                	addi	s0,sp,144
    1b0c:	499e                	lw	s3,196(sp)
    1b0e:	0009                	c.addi	zero,2
    1b10:	0400                	addi	s0,sp,512
    1b12:	03ad                	addi	t2,t2,11
    1b14:	0000                	unimp
    1b16:	2a0a                	fld	fs4,128(sp)
    1b18:	002c                	addi	a1,sp,8
    1b1a:	0000                	unimp
    1b1c:	b104                	fsd	fs1,32(a0)
    1b1e:	0005                	c.addi	zero,1
    1b20:	0a00                	addi	s0,sp,272
    1b22:	00097a2f          	0x97a2f
    1b26:	0f00                	addi	s0,sp,912
    1b28:	8004                	0x8004
    1b2a:	0009                	c.addi	zero,2
    1b2c:	1300                	addi	s0,sp,416
    1b2e:	0964                	addi	s1,sp,156
    1b30:	0000                	unimp
    1b32:	0000098f          	0x98f
    1b36:	d914                	sw	a3,48(a0)
    1b38:	0008                	addi	a0,sp,0
    1b3a:	0000                	unimp
    1b3c:	c604                	sw	s1,8(a2)
    1b3e:	0a000007          	0xa000007
    1b42:	bf36                	fsd	fa3,440(sp)
    1b44:	0008                	addi	a0,sp,0
    1b46:	2100                	fld	fs0,0(a0)
    1b48:	000a                	0xa
    1b4a:	0000                	unimp
    1b4c:	bb0a                	fsd	ft2,432(sp)
    1b4e:	0000096f          	jal	s2,1b4e <matrix_test+0x70>
    1b52:	af21                	j	226a <matrix_test+0x78c>
    1b54:	0006                	0x6
    1b56:	0a00                	addi	s0,sp,272
    1b58:	8fbe                	mv	t6,a5
    1b5a:	0009                	c.addi	zero,2
    1b5c:	2300                	fld	fs0,0(a4)
    1b5e:	0380                	addi	s0,sp,448
    1b60:	0000                	unimp
    1b62:	002c0407          	0x2c0407
    1b66:	0000                	unimp
    1b68:	09e6180b          	0x9e6180b
    1b6c:	0000                	unimp
    1b6e:	6224                	flw	fs1,64(a2)
    1b70:	0005                	c.addi	zero,1
    1b72:	0000                	unimp
    1b74:	d224                	sw	s1,96(a2)
    1b76:	0004                	addi	s1,sp,0
    1b78:	0100                	addi	s0,sp,128
    1b7a:	9d24                	0x9d24
    1b7c:	0004                	addi	s1,sp,0
    1b7e:	0200                	addi	s0,sp,256
    1b80:	5924                	lw	s1,112(a0)
    1b82:	0005                	c.addi	zero,1
    1b84:	0300                	addi	s0,sp,384
    1b86:	7b24                	flw	fs1,112(a4)
    1b88:	04000007          	0x4000007
    1b8c:	6a24                	flw	fs1,80(a2)
    1b8e:	05000007          	0x5000007
    1b92:	2100                	fld	fs0,0(a0)
    1b94:	00000167          	jalr	sp,zero
    1b98:	09b0200b          	0x9b0200b
    1b9c:	0000                	unimp
    1b9e:	0004a823          	sw	zero,16(s1)
    1ba2:	0700                	addi	s0,sp,896
    1ba4:	2c04                	fld	fs1,24(s0)
    1ba6:	0000                	unimp
    1ba8:	0b00                	addi	s0,sp,400
    1baa:	1522                	slli	a0,a0,0x28
    1bac:	000a                	0xa
    1bae:	2400                	fld	fs0,8(s0)
    1bb0:	000005a7          	0x5a7
    1bb4:	2400                	fld	fs0,8(s0)
    1bb6:	0578                	addi	a4,sp,652
    1bb8:	0000                	unimp
    1bba:	2401                	jal	1dba <matrix_test+0x2dc>
    1bbc:	0684                	addi	s1,sp,832
    1bbe:	0000                	unimp
    1bc0:	0002                	0x2
    1bc2:	2221                	jal	1cca <matrix_test+0x1ec>
    1bc4:	0b000003          	lb	zero,176(zero) # b0 <buflen.1776+0x70>
    1bc8:	0009f127          	0x9f127
    1bcc:	2100                	fld	fs0,0(a0)
    1bce:	045f 0000 250c      	0x250c0000045f
    1bd4:	08a4                	addi	s1,sp,88
    1bd6:	0000                	unimp
    1bd8:	4b21                	li	s6,8
    1bda:	0006                	0x6
    1bdc:	0c00                	addi	s0,sp,528
    1bde:	a431                	j	1dea <matrix_test+0x30c>
    1be0:	0008                	addi	a0,sp,0
    1be2:	0400                	addi	s0,sp,512
    1be4:	07a2                	slli	a5,a5,0x8
    1be6:	0000                	unimp
    1be8:	7b0d                	lui	s6,0xfffe3
    1bea:	0000004f          	fnmadd.s	ft0,ft0,ft0,ft0,rne
    1bee:	3615                	jal	1712 <core_list_init+0x50e>
    1bf0:	000a                	0xa
    1bf2:	0400                	addi	s0,sp,512
    1bf4:	02d9                	addi	t0,t0,22
    1bf6:	0000                	unimp
    1bf8:	800d                	srli	s0,s0,0x3
    1bfa:	00000033          	add	zero,zero,zero
    1bfe:	d804                	sw	s1,48(s0)
    1c00:	0002                	0x2
    1c02:	0d00                	addi	s0,sp,656
    1c04:	2c81                	jal	1e54 <matrix_test+0x376>
    1c06:	0000                	unimp
    1c08:	0400                	addi	s0,sp,512
    1c0a:	06d8                	addi	a4,sp,836
    1c0c:	0000                	unimp
    1c0e:	840d                	srai	s0,s0,0x3
    1c10:	003a                	0x3a
    1c12:	0000                	unimp
    1c14:	d704                	sw	s1,40(a4)
    1c16:	0006                	0x6
    1c18:	0d00                	addi	s0,sp,656
    1c1a:	2585                	jal	227a <matrix_test+0x79c>
    1c1c:	0000                	unimp
    1c1e:	0200                	addi	s0,sp,256
    1c20:	0404                	addi	s1,sp,512
    1c22:	04e5                	addi	s1,s1,25
    1c24:	0000                	unimp
    1c26:	0802                	slli	a6,a6,0x0
    1c28:	0004dd03          	lhu	s10,0(s1)
    1c2c:	0200                	addi	s0,sp,256
    1c2e:	0408                	addi	a0,sp,512
    1c30:	0160                	addi	s0,sp,140
    1c32:	0000                	unimp
    1c34:	1002                	0x1002
    1c36:	00003903          	0x3903
    1c3a:	0200                	addi	s0,sp,256
    1c3c:	0320                	addi	s0,sp,392
    1c3e:	00000153          	fadd.s	ft2,ft0,ft0,rne
    1c42:	dd19                	beqz	a0,1b60 <matrix_test+0x82>
    1c44:	08000003          	lb	zero,128(zero) # 80 <buflen.1776+0x40>
    1c48:	ed0d                	bnez	a0,1c82 <matrix_test+0x1a4>
    1c4a:	bd01                	j	1a5a <core_init_matrix+0x27e>
    1c4c:	000a                	0xa
    1c4e:	2500                	fld	fs0,8(a0)
    1c50:	6f6c                	flw	fa1,92(a4)
    1c52:	ed0d0077          	0xed0d0077
    1c56:	4601                	li	a2,0
    1c58:	000a                	0xa
    1c5a:	0000                	unimp
    1c5c:	00066817          	auipc	a6,0x66
    1c60:	0d00                	addi	s0,sp,656
    1c62:	01ed                	addi	gp,gp,27
    1c64:	0a46                	slli	s4,s4,0x11
    1c66:	0000                	unimp
    1c68:	0004                	addi	s1,sp,0
    1c6a:	f40d081b          	0xf40d081b
    1c6e:	dc01                	beqz	s0,1b86 <matrix_test+0xa8>
    1c70:	000a                	0xa
    1c72:	2600                	fld	fs0,8(a2)
    1c74:	f60d0073          	0xf60d0073
    1c78:	9501                	srai	a0,a0,0x20
    1c7a:	000a                	0xa
    1c7c:	2600                	fld	fs0,8(a2)
    1c7e:	6c6c                	flw	fa1,92(s0)
    1c80:	0d00                	addi	s0,sp,656
    1c82:	0a5c01f7          	0xa5c01f7
    1c86:	0000                	unimp
    1c88:	0500                	addi	s0,sp,640
    1c8a:	000003b7          	lui	t2,0x0
    1c8e:	f80d                	bnez	s0,1bc0 <matrix_test+0xe2>
    1c90:	bd01                	j	1aa0 <core_init_matrix+0x2c4>
    1c92:	000a                	0xa
    1c94:	1500                	addi	s0,sp,672
    1c96:	0adc                	addi	a5,sp,340
    1c98:	0000                	unimp
    1c9a:	4108                	lw	a0,0(a0)
    1c9c:	000a                	0xa
    1c9e:	fd00                	fsw	fs0,56(a0)
    1ca0:	000a                	0xa
    1ca2:	0900                	addi	s0,sp,144
    1ca4:	002c                	addi	a1,sp,8
    1ca6:	0000                	unimp
    1ca8:	00ff                	0xff
    1caa:	ed15                	bnez	a0,1ce6 <matrix_test+0x208>
    1cac:	000a                	0xa
    1cae:	1f00                	addi	s0,sp,944
    1cb0:	0000071b          	0x71b
    1cb4:	fc0d                	bnez	s0,1bee <matrix_test+0x110>
    1cb6:	fd01                	bnez	a0,1bce <matrix_test+0xf0>
    1cb8:	000a                	0xa
    1cba:	1f00                	addi	s0,sp,944
    1cbc:	03f9                	addi	t2,t2,30
    1cbe:	0000                	unimp
    1cc0:	020d                	addi	tp,tp,3
    1cc2:	fd02                	fsw	ft0,184(sp)
    1cc4:	000a                	0xa
    1cc6:	2700                	fld	fs0,8(a4)
    1cc8:	07ce                	slli	a5,a5,0x13
    1cca:	0000                	unimp
    1ccc:	2501                	jal	22cc <matrix_test+0x7ee>
    1cce:	6705                	lui	a4,0x1
    1cd0:	000a                	0xa
    1cd2:	d400                	sw	s0,40(s0)
    1cd4:	004d                	c.addi	zero,19
    1cd6:	3400                	fld	fs0,40(s0)
    1cd8:	0004                	addi	s1,sp,0
    1cda:	0100                	addi	s0,sp,128
    1cdc:	f29c                	fsw	fa5,32(a3)
    1cde:	000d                	c.addi	zero,3
    1ce0:	2800                	fld	fs0,16(s0)
    1ce2:	006e                	0x6e
    1ce4:	2501                	jal	22e4 <matrix_test+0x806>
    1ce6:	6705                	lui	a4,0x1
    1ce8:	000a                	0xa
    1cea:	c400                	sw	s0,8(s0)
    1cec:	0009                	c.addi	zero,2
    1cee:	2800                	fld	fs0,16(s0)
    1cf0:	0064                	addi	s1,sp,12
    1cf2:	2501                	jal	22f2 <matrix_test+0x814>
    1cf4:	6705                	lui	a4,0x1
    1cf6:	000a                	0xa
    1cf8:	7c00                	flw	fs0,56(s0)
    1cfa:	000a                	0xa
    1cfc:	2900                	fld	fs0,16(a0)
    1cfe:	0df2                	slli	s11,s11,0x1c
    1d00:	0000                	unimp
    1d02:	4dd8                	lw	a4,28(a1)
    1d04:	0000                	unimp
    1d06:	00c0                	addi	s0,sp,68
    1d08:	0000                	unimp
    1d0a:	2701                	jal	240a <matrix_test+0x92c>
    1d0c:	2a05                	jal	1e3c <matrix_test+0x35e>
    1d0e:	00000e17          	auipc	t3,0x0
    1d12:	0b14                	addi	a3,sp,400
    1d14:	0000                	unimp
    1d16:	0d2a                	slli	s10,s10,0xa
    1d18:	000e                	0xe
    1d1a:	3400                	fld	fs0,40(s0)
    1d1c:	2a00000b          	0x2a00000b
    1d20:	00000e03          	lb	t3,0(zero) # 0 <buf.1775>
    1d24:	0bcc                	addi	a1,sp,468
    1d26:	0000                	unimp
    1d28:	0000c02b          	0xc02b
    1d2c:	2c00                	fld	fs0,24(s0)
    1d2e:	0e22                	slli	t3,t3,0x8
    1d30:	0000                	unimp
    1d32:	2d2c                	fld	fa1,88(a0)
    1d34:	000e                	0xe
    1d36:	2c00                	fld	fs0,24(s0)
    1d38:	0e38                	addi	a4,sp,792
    1d3a:	0000                	unimp
    1d3c:	432d                	li	t1,11
    1d3e:	000e                	0xe
    1d40:	8400                	0x8400
    1d42:	000c                	addi	a1,sp,0
    1d44:	2d00                	fld	fs0,24(a0)
    1d46:	0e4e                	slli	t3,t3,0x13
    1d48:	0000                	unimp
    1d4a:	0d19                	addi	s10,s10,6
    1d4c:	0000                	unimp
    1d4e:	592d                	li	s2,-21
    1d50:	000e                	0xe
    1d52:	8f00                	0x8f00
    1d54:	000d                	c.addi	zero,3
    1d56:	2d00                	fld	fs0,24(a0)
    1d58:	0e64                	addi	s1,sp,796
    1d5a:	0000                	unimp
    1d5c:	0dff                	0xdff
    1d5e:	0000                	unimp
    1d60:	6f2d                	lui	t5,0xb
    1d62:	000e                	0xe
    1d64:	ac00                	fsd	fs0,24(s0)
    1d66:	000e                	0xe
    1d68:	2d00                	fld	fs0,24(a0)
    1d6a:	0e7a                	slli	t3,t3,0x1e
    1d6c:	0000                	unimp
    1d6e:	0eca                	slli	t4,t4,0x12
    1d70:	0000                	unimp
    1d72:	852d                	srai	a0,a0,0xb
    1d74:	000e                	0xe
    1d76:	e800                	fsw	fs0,16(s0)
    1d78:	000e                	0xe
    1d7a:	2d00                	fld	fs0,24(a0)
    1d7c:	0e90                	addi	a2,sp,848
    1d7e:	0000                	unimp
    1d80:	0f12                	slli	t5,t5,0x4
    1d82:	0000                	unimp
    1d84:	9a2d                	andi	a2,a2,-21
    1d86:	000e                	0xe
    1d88:	3000                	fld	fs0,32(s0)
    1d8a:	2c00000f          	0x2c00000f
    1d8e:	0ea5                	addi	t4,t4,9
    1d90:	0000                	unimp
    1d92:	b02e                	fsd	fa1,32(sp)
    1d94:	000e                	0xe
    1d96:	d800                	sw	s0,48(s0)
    1d98:	0000                	unimp
    1d9a:	0500                	addi	s0,sp,640
    1d9c:	000c                	addi	a1,sp,0
    1d9e:	2d00                	fld	fs0,24(a0)
    1da0:	0eb5                	addi	t4,t4,13
    1da2:	0000                	unimp
    1da4:	00000f6f          	jal	t5,1da4 <matrix_test+0x2c6>
    1da8:	c12d                	beqz	a0,1e0a <matrix_test+0x32c>
    1daa:	000e                	0xe
    1dac:	a800                	fsd	fs0,16(s0)
    1dae:	0000000f          	fence	unknown,unknown
    1db2:	000ece2f          	0xece2f
    1db6:	3800                	fld	fs0,48(s0)
    1db8:	004e                	0x4e
    1dba:	8800                	0x8800
    1dbc:	0000                	unimp
    1dbe:	5600                	lw	s0,40(a2)
    1dc0:	000c                	addi	a1,sp,0
    1dc2:	2d00                	fld	fs0,24(a0)
    1dc4:	00000ed3          	fadd.s	ft9,ft0,ft0,rne
    1dc8:	00000fbb          	0xfbb
    1dcc:	df2d                	beqz	a4,1d46 <matrix_test+0x268>
    1dce:	000e                	0xe
    1dd0:	dd00                	sw	s0,56(a0)
    1dd2:	2d00000f          	0x2d00000f
    1dd6:	00000eeb          	0xeeb
    1dda:	0ff0                	addi	a2,sp,988
    1ddc:	0000                	unimp
    1dde:	f72d                	bnez	a4,1d48 <matrix_test+0x26a>
    1de0:	000e                	0xe
    1de2:	0e00                	addi	s0,sp,784
    1de4:	0010                	addi	a2,sp,0
    1de6:	2d00                	fld	fs0,24(a0)
    1de8:	00000f03          	lb	t5,0(zero) # 0 <buf.1775>
    1dec:	102c                	addi	a1,sp,40
    1dee:	0000                	unimp
    1df0:	0f2d                	addi	t5,t5,11
    1df2:	5500000f          	0x5500000f
    1df6:	0010                	addi	a2,sp,0
    1df8:	2d00                	fld	fs0,24(a0)
    1dfa:	00000f1b          	0xf1b
    1dfe:	00001073          	csrw	0x0,zero
    1e02:	2e00                	fld	fs0,24(a2)
    1e04:	102a                	0x102a
    1e06:	0000                	unimp
    1e08:	00f0                	addi	a2,sp,76
    1e0a:	0000                	unimp
    1e0c:	0d15                	addi	s10,s10,5
    1e0e:	0000                	unimp
    1e10:	2b2d                	jal	234a <matrix_test+0x86c>
    1e12:	0010                	addi	a2,sp,0
    1e14:	8600                	0x8600
    1e16:	0010                	addi	a2,sp,0
    1e18:	2d00                	fld	fs0,24(a0)
    1e1a:	1036                	0x1036
    1e1c:	0000                	unimp
    1e1e:	1099                	addi	ra,ra,-26
    1e20:	0000                	unimp
    1e22:	412e                	lw	sp,200(sp)
    1e24:	0010                	addi	a2,sp,0
    1e26:	0800                	addi	s0,sp,16
    1e28:	0001                	nop
    1e2a:	c200                	sw	s0,0(a2)
    1e2c:	000c                	addi	a1,sp,0
    1e2e:	2d00                	fld	fs0,24(a0)
    1e30:	1046                	0x1046
    1e32:	0000                	unimp
    1e34:	10da                	slli	ra,ra,0x36
    1e36:	0000                	unimp
    1e38:	522d                	li	tp,-21
    1e3a:	0010                	addi	a2,sp,0
    1e3c:	fc00                	fsw	fs0,56(s0)
    1e3e:	0010                	addi	a2,sp,0
    1e40:	2d00                	fld	fs0,24(a0)
    1e42:	105e                	0x105e
    1e44:	0000                	unimp
    1e46:	1120                	addi	s0,sp,168
    1e48:	0000                	unimp
    1e4a:	6a2d                	lui	s4,0xb
    1e4c:	0010                	addi	a2,sp,0
    1e4e:	3e00                	fld	fs0,56(a2)
    1e50:	0011                	c.addi	zero,4
    1e52:	2d00                	fld	fs0,24(a0)
    1e54:	1076                	0x1076
    1e56:	0000                	unimp
    1e58:	115c                	addi	a5,sp,164
    1e5a:	0000                	unimp
    1e5c:	822d                	srli	a2,a2,0xb
    1e5e:	0010                	addi	a2,sp,0
    1e60:	9700                	0x9700
    1e62:	0011                	c.addi	zero,4
    1e64:	2d00                	fld	fs0,24(a0)
    1e66:	108e                	slli	ra,ra,0x23
    1e68:	0000                	unimp
    1e6a:	11d4                	addi	a3,sp,228
    1e6c:	0000                	unimp
    1e6e:	3000                	fld	fs0,32(s0)
    1e70:	0000109b          	0x109b
    1e74:	0138                	addi	a4,sp,136
    1e76:	0000                	unimp
    1e78:	a02d                	j	1ea2 <matrix_test+0x3c4>
    1e7a:	0010                	addi	a2,sp,0
    1e7c:	0600                	addi	s0,sp,768
    1e7e:	0012                	0x12
    1e80:	2d00                	fld	fs0,24(a0)
    1e82:	10ac                	addi	a1,sp,104
    1e84:	0000                	unimp
    1e86:	1219                	addi	tp,tp,-26
    1e88:	0000                	unimp
    1e8a:	b82d                	j	16c4 <core_list_init+0x4c0>
    1e8c:	0010                	addi	a2,sp,0
    1e8e:	6c00                	flw	fs0,24(s0)
    1e90:	0012                	0x12
    1e92:	2d00                	fld	fs0,24(a0)
    1e94:	10c4                	addi	s1,sp,100
    1e96:	0000                	unimp
    1e98:	127f                	0x127f
    1e9a:	0000                	unimp
    1e9c:	d02d                	beqz	s0,1dfe <matrix_test+0x320>
    1e9e:	0010                	addi	a2,sp,0
    1ea0:	9200                	0x9200
    1ea2:	0012                	0x12
    1ea4:	2d00                	fld	fs0,24(a0)
    1ea6:	10dc                	addi	a5,sp,100
    1ea8:	0000                	unimp
    1eaa:	12e5                	addi	t0,t0,-7
    1eac:	0000                	unimp
    1eae:	e82d                	bnez	s0,1f20 <matrix_test+0x442>
    1eb0:	0010                	addi	a2,sp,0
    1eb2:	f800                	fsw	fs0,48(s0)
    1eb4:	0012                	0x12
    1eb6:	2d00                	fld	fs0,24(a0)
    1eb8:	10f4                	addi	a3,sp,108
    1eba:	0000                	unimp
    1ebc:	1329                	addi	t1,t1,-22
    1ebe:	0000                	unimp
    1ec0:	0000                	unimp
    1ec2:	282e                	fld	fa6,200(sp)
    1ec4:	6000000f          	0x6000000f
    1ec8:	0001                	nop
    1eca:	3500                	fld	fs0,40(a0)
    1ecc:	000d                	c.addi	zero,3
    1ece:	2d00                	fld	fs0,24(a0)
    1ed0:	0f2d                	addi	t5,t5,11
    1ed2:	0000                	unimp
    1ed4:	133c                	addi	a5,sp,424
    1ed6:	0000                	unimp
    1ed8:	392d                	jal	1b12 <matrix_test+0x34>
    1eda:	7500000f          	0x7500000f
    1ede:	00000013          	nop
    1ee2:	000fa02f          	amoadd.w	zero,zero,(t6)
    1ee6:	2000                	fld	fs0,0(s0)
    1ee8:	8800004f          	fnmadd.s	ft0,ft0,ft0,fa7,rne
    1eec:	0000                	unimp
    1eee:	8600                	0x8600
    1ef0:	000d                	c.addi	zero,3
    1ef2:	2d00                	fld	fs0,24(a0)
    1ef4:	0fa5                	addi	t6,t6,9
    1ef6:	0000                	unimp
    1ef8:	00001393          	slli	t2,zero,0x0
    1efc:	b12d                	j	1b26 <matrix_test+0x48>
    1efe:	a600000f          	0xa600000f
    1f02:	2d000013          	li	zero,720
    1f06:	0fbd                	addi	t6,t6,15
    1f08:	0000                	unimp
    1f0a:	13ca                	slli	t2,t2,0x32
    1f0c:	0000                	unimp
    1f0e:	c92d                	beqz	a0,1f80 <matrix_test+0x4a2>
    1f10:	e800000f          	0xe800000f
    1f14:	2d000013          	li	zero,720
    1f18:	0fd5                	addi	t6,t6,21
    1f1a:	0000                	unimp
    1f1c:	1406                	slli	s0,s0,0x21
    1f1e:	0000                	unimp
    1f20:	e12d                	bnez	a0,1f82 <matrix_test+0x4a4>
    1f22:	2f00000f          	0x2f00000f
    1f26:	0014                	addi	a3,sp,0
    1f28:	2d00                	fld	fs0,24(a0)
    1f2a:	0fed                	addi	t6,t6,27
    1f2c:	0000                	unimp
    1f2e:	144d                	addi	s0,s0,-13
    1f30:	0000                	unimp
    1f32:	2e00                	fld	fs0,24(a2)
    1f34:	0f46                	slli	t5,t5,0x11
    1f36:	0000                	unimp
    1f38:	0178                	addi	a4,sp,140
    1f3a:	0000                	unimp
    1f3c:	00000dd3          	fadd.s	fs11,ft0,ft0,rne
    1f40:	4b2d                	li	s6,11
    1f42:	6b00000f          	0x6b00000f
    1f46:	0014                	addi	a3,sp,0
    1f48:	2d00                	fld	fs0,24(a0)
    1f4a:	00000f57          	0xf57
    1f4e:	147e                	slli	s0,s0,0x3f
    1f50:	0000                	unimp
    1f52:	632d                	lui	t1,0xb
    1f54:	a200000f          	0xa200000f
    1f58:	0014                	addi	a3,sp,0
    1f5a:	2d00                	fld	fs0,24(a0)
    1f5c:	00000f6f          	jal	t5,1f5c <matrix_test+0x47e>
    1f60:	14c0                	addi	s0,sp,612
    1f62:	0000                	unimp
    1f64:	7b2d                	lui	s6,0xfffeb
    1f66:	de00000f          	0xde00000f
    1f6a:	0014                	addi	a3,sp,0
    1f6c:	2d00                	fld	fs0,24(a0)
    1f6e:	00000f87          	0xf87
    1f72:	1512                	slli	a0,a0,0x24
    1f74:	0000                	unimp
    1f76:	932d                	srli	a4,a4,0x2b
    1f78:	3b00000f          	0x3b00000f
    1f7c:	0015                	c.addi	zero,5
    1f7e:	0000                	unimp
    1f80:	fa30                	fsw	fa2,112(a2)
    1f82:	9800000f          	0x9800000f
    1f86:	0001                	nop
    1f88:	2d00                	fld	fs0,24(a0)
    1f8a:	0fff                	0xfff
    1f8c:	0000                	unimp
    1f8e:	157d                	addi	a0,a0,-1
    1f90:	0000                	unimp
    1f92:	0b2d                	addi	s6,s6,11
    1f94:	0010                	addi	a2,sp,0
    1f96:	9b00                	0x9b00
    1f98:	0015                	c.addi	zero,5
    1f9a:	0000                	unimp
    1f9c:	0000                	unimp
    1f9e:	3100                	fld	fs0,32(a0)
    1fa0:	063e                	slli	a2,a2,0xf
    1fa2:	0000                	unimp
    1fa4:	f601                	bnez	a2,1eac <matrix_test+0x3ce>
    1fa6:	000a6703          	0xa6703
    1faa:	0300                	addi	s0,sp,384
    1fac:	00001123          	sh	zero,2(zero) # 2 <buf.1775+0x2>
    1fb0:	6e32                	flw	ft8,12(sp)
    1fb2:	0100                	addi	s0,sp,128
    1fb4:	03f6                	slli	t2,t2,0x1d
    1fb6:	00000a67          	jalr	s4,zero
    1fba:	6432                	flw	fs0,12(sp)
    1fbc:	0100                	addi	s0,sp,128
    1fbe:	03f6                	slli	t2,t2,0x1d
    1fc0:	00000a67          	jalr	s4,zero
    1fc4:	7232                	flw	ft4,44(sp)
    1fc6:	0070                	addi	a2,sp,12
    1fc8:	f601                	bnez	a2,1ed0 <matrix_test+0x3f2>
    1fca:	00112303          	lw	t1,1(sp)
    1fce:	3300                	fld	fs0,32(a4)
    1fd0:	6e6e                	flw	ft8,216(sp)
    1fd2:	0100                	addi	s0,sp,128
    1fd4:	03f8                	addi	a4,sp,460
    1fd6:	0ae8                	addi	a0,sp,348
    1fd8:	0000                	unimp
    1fda:	00646433          	or	s0,s0,t1
    1fde:	f901                	bnez	a0,1eee <matrix_test+0x410>
    1fe0:	000ae803          	0xae803
    1fe4:	3300                	fld	fs0,32(a4)
    1fe6:	7272                	flw	ft4,60(sp)
    1fe8:	0100                	addi	s0,sp,128
    1fea:	03fa                	slli	t2,t2,0x1e
    1fec:	0adc                	addi	a5,sp,340
    1fee:	0000                	unimp
    1ff0:	00306433          	or	s0,zero,gp
    1ff4:	fb01                	bnez	a4,1f04 <matrix_test+0x426>
    1ff6:	000a5103          	lhu	sp,0(s4) # b000 <__BSS_END__+0x49c0>
    1ffa:	3300                	fld	fs0,32(a4)
    1ffc:	3164                	fld	fs1,224(a0)
    1ffe:	0100                	addi	s0,sp,128
    2000:	0a5103fb          	0xa5103fb
    2004:	0000                	unimp
    2006:	00306e33          	or	t3,zero,gp
    200a:	fb01                	bnez	a4,1f1a <matrix_test+0x43c>
    200c:	000a5103          	lhu	sp,0(s4)
    2010:	3300                	fld	fs0,32(a4)
    2012:	316e                	fld	ft2,248(sp)
    2014:	0100                	addi	s0,sp,128
    2016:	0a5103fb          	0xa5103fb
    201a:	0000                	unimp
    201c:	00326e33          	or	t3,tp,gp
    2020:	fb01                	bnez	a4,1f30 <matrix_test+0x452>
    2022:	000a5103          	lhu	sp,0(s4)
    2026:	3300                	fld	fs0,32(a4)
    2028:	3071                	jal	18b4 <core_init_matrix+0xd8>
    202a:	0100                	addi	s0,sp,128
    202c:	03fc                	addi	a5,sp,460
    202e:	0a51                	addi	s4,s4,20
    2030:	0000                	unimp
    2032:	00317133          	and	sp,sp,gp
    2036:	fc01                	bnez	s0,1f4e <matrix_test+0x470>
    2038:	000a5103          	lhu	sp,0(s4)
    203c:	3300                	fld	fs0,32(a4)
    203e:	0062                	0x62
    2040:	fd01                	bnez	a0,1f58 <matrix_test+0x47a>
    2042:	000a5103          	lhu	sp,0(s4)
    2046:	3300                	fld	fs0,32(a4)
    2048:	6d62                	flw	fs10,24(sp)
    204a:	0100                	addi	s0,sp,128
    204c:	03fd                	addi	t2,t2,31
    204e:	0a51                	addi	s4,s4,20
    2050:	0000                	unimp
    2052:	00777733          	and	a4,a4,t2
    2056:	c601                	beqz	a2,205e <matrix_test+0x580>
    2058:	e804                	fsw	fs1,16(s0)
    205a:	000a                	0xa
    205c:	3400                	fld	fs0,40(s0)
    205e:	0ece                	slli	t4,t4,0x13
    2060:	0000                	unimp
    2062:	bf35                	j	1f9e <matrix_test+0x4c0>
    2064:	0006                	0x6
    2066:	0100                	addi	s0,sp,128
    2068:	042d                	addi	s0,s0,11
    206a:	0a51                	addi	s4,s4,20
    206c:	0000                	unimp
    206e:	615f5f33          	0x615f5f33
    2072:	0100                	addi	s0,sp,128
    2074:	042d                	addi	s0,s0,11
    2076:	0a51                	addi	s4,s4,20
    2078:	0000                	unimp
    207a:	3400                	fld	fs0,40(s0)
    207c:	0f28                	addi	a0,sp,920
    207e:	0000                	unimp
    2080:	3e35                	jal	1bbc <matrix_test+0xde>
    2082:	0001                	nop
    2084:	0100                	addi	s0,sp,128
    2086:	0439                	addi	s0,s0,14
    2088:	0a51                	addi	s4,s4,20
    208a:	0000                	unimp
    208c:	3935                	jal	1cc8 <matrix_test+0x1ea>
    208e:	0001                	nop
    2090:	0100                	addi	s0,sp,128
    2092:	0439                	addi	s0,s0,14
    2094:	0a51                	addi	s4,s4,20
    2096:	0000                	unimp
    2098:	7235                	lui	tp,0xfffed
    209a:	0006                	0x6
    209c:	0100                	addi	s0,sp,128
    209e:	0439                	addi	s0,s0,14
    20a0:	0a51                	addi	s4,s4,20
    20a2:	0000                	unimp
    20a4:	6d35                	lui	s10,0xd
    20a6:	0006                	0x6
    20a8:	0100                	addi	s0,sp,128
    20aa:	0439                	addi	s0,s0,14
    20ac:	0a51                	addi	s4,s4,20
    20ae:	0000                	unimp
    20b0:	3d35                	jal	1eec <matrix_test+0x40e>
    20b2:	01000007          	0x1000007
    20b6:	0439                	addi	s0,s0,14
    20b8:	0a51                	addi	s4,s4,20
    20ba:	0000                	unimp
    20bc:	3835                	jal	18f8 <core_init_matrix+0x11c>
    20be:	01000007          	0x1000007
    20c2:	0439                	addi	s0,s0,14
    20c4:	0a51                	addi	s4,s4,20
    20c6:	0000                	unimp
    20c8:	6d5f5f33          	0x6d5f5f33
    20cc:	0100                	addi	s0,sp,128
    20ce:	0439                	addi	s0,s0,14
    20d0:	0a51                	addi	s4,s4,20
    20d2:	0000                	unimp
    20d4:	3400                	fld	fs0,40(s0)
    20d6:	0f46                	slli	t5,t5,0x11
    20d8:	0000                	unimp
    20da:	bf35                	j	2016 <matrix_test+0x538>
    20dc:	0006                	0x6
    20de:	0100                	addi	s0,sp,128
    20e0:	0445                	addi	s0,s0,17
    20e2:	0a51                	addi	s4,s4,20
    20e4:	0000                	unimp
    20e6:	615f5f33          	0x615f5f33
    20ea:	0100                	addi	s0,sp,128
    20ec:	0445                	addi	s0,s0,17
    20ee:	0a51                	addi	s4,s4,20
    20f0:	0000                	unimp
    20f2:	3400                	fld	fs0,40(s0)
    20f4:	0fa0                	addi	s0,sp,984
    20f6:	0000                	unimp
    20f8:	3e35                	jal	1c34 <matrix_test+0x156>
    20fa:	0001                	nop
    20fc:	0100                	addi	s0,sp,128
    20fe:	045e                	slli	s0,s0,0x17
    2100:	0a51                	addi	s4,s4,20
    2102:	0000                	unimp
    2104:	3935                	jal	1d40 <matrix_test+0x262>
    2106:	0001                	nop
    2108:	0100                	addi	s0,sp,128
    210a:	045e                	slli	s0,s0,0x17
    210c:	0a51                	addi	s4,s4,20
    210e:	0000                	unimp
    2110:	7235                	lui	tp,0xfffed
    2112:	0006                	0x6
    2114:	0100                	addi	s0,sp,128
    2116:	045e                	slli	s0,s0,0x17
    2118:	0a51                	addi	s4,s4,20
    211a:	0000                	unimp
    211c:	6d35                	lui	s10,0xd
    211e:	0006                	0x6
    2120:	0100                	addi	s0,sp,128
    2122:	045e                	slli	s0,s0,0x17
    2124:	0a51                	addi	s4,s4,20
    2126:	0000                	unimp
    2128:	3d35                	jal	1f64 <matrix_test+0x486>
    212a:	01000007          	0x1000007
    212e:	045e                	slli	s0,s0,0x17
    2130:	0a51                	addi	s4,s4,20
    2132:	0000                	unimp
    2134:	3835                	jal	1970 <core_init_matrix+0x194>
    2136:	01000007          	0x1000007
    213a:	045e                	slli	s0,s0,0x17
    213c:	0a51                	addi	s4,s4,20
    213e:	0000                	unimp
    2140:	6d5f5f33          	0x6d5f5f33
    2144:	0100                	addi	s0,sp,128
    2146:	045e                	slli	s0,s0,0x17
    2148:	0a51                	addi	s4,s4,20
    214a:	0000                	unimp
    214c:	3400                	fld	fs0,40(s0)
    214e:	0ffa                	slli	t6,t6,0x1e
    2150:	0000                	unimp
    2152:	3e35                	jal	1c8e <matrix_test+0x1b0>
    2154:	0001                	nop
    2156:	0100                	addi	s0,sp,128
    2158:	0a510463          	beq	sp,t0,2200 <matrix_test+0x722>
    215c:	0000                	unimp
    215e:	3935                	jal	1d9a <matrix_test+0x2bc>
    2160:	0001                	nop
    2162:	0100                	addi	s0,sp,128
    2164:	0a510463          	beq	sp,t0,220c <matrix_test+0x72e>
    2168:	0000                	unimp
    216a:	7235                	lui	tp,0xfffed
    216c:	0006                	0x6
    216e:	0100                	addi	s0,sp,128
    2170:	0a510463          	beq	sp,t0,2218 <matrix_test+0x73a>
    2174:	0000                	unimp
    2176:	6d35                	lui	s10,0xd
    2178:	0006                	0x6
    217a:	0100                	addi	s0,sp,128
    217c:	0a510463          	beq	sp,t0,2224 <matrix_test+0x746>
    2180:	0000                	unimp
    2182:	3d35                	jal	1fbe <matrix_test+0x4e0>
    2184:	01000007          	0x1000007
    2188:	0a510463          	beq	sp,t0,2230 <matrix_test+0x752>
    218c:	0000                	unimp
    218e:	3835                	jal	19ca <core_init_matrix+0x1ee>
    2190:	01000007          	0x1000007
    2194:	0a510463          	beq	sp,t0,223c <matrix_test+0x75e>
    2198:	0000                	unimp
    219a:	6d5f5f33          	0x6d5f5f33
    219e:	0100                	addi	s0,sp,128
    21a0:	0a510463          	beq	sp,t0,2248 <matrix_test+0x76a>
    21a4:	0000                	unimp
    21a6:	3400                	fld	fs0,40(s0)
    21a8:	1018                	addi	a4,sp,32
    21aa:	0000                	unimp
    21ac:	bf35                	j	20e8 <matrix_test+0x60a>
    21ae:	0006                	0x6
    21b0:	0100                	addi	s0,sp,128
    21b2:	0486                	slli	s1,s1,0x1
    21b4:	0a51                	addi	s4,s4,20
    21b6:	0000                	unimp
    21b8:	615f5f33          	0x615f5f33
    21bc:	0100                	addi	s0,sp,128
    21be:	0486                	slli	s1,s1,0x1
    21c0:	0a51                	addi	s4,s4,20
    21c2:	0000                	unimp
    21c4:	3400                	fld	fs0,40(s0)
    21c6:	102a                	0x102a
    21c8:	0000                	unimp
    21ca:	785f5f33          	0x785f5f33
    21ce:	0100                	addi	s0,sp,128
    21d0:	0494                	addi	a3,sp,576
    21d2:	0a51                	addi	s4,s4,20
    21d4:	0000                	unimp
    21d6:	3600                	fld	fs0,40(a2)
    21d8:	00316d33          	or	s10,sp,gp
    21dc:	a401                	j	23dc <matrix_test+0x8fe>
    21de:	5104                	lw	s1,32(a0)
    21e0:	000a                	0xa
    21e2:	3300                	fld	fs0,32(a4)
    21e4:	306d                	jal	1a8e <core_init_matrix+0x2b2>
    21e6:	0100                	addi	s0,sp,128
    21e8:	04a4                	addi	s1,sp,584
    21ea:	0a51                	addi	s4,s4,20
    21ec:	0000                	unimp
    21ee:	9b34                	0x9b34
    21f0:	0010                	addi	a2,sp,0
    21f2:	3500                	fld	fs0,40(a0)
    21f4:	013e                	slli	sp,sp,0xf
    21f6:	0000                	unimp
    21f8:	af01                	j	2908 <matrix_test+0xe2a>
    21fa:	5104                	lw	s1,32(a0)
    21fc:	000a                	0xa
    21fe:	3500                	fld	fs0,40(a0)
    2200:	0139                	addi	sp,sp,14
    2202:	0000                	unimp
    2204:	af01                	j	2914 <matrix_test+0xe36>
    2206:	5104                	lw	s1,32(a0)
    2208:	000a                	0xa
    220a:	3500                	fld	fs0,40(a0)
    220c:	0672                	slli	a2,a2,0x1c
    220e:	0000                	unimp
    2210:	af01                	j	2920 <matrix_test+0xe42>
    2212:	5104                	lw	s1,32(a0)
    2214:	000a                	0xa
    2216:	3500                	fld	fs0,40(a0)
    2218:	066d                	addi	a2,a2,27
    221a:	0000                	unimp
    221c:	af01                	j	292c <matrix_test+0xe4e>
    221e:	5104                	lw	s1,32(a0)
    2220:	000a                	0xa
    2222:	3500                	fld	fs0,40(a0)
    2224:	073d                	addi	a4,a4,15
    2226:	0000                	unimp
    2228:	af01                	j	2938 <matrix_test+0xe5a>
    222a:	5104                	lw	s1,32(a0)
    222c:	000a                	0xa
    222e:	3500                	fld	fs0,40(a0)
    2230:	0738                	addi	a4,sp,904
    2232:	0000                	unimp
    2234:	af01                	j	2944 <matrix_test+0xe66>
    2236:	5104                	lw	s1,32(a0)
    2238:	000a                	0xa
    223a:	3300                	fld	fs0,32(a4)
    223c:	5f5f 006d af01      	0xaf01006d5f5f
    2242:	5104                	lw	s1,32(a0)
    2244:	000a                	0xa
    2246:	0000                	unimp
    2248:	0134                	addi	a3,sp,136
    224a:	0011                	c.addi	zero,4
    224c:	3500                	fld	fs0,40(a0)
    224e:	0605                	addi	a2,a2,1
    2250:	0000                	unimp
    2252:	b001                	j	1a52 <core_init_matrix+0x276>
    2254:	5104                	lw	s1,32(a0)
    2256:	000a                	0xa
    2258:	3500                	fld	fs0,40(a0)
    225a:	060a                	slli	a2,a2,0x2
    225c:	0000                	unimp
    225e:	b001                	j	1a5e <core_init_matrix+0x282>
    2260:	5104                	lw	s1,32(a0)
    2262:	000a                	0xa
    2264:	3500                	fld	fs0,40(a0)
    2266:	0000060f          	0x60f
    226a:	b001                	j	1a6a <core_init_matrix+0x28e>
    226c:	5104                	lw	s1,32(a0)
    226e:	000a                	0xa
    2270:	3500                	fld	fs0,40(a0)
    2272:	0614                	addi	a3,sp,768
    2274:	0000                	unimp
    2276:	b001                	j	1a76 <core_init_matrix+0x29a>
    2278:	5104                	lw	s1,32(a0)
    227a:	000a                	0xa
    227c:	3500                	fld	fs0,40(a0)
    227e:	045a                	slli	s0,s0,0x16
    2280:	0000                	unimp
    2282:	b001                	j	1a82 <core_init_matrix+0x2a6>
    2284:	5104                	lw	s1,32(a0)
    2286:	000a                	0xa
    2288:	3500                	fld	fs0,40(a0)
    228a:	051d                	addi	a0,a0,7
    228c:	0000                	unimp
    228e:	b001                	j	1a8e <core_init_matrix+0x2b2>
    2290:	5104                	lw	s1,32(a0)
    2292:	000a                	0xa
    2294:	3500                	fld	fs0,40(a0)
    2296:	0000044f          	fnmadd.s	fs0,ft0,ft0,ft0,rne
    229a:	b001                	j	1a9a <core_init_matrix+0x2be>
    229c:	5104                	lw	s1,32(a0)
    229e:	000a                	0xa
    22a0:	3500                	fld	fs0,40(a0)
    22a2:	0518                	addi	a4,sp,640
    22a4:	0000                	unimp
    22a6:	b001                	j	1aa6 <core_init_matrix+0x2ca>
    22a8:	5104                	lw	s1,32(a0)
    22aa:	000a                	0xa
    22ac:	0000                	unimp
    22ae:	1334                	addi	a3,sp,424
    22b0:	0011                	c.addi	zero,4
    22b2:	3300                	fld	fs0,32(a4)
    22b4:	5f5f 0078 b501      	0xb50100785f5f
    22ba:	5104                	lw	s1,32(a0)
    22bc:	000a                	0xa
    22be:	0000                	unimp
    22c0:	3336                	fld	ft6,360(sp)
    22c2:	5f5f 0078 bd01      	0xbd0100785f5f
    22c8:	5104                	lw	s1,32(a0)
    22ca:	000a                	0xa
    22cc:	0000                	unimp
    22ce:	0000                	unimp
    22d0:	0a67040f          	0xa67040f
    22d4:	0000                	unimp
    22d6:	8300                	0x8300
    22d8:	0011                	c.addi	zero,4
    22da:	0400                	addi	s0,sp,512
    22dc:	4500                	lw	s0,8(a0)
    22de:	0005                	c.addi	zero,1
    22e0:	0400                	addi	s0,sp,512
    22e2:	6a01                	lui	s4,0x0
    22e4:	0000                	unimp
    22e6:	0c00                	addi	s0,sp,528
    22e8:	000001a3          	sb	zero,3(zero) # 3 <buf.1775+0x3>
    22ec:	022c                	addi	a1,sp,264
    22ee:	0000                	unimp
    22f0:	520c                	lw	a1,32(a2)
    22f2:	0000                	unimp
    22f4:	0410                	addi	a2,sp,512
    22f6:	0000                	unimp
    22f8:	0846                	slli	a6,a6,0x11
    22fa:	0000                	unimp
    22fc:	0802                	slli	a6,a6,0x0
    22fe:	0003c607          	flq	fa2,0(t2) # 0 <buf.1775>
    2302:	0300                	addi	s0,sp,384
    2304:	0504                	addi	s1,sp,640
    2306:	6e69                	lui	t3,0x1a
    2308:	0074                	addi	a3,sp,12
    230a:	0402                	slli	s0,s0,0x0
    230c:	0003d007          	0x3d007
    2310:	0200                	addi	s0,sp,256
    2312:	0508                	addi	a0,sp,640
    2314:	02e0                	addi	s0,sp,332
    2316:	0000                	unimp
    2318:	1002                	0x1002
    231a:	5b04                	lw	s1,48(a4)
    231c:	0001                	nop
    231e:	0200                	addi	s0,sp,256
    2320:	0601                	addi	a2,a2,0
    2322:	0696                	slli	a3,a3,0x5
    2324:	0000                	unimp
    2326:	0102                	slli	sp,sp,0x0
    2328:	9408                	0x9408
    232a:	0006                	0x6
    232c:	0200                	addi	s0,sp,256
    232e:	0502                	slli	a0,a0,0x0
    2330:	0000                	unimp
    2332:	0000                	unimp
    2334:	0202                	slli	tp,tp,0x0
    2336:	0003e607          	0x3e607
    233a:	0200                	addi	s0,sp,256
    233c:	0504                	addi	s1,sp,640
    233e:	02e5                	addi	t0,t0,25
    2340:	0000                	unimp
    2342:	0402                	slli	s0,s0,0x0
    2344:	0003cb07          	flq	fs6,0(t2)
    2348:	0400                	addi	s0,sp,512
    234a:	0541                	addi	a0,a0,16
    234c:	0000                	unimp
    234e:	0702                	slli	a4,a4,0x0
    2350:	002c                	addi	a1,sp,8
    2352:	0000                	unimp
    2354:	1104                	addi	s1,sp,160
    2356:	0005                	c.addi	zero,1
    2358:	0300                	addi	s0,sp,384
    235a:	642c                	flw	fa1,72(s0)
    235c:	0000                	unimp
    235e:	0400                	addi	s0,sp,512
    2360:	00000627          	0x627
    2364:	00647203          	0x647203
    2368:	0000                	unimp
    236a:	fe04                	fsw	fs1,56(a2)
    236c:	0006                	0x6
    236e:	0300                	addi	s0,sp,384
    2370:	2c91                	jal	25c4 <matrix_test+0xae6>
    2372:	0000                	unimp
    2374:	0500                	addi	s0,sp,640
    2376:	0442                	slli	s0,s0,0x10
    2378:	0000                	unimp
    237a:	6504                	flw	fs1,8(a0)
    237c:	3301                	jal	207c <matrix_test+0x59e>
    237e:	0000                	unimp
    2380:	0600                	addi	s0,sp,768
    2382:	0304                	addi	s1,sp,384
    2384:	c9a6                	sw	s1,208(sp)
    2386:	0000                	unimp
    2388:	0700                	addi	s0,sp,896
    238a:	042d                	addi	s0,s0,11
    238c:	0000                	unimp
    238e:	009ea803          	lw	a6,9(t4)
    2392:	0000                	unimp
    2394:	00039807          	0x39807
    2398:	0300                	addi	s0,sp,384
    239a:	c9a9                	beqz	a1,23ec <matrix_test+0x90e>
    239c:	0000                	unimp
    239e:	0000                	unimp
    23a0:	4f08                	lw	a0,24(a4)
    23a2:	0000                	unimp
    23a4:	d900                	sw	s0,48(a0)
    23a6:	0000                	unimp
    23a8:	0900                	addi	s0,sp,144
    23aa:	00000033          	add	zero,zero,zero
    23ae:	080a0003          	lb	zero,128(s4) # 80 <buflen.1776+0x40>
    23b2:	00faa303          	lw	t1,15(s5)
    23b6:	0000                	unimp
    23b8:	0004880b          	0x4880b
    23bc:	0300                	addi	s0,sp,384
    23be:	2ca5                	jal	2636 <matrix_test+0xb58>
    23c0:	0000                	unimp
    23c2:	0000                	unimp
    23c4:	0006190b          	0x6190b
    23c8:	0300                	addi	s0,sp,384
    23ca:	aaaa                	fsd	fa0,336(sp)
    23cc:	0000                	unimp
    23ce:	0400                	addi	s0,sp,512
    23d0:	0400                	addi	s0,sp,512
    23d2:	0536                	slli	a0,a0,0xd
    23d4:	0000                	unimp
    23d6:	00d9ab03          	lw	s6,13(s3)
    23da:	0000                	unimp
    23dc:	9004                	0x9004
    23de:	0005                	c.addi	zero,1
    23e0:	0300                	addi	s0,sp,384
    23e2:	000072af          	0x72af
    23e6:	0c00                	addi	s0,sp,528
    23e8:	0404                	addi	s1,sp,512
    23ea:	000006a7          	0x6a7
    23ee:	1605                	addi	a2,a2,-31
    23f0:	0000006b          	0x6b
    23f4:	c10d                	beqz	a0,2416 <matrix_test+0x938>
    23f6:	0004                	addi	s1,sp,0
    23f8:	1800                	addi	s0,sp,48
    23fa:	2f05                	jal	2b2a <matrix_test+0x104c>
    23fc:	0170                	addi	a2,sp,140
    23fe:	0000                	unimp
    2400:	0007c00b          	0x7c00b
    2404:	0500                	addi	s0,sp,640
    2406:	7031                	0x7031
    2408:	0001                	nop
    240a:	0000                	unimp
    240c:	5f0e                	lw	t5,224(sp)
    240e:	3205006b          	0x3205006b
    2412:	002c                	addi	a1,sp,8
    2414:	0000                	unimp
    2416:	0b04                	addi	s1,sp,400
    2418:	05f6                	slli	a1,a1,0x1d
    241a:	0000                	unimp
    241c:	3205                	jal	1d3c <matrix_test+0x25e>
    241e:	002c                	addi	a1,sp,8
    2420:	0000                	unimp
    2422:	0b08                	addi	a0,sp,400
    2424:	033c                	addi	a5,sp,392
    2426:	0000                	unimp
    2428:	3205                	jal	1d48 <matrix_test+0x26a>
    242a:	002c                	addi	a1,sp,8
    242c:	0000                	unimp
    242e:	0b0c                	addi	a1,sp,400
    2430:	02c2                	slli	t0,t0,0x10
    2432:	0000                	unimp
    2434:	3205                	jal	1d54 <matrix_test+0x276>
    2436:	002c                	addi	a1,sp,8
    2438:	0000                	unimp
    243a:	0e10                	addi	a2,sp,784
    243c:	785f 0500 7633      	0x76330500785f
    2442:	0001                	nop
    2444:	1400                	addi	s0,sp,544
    2446:	0f00                	addi	s0,sp,912
    2448:	1d04                	addi	s1,sp,688
    244a:	0001                	nop
    244c:	0800                	addi	s0,sp,16
    244e:	0112                	slli	sp,sp,0x4
    2450:	0000                	unimp
    2452:	0186                	slli	gp,gp,0x1
    2454:	0000                	unimp
    2456:	3309                	jal	2158 <matrix_test+0x67a>
    2458:	0000                	unimp
    245a:	0000                	unimp
    245c:	0d00                	addi	s0,sp,656
    245e:	0000037b          	0x37b
    2462:	0524                	addi	s1,sp,648
    2464:	0001ff37          	lui	t5,0x1f
    2468:	0b00                	addi	s0,sp,400
    246a:	00000193          	li	gp,0
    246e:	3905                	jal	209e <matrix_test+0x5c0>
    2470:	002c                	addi	a1,sp,8
    2472:	0000                	unimp
    2474:	0b00                	addi	s0,sp,400
    2476:	075c                	addi	a5,sp,900
    2478:	0000                	unimp
    247a:	3a05                	jal	1daa <matrix_test+0x2cc>
    247c:	002c                	addi	a1,sp,8
    247e:	0000                	unimp
    2480:	0b04                	addi	s1,sp,400
    2482:	0201                	addi	tp,tp,0
    2484:	0000                	unimp
    2486:	3b05                	jal	21b6 <matrix_test+0x6d8>
    2488:	002c                	addi	a1,sp,8
    248a:	0000                	unimp
    248c:	0b08                	addi	a0,sp,400
    248e:	07b1                	addi	a5,a5,12
    2490:	0000                	unimp
    2492:	3c05                	jal	1ec2 <matrix_test+0x3e4>
    2494:	002c                	addi	a1,sp,8
    2496:	0000                	unimp
    2498:	0b0c                	addi	a1,sp,400
    249a:	000004eb          	0x4eb
    249e:	3d05                	jal	22ce <matrix_test+0x7f0>
    24a0:	002c                	addi	a1,sp,8
    24a2:	0000                	unimp
    24a4:	0b10                	addi	a2,sp,400
    24a6:	047e                	slli	s0,s0,0x1f
    24a8:	0000                	unimp
    24aa:	3e05                	jal	1fda <matrix_test+0x4fc>
    24ac:	002c                	addi	a1,sp,8
    24ae:	0000                	unimp
    24b0:	0b14                	addi	a3,sp,400
    24b2:	000006e7          	jalr	a3,zero
    24b6:	3f05                	jal	23e6 <matrix_test+0x908>
    24b8:	002c                	addi	a1,sp,8
    24ba:	0000                	unimp
    24bc:	0b18                	addi	a4,sp,400
    24be:	0798                	addi	a4,sp,960
    24c0:	0000                	unimp
    24c2:	4005                	0x4005
    24c4:	002c                	addi	a1,sp,8
    24c6:	0000                	unimp
    24c8:	0b1c                	addi	a5,sp,400
    24ca:	0742                	slli	a4,a4,0x10
    24cc:	0000                	unimp
    24ce:	4105                	li	sp,1
    24d0:	002c                	addi	a1,sp,8
    24d2:	0000                	unimp
    24d4:	0020                	addi	s0,sp,8
    24d6:	1e10                	addi	a2,sp,816
    24d8:	0002                	0x2
    24da:	0800                	addi	s0,sp,16
    24dc:	0501                	addi	a0,a0,0
    24de:	3f4a                	fld	ft10,176(sp)
    24e0:	0002                	0x2
    24e2:	0b00                	addi	s0,sp,400
    24e4:	0000032f          	0x32f
    24e8:	4b05                	li	s6,1
    24ea:	0000023f 056c0b00 	0x56c0b000000023f
    24f2:	0000                	unimp
    24f4:	4c05                	li	s8,1
    24f6:	0000023f 068b1180 	0x68b11800000023f
    24fe:	0000                	unimp
    2500:	4e05                	li	t3,1
    2502:	0112                	slli	sp,sp,0x4
    2504:	0000                	unimp
    2506:	0100                	addi	s0,sp,128
    2508:	ba11                	j	1e1c <matrix_test+0x33e>
    250a:	0002                	0x2
    250c:	0500                	addi	s0,sp,640
    250e:	1251                	addi	tp,tp,-12
    2510:	0001                	nop
    2512:	0400                	addi	s0,sp,512
    2514:	0001                	nop
    2516:	1008                	addi	a0,sp,32
    2518:	0001                	nop
    251a:	4f00                	lw	s0,24(a4)
    251c:	0002                	0x2
    251e:	0900                	addi	s0,sp,144
    2520:	00000033          	add	zero,zero,zero
    2524:	001f f410 0004      	0x4f410001f
    252a:	9000                	0x9000
    252c:	0501                	addi	a0,a0,0
    252e:	8d5d                	or	a0,a0,a5
    2530:	0002                	0x2
    2532:	0b00                	addi	s0,sp,400
    2534:	07c0                	addi	s0,sp,964
    2536:	0000                	unimp
    2538:	5e05                	li	t3,-31
    253a:	028d                	addi	t0,t0,3
    253c:	0000                	unimp
    253e:	0b00                	addi	s0,sp,400
    2540:	05df 0000 5f05      	0x5f05000005df
    2546:	002c                	addi	a1,sp,8
    2548:	0000                	unimp
    254a:	0b04                	addi	s1,sp,400
    254c:	00000337          	lui	t1,0x0
    2550:	6105                	addi	sp,sp,32
    2552:	00000293          	li	t0,0
    2556:	0b08                	addi	a0,sp,400
    2558:	021e                	slli	tp,tp,0x7
    255a:	0000                	unimp
    255c:	6205                	lui	tp,0x1
    255e:	01ff                	0x1ff
    2560:	0000                	unimp
    2562:	0088                	addi	a0,sp,64
    2564:	024f040f          	0x24f040f
    2568:	0000                	unimp
    256a:	a308                	fsd	fa0,0(a4)
    256c:	0002                	0x2
    256e:	a300                	fsd	fs0,0(a4)
    2570:	0002                	0x2
    2572:	0900                	addi	s0,sp,144
    2574:	00000033          	add	zero,zero,zero
    2578:	001f 040f 02a9      	0x2a9040f001f
    257e:	0000                	unimp
    2580:	0d12                	slli	s10,s10,0x4
    2582:	07aa                	slli	a5,a5,0xa
    2584:	0000                	unimp
    2586:	0508                	addi	a0,sp,640
    2588:	cf75                	beqz	a4,2684 <matrix_test+0xba6>
    258a:	0002                	0x2
    258c:	0b00                	addi	s0,sp,400
    258e:	000001fb          	0x1fb
    2592:	7605                	lui	a2,0xfffe1
    2594:	000002cf          	fnmadd.s	ft5,ft0,ft0,ft0,rne
    2598:	0b00                	addi	s0,sp,400
    259a:	0638                	addi	a4,sp,776
    259c:	0000                	unimp
    259e:	7705                	lui	a4,0xfffe1
    25a0:	002c                	addi	a1,sp,8
    25a2:	0000                	unimp
    25a4:	0004                	addi	s1,sp,0
    25a6:	004f040f          	0x4f040f
    25aa:	0000                	unimp
    25ac:	bb0d                	j	22de <matrix_test+0x800>
    25ae:	0005                	c.addi	zero,1
    25b0:	6800                	flw	fs0,16(s0)
    25b2:	b505                	j	23d2 <matrix_test+0x8f4>
    25b4:	03ff                	0x3ff
    25b6:	0000                	unimp
    25b8:	5f0e                	lw	t5,224(sp)
    25ba:	0070                	addi	a2,sp,12
    25bc:	b605                	j	20dc <matrix_test+0x5fe>
    25be:	000002cf          	fnmadd.s	ft5,ft0,ft0,ft0,rne
    25c2:	0e00                	addi	s0,sp,784
    25c4:	725f 0500 2cb7      	0x2cb70500725f
    25ca:	0000                	unimp
    25cc:	0400                	addi	s0,sp,512
    25ce:	5f0e                	lw	t5,224(sp)
    25d0:	b8050077          	0xb8050077
    25d4:	002c                	addi	a1,sp,8
    25d6:	0000                	unimp
    25d8:	0b08                	addi	a0,sp,400
    25da:	000002b3          	add	t0,zero,zero
    25de:	b905                	j	220e <matrix_test+0x730>
    25e0:	0056                	0x56
    25e2:	0000                	unimp
    25e4:	0b0c                	addi	a1,sp,400
    25e6:	000003a7          	0x3a7
    25ea:	ba05                	j	1f1a <matrix_test+0x43c>
    25ec:	0056                	0x56
    25ee:	0000                	unimp
    25f0:	0e0e                	slli	t3,t3,0x3
    25f2:	625f 0066 bb05      	0xbb050066625f
    25f8:	02aa                	slli	t0,t0,0xa
    25fa:	0000                	unimp
    25fc:	0b10                	addi	a2,sp,400
    25fe:	00000143          	fmadd.s	ft2,ft0,ft0,ft0,rne
    2602:	bc05                	j	2032 <matrix_test+0x554>
    2604:	002c                	addi	a1,sp,8
    2606:	0000                	unimp
    2608:	0b18                	addi	a4,sp,400
    260a:	000002a3          	sb	zero,5(zero) # 5 <buf.1775+0x5>
    260e:	c305                	beqz	a4,262e <matrix_test+0xb50>
    2610:	0110                	addi	a2,sp,128
    2612:	0000                	unimp
    2614:	0b1c                	addi	a5,sp,400
    2616:	00000553          	fadd.s	fa0,ft0,ft0,rne
    261a:	c505                	beqz	a0,2642 <matrix_test+0xb64>
    261c:	056c                	addi	a1,sp,652
    261e:	0000                	unimp
    2620:	0b20                	addi	s0,sp,408
    2622:	00000477          	0x477
    2626:	c705                	beqz	a4,264e <matrix_test+0xb70>
    2628:	0000059b          	0x59b
    262c:	0b24                	addi	s1,sp,408
    262e:	0621                	addi	a2,a2,8
    2630:	0000                	unimp
    2632:	ca05                	beqz	a2,2662 <matrix_test+0xb84>
    2634:	000005bf 019c0b28 	0x19c0b28000005bf
    263c:	0000                	unimp
    263e:	cb05                	beqz	a4,266e <matrix_test+0xb90>
    2640:	05d9                	addi	a1,a1,22
    2642:	0000                	unimp
    2644:	0e2c                	addi	a1,sp,792
    2646:	755f 0062 ce05      	0xce050062755f
    264c:	02aa                	slli	t0,t0,0xa
    264e:	0000                	unimp
    2650:	0e30                	addi	a2,sp,792
    2652:	755f 0070 cf05      	0xcf050070755f
    2658:	000002cf          	fnmadd.s	ft5,ft0,ft0,ft0,rne
    265c:	0e38                	addi	a4,sp,792
    265e:	755f 0072 d005      	0xd0050072755f
    2664:	002c                	addi	a1,sp,8
    2666:	0000                	unimp
    2668:	0b3c                	addi	a5,sp,408
    266a:	01f5                	addi	gp,gp,29
    266c:	0000                	unimp
    266e:	d305                	beqz	a4,258e <matrix_test+0xab0>
    2670:	05df 0000 0b40      	0xb40000005df
    2676:	072a                	slli	a4,a4,0xa
    2678:	0000                	unimp
    267a:	d405                	beqz	s0,25a2 <matrix_test+0xac4>
    267c:	000005ef          	jal	a1,267c <matrix_test+0xb9e>
    2680:	6c5f0e43          	0x6c5f0e43
    2684:	0062                	0x62
    2686:	d705                	beqz	a4,25ae <matrix_test+0xad0>
    2688:	02aa                	slli	t0,t0,0xa
    268a:	0000                	unimp
    268c:	0b44                	addi	s1,sp,404
    268e:	0000062f          	0x62f
    2692:	da05                	beqz	a2,25c2 <matrix_test+0xae4>
    2694:	002c                	addi	a1,sp,8
    2696:	0000                	unimp
    2698:	0b4c                	addi	a1,sp,404
    269a:	04b9                	addi	s1,s1,14
    269c:	0000                	unimp
    269e:	db05                	beqz	a4,25ce <matrix_test+0xaf0>
    26a0:	007d                	c.addi	zero,31
    26a2:	0000                	unimp
    26a4:	0b50                	addi	a2,sp,404
    26a6:	0055                	c.addi	zero,21
    26a8:	0000                	unimp
    26aa:	de05                	beqz	a2,25e2 <matrix_test+0xb04>
    26ac:	041d                	addi	s0,s0,7
    26ae:	0000                	unimp
    26b0:	0b54                	addi	a3,sp,404
    26b2:	0449                	addi	s0,s0,18
    26b4:	0000                	unimp
    26b6:	e205                	bnez	a2,26d6 <matrix_test+0xbf8>
    26b8:	0105                	addi	sp,sp,1
    26ba:	0000                	unimp
    26bc:	0b58                	addi	a4,sp,404
    26be:	0000038f          	0x38f
    26c2:	e405                	bnez	s0,26ea <matrix_test+0xc0c>
    26c4:	00fa                	slli	ra,ra,0x1e
    26c6:	0000                	unimp
    26c8:	0b5c                	addi	a5,sp,404
    26ca:	0599                	addi	a1,a1,6
    26cc:	0000                	unimp
    26ce:	e505                	bnez	a0,26f6 <matrix_test+0xc18>
    26d0:	002c                	addi	a1,sp,8
    26d2:	0000                	unimp
    26d4:	0064                	addi	s1,sp,12
    26d6:	00009313          	slli	t1,ra,0x0
    26da:	1d00                	addi	s0,sp,688
    26dc:	0004                	addi	s1,sp,0
    26de:	1400                	addi	s0,sp,544
    26e0:	041d                	addi	s0,s0,7
    26e2:	0000                	unimp
    26e4:	1014                	addi	a3,sp,32
    26e6:	0001                	nop
    26e8:	1400                	addi	s0,sp,544
    26ea:	055a                	slli	a0,a0,0x16
    26ec:	0000                	unimp
    26ee:	2c14                	fld	fa3,24(s0)
    26f0:	0000                	unimp
    26f2:	0000                	unimp
    26f4:	0428040f          	0x428040f
    26f8:	0000                	unimp
    26fa:	1d15                	addi	s10,s10,-27
    26fc:	0004                	addi	s1,sp,0
    26fe:	1600                	addi	s0,sp,800
    2700:	05fe                	slli	a1,a1,0x1f
    2702:	0000                	unimp
    2704:	0428                	addi	a0,sp,520
    2706:	3905                	jal	2336 <matrix_test+0x858>
    2708:	5a02                	lw	s4,32(sp)
    270a:	0005                	c.addi	zero,1
    270c:	1700                	addi	s0,sp,928
    270e:	0589                	addi	a1,a1,2
    2710:	0000                	unimp
    2712:	3b05                	jal	2442 <matrix_test+0x964>
    2714:	2c02                	fld	fs8,0(sp)
    2716:	0000                	unimp
    2718:	0000                	unimp
    271a:	0006f717          	auipc	a4,0x6f
    271e:	0500                	addi	s0,sp,640
    2720:	0240                	addi	s0,sp,260
    2722:	0646                	slli	a2,a2,0x11
    2724:	0000                	unimp
    2726:	1704                	addi	s1,sp,928
    2728:	06df 0000 4005      	0x4005000006df
    272e:	4602                	lw	a2,0(sp)
    2730:	0006                	0x6
    2732:	0800                	addi	s0,sp,16
    2734:	00034217          	auipc	tp,0x34
    2738:	0500                	addi	s0,sp,640
    273a:	0240                	addi	s0,sp,260
    273c:	0646                	slli	a2,a2,0x11
    273e:	0000                	unimp
    2740:	170c                	addi	a1,sp,928
    2742:	05da                	slli	a1,a1,0x16
    2744:	0000                	unimp
    2746:	4205                	li	tp,1
    2748:	2c02                	fld	fs8,0(sp)
    274a:	0000                	unimp
    274c:	1000                	addi	s0,sp,32
    274e:	00002417          	auipc	s0,0x2
    2752:	0500                	addi	s0,sp,640
    2754:	08280243          	fmadd.s	ft4,fa6,ft2,ft1,rne
    2758:	0000                	unimp
    275a:	1714                	addi	a3,sp,928
    275c:	0362                	slli	t1,t1,0x18
    275e:	0000                	unimp
    2760:	4605                	li	a2,1
    2762:	2c02                	fld	fs8,0(sp)
    2764:	0000                	unimp
    2766:	3000                	fld	fs0,32(s0)
    2768:	0005e417          	auipc	s0,0x5e
    276c:	0500                	addi	s0,sp,640
    276e:	083d0247          	fmsub.s	ft4,fs10,ft3,ft1,rne
    2772:	0000                	unimp
    2774:	1734                	addi	a3,sp,936
    2776:	0506                	slli	a0,a0,0x1
    2778:	0000                	unimp
    277a:	4905                	li	s2,1
    277c:	2c02                	fld	fs8,0(sp)
    277e:	0000                	unimp
    2780:	3800                	fld	fs0,48(s0)
    2782:	0005ec17          	auipc	s8,0x5e
    2786:	0500                	addi	s0,sp,640
    2788:	084e024b          	fnmsub.s	ft4,ft8,ft4,ft1,rne
    278c:	0000                	unimp
    278e:	173c                	addi	a5,sp,936
    2790:	0425                	addi	s0,s0,9
    2792:	0000                	unimp
    2794:	4e05                	li	t3,1
    2796:	7002                	flw	ft0,32(sp)
    2798:	0001                	nop
    279a:	4000                	lw	s0,0(s0)
    279c:	0002ce17          	auipc	t3,0x2c
    27a0:	0500                	addi	s0,sp,640
    27a2:	002c024f          	fnmadd.s	ft4,fs8,ft2,ft0,rne
    27a6:	0000                	unimp
    27a8:	1744                	addi	s1,sp,932
    27aa:	00000793          	li	a5,0
    27ae:	5005                	0x5005
    27b0:	7002                	flw	ft0,32(sp)
    27b2:	0001                	nop
    27b4:	4800                	lw	s0,16(s0)
    27b6:	00052217          	auipc	tp,0x52
    27ba:	0500                	addi	s0,sp,640
    27bc:	0251                	addi	tp,tp,20
    27be:	0854                	addi	a3,sp,20
    27c0:	0000                	unimp
    27c2:	174c                	addi	a1,sp,932
    27c4:	039f 0000 5405      	0x54050000039f
    27ca:	2c02                	fld	fs8,0(sp)
    27cc:	0000                	unimp
    27ce:	5000                	lw	s0,32(s0)
    27d0:	0002fb17          	auipc	s6,0x2f
    27d4:	0500                	addi	s0,sp,640
    27d6:	0255                	addi	tp,tp,21
    27d8:	055a                	slli	a0,a0,0x16
    27da:	0000                	unimp
    27dc:	1754                	addi	a3,sp,932
    27de:	0582                	slli	a1,a1,0x0
    27e0:	0000                	unimp
    27e2:	7805                	lui	a6,0xfffe1
    27e4:	0602                	slli	a2,a2,0x0
    27e6:	0008                	addi	a0,sp,0
    27e8:	5800                	lw	s0,48(s0)
    27ea:	f418                	fsw	fa4,40(s0)
    27ec:	0004                	addi	s1,sp,0
    27ee:	0500                	addi	s0,sp,640
    27f0:	027c                	addi	a5,sp,268
    27f2:	028d                	addi	t0,t0,3
    27f4:	0000                	unimp
    27f6:	0148                	addi	a0,sp,132
    27f8:	0318                	addi	a4,sp,384
    27fa:	0004                	addi	s1,sp,0
    27fc:	0500                	addi	s0,sp,640
    27fe:	027d                	addi	tp,tp,31
    2800:	0000024f          	fnmadd.s	ft4,ft0,ft0,ft0,rne
    2804:	014c                	addi	a1,sp,132
    2806:	1118                	addi	a4,sp,160
    2808:	05000007          	0x5000007
    280c:	0281                	addi	t0,t0,0
    280e:	0865                	addi	a6,a6,25
    2810:	0000                	unimp
    2812:	02dc                	addi	a5,sp,324
    2814:	ab18                	fsd	fa4,16(a4)
    2816:	0002                	0x2
    2818:	0500                	addi	s0,sp,640
    281a:	0286                	slli	t0,t0,0x1
    281c:	0000060b          	0x60b
    2820:	02e0                	addi	s0,sp,332
    2822:	1918                	addi	a4,sp,176
    2824:	0002                	0x2
    2826:	0500                	addi	s0,sp,640
    2828:	08710287          	0x8710287
    282c:	0000                	unimp
    282e:	02ec                	addi	a1,sp,332
    2830:	0f00                	addi	s0,sp,912
    2832:	6004                	flw	fs1,0(s0)
    2834:	0005                	c.addi	zero,1
    2836:	0200                	addi	s0,sp,256
    2838:	0801                	addi	a6,a6,0
    283a:	069d                	addi	a3,a3,7
    283c:	0000                	unimp
    283e:	6015                	0x6015
    2840:	0005                	c.addi	zero,1
    2842:	0f00                	addi	s0,sp,912
    2844:	ff04                	fsw	fs1,56(a4)
    2846:	13000003          	lb	zero,304(zero) # 130 <SIM_STOP+0x38>
    284a:	00000093          	li	ra,0
    284e:	0590                	addi	a2,sp,704
    2850:	0000                	unimp
    2852:	1d14                	addi	a3,sp,688
    2854:	0004                	addi	s1,sp,0
    2856:	1400                	addi	s0,sp,544
    2858:	0110                	addi	a2,sp,128
    285a:	0000                	unimp
    285c:	9014                	0x9014
    285e:	0005                	c.addi	zero,1
    2860:	1400                	addi	s0,sp,544
    2862:	002c                	addi	a1,sp,8
    2864:	0000                	unimp
    2866:	0f00                	addi	s0,sp,912
    2868:	6704                	flw	fs1,8(a4)
    286a:	0005                	c.addi	zero,1
    286c:	1500                	addi	s0,sp,672
    286e:	0590                	addi	a2,sp,704
    2870:	0000                	unimp
    2872:	0572040f          	0x572040f
    2876:	0000                	unimp
    2878:	00008813          	mv	a6,ra
    287c:	bf00                	fsd	fs0,56(a4)
    287e:	0005                	c.addi	zero,1
    2880:	1400                	addi	s0,sp,544
    2882:	041d                	addi	s0,s0,7
    2884:	0000                	unimp
    2886:	1014                	addi	a3,sp,32
    2888:	0001                	nop
    288a:	1400                	addi	s0,sp,544
    288c:	0088                	addi	a0,sp,64
    288e:	0000                	unimp
    2890:	2c14                	fld	fa3,24(s0)
    2892:	0000                	unimp
    2894:	0000                	unimp
    2896:	05a1040f          	0x5a1040f
    289a:	0000                	unimp
    289c:	00002c13          	slti	s8,zero,0
    28a0:	d900                	sw	s0,48(a0)
    28a2:	0005                	c.addi	zero,1
    28a4:	1400                	addi	s0,sp,544
    28a6:	041d                	addi	s0,s0,7
    28a8:	0000                	unimp
    28aa:	1014                	addi	a3,sp,32
    28ac:	0001                	nop
    28ae:	0000                	unimp
    28b0:	05c5040f          	0x5c5040f
    28b4:	0000                	unimp
    28b6:	4f08                	lw	a0,24(a4)
    28b8:	0000                	unimp
    28ba:	ef00                	fsw	fs0,24(a4)
    28bc:	0005                	c.addi	zero,1
    28be:	0900                	addi	s0,sp,144
    28c0:	00000033          	add	zero,zero,zero
    28c4:	0002                	0x2
    28c6:	4f08                	lw	a0,24(a4)
    28c8:	0000                	unimp
    28ca:	ff00                	fsw	fs0,56(a4)
    28cc:	0005                	c.addi	zero,1
    28ce:	0900                	addi	s0,sp,144
    28d0:	00000033          	add	zero,zero,zero
    28d4:	0000                	unimp
    28d6:	c705                	beqz	a4,28fe <matrix_test+0xe20>
    28d8:	0002                	0x2
    28da:	0500                	addi	s0,sp,640
    28dc:	011f 02d5 0000      	0x2d5011f
    28e2:	f119                	bnez	a0,27e8 <matrix_test+0xd0a>
    28e4:	0006                	0x6
    28e6:	0c00                	addi	s0,sp,528
    28e8:	2305                	jal	2e08 <matrix_sum+0x232>
    28ea:	4001                	0x4001
    28ec:	0006                	0x6
    28ee:	1700                	addi	s0,sp,928
    28f0:	07c0                	addi	s0,sp,964
    28f2:	0000                	unimp
    28f4:	2505                	jal	2f14 <matrix_sum+0x33e>
    28f6:	4001                	0x4001
    28f8:	0006                	0x6
    28fa:	0000                	unimp
    28fc:	0003bf17          	auipc	t5,0x3b
    2900:	0500                	addi	s0,sp,640
    2902:	0126                	slli	sp,sp,0x9
    2904:	002c                	addi	a1,sp,8
    2906:	0000                	unimp
    2908:	1704                	addi	s1,sp,928
    290a:	05a1                	addi	a1,a1,8
    290c:	0000                	unimp
    290e:	2705                	jal	302e <matrix_mul_const+0x6e>
    2910:	4601                	li	a2,0
    2912:	0006                	0x6
    2914:	0800                	addi	s0,sp,16
    2916:	0f00                	addi	s0,sp,912
    2918:	0b04                	addi	s1,sp,400
    291a:	0006                	0x6
    291c:	0f00                	addi	s0,sp,912
    291e:	ff04                	fsw	fs1,56(a4)
    2920:	0005                	c.addi	zero,1
    2922:	1900                	addi	s0,sp,176
    2924:	001c                	addi	a5,sp,0
    2926:	0000                	unimp
    2928:	050e                	slli	a0,a0,0x3
    292a:	0681013f 5b170000 	0x5b1700000681013f
    2932:	0006                	0x6
    2934:	0500                	addi	s0,sp,640
    2936:	0140                	addi	s0,sp,132
    2938:	0681                	addi	a3,a3,0
    293a:	0000                	unimp
    293c:	1700                	addi	s0,sp,928
    293e:	0454                	addi	a3,sp,516
    2940:	0000                	unimp
    2942:	4105                	li	sp,1
    2944:	8101                	srli	a0,a0,0x0
    2946:	0006                	0x6
    2948:	0600                	addi	s0,sp,768
    294a:	0006a217          	auipc	tp,0x6a
    294e:	0500                	addi	s0,sp,640
    2950:	0142                	slli	sp,sp,0x10
    2952:	005d                	c.addi	zero,23
    2954:	0000                	unimp
    2956:	000c                	addi	a1,sp,0
    2958:	5d08                	lw	a0,56(a0)
    295a:	0000                	unimp
    295c:	9100                	0x9100
    295e:	0006                	0x6
    2960:	0900                	addi	s0,sp,144
    2962:	00000033          	add	zero,zero,zero
    2966:	0002                	0x2
    2968:	d01a                	sw	t1,32(sp)
    296a:	5905                	li	s2,-31
    296c:	9202                	jalr	tp
    296e:	17000007          	0x17000007
    2972:	0490                	addi	a2,sp,576
    2974:	0000                	unimp
    2976:	5b05                	li	s6,-31
    2978:	3302                	fld	ft6,32(sp)
    297a:	0000                	unimp
    297c:	0000                	unimp
    297e:	00067717          	auipc	a4,0x67
    2982:	0500                	addi	s0,sp,640
    2984:	025c                	addi	a5,sp,260
    2986:	055a                	slli	a0,a0,0x16
    2988:	0000                	unimp
    298a:	1704                	addi	s1,sp,928
    298c:	0418                	addi	a4,sp,512
    298e:	0000                	unimp
    2990:	5d05                	li	s10,-31
    2992:	9202                	jalr	tp
    2994:	08000007          	0x8000007
    2998:	00074d17          	auipc	s10,0x74
    299c:	0500                	addi	s0,sp,640
    299e:	025e                	slli	tp,tp,0x17
    29a0:	0186                	slli	gp,gp,0x1
    29a2:	0000                	unimp
    29a4:	1724                	addi	s1,sp,936
    29a6:	034a                	slli	t1,t1,0x12
    29a8:	0000                	unimp
    29aa:	5f05                	li	t5,-31
    29ac:	2c02                	fld	fs8,0(sp)
    29ae:	0000                	unimp
    29b0:	4800                	lw	s0,16(s0)
    29b2:	0007bb17          	auipc	s6,0x7b
    29b6:	0500                	addi	s0,sp,640
    29b8:	0260                	addi	s0,sp,268
    29ba:	0025                	c.addi	zero,9
    29bc:	0000                	unimp
    29be:	1750                	addi	a2,sp,932
    29c0:	0765                	addi	a4,a4,25
    29c2:	0000                	unimp
    29c4:	6105                	addi	sp,sp,32
    29c6:	4c02                	lw	s8,0(sp)
    29c8:	0006                	0x6
    29ca:	5800                	lw	s0,48(s0)
    29cc:	0005cd17          	auipc	s10,0x5c
    29d0:	0500                	addi	s0,sp,640
    29d2:	0262                	slli	tp,tp,0x18
    29d4:	00fa                	slli	ra,ra,0x1e
    29d6:	0000                	unimp
    29d8:	1768                	addi	a0,sp,940
    29da:	0785                	addi	a5,a5,1
    29dc:	0000                	unimp
    29de:	6305                	lui	t1,0x1
    29e0:	fa02                	fsw	ft0,52(sp)
    29e2:	0000                	unimp
    29e4:	7000                	flw	fs0,32(s0)
    29e6:	00020b17          	auipc	s6,0x20
    29ea:	0500                	addi	s0,sp,640
    29ec:	0264                	addi	s1,sp,268
    29ee:	00fa                	slli	ra,ra,0x1e
    29f0:	0000                	unimp
    29f2:	1778                	addi	a4,sp,940
    29f4:	00000707          	0x707
    29f8:	6505                	lui	a0,0x1
    29fa:	a202                	fsd	ft0,256(sp)
    29fc:	80000007          	0x80000007
    2a00:	00040c17          	auipc	s8,0x40
    2a04:	0500                	addi	s0,sp,640
    2a06:	0266                	slli	tp,tp,0x19
    2a08:	07b2                	slli	a5,a5,0xc
    2a0a:	0000                	unimp
    2a0c:	1788                	addi	a0,sp,992
    2a0e:	0048                	addi	a0,sp,4
    2a10:	0000                	unimp
    2a12:	6705                	lui	a4,0x1
    2a14:	2c02                	fld	fs8,0(sp)
    2a16:	0000                	unimp
    2a18:	a000                	fsd	fs0,0(s0)
    2a1a:	00031417          	auipc	s0,0x31
    2a1e:	0500                	addi	s0,sp,640
    2a20:	0268                	addi	a0,sp,268
    2a22:	00fa                	slli	ra,ra,0x1e
    2a24:	0000                	unimp
    2a26:	17a4                	addi	s1,sp,1000
    2a28:	017c                	addi	a5,sp,140
    2a2a:	0000                	unimp
    2a2c:	6905                	lui	s2,0x1
    2a2e:	fa02                	fsw	ft0,52(sp)
    2a30:	0000                	unimp
    2a32:	ac00                	fsd	fs0,24(s0)
    2a34:	00030317          	auipc	t1,0x30
    2a38:	0500                	addi	s0,sp,640
    2a3a:	026a                	slli	tp,tp,0x1a
    2a3c:	00fa                	slli	ra,ra,0x1e
    2a3e:	0000                	unimp
    2a40:	17b4                	addi	a3,sp,1000
    2a42:	0000005b          	0x5b
    2a46:	6b05                	lui	s6,0x1
    2a48:	fa02                	fsw	ft0,52(sp)
    2a4a:	0000                	unimp
    2a4c:	bc00                	fsd	fs0,56(s0)
    2a4e:	00012817          	auipc	a6,0x12
    2a52:	0500                	addi	s0,sp,640
    2a54:	026c                	addi	a1,sp,268
    2a56:	00fa                	slli	ra,ra,0x1e
    2a58:	0000                	unimp
    2a5a:	17c4                	addi	s1,sp,996
    2a5c:	00000587          	0x587
    2a60:	6d05                	lui	s10,0x1
    2a62:	2c02                	fld	fs8,0(sp)
    2a64:	0000                	unimp
    2a66:	cc00                	sw	s0,24(s0)
    2a68:	0800                	addi	s0,sp,16
    2a6a:	0560                	addi	s0,sp,652
    2a6c:	0000                	unimp
    2a6e:	07a2                	slli	a5,a5,0x8
    2a70:	0000                	unimp
    2a72:	3309                	jal	2774 <matrix_test+0xc96>
    2a74:	0000                	unimp
    2a76:	1900                	addi	s0,sp,176
    2a78:	0800                	addi	s0,sp,16
    2a7a:	0560                	addi	s0,sp,652
    2a7c:	0000                	unimp
    2a7e:	07b2                	slli	a5,a5,0xc
    2a80:	0000                	unimp
    2a82:	3309                	jal	2784 <matrix_test+0xca6>
    2a84:	0000                	unimp
    2a86:	0700                	addi	s0,sp,896
    2a88:	0800                	addi	s0,sp,16
    2a8a:	0560                	addi	s0,sp,652
    2a8c:	0000                	unimp
    2a8e:	07c2                	slli	a5,a5,0x10
    2a90:	0000                	unimp
    2a92:	3309                	jal	2794 <matrix_test+0xcb6>
    2a94:	0000                	unimp
    2a96:	1700                	addi	s0,sp,928
    2a98:	1a00                	addi	s0,sp,304
    2a9a:	05f0                	addi	a2,sp,716
    2a9c:	0272                	slli	tp,tp,0x1c
    2a9e:	07e6                	slli	a5,a5,0x19
    2aa0:	0000                	unimp
    2aa2:	00043317          	auipc	t1,0x43
    2aa6:	0500                	addi	s0,sp,640
    2aa8:	0275                	addi	tp,tp,29
    2aaa:	07e6                	slli	a5,a5,0x19
    2aac:	0000                	unimp
    2aae:	1700                	addi	s0,sp,928
    2ab0:	0359                	addi	t1,t1,22
    2ab2:	0000                	unimp
    2ab4:	7605                	lui	a2,0xfffe1
    2ab6:	f602                	fsw	ft0,44(sp)
    2ab8:	78000007          	0x78000007
    2abc:	0800                	addi	s0,sp,16
    2abe:	000002cf          	fnmadd.s	ft5,ft0,ft0,ft0,rne
    2ac2:	07f6                	slli	a5,a5,0x1d
    2ac4:	0000                	unimp
    2ac6:	3309                	jal	27c8 <matrix_test+0xcea>
    2ac8:	0000                	unimp
    2aca:	1d00                	addi	s0,sp,688
    2acc:	0800                	addi	s0,sp,16
    2ace:	00000033          	add	zero,zero,zero
    2ad2:	0806                	slli	a6,a6,0x1
    2ad4:	0000                	unimp
    2ad6:	3309                	jal	27d8 <matrix_test+0xcfa>
    2ad8:	0000                	unimp
    2ada:	1d00                	addi	s0,sp,688
    2adc:	1b00                	addi	s0,sp,432
    2ade:	05f0                	addi	a2,sp,716
    2ae0:	08280257          	0x8280257
    2ae4:	0000                	unimp
    2ae6:	fe1c                	fsw	fa5,56(a2)
    2ae8:	0005                	c.addi	zero,1
    2aea:	0500                	addi	s0,sp,640
    2aec:	026e                	slli	tp,tp,0x1b
    2aee:	0691                	addi	a3,a3,4
    2af0:	0000                	unimp
    2af2:	301c                	fld	fa5,32(s0)
    2af4:	05000007          	0x5000007
    2af8:	07c20277          	0x7c20277
    2afc:	0000                	unimp
    2afe:	0800                	addi	s0,sp,16
    2b00:	0560                	addi	s0,sp,652
    2b02:	0000                	unimp
    2b04:	0838                	addi	a4,sp,24
    2b06:	0000                	unimp
    2b08:	3309                	jal	280a <matrix_test+0xd2c>
    2b0a:	0000                	unimp
    2b0c:	1800                	addi	s0,sp,48
    2b0e:	1d00                	addi	s0,sp,688
    2b10:	0171                	addi	sp,sp,28
    2b12:	0000                	unimp
    2b14:	0838040f          	0x838040f
    2b18:	0000                	unimp
    2b1a:	4e1e                	lw	t3,196(sp)
    2b1c:	0008                	addi	a0,sp,0
    2b1e:	1400                	addi	s0,sp,544
    2b20:	041d                	addi	s0,s0,7
    2b22:	0000                	unimp
    2b24:	0f00                	addi	s0,sp,912
    2b26:	4304                	lw	s1,0(a4)
    2b28:	0008                	addi	a0,sp,0
    2b2a:	0f00                	addi	s0,sp,912
    2b2c:	7004                	flw	fs1,32(s0)
    2b2e:	0001                	nop
    2b30:	1e00                	addi	s0,sp,816
    2b32:	0865                	addi	a6,a6,25
    2b34:	0000                	unimp
    2b36:	2c14                	fld	fa3,24(s0)
    2b38:	0000                	unimp
    2b3a:	0000                	unimp
    2b3c:	086b040f          	0x86b040f
    2b40:	0000                	unimp
    2b42:	085a040f          	0x85a040f
    2b46:	0000                	unimp
    2b48:	ff08                	fsw	fa0,56(a4)
    2b4a:	0005                	c.addi	zero,1
    2b4c:	8100                	0x8100
    2b4e:	0008                	addi	a0,sp,0
    2b50:	0900                	addi	s0,sp,144
    2b52:	00000033          	add	zero,zero,zero
    2b56:	0002                	0x2
    2b58:	cb1f 0006 0500      	0x5000006cb1f
    2b5e:	02fe                	slli	t0,t0,0x1f
    2b60:	041d                	addi	s0,s0,7
    2b62:	0000                	unimp
    2b64:	c41f 0006 0500      	0x5000006c41f
    2b6a:	02ff                	0x2ff
    2b6c:	00000423          	sb	zero,8(zero) # 8 <buf.1775+0x8>
    2b70:	9608                	0x9608
    2b72:	0005                	c.addi	zero,1
    2b74:	a400                	fsd	fs0,8(s0)
    2b76:	0008                	addi	a0,sp,0
    2b78:	2000                	fld	fs0,0(s0)
    2b7a:	1500                	addi	s0,sp,672
    2b7c:	0899                	addi	a7,a7,6
    2b7e:	0000                	unimp
    2b80:	ee21                	bnez	a2,2bd8 <matrix_sum+0x2>
    2b82:	0002                	0x2
    2b84:	0600                	addi	s0,sp,768
    2b86:	a414                	fsd	fa3,8(s0)
    2b88:	0008                	addi	a0,sp,0
    2b8a:	2100                	fld	fs0,0(a0)
    2b8c:	000005c3          	fmadd.s	fa1,ft0,ft0,ft0,rne
    2b90:	1506                	slli	a0,a0,0x21
    2b92:	002c                	addi	a1,sp,8
    2b94:	0000                	unimp
    2b96:	08c5040f          	0x8c5040f
    2b9a:	0000                	unimp
    2b9c:	00002c13          	slti	s8,zero,0
    2ba0:	d900                	sw	s0,48(a0)
    2ba2:	0008                	addi	a0,sp,0
    2ba4:	1400                	addi	s0,sp,544
    2ba6:	08d9                	addi	a7,a7,22
    2ba8:	0000                	unimp
    2baa:	d914                	sw	a3,48(a0)
    2bac:	0008                	addi	a0,sp,0
    2bae:	0000                	unimp
    2bb0:	08df040f          	0x8df040f
    2bb4:	0000                	unimp
    2bb6:	2122                	fld	ft2,8(sp)
    2bb8:	04fc                	addi	a5,sp,588
    2bba:	0000                	unimp
    2bbc:	055a6307          	0x55a6307
    2bc0:	0000                	unimp
    2bc2:	3a21                	jal	24da <matrix_test+0x9fc>
    2bc4:	0004                	addi	s1,sp,0
    2bc6:	0800                	addi	s0,sp,16
    2bc8:	f610                	fsw	fa2,40(a2)
    2bca:	0008                	addi	a0,sp,0
    2bcc:	0f00                	addi	s0,sp,912
    2bce:	5a04                	lw	s1,48(a2)
    2bd0:	0005                	c.addi	zero,1
    2bd2:	2100                	fld	fs0,0(a0)
    2bd4:	04ff                	0x4ff
    2bd6:	0000                	unimp
    2bd8:	e208                	fsw	fa0,0(a2)
    2bda:	055a                	slli	a0,a0,0x16
    2bdc:	0000                	unimp
    2bde:	4c21                	li	s8,8
    2be0:	0001                	nop
    2be2:	0800                	addi	s0,sp,16
    2be4:	00002ce3          	0x2ce3
    2be8:	2100                	fld	fs0,0(a0)
    2bea:	0661                	addi	a2,a2,24
    2bec:	0000                	unimp
    2bee:	e308                	fsw	fa0,0(a4)
    2bf0:	002c                	addi	a1,sp,8
    2bf2:	0000                	unimp
    2bf4:	7421                	lui	s0,0xfffe8
    2bf6:	08000007          	0x8000007
    2bfa:	00002ce3          	0x2ce3
    2bfe:	2100                	fld	fs0,0(a0)
    2c00:	046e                	slli	s0,s0,0x1b
    2c02:	0000                	unimp
    2c04:	e508                	fsw	fa0,8(a0)
    2c06:	002c                	addi	a1,sp,8
    2c08:	0000                	unimp
    2c0a:	2c21                	jal	2e22 <matrix_sum+0x24c>
    2c0c:	0005                	c.addi	zero,1
    2c0e:	0900                	addi	s0,sp,144
    2c10:	649a                	flw	fs1,132(sp)
    2c12:	0000                	unimp
    2c14:	2100                	fld	fs0,0(a0)
    2c16:	0000002f          	0x2f
    2c1a:	9b09                	andi	a4,a4,-30
    2c1c:	002c                	addi	a1,sp,8
    2c1e:	0000                	unimp
    2c20:	5a08                	lw	a0,48(a2)
    2c22:	0005                	c.addi	zero,1
    2c24:	5900                	lw	s0,48(a0)
    2c26:	0009                	c.addi	zero,2
    2c28:	0900                	addi	s0,sp,144
    2c2a:	00000033          	add	zero,zero,zero
    2c2e:	0001                	nop
    2c30:	8b21                	andi	a4,a4,8
    2c32:	0001                	nop
    2c34:	0900                	addi	s0,sp,144
    2c36:	499e                	lw	s3,196(sp)
    2c38:	0009                	c.addi	zero,2
    2c3a:	0400                	addi	s0,sp,512
    2c3c:	03ad                	addi	t2,t2,11
    2c3e:	0000                	unimp
    2c40:	2a0a                	fld	fs4,128(sp)
    2c42:	00000033          	add	zero,zero,zero
    2c46:	b104                	fsd	fs1,32(a0)
    2c48:	0005                	c.addi	zero,1
    2c4a:	0a00                	addi	s0,sp,272
    2c4c:	00097a2f          	0x97a2f
    2c50:	0f00                	addi	s0,sp,912
    2c52:	8004                	0x8004
    2c54:	0009                	c.addi	zero,2
    2c56:	1300                	addi	s0,sp,416
    2c58:	0964                	addi	s1,sp,156
    2c5a:	0000                	unimp
    2c5c:	0000098f          	0x98f
    2c60:	d914                	sw	a3,48(a0)
    2c62:	0008                	addi	a0,sp,0
    2c64:	0000                	unimp
    2c66:	c604                	sw	s1,8(a2)
    2c68:	0a000007          	0xa000007
    2c6c:	bf36                	fsd	fa3,440(sp)
    2c6e:	0008                	addi	a0,sp,0
    2c70:	2100                	fld	fs0,0(a0)
    2c72:	000a                	0xa
    2c74:	0000                	unimp
    2c76:	bb0a                	fsd	ft2,432(sp)
    2c78:	0000096f          	jal	s2,2c78 <matrix_sum+0xa2>
    2c7c:	af21                	j	3394 <matrix_mul_vect+0xb8>
    2c7e:	0006                	0x6
    2c80:	0a00                	addi	s0,sp,272
    2c82:	8fbe                	mv	t6,a5
    2c84:	0009                	c.addi	zero,2
    2c86:	2300                	fld	fs0,0(a4)
    2c88:	0380                	addi	s0,sp,448
    2c8a:	0000                	unimp
    2c8c:	00330407          	0x330407
    2c90:	0000                	unimp
    2c92:	09e6180b          	0x9e6180b
    2c96:	0000                	unimp
    2c98:	6224                	flw	fs1,64(a2)
    2c9a:	0005                	c.addi	zero,1
    2c9c:	0000                	unimp
    2c9e:	d224                	sw	s1,96(a2)
    2ca0:	0004                	addi	s1,sp,0
    2ca2:	0100                	addi	s0,sp,128
    2ca4:	9d24                	0x9d24
    2ca6:	0004                	addi	s1,sp,0
    2ca8:	0200                	addi	s0,sp,256
    2caa:	5924                	lw	s1,112(a0)
    2cac:	0005                	c.addi	zero,1
    2cae:	0300                	addi	s0,sp,384
    2cb0:	7b24                	flw	fs1,112(a4)
    2cb2:	04000007          	0x4000007
    2cb6:	6a24                	flw	fs1,80(a2)
    2cb8:	05000007          	0x5000007
    2cbc:	2100                	fld	fs0,0(a0)
    2cbe:	00000167          	jalr	sp,zero
    2cc2:	09b0200b          	0x9b0200b
    2cc6:	0000                	unimp
    2cc8:	0004a823          	sw	zero,16(s1)
    2ccc:	0700                	addi	s0,sp,896
    2cce:	3304                	fld	fs1,32(a4)
    2cd0:	0000                	unimp
    2cd2:	0b00                	addi	s0,sp,400
    2cd4:	1522                	slli	a0,a0,0x28
    2cd6:	000a                	0xa
    2cd8:	2400                	fld	fs0,8(s0)
    2cda:	000005a7          	0x5a7
    2cde:	2400                	fld	fs0,8(s0)
    2ce0:	0578                	addi	a4,sp,652
    2ce2:	0000                	unimp
    2ce4:	2401                	jal	2ee4 <matrix_sum+0x30e>
    2ce6:	0684                	addi	s1,sp,832
    2ce8:	0000                	unimp
    2cea:	0002                	0x2
    2cec:	2221                	jal	2df4 <matrix_sum+0x21e>
    2cee:	0b000003          	lb	zero,176(zero) # b0 <buflen.1776+0x70>
    2cf2:	0009f127          	0x9f127
    2cf6:	2100                	fld	fs0,0(a0)
    2cf8:	045f 0000 250c      	0x250c0000045f
    2cfe:	08a4                	addi	s1,sp,88
    2d00:	0000                	unimp
    2d02:	4b21                	li	s6,8
    2d04:	0006                	0x6
    2d06:	0c00                	addi	s0,sp,528
    2d08:	a431                	j	2f14 <matrix_sum+0x33e>
    2d0a:	0008                	addi	a0,sp,0
    2d0c:	0400                	addi	s0,sp,512
    2d0e:	07a2                	slli	a5,a5,0x8
    2d10:	0000                	unimp
    2d12:	7b0d                	lui	s6,0xfffe3
    2d14:	0000004f          	fnmadd.s	ft0,ft0,ft0,ft0,rne
    2d18:	3615                	jal	283c <matrix_test+0xd5e>
    2d1a:	000a                	0xa
    2d1c:	0400                	addi	s0,sp,512
    2d1e:	02d9                	addi	t0,t0,22
    2d20:	0000                	unimp
    2d22:	800d                	srli	s0,s0,0x3
    2d24:	002c                	addi	a1,sp,8
    2d26:	0000                	unimp
    2d28:	d804                	sw	s1,48(s0)
    2d2a:	0002                	0x2
    2d2c:	0d00                	addi	s0,sp,656
    2d2e:	3381                	jal	2a6e <matrix_test+0xf90>
    2d30:	0000                	unimp
    2d32:	0400                	addi	s0,sp,512
    2d34:	06d8                	addi	a4,sp,836
    2d36:	0000                	unimp
    2d38:	840d                	srai	s0,s0,0x3
    2d3a:	003a                	0x3a
    2d3c:	0000                	unimp
    2d3e:	d704                	sw	s1,40(a4)
    2d40:	0006                	0x6
    2d42:	0d00                	addi	s0,sp,656
    2d44:	2585                	jal	33a4 <matrix_mul_vect+0xc8>
    2d46:	0000                	unimp
    2d48:	0200                	addi	s0,sp,256
    2d4a:	0404                	addi	s1,sp,512
    2d4c:	04e5                	addi	s1,s1,25
    2d4e:	0000                	unimp
    2d50:	0802                	slli	a6,a6,0x0
    2d52:	0004dd03          	lhu	s10,0(s1)
    2d56:	0200                	addi	s0,sp,256
    2d58:	0408                	addi	a0,sp,512
    2d5a:	0160                	addi	s0,sp,140
    2d5c:	0000                	unimp
    2d5e:	1002                	0x1002
    2d60:	00003903          	0x3903
    2d64:	0200                	addi	s0,sp,256
    2d66:	0320                	addi	s0,sp,392
    2d68:	00000153          	fadd.s	ft2,ft0,ft0,rne
    2d6c:	dd19                	beqz	a0,2c8a <matrix_sum+0xb4>
    2d6e:	08000003          	lb	zero,128(zero) # 80 <buflen.1776+0x40>
    2d72:	ed0d                	bnez	a0,2dac <matrix_sum+0x1d6>
    2d74:	bd01                	j	2b84 <matrix_test+0x10a6>
    2d76:	000a                	0xa
    2d78:	2500                	fld	fs0,8(a0)
    2d7a:	6f6c                	flw	fa1,92(a4)
    2d7c:	ed0d0077          	0xed0d0077
    2d80:	4601                	li	a2,0
    2d82:	000a                	0xa
    2d84:	0000                	unimp
    2d86:	00066817          	auipc	a6,0x66
    2d8a:	0d00                	addi	s0,sp,656
    2d8c:	01ed                	addi	gp,gp,27
    2d8e:	0a46                	slli	s4,s4,0x11
    2d90:	0000                	unimp
    2d92:	0004                	addi	s1,sp,0
    2d94:	f40d081b          	0xf40d081b
    2d98:	dc01                	beqz	s0,2cb0 <matrix_sum+0xda>
    2d9a:	000a                	0xa
    2d9c:	2600                	fld	fs0,8(a2)
    2d9e:	f60d0073          	0xf60d0073
    2da2:	9501                	srai	a0,a0,0x20
    2da4:	000a                	0xa
    2da6:	2600                	fld	fs0,8(a2)
    2da8:	6c6c                	flw	fa1,92(s0)
    2daa:	0d00                	addi	s0,sp,656
    2dac:	0a5c01f7          	0xa5c01f7
    2db0:	0000                	unimp
    2db2:	0500                	addi	s0,sp,640
    2db4:	000003b7          	lui	t2,0x0
    2db8:	f80d                	bnez	s0,2cea <matrix_sum+0x114>
    2dba:	bd01                	j	2bca <core_bench_matrix+0x16>
    2dbc:	000a                	0xa
    2dbe:	1500                	addi	s0,sp,672
    2dc0:	0adc                	addi	a5,sp,340
    2dc2:	0000                	unimp
    2dc4:	4108                	lw	a0,0(a0)
    2dc6:	000a                	0xa
    2dc8:	fd00                	fsw	fs0,56(a0)
    2dca:	000a                	0xa
    2dcc:	0900                	addi	s0,sp,144
    2dce:	00000033          	add	zero,zero,zero
    2dd2:	00ff                	0xff
    2dd4:	ed15                	bnez	a0,2e10 <matrix_sum+0x23a>
    2dd6:	000a                	0xa
    2dd8:	1f00                	addi	s0,sp,944
    2dda:	0000071b          	0x71b
    2dde:	fc0d                	bnez	s0,2d18 <matrix_sum+0x142>
    2de0:	fd01                	bnez	a0,2cf8 <matrix_sum+0x122>
    2de2:	000a                	0xa
    2de4:	1f00                	addi	s0,sp,944
    2de6:	03f9                	addi	t2,t2,30
    2de8:	0000                	unimp
    2dea:	020d                	addi	tp,tp,3
    2dec:	fd02                	fsw	ft0,184(sp)
    2dee:	000a                	0xa
    2df0:	2700                	fld	fs0,8(a4)
    2df2:	07d8                	addi	a4,sp,964
    2df4:	0000                	unimp
    2df6:	1901                	addi	s2,s2,-32
    2df8:	6705                	lui	a4,0x1
    2dfa:	000a                	0xa
    2dfc:	0c00                	addi	s0,sp,528
    2dfe:	0052                	0x52
    2e00:	1000                	addi	s0,sp,32
    2e02:	0004                	addi	s1,sp,0
    2e04:	0100                	addi	s0,sp,128
    2e06:	4f9c                	lw	a5,24(a5)
    2e08:	000e                	0xe
    2e0a:	2800                	fld	fs0,16(s0)
    2e0c:	0075                	c.addi	zero,29
    2e0e:	1901                	addi	s2,s2,-32
    2e10:	6705                	lui	a4,0x1
    2e12:	000a                	0xa
    2e14:	b900                	fsd	fs0,48(a0)
    2e16:	0015                	c.addi	zero,5
    2e18:	2800                	fld	fs0,16(s0)
    2e1a:	0076                	0x76
    2e1c:	1901                	addi	s2,s2,-32
    2e1e:	6705                	lui	a4,0x1
    2e20:	000a                	0xa
    2e22:	6100                	flw	fs0,0(a0)
    2e24:	0016                	0x16
    2e26:	2900                	fld	fs0,16(a0)
    2e28:	1b010077          	0x1b010077
    2e2c:	6705                	lui	a4,0x1
    2e2e:	000a                	0xa
    2e30:	c900                	sw	s0,16(a0)
    2e32:	0016                	0x16
    2e34:	2a00                	fld	fs0,16(a2)
    2e36:	00000e4f          	fnmadd.s	ft8,ft0,ft0,ft0,rne
    2e3a:	520c                	lw	a1,32(a2)
    2e3c:	0000                	unimp
    2e3e:	01b0                	addi	a2,sp,200
    2e40:	0000                	unimp
    2e42:	1d01                	addi	s10,s10,-32
    2e44:	2b05                	jal	3374 <matrix_mul_vect+0x98>
    2e46:	0e74                	addi	a3,sp,796
    2e48:	0000                	unimp
    2e4a:	16e1                	addi	a3,a3,-8
    2e4c:	0000                	unimp
    2e4e:	000e6a2b          	0xe6a2b
    2e52:	0900                	addi	s0,sp,144
    2e54:	2b000017          	auipc	zero,0x2b000
    2e58:	0e60                	addi	s0,sp,796
    2e5a:	0000                	unimp
    2e5c:	1771                	addi	a4,a4,-4
    2e5e:	0000                	unimp
    2e60:	b02c                	fsd	fa1,96(s0)
    2e62:	0001                	nop
    2e64:	2d00                	fld	fs0,24(a0)
    2e66:	0e7f                	0xe7f
    2e68:	0000                	unimp
    2e6a:	8a2d                	andi	a2,a2,11
    2e6c:	000e                	0xe
    2e6e:	2d00                	fld	fs0,24(a0)
    2e70:	0e95                	addi	t4,t4,5
    2e72:	0000                	unimp
    2e74:	a02e                	fsd	fa1,0(sp)
    2e76:	000e                	0xe
    2e78:	f900                	fsw	fs0,48(a0)
    2e7a:	2e000017          	auipc	zero,0x2e000
    2e7e:	00000eab          	0xeab
    2e82:	1838                	addi	a4,sp,56
    2e84:	0000                	unimp
    2e86:	b62e                	fsd	fa1,296(sp)
    2e88:	000e                	0xe
    2e8a:	8d00                	0x8d00
    2e8c:	0018                	addi	a4,sp,0
    2e8e:	2e00                	fld	fs0,24(a2)
    2e90:	0ec1                	addi	t4,t4,16
    2e92:	0000                	unimp
    2e94:	00001903          	lh	s2,0(zero) # 2e002e7a <__C_STACK_TOP__+0x2dff2e7a>
    2e98:	cc2e                	sw	a1,24(sp)
    2e9a:	000e                	0xe
    2e9c:	9a00                	0x9a00
    2e9e:	0019                	c.addi	zero,6
    2ea0:	2e00                	fld	fs0,24(a2)
    2ea2:	00000ed7          	0xed7
    2ea6:	19c8                	addi	a0,sp,244
    2ea8:	0000                	unimp
    2eaa:	e22e                	fsw	fa1,4(sp)
    2eac:	000e                	0xe
    2eae:	dc00                	sw	s0,56(s0)
    2eb0:	0019                	c.addi	zero,6
    2eb2:	2e00                	fld	fs0,24(a2)
    2eb4:	0eed                	addi	t4,t4,27
    2eb6:	0000                	unimp
    2eb8:	19fc                	addi	a5,sp,252
    2eba:	0000                	unimp
    2ebc:	f72e                	fsw	fa1,172(sp)
    2ebe:	000e                	0xe
    2ec0:	1a00                	addi	s0,sp,304
    2ec2:	001a                	0x1a
    2ec4:	2d00                	fld	fs0,24(a0)
    2ec6:	0f02                	slli	t5,t5,0x0
    2ec8:	0000                	unimp
    2eca:	000f0d2f          	0xf0d2f
    2ece:	c800                	sw	s0,16(s0)
    2ed0:	0001                	nop
    2ed2:	1300                	addi	s0,sp,416
    2ed4:	000c                	addi	a1,sp,0
    2ed6:	2e00                	fld	fs0,24(a2)
    2ed8:	0f12                	slli	t5,t5,0x4
    2eda:	0000                	unimp
    2edc:	1a59                	addi	s4,s4,-10
    2ede:	0000                	unimp
    2ee0:	1e2e                	slli	t3,t3,0x2b
    2ee2:	7700000f          	0x7700000f
    2ee6:	001a                	0x1a
    2ee8:	0000                	unimp
    2eea:	2b30                	fld	fa2,80(a4)
    2eec:	7000000f          	0x7000000f
    2ef0:	0052                	0x52
    2ef2:	7000                	flw	fs0,32(s0)
    2ef4:	0000                	unimp
    2ef6:	6000                	flw	fs0,0(s0)
    2ef8:	000c                	addi	a1,sp,0
    2efa:	2e00                	fld	fs0,24(a2)
    2efc:	0f30                	addi	a2,sp,920
    2efe:	0000                	unimp
    2f00:	1a8a                	slli	s5,s5,0x22
    2f02:	0000                	unimp
    2f04:	3c2e                	fld	fs8,232(sp)
    2f06:	9d00000f          	0x9d00000f
    2f0a:	001a                	0x1a
    2f0c:	2d00                	fld	fs0,24(a0)
    2f0e:	0f48                	addi	a0,sp,916
    2f10:	0000                	unimp
    2f12:	542e                	lw	s0,232(sp)
    2f14:	c100000f          	0xc100000f
    2f18:	001a                	0x1a
    2f1a:	2e00                	fld	fs0,24(a2)
    2f1c:	0f60                	addi	s0,sp,924
    2f1e:	0000                	unimp
    2f20:	1ad4                	addi	a3,sp,372
    2f22:	0000                	unimp
    2f24:	6c2e                	flw	fs8,200(sp)
    2f26:	f200000f          	0xf200000f
    2f2a:	001a                	0x1a
    2f2c:	2e00                	fld	fs0,24(a2)
    2f2e:	0f78                	addi	a4,sp,924
    2f30:	0000                	unimp
    2f32:	1b10                	addi	a2,sp,432
    2f34:	0000                	unimp
    2f36:	2f00                	fld	fs0,24(a4)
    2f38:	0f85                	addi	t6,t6,1
    2f3a:	0000                	unimp
    2f3c:	01e0                	addi	s0,sp,204
    2f3e:	0000                	unimp
    2f40:	0c80                	addi	s0,sp,592
    2f42:	0000                	unimp
    2f44:	8a2e                	mv	s4,a1
    2f46:	2e00000f          	0x2e00000f
    2f4a:	2e00001b          	0x2e00001b
    2f4e:	0f96                	slli	t6,t6,0x5
    2f50:	0000                	unimp
    2f52:	1b4c                	addi	a1,sp,436
    2f54:	0000                	unimp
    2f56:	3000                	fld	fs0,32(s0)
    2f58:	0ffd                	addi	t6,t6,31
    2f5a:	0000                	unimp
    2f5c:	5340                	lw	s0,36(a4)
    2f5e:	0000                	unimp
    2f60:	0074                	addi	a3,sp,12
    2f62:	0000                	unimp
    2f64:	0cd1                	addi	s9,s9,20
    2f66:	0000                	unimp
    2f68:	022e                	slli	tp,tp,0xb
    2f6a:	0010                	addi	a2,sp,0
    2f6c:	6a00                	flw	fs0,16(a2)
    2f6e:	2e00001b          	0x2e00001b
    2f72:	100e                	0x100e
    2f74:	0000                	unimp
    2f76:	1b7d                	addi	s6,s6,-1
    2f78:	0000                	unimp
    2f7a:	1a2e                	slli	s4,s4,0x2b
    2f7c:	0010                	addi	a2,sp,0
    2f7e:	a100                	fsd	fs0,0(a0)
    2f80:	2e00001b          	0x2e00001b
    2f84:	1026                	0x1026
    2f86:	0000                	unimp
    2f88:	1bb4                	addi	a3,sp,504
    2f8a:	0000                	unimp
    2f8c:	322e                	fld	ft4,232(sp)
    2f8e:	0010                	addi	a2,sp,0
    2f90:	c700                	sw	s0,8(a4)
    2f92:	2e00001b          	0x2e00001b
    2f96:	103e                	0x103e
    2f98:	0000                	unimp
    2f9a:	1bf0                	addi	a2,sp,508
    2f9c:	0000                	unimp
    2f9e:	4a2e                	lw	s4,200(sp)
    2fa0:	0010                	addi	a2,sp,0
    2fa2:	0e00                	addi	s0,sp,784
    2fa4:	001c                	addi	a5,sp,0
    2fa6:	0000                	unimp
    2fa8:	000fa32f          	amoadd.w	t1,zero,(t6)
    2fac:	f800                	fsw	fs0,48(s0)
    2fae:	0001                	nop
    2fb0:	1e00                	addi	s0,sp,816
    2fb2:	000d                	c.addi	zero,3
    2fb4:	2e00                	fld	fs0,24(a2)
    2fb6:	0fa8                	addi	a0,sp,984
    2fb8:	0000                	unimp
    2fba:	1c2c                	addi	a1,sp,568
    2fbc:	0000                	unimp
    2fbe:	b42e                	fsd	fa1,40(sp)
    2fc0:	3f00000f          	0x3f00000f
    2fc4:	001c                	addi	a5,sp,0
    2fc6:	2e00                	fld	fs0,24(a2)
    2fc8:	0fc0                	addi	s0,sp,980
    2fca:	0000                	unimp
    2fcc:	00001c63          	bnez	zero,2fe4 <matrix_mul_const+0x24>
    2fd0:	cc2e                	sw	a1,24(sp)
    2fd2:	7600000f          	0x7600000f
    2fd6:	001c                	addi	a5,sp,0
    2fd8:	2e00                	fld	fs0,24(a2)
    2fda:	0fd8                	addi	a4,sp,980
    2fdc:	0000                	unimp
    2fde:	1c89                	addi	s9,s9,-30
    2fe0:	0000                	unimp
    2fe2:	e42e                	fsw	fa1,8(sp)
    2fe4:	b200000f          	0xb200000f
    2fe8:	001c                	addi	a5,sp,0
    2fea:	2e00                	fld	fs0,24(a2)
    2fec:	0ff0                	addi	a2,sp,988
    2fee:	0000                	unimp
    2ff0:	1cd0                	addi	a2,sp,628
    2ff2:	0000                	unimp
    2ff4:	2f00                	fld	fs0,24(a4)
    2ff6:	00001057          	0x1057
    2ffa:	0210                	addi	a2,sp,256
    2ffc:	0000                	unimp
    2ffe:	0d3e                	slli	s10,s10,0xf
    3000:	0000                	unimp
    3002:	5c2e                	lw	s8,232(sp)
    3004:	0010                	addi	a2,sp,0
    3006:	ee00                	fsw	fs0,24(a2)
    3008:	001c                	addi	a5,sp,0
    300a:	2e00                	fld	fs0,24(a2)
    300c:	1068                	addi	a0,sp,44
    300e:	0000                	unimp
    3010:	1d01                	addi	s10,s10,-32
    3012:	0000                	unimp
    3014:	3000                	fld	fs0,32(s0)
    3016:	1075                	c.addi	zero,-3
    3018:	0000                	unimp
    301a:	5498                	lw	a4,40(s1)
    301c:	0000                	unimp
    301e:	0010                	addi	a2,sp,0
    3020:	0000                	unimp
    3022:	0d59                	addi	s10,s10,22
    3024:	0000                	unimp
    3026:	7a2e                	flw	fs4,232(sp)
    3028:	0010                	addi	a2,sp,0
    302a:	1f00                	addi	s0,sp,944
    302c:	001d                	c.addi	zero,7
    302e:	0000                	unimp
    3030:	8731                	srai	a4,a4,0xc
    3032:	0010                	addi	a2,sp,0
    3034:	c800                	sw	s0,16(s0)
    3036:	0054                	addi	a3,sp,4
    3038:	5000                	lw	s0,32(s0)
    303a:	0001                	nop
    303c:	2e00                	fld	fs0,24(a2)
    303e:	1088                	addi	a0,sp,96
    3040:	0000                	unimp
    3042:	1d32                	slli	s10,s10,0x2c
    3044:	0000                	unimp
    3046:	932e                	add	t1,t1,a1
    3048:	0010                	addi	a2,sp,0
    304a:	5000                	lw	s0,32(s0)
    304c:	001d                	c.addi	zero,7
    304e:	2f00                	fld	fs0,24(a4)
    3050:	109e                	slli	ra,ra,0x27
    3052:	0000                	unimp
    3054:	0228                	addi	a0,sp,264
    3056:	0000                	unimp
    3058:	0dc5                	addi	s11,s11,17
    305a:	0000                	unimp
    305c:	a32e                	fsd	fa1,384(sp)
    305e:	0010                	addi	a2,sp,0
    3060:	7900                	flw	fs0,48(a0)
    3062:	001d                	c.addi	zero,7
    3064:	2e00                	fld	fs0,24(a2)
    3066:	000010af          	0x10af
    306a:	00001d9b          	0x1d9b
    306e:	bb2e                	fsd	fa1,432(sp)
    3070:	0010                	addi	a2,sp,0
    3072:	bf00                	fsd	fs0,56(a4)
    3074:	001d                	c.addi	zero,7
    3076:	2e00                	fld	fs0,24(a2)
    3078:	000010c7          	fmsub.s	ft1,ft0,ft0,ft0,rtz
    307c:	1ddd                	addi	s11,s11,-9
    307e:	0000                	unimp
    3080:	d32e                	sw	a1,164(sp)
    3082:	0010                	addi	a2,sp,0
    3084:	fb00                	fsw	fs0,48(a4)
    3086:	001d                	c.addi	zero,7
    3088:	2e00                	fld	fs0,24(a2)
    308a:	10df 0000 1e37      	0x1e37000010df
    3090:	0000                	unimp
    3092:	eb2e                	fsw	fa1,148(sp)
    3094:	0010                	addi	a2,sp,0
    3096:	7400                	flw	fs0,40(s0)
    3098:	001e                	0x1e
    309a:	0000                	unimp
    309c:	0010f82f          	0x10f82f
    30a0:	5000                	lw	s0,32(s0)
    30a2:	0002                	0x2
    30a4:	1900                	addi	s0,sp,176
    30a6:	000e                	0xe
    30a8:	2e00                	fld	fs0,24(a2)
    30aa:	10fd                	addi	ra,ra,-1
    30ac:	0000                	unimp
    30ae:	1e92                	slli	t4,t4,0x24
    30b0:	0000                	unimp
    30b2:	092e                	slli	s2,s2,0xb
    30b4:	0011                	c.addi	zero,4
    30b6:	a500                	fsd	fs0,8(a0)
    30b8:	001e                	0x1e
    30ba:	2e00                	fld	fs0,24(a2)
    30bc:	1115                	addi	sp,sp,-27
    30be:	0000                	unimp
    30c0:	1eb8                	addi	a4,sp,888
    30c2:	0000                	unimp
    30c4:	212e                	fld	ft2,200(sp)
    30c6:	0011                	c.addi	zero,4
    30c8:	cb00                	sw	s0,16(a4)
    30ca:	001e                	0x1e
    30cc:	2e00                	fld	fs0,24(a2)
    30ce:	112d                	addi	sp,sp,-21
    30d0:	0000                	unimp
    30d2:	1ede                	slli	t4,t4,0x37
    30d4:	0000                	unimp
    30d6:	392e                	fld	fs2,232(sp)
    30d8:	0011                	c.addi	zero,4
    30da:	f100                	fsw	fs0,32(a0)
    30dc:	001e                	0x1e
    30de:	2e00                	fld	fs0,24(a2)
    30e0:	1145                	addi	sp,sp,-15
    30e2:	0000                	unimp
    30e4:	1f24                	addi	s1,sp,952
    30e6:	0000                	unimp
    30e8:	5132                	lw	sp,44(sp)
    30ea:	0011                	c.addi	zero,4
    30ec:	0100                	addi	s0,sp,128
    30ee:	0060                	addi	s0,sp,12
    30f0:	5e30                	lw	a2,120(a2)
    30f2:	0011                	c.addi	zero,4
    30f4:	e400                	fsw	fs0,8(s0)
    30f6:	0055                	c.addi	zero,21
    30f8:	1400                	addi	s0,sp,544
    30fa:	0000                	unimp
    30fc:	3400                	fld	fs0,40(s0)
    30fe:	000e                	0xe
    3100:	2e00                	fld	fs0,24(a2)
    3102:	00001163          	bnez	zero,3104 <matrix_mul_const+0x144>
    3106:	00001f37          	lui	t5,0x1
    310a:	3100                	fld	fs0,32(a0)
    310c:	1170                	addi	a2,sp,172
    310e:	0000                	unimp
    3110:	55f8                	lw	a4,108(a1)
    3112:	0000                	unimp
    3114:	0010                	addi	a2,sp,0
    3116:	0000                	unimp
    3118:	712e                	flw	ft2,232(sp)
    311a:	0011                	c.addi	zero,4
    311c:	4a00                	lw	s0,16(a2)
    311e:	001f 0000 0000      	0x1f
    3124:	0000                	unimp
    3126:	00063e33          	sltu	t3,a2,zero
    312a:	0100                	addi	s0,sp,128
    312c:	03f6                	slli	t2,t2,0x1d
    312e:	00000a67          	jalr	s4,zero
    3132:	00118003          	lb	zero,1(gp) # 6621 <__global_pointer$+0x1>
    3136:	3400                	fld	fs0,40(s0)
    3138:	006e                	0x6e
    313a:	f601                	bnez	a2,3042 <matrix_mul_const+0x82>
    313c:	000a6703          	0xa6703
    3140:	3400                	fld	fs0,40(s0)
    3142:	0064                	addi	s1,sp,12
    3144:	f601                	bnez	a2,304c <matrix_mul_const+0x8c>
    3146:	000a6703          	0xa6703
    314a:	3400                	fld	fs0,40(s0)
    314c:	7072                	flw	ft0,60(sp)
    314e:	0100                	addi	s0,sp,128
    3150:	03f6                	slli	t2,t2,0x1d
    3152:	1180                	addi	s0,sp,224
    3154:	0000                	unimp
    3156:	6e35                	lui	t3,0xd
    3158:	006e                	0x6e
    315a:	f801                	bnez	s0,306a <matrix_mul_const+0xaa>
    315c:	000ae803          	0xae803
    3160:	3500                	fld	fs0,40(a0)
    3162:	6464                	flw	fs1,76(s0)
    3164:	0100                	addi	s0,sp,128
    3166:	03f9                	addi	t2,t2,30
    3168:	0ae8                	addi	a0,sp,348
    316a:	0000                	unimp
    316c:	7235                	lui	tp,0xfffed
    316e:	0072                	0x72
    3170:	fa01                	bnez	a2,3080 <matrix_mul_const+0xc0>
    3172:	000adc03          	lhu	s8,0(s5)
    3176:	3500                	fld	fs0,40(a0)
    3178:	3064                	fld	fs1,224(s0)
    317a:	0100                	addi	s0,sp,128
    317c:	0a5103fb          	0xa5103fb
    3180:	0000                	unimp
    3182:	6435                	lui	s0,0xd
    3184:	0031                	c.addi	zero,12
    3186:	fb01                	bnez	a4,3096 <matrix_mul_const+0xd6>
    3188:	000a5103          	lhu	sp,0(s4)
    318c:	3500                	fld	fs0,40(a0)
    318e:	306e                	fld	ft0,248(sp)
    3190:	0100                	addi	s0,sp,128
    3192:	0a5103fb          	0xa5103fb
    3196:	0000                	unimp
    3198:	6e35                	lui	t3,0xd
    319a:	0031                	c.addi	zero,12
    319c:	fb01                	bnez	a4,30ac <matrix_mul_const+0xec>
    319e:	000a5103          	lhu	sp,0(s4)
    31a2:	3500                	fld	fs0,40(a0)
    31a4:	326e                	fld	ft4,248(sp)
    31a6:	0100                	addi	s0,sp,128
    31a8:	0a5103fb          	0xa5103fb
    31ac:	0000                	unimp
    31ae:	7135                	addi	sp,sp,-160
    31b0:	0030                	addi	a2,sp,8
    31b2:	fc01                	bnez	s0,30ca <matrix_mul_const+0x10a>
    31b4:	000a5103          	lhu	sp,0(s4)
    31b8:	3500                	fld	fs0,40(a0)
    31ba:	3171                	jal	2e46 <matrix_sum+0x270>
    31bc:	0100                	addi	s0,sp,128
    31be:	03fc                	addi	a5,sp,460
    31c0:	0a51                	addi	s4,s4,20
    31c2:	0000                	unimp
    31c4:	6235                	lui	tp,0xd
    31c6:	0100                	addi	s0,sp,128
    31c8:	03fd                	addi	t2,t2,31
    31ca:	0a51                	addi	s4,s4,20
    31cc:	0000                	unimp
    31ce:	6235                	lui	tp,0xd
    31d0:	006d                	c.addi	zero,27
    31d2:	fd01                	bnez	a0,30ea <matrix_mul_const+0x12a>
    31d4:	000a5103          	lhu	sp,0(s4)
    31d8:	3500                	fld	fs0,40(a0)
    31da:	01007777          	0x1007777
    31de:	04c6                	slli	s1,s1,0x11
    31e0:	0ae8                	addi	a0,sp,348
    31e2:	0000                	unimp
    31e4:	2b36                	fld	fs6,328(sp)
    31e6:	3700000f          	0x3700000f
    31ea:	000006bf 51042d01 	0x51042d01000006bf
    31f2:	000a                	0xa
    31f4:	3500                	fld	fs0,40(a0)
    31f6:	5f5f 0061 2d01      	0x2d0100615f5f
    31fc:	5104                	lw	s1,32(a0)
    31fe:	000a                	0xa
    3200:	0000                	unimp
    3202:	8536                	mv	a0,a3
    3204:	3700000f          	0x3700000f
    3208:	013e                	slli	sp,sp,0xf
    320a:	0000                	unimp
    320c:	3901                	jal	2e1c <matrix_sum+0x246>
    320e:	5104                	lw	s1,32(a0)
    3210:	000a                	0xa
    3212:	3700                	fld	fs0,40(a4)
    3214:	0139                	addi	sp,sp,14
    3216:	0000                	unimp
    3218:	3901                	jal	2e28 <matrix_sum+0x252>
    321a:	5104                	lw	s1,32(a0)
    321c:	000a                	0xa
    321e:	3700                	fld	fs0,40(a4)
    3220:	0672                	slli	a2,a2,0x1c
    3222:	0000                	unimp
    3224:	3901                	jal	2e34 <matrix_sum+0x25e>
    3226:	5104                	lw	s1,32(a0)
    3228:	000a                	0xa
    322a:	3700                	fld	fs0,40(a4)
    322c:	066d                	addi	a2,a2,27
    322e:	0000                	unimp
    3230:	3901                	jal	2e40 <matrix_sum+0x26a>
    3232:	5104                	lw	s1,32(a0)
    3234:	000a                	0xa
    3236:	3700                	fld	fs0,40(a4)
    3238:	073d                	addi	a4,a4,15
    323a:	0000                	unimp
    323c:	3901                	jal	2e4c <matrix_sum+0x276>
    323e:	5104                	lw	s1,32(a0)
    3240:	000a                	0xa
    3242:	3700                	fld	fs0,40(a4)
    3244:	0738                	addi	a4,sp,904
    3246:	0000                	unimp
    3248:	3901                	jal	2e58 <matrix_sum+0x282>
    324a:	5104                	lw	s1,32(a0)
    324c:	000a                	0xa
    324e:	3500                	fld	fs0,40(a0)
    3250:	5f5f 006d 3901      	0x3901006d5f5f
    3256:	5104                	lw	s1,32(a0)
    3258:	000a                	0xa
    325a:	0000                	unimp
    325c:	a336                	fsd	fa3,384(sp)
    325e:	3700000f          	0x3700000f
    3262:	000006bf 51044501 	0x51044501000006bf
    326a:	000a                	0xa
    326c:	3500                	fld	fs0,40(a0)
    326e:	5f5f 0061 4501      	0x450100615f5f
    3274:	5104                	lw	s1,32(a0)
    3276:	000a                	0xa
    3278:	0000                	unimp
    327a:	fd36                	fsw	fa3,184(sp)
    327c:	3700000f          	0x3700000f
    3280:	013e                	slli	sp,sp,0xf
    3282:	0000                	unimp
    3284:	5e01                	li	t3,-32
    3286:	5104                	lw	s1,32(a0)
    3288:	000a                	0xa
    328a:	3700                	fld	fs0,40(a4)
    328c:	0139                	addi	sp,sp,14
    328e:	0000                	unimp
    3290:	5e01                	li	t3,-32
    3292:	5104                	lw	s1,32(a0)
    3294:	000a                	0xa
    3296:	3700                	fld	fs0,40(a4)
    3298:	0672                	slli	a2,a2,0x1c
    329a:	0000                	unimp
    329c:	5e01                	li	t3,-32
    329e:	5104                	lw	s1,32(a0)
    32a0:	000a                	0xa
    32a2:	3700                	fld	fs0,40(a4)
    32a4:	066d                	addi	a2,a2,27
    32a6:	0000                	unimp
    32a8:	5e01                	li	t3,-32
    32aa:	5104                	lw	s1,32(a0)
    32ac:	000a                	0xa
    32ae:	3700                	fld	fs0,40(a4)
    32b0:	073d                	addi	a4,a4,15
    32b2:	0000                	unimp
    32b4:	5e01                	li	t3,-32
    32b6:	5104                	lw	s1,32(a0)
    32b8:	000a                	0xa
    32ba:	3700                	fld	fs0,40(a4)
    32bc:	0738                	addi	a4,sp,904
    32be:	0000                	unimp
    32c0:	5e01                	li	t3,-32
    32c2:	5104                	lw	s1,32(a0)
    32c4:	000a                	0xa
    32c6:	3500                	fld	fs0,40(a0)
    32c8:	5f5f 006d 5e01      	0x5e01006d5f5f
    32ce:	5104                	lw	s1,32(a0)
    32d0:	000a                	0xa
    32d2:	0000                	unimp
    32d4:	5736                	lw	a4,108(sp)
    32d6:	0010                	addi	a2,sp,0
    32d8:	3700                	fld	fs0,40(a4)
    32da:	013e                	slli	sp,sp,0xf
    32dc:	0000                	unimp
    32de:	6301                	lui	t1,0x0
    32e0:	5104                	lw	s1,32(a0)
    32e2:	000a                	0xa
    32e4:	3700                	fld	fs0,40(a4)
    32e6:	0139                	addi	sp,sp,14
    32e8:	0000                	unimp
    32ea:	6301                	lui	t1,0x0
    32ec:	5104                	lw	s1,32(a0)
    32ee:	000a                	0xa
    32f0:	3700                	fld	fs0,40(a4)
    32f2:	0672                	slli	a2,a2,0x1c
    32f4:	0000                	unimp
    32f6:	6301                	lui	t1,0x0
    32f8:	5104                	lw	s1,32(a0)
    32fa:	000a                	0xa
    32fc:	3700                	fld	fs0,40(a4)
    32fe:	066d                	addi	a2,a2,27
    3300:	0000                	unimp
    3302:	6301                	lui	t1,0x0
    3304:	5104                	lw	s1,32(a0)
    3306:	000a                	0xa
    3308:	3700                	fld	fs0,40(a4)
    330a:	073d                	addi	a4,a4,15
    330c:	0000                	unimp
    330e:	6301                	lui	t1,0x0
    3310:	5104                	lw	s1,32(a0)
    3312:	000a                	0xa
    3314:	3700                	fld	fs0,40(a4)
    3316:	0738                	addi	a4,sp,904
    3318:	0000                	unimp
    331a:	6301                	lui	t1,0x0
    331c:	5104                	lw	s1,32(a0)
    331e:	000a                	0xa
    3320:	3500                	fld	fs0,40(a0)
    3322:	5f5f 006d 6301      	0x6301006d5f5f
    3328:	5104                	lw	s1,32(a0)
    332a:	000a                	0xa
    332c:	0000                	unimp
    332e:	7536                	flw	fa0,108(sp)
    3330:	0010                	addi	a2,sp,0
    3332:	3700                	fld	fs0,40(a4)
    3334:	000006bf 51048601 	0x51048601000006bf
    333c:	000a                	0xa
    333e:	3500                	fld	fs0,40(a0)
    3340:	5f5f 0061 8601      	0x860100615f5f
    3346:	5104                	lw	s1,32(a0)
    3348:	000a                	0xa
    334a:	0000                	unimp
    334c:	8736                	mv	a4,a3
    334e:	0010                	addi	a2,sp,0
    3350:	3500                	fld	fs0,40(a0)
    3352:	5f5f 0078 9401      	0x940100785f5f
    3358:	5104                	lw	s1,32(a0)
    335a:	000a                	0xa
    335c:	0000                	unimp
    335e:	3538                	fld	fa4,104(a0)
    3360:	316d                	jal	300a <matrix_mul_const+0x4a>
    3362:	0100                	addi	s0,sp,128
    3364:	04a4                	addi	s1,sp,584
    3366:	0a51                	addi	s4,s4,20
    3368:	0000                	unimp
    336a:	6d35                	lui	s10,0xd
    336c:	0030                	addi	a2,sp,8
    336e:	a401                	j	356e <matrix_mul_matrix+0xfc>
    3370:	5104                	lw	s1,32(a0)
    3372:	000a                	0xa
    3374:	3600                	fld	fs0,40(a2)
    3376:	10f8                	addi	a4,sp,108
    3378:	0000                	unimp
    337a:	00013e37          	lui	t3,0x13
    337e:	0100                	addi	s0,sp,128
    3380:	0a5104af          	0xa5104af
    3384:	0000                	unimp
    3386:	00013937          	lui	s2,0x13
    338a:	0100                	addi	s0,sp,128
    338c:	0a5104af          	0xa5104af
    3390:	0000                	unimp
    3392:	00067237          	lui	tp,0x67
    3396:	0100                	addi	s0,sp,128
    3398:	0a5104af          	0xa5104af
    339c:	0000                	unimp
    339e:	00066d37          	lui	s10,0x66
    33a2:	0100                	addi	s0,sp,128
    33a4:	0a5104af          	0xa5104af
    33a8:	0000                	unimp
    33aa:	00073d37          	lui	s10,0x73
    33ae:	0100                	addi	s0,sp,128
    33b0:	0a5104af          	0xa5104af
    33b4:	0000                	unimp
    33b6:	00073837          	lui	a6,0x73
    33ba:	0100                	addi	s0,sp,128
    33bc:	0a5104af          	0xa5104af
    33c0:	0000                	unimp
    33c2:	5f35                	li	t5,-19
    33c4:	6d5f 0100 04af      	0x4af01006d5f
    33ca:	0a51                	addi	s4,s4,20
    33cc:	0000                	unimp
    33ce:	3600                	fld	fs0,40(a2)
    33d0:	115e                	slli	sp,sp,0x37
    33d2:	0000                	unimp
    33d4:	00060537          	lui	a0,0x60
    33d8:	0100                	addi	s0,sp,128
    33da:	04b0                	addi	a2,sp,584
    33dc:	0a51                	addi	s4,s4,20
    33de:	0000                	unimp
    33e0:	00060a37          	lui	s4,0x60
    33e4:	0100                	addi	s0,sp,128
    33e6:	04b0                	addi	a2,sp,584
    33e8:	0a51                	addi	s4,s4,20
    33ea:	0000                	unimp
    33ec:	00060f37          	lui	t5,0x60
    33f0:	0100                	addi	s0,sp,128
    33f2:	04b0                	addi	a2,sp,584
    33f4:	0a51                	addi	s4,s4,20
    33f6:	0000                	unimp
    33f8:	00061437          	lui	s0,0x61
    33fc:	0100                	addi	s0,sp,128
    33fe:	04b0                	addi	a2,sp,584
    3400:	0a51                	addi	s4,s4,20
    3402:	0000                	unimp
    3404:	00045a37          	lui	s4,0x45
    3408:	0100                	addi	s0,sp,128
    340a:	04b0                	addi	a2,sp,584
    340c:	0a51                	addi	s4,s4,20
    340e:	0000                	unimp
    3410:	00051d37          	lui	s10,0x51
    3414:	0100                	addi	s0,sp,128
    3416:	04b0                	addi	a2,sp,584
    3418:	0a51                	addi	s4,s4,20
    341a:	0000                	unimp
    341c:	00044f37          	lui	t5,0x44
    3420:	0100                	addi	s0,sp,128
    3422:	04b0                	addi	a2,sp,584
    3424:	0a51                	addi	s4,s4,20
    3426:	0000                	unimp
    3428:	00051837          	lui	a6,0x51
    342c:	0100                	addi	s0,sp,128
    342e:	04b0                	addi	a2,sp,584
    3430:	0a51                	addi	s4,s4,20
    3432:	0000                	unimp
    3434:	3600                	fld	fs0,40(a2)
    3436:	1170                	addi	a2,sp,172
    3438:	0000                	unimp
    343a:	5f35                	li	t5,-19
    343c:	785f 0100 04b5      	0x4b50100785f
    3442:	0a51                	addi	s4,s4,20
    3444:	0000                	unimp
    3446:	3800                	fld	fs0,48(s0)
    3448:	5f35                	li	t5,-19
    344a:	785f 0100 04bd      	0x4bd0100785f
    3450:	0a51                	addi	s4,s4,20
    3452:	0000                	unimp
    3454:	0000                	unimp
    3456:	0f00                	addi	s0,sp,912
    3458:	6704                	flw	fs1,8(a4)
    345a:	000a                	0xa
    345c:	0000                	unimp
    345e:	0a99                	addi	s5,s5,6
    3460:	0000                	unimp
    3462:	0004                	addi	s1,sp,0
    3464:	07f1                	addi	a5,a5,28
    3466:	0000                	unimp
    3468:	0104                	addi	s1,sp,128
    346a:	07e2                	slli	a5,a5,0x18
    346c:	0000                	unimp
    346e:	a30c                	fsd	fa1,0(a4)
    3470:	0001                	nop
    3472:	2c00                	fld	fs0,24(s0)
    3474:	0002                	0x2
    3476:	5100                	lw	s0,32(a0)
    3478:	000c                	addi	a1,sp,0
    347a:	0200                	addi	s0,sp,256
    347c:	0504                	addi	s1,sp,640
    347e:	6e69                	lui	t3,0x1a
    3480:	0074                	addi	a3,sp,12
    3482:	d0070403          	lb	s0,-768(a4) # d00 <calc_func+0xc>
    3486:	03000003          	lb	zero,48(zero) # 30 <CL_SIZE+0x10>
    348a:	0508                	addi	a0,sp,640
    348c:	02e0                	addi	s0,sp,332
    348e:	0000                	unimp
    3490:	5b041003          	lh	zero,1456(s0) # 615b0 <__C_STACK_TOP__+0x515b0>
    3494:	0001                	nop
    3496:	0300                	addi	s0,sp,384
    3498:	0601                	addi	a2,a2,0
    349a:	0696                	slli	a3,a3,0x5
    349c:	0000                	unimp
    349e:	94080103          	lb	sp,-1728(a6) # 50940 <__C_STACK_TOP__+0x40940>
    34a2:	0006                	0x6
    34a4:	0300                	addi	s0,sp,384
    34a6:	0502                	slli	a0,a0,0x0
    34a8:	0000                	unimp
    34aa:	0000                	unimp
    34ac:	e6070203          	lb	tp,-416(a4)
    34b0:	03000003          	lb	zero,48(zero) # 30 <CL_SIZE+0x10>
    34b4:	0504                	addi	s1,sp,640
    34b6:	02e5                	addi	t0,t0,25
    34b8:	0000                	unimp
    34ba:	cb070403          	lb	s0,-848(a4)
    34be:	03000003          	lb	zero,48(zero) # 30 <CL_SIZE+0x10>
    34c2:	0708                	addi	a0,sp,896
    34c4:	03c6                	slli	t2,t2,0x11
    34c6:	0000                	unimp
    34c8:	4104                	lw	s1,0(a0)
    34ca:	0005                	c.addi	zero,1
    34cc:	0100                	addi	s0,sp,128
    34ce:	00001d07          	0x1d07
    34d2:	0400                	addi	s0,sp,512
    34d4:	0511                	addi	a0,a0,4
    34d6:	0000                	unimp
    34d8:	2c02                	fld	fs8,0(sp)
    34da:	0055                	c.addi	zero,21
    34dc:	0000                	unimp
    34de:	2704                	fld	fs1,8(a4)
    34e0:	0006                	0x6
    34e2:	0200                	addi	s0,sp,256
    34e4:	5572                	lw	a0,60(sp)
    34e6:	0000                	unimp
    34e8:	0400                	addi	s0,sp,512
    34ea:	06fe                	slli	a3,a3,0x1f
    34ec:	0000                	unimp
    34ee:	9102                	jalr	sp
    34f0:	001d                	c.addi	zero,7
    34f2:	0000                	unimp
    34f4:	4205                	li	tp,1
    34f6:	0004                	addi	s1,sp,0
    34f8:	0300                	addi	s0,sp,384
    34fa:	0165                	addi	sp,sp,25
    34fc:	0024                	addi	s1,sp,8
    34fe:	0000                	unimp
    3500:	0406                	slli	s0,s0,0x1
    3502:	a602                	fsd	ft0,264(sp)
    3504:	00c1                	addi	ra,ra,16
    3506:	0000                	unimp
    3508:	00042d07          	flw	fs10,0(s0)
    350c:	0200                	addi	s0,sp,256
    350e:	96a8                	0x96a8
    3510:	0000                	unimp
    3512:	0700                	addi	s0,sp,896
    3514:	0398                	addi	a4,sp,448
    3516:	0000                	unimp
    3518:	a902                	fsd	ft0,144(sp)
    351a:	00c1                	addi	ra,ra,16
    351c:	0000                	unimp
    351e:	0800                	addi	s0,sp,16
    3520:	0040                	addi	s0,sp,4
    3522:	0000                	unimp
    3524:	00d1                	addi	ra,ra,20
    3526:	0000                	unimp
    3528:	2409                	jal	372a <matrix_mul_matrix_bitextract+0xe0>
    352a:	0000                	unimp
    352c:	0300                	addi	s0,sp,384
    352e:	0a00                	addi	s0,sp,272
    3530:	0208                	addi	a0,sp,256
    3532:	0000f2a3          	0xf2a3
    3536:	0b00                	addi	s0,sp,400
    3538:	0488                	addi	a0,sp,576
    353a:	0000                	unimp
    353c:	a502                	fsd	ft0,136(sp)
    353e:	001d                	c.addi	zero,7
    3540:	0000                	unimp
    3542:	0b00                	addi	s0,sp,400
    3544:	0619                	addi	a2,a2,6
    3546:	0000                	unimp
    3548:	aa02                	fsd	ft0,272(sp)
    354a:	00a2                	slli	ra,ra,0x8
    354c:	0000                	unimp
    354e:	0004                	addi	s1,sp,0
    3550:	3604                	fld	fs1,40(a2)
    3552:	0005                	c.addi	zero,1
    3554:	0200                	addi	s0,sp,256
    3556:	0000d1ab          	0xd1ab
    355a:	0400                	addi	s0,sp,512
    355c:	0590                	addi	a2,sp,704
    355e:	0000                	unimp
    3560:	af02                	fsd	ft0,408(sp)
    3562:	006a                	0x6a
    3564:	0000                	unimp
    3566:	040c                	addi	a1,sp,512
    3568:	a704                	fsd	fs1,8(a4)
    356a:	0006                	0x6
    356c:	0400                	addi	s0,sp,512
    356e:	5c16                	lw	s8,100(sp)
    3570:	0000                	unimp
    3572:	0d00                	addi	s0,sp,656
    3574:	04c1                	addi	s1,s1,16
    3576:	0000                	unimp
    3578:	0418                	addi	a4,sp,512
    357a:	0001682f          	0x1682f
    357e:	0b00                	addi	s0,sp,400
    3580:	07c0                	addi	s0,sp,964
    3582:	0000                	unimp
    3584:	3104                	fld	fs1,32(a0)
    3586:	0168                	addi	a0,sp,140
    3588:	0000                	unimp
    358a:	0e00                	addi	s0,sp,784
    358c:	6b5f 0400 1d32      	0x1d3204006b5f
    3592:	0000                	unimp
    3594:	0400                	addi	s0,sp,512
    3596:	0005f60b          	0x5f60b
    359a:	0400                	addi	s0,sp,512
    359c:	1d32                	slli	s10,s10,0x2c
    359e:	0000                	unimp
    35a0:	0800                	addi	s0,sp,16
    35a2:	00033c0b          	0x33c0b
    35a6:	0400                	addi	s0,sp,512
    35a8:	1d32                	slli	s10,s10,0x2c
    35aa:	0000                	unimp
    35ac:	0c00                	addi	s0,sp,528
    35ae:	0002c20b          	0x2c20b
    35b2:	0400                	addi	s0,sp,512
    35b4:	1d32                	slli	s10,s10,0x2c
    35b6:	0000                	unimp
    35b8:	1000                	addi	s0,sp,32
    35ba:	5f0e                	lw	t5,224(sp)
    35bc:	0078                	addi	a4,sp,12
    35be:	3304                	fld	fs1,32(a4)
    35c0:	016e                	slli	sp,sp,0x1b
    35c2:	0000                	unimp
    35c4:	0014                	addi	a3,sp,0
    35c6:	0115040f          	0x115040f
    35ca:	0000                	unimp
    35cc:	0a08                	addi	a0,sp,272
    35ce:	0001                	nop
    35d0:	7e00                	flw	fs0,56(a2)
    35d2:	0001                	nop
    35d4:	0900                	addi	s0,sp,144
    35d6:	0024                	addi	s1,sp,8
    35d8:	0000                	unimp
    35da:	0000                	unimp
    35dc:	7b0d                	lui	s6,0xfffe3
    35de:	24000003          	lb	zero,576(zero) # 240 <_start+0x40>
    35e2:	3704                	fld	fs1,40(a4)
    35e4:	000001f7          	0x1f7
    35e8:	0001930b          	0x1930b
    35ec:	0400                	addi	s0,sp,512
    35ee:	1d39                	addi	s10,s10,-18
    35f0:	0000                	unimp
    35f2:	0000                	unimp
    35f4:	00075c0b          	0x75c0b
    35f8:	0400                	addi	s0,sp,512
    35fa:	1d3a                	slli	s10,s10,0x2e
    35fc:	0000                	unimp
    35fe:	0400                	addi	s0,sp,512
    3600:	0002010b          	0x2010b
    3604:	0400                	addi	s0,sp,512
    3606:	00001d3b          	0x1d3b
    360a:	0800                	addi	s0,sp,16
    360c:	0007b10b          	0x7b10b
    3610:	0400                	addi	s0,sp,512
    3612:	1d3c                	addi	a5,sp,696
    3614:	0000                	unimp
    3616:	0c00                	addi	s0,sp,528
    3618:	0004eb0b          	0x4eb0b
    361c:	0400                	addi	s0,sp,512
    361e:	1d3d                	addi	s10,s10,-17
    3620:	0000                	unimp
    3622:	1000                	addi	s0,sp,32
    3624:	00047e0b          	0x47e0b
    3628:	0400                	addi	s0,sp,512
    362a:	1d3e                	slli	s10,s10,0x2f
    362c:	0000                	unimp
    362e:	1400                	addi	s0,sp,544
    3630:	0006e70b          	0x6e70b
    3634:	0400                	addi	s0,sp,512
    3636:	00001d3f 980b1800 	0x980b180000001d3f
    363e:	04000007          	0x4000007
    3642:	1d40                	addi	s0,sp,692
    3644:	0000                	unimp
    3646:	1c00                	addi	s0,sp,560
    3648:	0007420b          	0x7420b
    364c:	0400                	addi	s0,sp,512
    364e:	1d41                	addi	s10,s10,-16
    3650:	0000                	unimp
    3652:	2000                	fld	fs0,0(s0)
    3654:	1000                	addi	s0,sp,32
    3656:	021e                	slli	tp,tp,0x7
    3658:	0000                	unimp
    365a:	0108                	addi	a0,sp,128
    365c:	4a04                	lw	s1,16(a2)
    365e:	00000237          	lui	tp,0x0
    3662:	00032f0b          	0x32f0b
    3666:	0400                	addi	s0,sp,512
    3668:	0002374b          	fnmsub.s	fa4,ft4,ft0,ft0,rup
    366c:	0000                	unimp
    366e:	00056c0b          	0x56c0b
    3672:	0400                	addi	s0,sp,512
    3674:	374c                	fld	fa1,168(a4)
    3676:	0002                	0x2
    3678:	8000                	0x8000
    367a:	8b11                	andi	a4,a4,4
    367c:	0006                	0x6
    367e:	0400                	addi	s0,sp,512
    3680:	0a4e                	slli	s4,s4,0x13
    3682:	0001                	nop
    3684:	0000                	unimp
    3686:	1101                	addi	sp,sp,-32
    3688:	02ba                	slli	t0,t0,0xe
    368a:	0000                	unimp
    368c:	5104                	lw	s1,32(a0)
    368e:	010a                	slli	sp,sp,0x2
    3690:	0000                	unimp
    3692:	0104                	addi	s1,sp,128
    3694:	0800                	addi	s0,sp,16
    3696:	0108                	addi	a0,sp,128
    3698:	0000                	unimp
    369a:	00000247          	fmsub.s	ft4,ft0,ft0,ft0,rne
    369e:	2409                	jal	38a0 <iterate+0xc0>
    36a0:	0000                	unimp
    36a2:	1f00                	addi	s0,sp,944
    36a4:	1000                	addi	s0,sp,32
    36a6:	04f4                	addi	a3,sp,588
    36a8:	0000                	unimp
    36aa:	0190                	addi	a2,sp,192
    36ac:	5d04                	lw	s1,56(a0)
    36ae:	0285                	addi	t0,t0,1
    36b0:	0000                	unimp
    36b2:	0007c00b          	0x7c00b
    36b6:	0400                	addi	s0,sp,512
    36b8:	855e                	mv	a0,s7
    36ba:	0002                	0x2
    36bc:	0000                	unimp
    36be:	0005df0b          	0x5df0b
    36c2:	0400                	addi	s0,sp,512
    36c4:	1d5f 0000 0400      	0x40000001d5f
    36ca:	0003370b          	0x3370b
    36ce:	0400                	addi	s0,sp,512
    36d0:	8b61                	andi	a4,a4,24
    36d2:	0002                	0x2
    36d4:	0800                	addi	s0,sp,16
    36d6:	00021e0b          	0x21e0b
    36da:	0400                	addi	s0,sp,512
    36dc:	f762                	fsw	fs8,172(sp)
    36de:	0001                	nop
    36e0:	8800                	0x8800
    36e2:	0f00                	addi	s0,sp,912
    36e4:	4704                	lw	s1,8(a4)
    36e6:	0002                	0x2
    36e8:	0800                	addi	s0,sp,16
    36ea:	0000029b          	0x29b
    36ee:	0000029b          	0x29b
    36f2:	2409                	jal	38f4 <iterate+0x114>
    36f4:	0000                	unimp
    36f6:	1f00                	addi	s0,sp,944
    36f8:	0f00                	addi	s0,sp,912
    36fa:	a104                	fsd	fs1,0(a0)
    36fc:	0002                	0x2
    36fe:	1200                	addi	s0,sp,288
    3700:	aa0d                	j	3832 <iterate+0x52>
    3702:	08000007          	0x8000007
    3706:	7504                	flw	fs1,40(a0)
    3708:	000002c7          	fmsub.s	ft5,ft0,ft0,ft0,rne
    370c:	0001fb0b          	0x1fb0b
    3710:	0400                	addi	s0,sp,512
    3712:	c776                	sw	t4,140(sp)
    3714:	0002                	0x2
    3716:	0000                	unimp
    3718:	0006380b          	0x6380b
    371c:	0400                	addi	s0,sp,512
    371e:	00001d77          	0x1d77
    3722:	0400                	addi	s0,sp,512
    3724:	0f00                	addi	s0,sp,912
    3726:	4004                	lw	s1,0(s0)
    3728:	0000                	unimp
    372a:	0d00                	addi	s0,sp,656
    372c:	000005bb          	0x5bb
    3730:	0468                	addi	a0,sp,524
    3732:	f7b5                	bnez	a5,369e <matrix_mul_matrix_bitextract+0x54>
    3734:	0e000003          	lb	zero,224(zero) # e0 <buflen.1776+0xa0>
    3738:	705f 0400 c7b6      	0xc7b60400705f
    373e:	0002                	0x2
    3740:	0000                	unimp
    3742:	5f0e                	lw	t5,224(sp)
    3744:	0072                	0x72
    3746:	b704                	fsd	fs1,40(a4)
    3748:	001d                	c.addi	zero,7
    374a:	0000                	unimp
    374c:	0e04                	addi	s1,sp,784
    374e:	775f 0400 1db8      	0x1db80400775f
    3754:	0000                	unimp
    3756:	0800                	addi	s0,sp,16
    3758:	0002b30b          	0x2b30b
    375c:	0400                	addi	s0,sp,512
    375e:	47b9                	li	a5,14
    3760:	0000                	unimp
    3762:	0c00                	addi	s0,sp,528
    3764:	0003a70b          	0x3a70b
    3768:	0400                	addi	s0,sp,512
    376a:	47ba                	lw	a5,140(sp)
    376c:	0000                	unimp
    376e:	0e00                	addi	s0,sp,784
    3770:	5f0e                	lw	t5,224(sp)
    3772:	6662                	flw	fa2,24(sp)
    3774:	0400                	addi	s0,sp,512
    3776:	0002a2bb          	0x2a2bb
    377a:	1000                	addi	s0,sp,32
    377c:	0001430b          	0x1430b
    3780:	0400                	addi	s0,sp,512
    3782:	1dbc                	addi	a5,sp,760
    3784:	0000                	unimp
    3786:	1800                	addi	s0,sp,48
    3788:	0002a30b          	0x2a30b
    378c:	0400                	addi	s0,sp,512
    378e:	000108c3          	fmadd.s	fa7,ft2,ft0,ft0,rne
    3792:	1c00                	addi	s0,sp,560
    3794:	0005530b          	0x5530b
    3798:	0400                	addi	s0,sp,512
    379a:	64c5                	lui	s1,0x11
    379c:	0005                	c.addi	zero,1
    379e:	2000                	fld	fs0,0(s0)
    37a0:	0004770b          	0x4770b
    37a4:	0400                	addi	s0,sp,512
    37a6:	000593c7          	fmsub.s	ft7,fa1,ft0,ft0,rtz
    37aa:	2400                	fld	fs0,8(s0)
    37ac:	0006210b          	0x6210b
    37b0:	0400                	addi	s0,sp,512
    37b2:	b7ca                	fsd	fs2,488(sp)
    37b4:	0005                	c.addi	zero,1
    37b6:	2800                	fld	fs0,16(s0)
    37b8:	00019c0b          	0x19c0b
    37bc:	0400                	addi	s0,sp,512
    37be:	0005d1cb          	fnmsub.s	ft3,fa1,ft0,ft0,unknown
    37c2:	2c00                	fld	fs0,24(s0)
    37c4:	5f0e                	lw	t5,224(sp)
    37c6:	6275                	lui	tp,0x1d
    37c8:	0400                	addi	s0,sp,512
    37ca:	a2ce                	fsd	fs3,320(sp)
    37cc:	0002                	0x2
    37ce:	3000                	fld	fs0,32(s0)
    37d0:	5f0e                	lw	t5,224(sp)
    37d2:	7075                	0x7075
    37d4:	0400                	addi	s0,sp,512
    37d6:	0002c7cf          	fnmadd.s	fa5,ft5,ft0,ft0,rmm
    37da:	3800                	fld	fs0,48(s0)
    37dc:	5f0e                	lw	t5,224(sp)
    37de:	7275                	lui	tp,0xffffd
    37e0:	0400                	addi	s0,sp,512
    37e2:	1dd0                	addi	a2,sp,756
    37e4:	0000                	unimp
    37e6:	3c00                	fld	fs0,56(s0)
    37e8:	0001f50b          	0x1f50b
    37ec:	0400                	addi	s0,sp,512
    37ee:	0005d7d3          	fadd.s	fa5,fa1,ft0,unknown
    37f2:	4000                	lw	s0,0(s0)
    37f4:	00072a0b          	0x72a0b
    37f8:	0400                	addi	s0,sp,512
    37fa:	e7d4                	fsw	fa3,12(a5)
    37fc:	0005                	c.addi	zero,1
    37fe:	4300                	lw	s0,0(a4)
    3800:	5f0e                	lw	t5,224(sp)
    3802:	626c                	flw	fa1,68(a2)
    3804:	0400                	addi	s0,sp,512
    3806:	0002a2d7          	0x2a2d7
    380a:	4400                	lw	s0,8(s0)
    380c:	00062f0b          	0x62f0b
    3810:	0400                	addi	s0,sp,512
    3812:	1dda                	slli	s11,s11,0x36
    3814:	0000                	unimp
    3816:	4c00                	lw	s0,24(s0)
    3818:	0004b90b          	0x4b90b
    381c:	0400                	addi	s0,sp,512
    381e:	000075db          	0x75db
    3822:	5000                	lw	s0,32(s0)
    3824:	0000550b          	0x550b
    3828:	0400                	addi	s0,sp,512
    382a:	15de                	slli	a1,a1,0x37
    382c:	0004                	addi	s1,sp,0
    382e:	5400                	lw	s0,40(s0)
    3830:	0004490b          	0x4490b
    3834:	0400                	addi	s0,sp,512
    3836:	fde2                	fsw	fs8,248(sp)
    3838:	0000                	unimp
    383a:	5800                	lw	s0,48(s0)
    383c:	00038f0b          	0x38f0b
    3840:	0400                	addi	s0,sp,512
    3842:	f2e4                	fsw	fs1,100(a3)
    3844:	0000                	unimp
    3846:	5c00                	lw	s0,56(s0)
    3848:	0005990b          	0x5990b
    384c:	0400                	addi	s0,sp,512
    384e:	1de5                	addi	s11,s11,-7
    3850:	0000                	unimp
    3852:	6400                	flw	fs0,8(s0)
    3854:	1300                	addi	s0,sp,416
    3856:	0000008b          	0x8b
    385a:	0415                	addi	s0,s0,5
    385c:	0000                	unimp
    385e:	1514                	addi	a3,sp,672
    3860:	0004                	addi	s1,sp,0
    3862:	1400                	addi	s0,sp,544
    3864:	0108                	addi	a0,sp,128
    3866:	0000                	unimp
    3868:	5214                	lw	a3,32(a2)
    386a:	0005                	c.addi	zero,1
    386c:	1400                	addi	s0,sp,544
    386e:	001d                	c.addi	zero,7
    3870:	0000                	unimp
    3872:	0f00                	addi	s0,sp,912
    3874:	2004                	fld	fs1,0(s0)
    3876:	0004                	addi	s1,sp,0
    3878:	1500                	addi	s0,sp,672
    387a:	0415                	addi	s0,s0,5
    387c:	0000                	unimp
    387e:	fe16                	fsw	ft5,60(sp)
    3880:	0005                	c.addi	zero,1
    3882:	2800                	fld	fs0,16(s0)
    3884:	0404                	addi	s1,sp,512
    3886:	0239                	addi	tp,tp,14
    3888:	0552                	slli	a0,a0,0x14
    388a:	0000                	unimp
    388c:	00058917          	auipc	s2,0x58
    3890:	0400                	addi	s0,sp,512
    3892:	001d023b          	0x1d023b
    3896:	0000                	unimp
    3898:	1700                	addi	s0,sp,928
    389a:	000006f7          	0x6f7
    389e:	4004                	lw	s1,0(s0)
    38a0:	3e02                	fld	ft8,32(sp)
    38a2:	0006                	0x6
    38a4:	0400                	addi	s0,sp,512
    38a6:	0006df17          	auipc	t5,0x6d
    38aa:	0400                	addi	s0,sp,512
    38ac:	0240                	addi	s0,sp,260
    38ae:	063e                	slli	a2,a2,0xf
    38b0:	0000                	unimp
    38b2:	1708                	addi	a0,sp,928
    38b4:	0342                	slli	t1,t1,0x10
    38b6:	0000                	unimp
    38b8:	4004                	lw	s1,0(s0)
    38ba:	3e02                	fld	ft8,32(sp)
    38bc:	0006                	0x6
    38be:	0c00                	addi	s0,sp,528
    38c0:	0005da17          	auipc	s4,0x5d
    38c4:	0400                	addi	s0,sp,512
    38c6:	0242                	slli	tp,tp,0x10
    38c8:	001d                	c.addi	zero,7
    38ca:	0000                	unimp
    38cc:	1710                	addi	a2,sp,928
    38ce:	0024                	addi	s1,sp,8
    38d0:	0000                	unimp
    38d2:	4304                	lw	s1,0(a4)
    38d4:	2002                	fld	ft0,0(sp)
    38d6:	0008                	addi	a0,sp,0
    38d8:	1400                	addi	s0,sp,544
    38da:	00036217          	auipc	tp,0x36
    38de:	0400                	addi	s0,sp,512
    38e0:	0246                	slli	tp,tp,0x11
    38e2:	001d                	c.addi	zero,7
    38e4:	0000                	unimp
    38e6:	1730                	addi	a2,sp,936
    38e8:	05e4                	addi	s1,sp,716
    38ea:	0000                	unimp
    38ec:	4704                	lw	s1,8(a4)
    38ee:	3502                	fld	fa0,32(sp)
    38f0:	0008                	addi	a0,sp,0
    38f2:	3400                	fld	fs0,40(s0)
    38f4:	00050617          	auipc	a2,0x50
    38f8:	0400                	addi	s0,sp,512
    38fa:	0249                	addi	tp,tp,18
    38fc:	001d                	c.addi	zero,7
    38fe:	0000                	unimp
    3900:	1738                	addi	a4,sp,936
    3902:	05ec                	addi	a1,sp,716
    3904:	0000                	unimp
    3906:	4b04                	lw	s1,16(a4)
    3908:	4602                	lw	a2,0(sp)
    390a:	0008                	addi	a0,sp,0
    390c:	3c00                	fld	fs0,56(s0)
    390e:	00042517          	auipc	a0,0x42
    3912:	0400                	addi	s0,sp,512
    3914:	024e                	slli	tp,tp,0x13
    3916:	0168                	addi	a0,sp,140
    3918:	0000                	unimp
    391a:	1740                	addi	s0,sp,932
    391c:	02ce                	slli	t0,t0,0x13
    391e:	0000                	unimp
    3920:	4f04                	lw	s1,24(a4)
    3922:	1d02                	slli	s10,s10,0x20
    3924:	0000                	unimp
    3926:	4400                	lw	s0,8(s0)
    3928:	00079317          	auipc	t1,0x79
    392c:	0400                	addi	s0,sp,512
    392e:	0250                	addi	a2,sp,260
    3930:	0168                	addi	a0,sp,140
    3932:	0000                	unimp
    3934:	1748                	addi	a0,sp,932
    3936:	0522                	slli	a0,a0,0x8
    3938:	0000                	unimp
    393a:	5104                	lw	s1,32(a0)
    393c:	4c02                	lw	s8,0(sp)
    393e:	0008                	addi	a0,sp,0
    3940:	4c00                	lw	s0,24(s0)
    3942:	00039f17          	auipc	t5,0x39
    3946:	0400                	addi	s0,sp,512
    3948:	0254                	addi	a3,sp,260
    394a:	001d                	c.addi	zero,7
    394c:	0000                	unimp
    394e:	1750                	addi	a2,sp,932
    3950:	000002fb          	0x2fb
    3954:	5504                	lw	s1,40(a0)
    3956:	5202                	lw	tp,32(sp)
    3958:	0005                	c.addi	zero,1
    395a:	5400                	lw	s0,40(s0)
    395c:	00058217          	auipc	tp,0x58
    3960:	0400                	addi	s0,sp,512
    3962:	0278                	addi	a4,sp,268
    3964:	07fe                	slli	a5,a5,0x1f
    3966:	0000                	unimp
    3968:	1858                	addi	a4,sp,52
    396a:	04f4                	addi	a3,sp,588
    396c:	0000                	unimp
    396e:	7c04                	flw	fs1,56(s0)
    3970:	8502                	jr	a0
    3972:	0002                	0x2
    3974:	4800                	lw	s0,16(s0)
    3976:	1801                	addi	a6,a6,-32
    3978:	00000403          	lb	s0,0(zero) # 0 <buf.1775>
    397c:	7d04                	flw	fs1,56(a0)
    397e:	4702                	lw	a4,0(sp)
    3980:	0002                	0x2
    3982:	4c00                	lw	s0,24(s0)
    3984:	1801                	addi	a6,a6,-32
    3986:	0711                	addi	a4,a4,4
    3988:	0000                	unimp
    398a:	8104                	0x8104
    398c:	5d02                	lw	s10,32(sp)
    398e:	0008                	addi	a0,sp,0
    3990:	dc00                	sw	s0,56(s0)
    3992:	1802                	slli	a6,a6,0x20
    3994:	000002ab          	0x2ab
    3998:	8604                	0x8604
    399a:	0302                	slli	t1,t1,0x0
    399c:	0006                	0x6
    399e:	e000                	fsw	fs0,0(s0)
    39a0:	1802                	slli	a6,a6,0x20
    39a2:	0219                	addi	tp,tp,6
    39a4:	0000                	unimp
    39a6:	8704                	0x8704
    39a8:	6902                	flw	fs2,0(sp)
    39aa:	0008                	addi	a0,sp,0
    39ac:	ec00                	fsw	fs0,24(s0)
    39ae:	0002                	0x2
    39b0:	0558040f          	0x558040f
    39b4:	0000                	unimp
    39b6:	9d080103          	lb	sp,-1584(a6)
    39ba:	0006                	0x6
    39bc:	1500                	addi	s0,sp,672
    39be:	0558                	addi	a4,sp,644
    39c0:	0000                	unimp
    39c2:	03f7040f          	0x3f7040f
    39c6:	0000                	unimp
    39c8:	00008b13          	mv	s6,ra
    39cc:	8800                	0x8800
    39ce:	0005                	c.addi	zero,1
    39d0:	1400                	addi	s0,sp,544
    39d2:	0415                	addi	s0,s0,5
    39d4:	0000                	unimp
    39d6:	0814                	addi	a3,sp,16
    39d8:	0001                	nop
    39da:	1400                	addi	s0,sp,544
    39dc:	0588                	addi	a0,sp,704
    39de:	0000                	unimp
    39e0:	1d14                	addi	a3,sp,688
    39e2:	0000                	unimp
    39e4:	0000                	unimp
    39e6:	055f040f          	0x55f040f
    39ea:	0000                	unimp
    39ec:	8815                	andi	s0,s0,5
    39ee:	0005                	c.addi	zero,1
    39f0:	0f00                	addi	s0,sp,912
    39f2:	6a04                	flw	fs1,16(a2)
    39f4:	0005                	c.addi	zero,1
    39f6:	1300                	addi	s0,sp,416
    39f8:	0080                	addi	s0,sp,64
    39fa:	0000                	unimp
    39fc:	000005b7          	lui	a1,0x0
    3a00:	1514                	addi	a3,sp,672
    3a02:	0004                	addi	s1,sp,0
    3a04:	1400                	addi	s0,sp,544
    3a06:	0108                	addi	a0,sp,128
    3a08:	0000                	unimp
    3a0a:	8014                	0x8014
    3a0c:	0000                	unimp
    3a0e:	1400                	addi	s0,sp,544
    3a10:	001d                	c.addi	zero,7
    3a12:	0000                	unimp
    3a14:	0f00                	addi	s0,sp,912
    3a16:	9904                	0x9904
    3a18:	0005                	c.addi	zero,1
    3a1a:	1300                	addi	s0,sp,416
    3a1c:	001d                	c.addi	zero,7
    3a1e:	0000                	unimp
    3a20:	05d1                	addi	a1,a1,20
    3a22:	0000                	unimp
    3a24:	1514                	addi	a3,sp,672
    3a26:	0004                	addi	s1,sp,0
    3a28:	1400                	addi	s0,sp,544
    3a2a:	0108                	addi	a0,sp,128
    3a2c:	0000                	unimp
    3a2e:	0f00                	addi	s0,sp,912
    3a30:	bd04                	fsd	fs1,56(a0)
    3a32:	0005                	c.addi	zero,1
    3a34:	0800                	addi	s0,sp,16
    3a36:	0040                	addi	s0,sp,4
    3a38:	0000                	unimp
    3a3a:	000005e7          	jalr	a1,zero
    3a3e:	2409                	jal	3c40 <main+0x29a>
    3a40:	0000                	unimp
    3a42:	0200                	addi	s0,sp,256
    3a44:	0800                	addi	s0,sp,16
    3a46:	0040                	addi	s0,sp,4
    3a48:	0000                	unimp
    3a4a:	000005f7          	0x5f7
    3a4e:	2409                	jal	3c50 <main+0x2aa>
    3a50:	0000                	unimp
    3a52:	0000                	unimp
    3a54:	0500                	addi	s0,sp,640
    3a56:	000002c7          	fmsub.s	ft5,ft0,ft0,ft0,rne
    3a5a:	1f04                	addi	s1,sp,944
    3a5c:	cd01                	beqz	a0,3a74 <main+0xce>
    3a5e:	0002                	0x2
    3a60:	1900                	addi	s0,sp,176
    3a62:	06f1                	addi	a3,a3,28
    3a64:	0000                	unimp
    3a66:	040c                	addi	a1,sp,512
    3a68:	06380123          	sb	gp,98(a6)
    3a6c:	0000                	unimp
    3a6e:	0007c017          	auipc	zero,0x7c
    3a72:	0400                	addi	s0,sp,512
    3a74:	0125                	addi	sp,sp,9
    3a76:	0638                	addi	a4,sp,776
    3a78:	0000                	unimp
    3a7a:	1700                	addi	s0,sp,928
    3a7c:	000003bf 1d012604 	0x1d012604000003bf
    3a84:	0000                	unimp
    3a86:	0400                	addi	s0,sp,512
    3a88:	0005a117          	auipc	sp,0x5a
    3a8c:	0400                	addi	s0,sp,512
    3a8e:	063e0127          	0x63e0127
    3a92:	0000                	unimp
    3a94:	0008                	addi	a0,sp,0
    3a96:	0603040f          	0x603040f
    3a9a:	0000                	unimp
    3a9c:	05f7040f          	0x5f7040f
    3aa0:	0000                	unimp
    3aa2:	1c19                	addi	s8,s8,-26
    3aa4:	0000                	unimp
    3aa6:	0e00                	addi	s0,sp,784
    3aa8:	3f04                	fld	fs1,56(a4)
    3aaa:	7901                	lui	s2,0xfffe0
    3aac:	0006                	0x6
    3aae:	1700                	addi	s0,sp,928
    3ab0:	0000065b          	0x65b
    3ab4:	4004                	lw	s1,0(s0)
    3ab6:	7901                	lui	s2,0xfffe0
    3ab8:	0006                	0x6
    3aba:	0000                	unimp
    3abc:	00045417          	auipc	s0,0x45
    3ac0:	0400                	addi	s0,sp,512
    3ac2:	0141                	addi	sp,sp,16
    3ac4:	0679                	addi	a2,a2,30
    3ac6:	0000                	unimp
    3ac8:	1706                	slli	a4,a4,0x21
    3aca:	06a2                	slli	a3,a3,0x8
    3acc:	0000                	unimp
    3ace:	4204                	lw	s1,0(a2)
    3ad0:	4e01                	li	t3,0
    3ad2:	0000                	unimp
    3ad4:	0c00                	addi	s0,sp,528
    3ad6:	0800                	addi	s0,sp,16
    3ad8:	004e                	0x4e
    3ada:	0000                	unimp
    3adc:	0689                	addi	a3,a3,2
    3ade:	0000                	unimp
    3ae0:	2409                	jal	3ce2 <main+0x33c>
    3ae2:	0000                	unimp
    3ae4:	0200                	addi	s0,sp,256
    3ae6:	1a00                	addi	s0,sp,304
    3ae8:	04d0                	addi	a2,sp,580
    3aea:	0259                	addi	tp,tp,22
    3aec:	078a                	slli	a5,a5,0x2
    3aee:	0000                	unimp
    3af0:	00049017          	auipc	zero,0x49
    3af4:	0400                	addi	s0,sp,512
    3af6:	0024025b          	0x24025b
    3afa:	0000                	unimp
    3afc:	1700                	addi	s0,sp,928
    3afe:	00000677          	0x677
    3b02:	5c04                	lw	s1,56(s0)
    3b04:	5202                	lw	tp,32(sp)
    3b06:	0005                	c.addi	zero,1
    3b08:	0400                	addi	s0,sp,512
    3b0a:	00041817          	auipc	a6,0x41
    3b0e:	0400                	addi	s0,sp,512
    3b10:	025d                	addi	tp,tp,23
    3b12:	078a                	slli	a5,a5,0x2
    3b14:	0000                	unimp
    3b16:	1708                	addi	a0,sp,928
    3b18:	074d                	addi	a4,a4,19
    3b1a:	0000                	unimp
    3b1c:	5e04                	lw	s1,56(a2)
    3b1e:	7e02                	flw	ft8,32(sp)
    3b20:	0001                	nop
    3b22:	2400                	fld	fs0,8(s0)
    3b24:	00034a17          	auipc	s4,0x34
    3b28:	0400                	addi	s0,sp,512
    3b2a:	025f 001d 0000      	0x1d025f
    3b30:	1748                	addi	a0,sp,932
    3b32:	000007bb          	0x7bb
    3b36:	6004                	flw	fs1,0(s0)
    3b38:	6302                	flw	ft6,0(sp)
    3b3a:	0000                	unimp
    3b3c:	5000                	lw	s0,32(s0)
    3b3e:	00076517          	auipc	a0,0x76
    3b42:	0400                	addi	s0,sp,512
    3b44:	0261                	addi	tp,tp,24
    3b46:	0644                	addi	s1,sp,772
    3b48:	0000                	unimp
    3b4a:	1758                	addi	a4,sp,932
    3b4c:	05cd                	addi	a1,a1,19
    3b4e:	0000                	unimp
    3b50:	6204                	flw	fs1,0(a2)
    3b52:	f202                	fsw	ft0,36(sp)
    3b54:	0000                	unimp
    3b56:	6800                	flw	fs0,16(s0)
    3b58:	00078517          	auipc	a0,0x78
    3b5c:	0400                	addi	s0,sp,512
    3b5e:	00f20263          	beq	tp,a5,3b62 <main+0x1bc>
    3b62:	0000                	unimp
    3b64:	1770                	addi	a2,sp,940
    3b66:	0000020b          	0x20b
    3b6a:	6404                	flw	fs1,8(s0)
    3b6c:	f202                	fsw	ft0,36(sp)
    3b6e:	0000                	unimp
    3b70:	7800                	flw	fs0,48(s0)
    3b72:	00070717          	auipc	a4,0x70
    3b76:	0400                	addi	s0,sp,512
    3b78:	0265                	addi	tp,tp,25
    3b7a:	079a                	slli	a5,a5,0x6
    3b7c:	0000                	unimp
    3b7e:	1780                	addi	s0,sp,992
    3b80:	040c                	addi	a1,sp,512
    3b82:	0000                	unimp
    3b84:	6604                	flw	fs1,8(a2)
    3b86:	aa02                	fsd	ft0,272(sp)
    3b88:	88000007          	0x88000007
    3b8c:	00004817          	auipc	a6,0x4
    3b90:	0400                	addi	s0,sp,512
    3b92:	001d0267          	jalr	tp,1(s10) # 51001 <__C_STACK_TOP__+0x41001>
    3b96:	0000                	unimp
    3b98:	17a0                	addi	s0,sp,1000
    3b9a:	0314                	addi	a3,sp,384
    3b9c:	0000                	unimp
    3b9e:	6804                	flw	fs1,16(s0)
    3ba0:	f202                	fsw	ft0,36(sp)
    3ba2:	0000                	unimp
    3ba4:	a400                	fsd	fs0,8(s0)
    3ba6:	00017c17          	auipc	s8,0x17
    3baa:	0400                	addi	s0,sp,512
    3bac:	0269                	addi	tp,tp,26
    3bae:	00f2                	slli	ra,ra,0x1c
    3bb0:	0000                	unimp
    3bb2:	17ac                	addi	a1,sp,1000
    3bb4:	00000303          	lb	t1,0(zero) # 4caf0 <__C_STACK_TOP__+0x3caf0>
    3bb8:	6a04                	flw	fs1,16(a2)
    3bba:	f202                	fsw	ft0,36(sp)
    3bbc:	0000                	unimp
    3bbe:	b400                	fsd	fs0,40(s0)
    3bc0:	00005b17          	auipc	s6,0x5
    3bc4:	0400                	addi	s0,sp,512
    3bc6:	00f2026b          	0xf2026b
    3bca:	0000                	unimp
    3bcc:	17bc                	addi	a5,sp,1000
    3bce:	0128                	addi	a0,sp,136
    3bd0:	0000                	unimp
    3bd2:	6c04                	flw	fs1,24(s0)
    3bd4:	f202                	fsw	ft0,36(sp)
    3bd6:	0000                	unimp
    3bd8:	c400                	sw	s0,8(s0)
    3bda:	00058717          	auipc	a4,0x58
    3bde:	0400                	addi	s0,sp,512
    3be0:	026d                	addi	tp,tp,27
    3be2:	001d                	c.addi	zero,7
    3be4:	0000                	unimp
    3be6:	00cc                	addi	a1,sp,68
    3be8:	5808                	lw	a0,48(s0)
    3bea:	0005                	c.addi	zero,1
    3bec:	9a00                	0x9a00
    3bee:	09000007          	0x9000007
    3bf2:	0024                	addi	s1,sp,8
    3bf4:	0000                	unimp
    3bf6:	0019                	c.addi	zero,6
    3bf8:	5808                	lw	a0,48(s0)
    3bfa:	0005                	c.addi	zero,1
    3bfc:	aa00                	fsd	fs0,16(a2)
    3bfe:	09000007          	0x9000007
    3c02:	0024                	addi	s1,sp,8
    3c04:	0000                	unimp
    3c06:	58080007          	0x58080007
    3c0a:	0005                	c.addi	zero,1
    3c0c:	ba00                	fsd	fs0,48(a2)
    3c0e:	09000007          	0x9000007
    3c12:	0024                	addi	s1,sp,8
    3c14:	0000                	unimp
    3c16:	f01a0017          	auipc	zero,0xf01a0
    3c1a:	7204                	flw	fs1,32(a2)
    3c1c:	de02                	sw	zero,60(sp)
    3c1e:	17000007          	0x17000007
    3c22:	00000433          	add	s0,zero,zero
    3c26:	7504                	flw	fs1,40(a0)
    3c28:	de02                	sw	zero,60(sp)
    3c2a:	00000007          	0x7
    3c2e:	00035917          	auipc	s2,0x35
    3c32:	0400                	addi	s0,sp,512
    3c34:	0276                	slli	tp,tp,0x1d
    3c36:	07ee                	slli	a5,a5,0x1b
    3c38:	0000                	unimp
    3c3a:	0078                	addi	a4,sp,12
    3c3c:	c708                	sw	a0,8(a4)
    3c3e:	0002                	0x2
    3c40:	ee00                	fsw	fs0,24(a2)
    3c42:	09000007          	0x9000007
    3c46:	0024                	addi	s1,sp,8
    3c48:	0000                	unimp
    3c4a:	001d                	c.addi	zero,7
    3c4c:	2408                	fld	fa0,8(s0)
    3c4e:	0000                	unimp
    3c50:	fe00                	fsw	fs0,56(a2)
    3c52:	09000007          	0x9000007
    3c56:	0024                	addi	s1,sp,8
    3c58:	0000                	unimp
    3c5a:	001d                	c.addi	zero,7
    3c5c:	5704f01b          	0x5704f01b
    3c60:	2002                	fld	ft0,0(sp)
    3c62:	0008                	addi	a0,sp,0
    3c64:	1c00                	addi	s0,sp,560
    3c66:	05fe                	slli	a1,a1,0x1f
    3c68:	0000                	unimp
    3c6a:	6e04                	flw	fs1,24(a2)
    3c6c:	8902                	jr	s2
    3c6e:	0006                	0x6
    3c70:	1c00                	addi	s0,sp,560
    3c72:	0730                	addi	a2,sp,904
    3c74:	0000                	unimp
    3c76:	7704                	flw	fs1,40(a4)
    3c78:	ba02                	fsd	ft0,304(sp)
    3c7a:	00000007          	0x7
    3c7e:	5808                	lw	a0,48(s0)
    3c80:	0005                	c.addi	zero,1
    3c82:	3000                	fld	fs0,32(s0)
    3c84:	0008                	addi	a0,sp,0
    3c86:	0900                	addi	s0,sp,144
    3c88:	0024                	addi	s1,sp,8
    3c8a:	0000                	unimp
    3c8c:	0018                	addi	a4,sp,0
    3c8e:	711d                	addi	sp,sp,-96
    3c90:	0001                	nop
    3c92:	0f00                	addi	s0,sp,912
    3c94:	3004                	fld	fs1,32(s0)
    3c96:	0008                	addi	a0,sp,0
    3c98:	1e00                	addi	s0,sp,816
    3c9a:	0846                	slli	a6,a6,0x11
    3c9c:	0000                	unimp
    3c9e:	1514                	addi	a3,sp,672
    3ca0:	0004                	addi	s1,sp,0
    3ca2:	0000                	unimp
    3ca4:	083b040f          	0x83b040f
    3ca8:	0000                	unimp
    3caa:	0168040f          	0x168040f
    3cae:	0000                	unimp
    3cb0:	5d1e                	lw	s10,228(sp)
    3cb2:	0008                	addi	a0,sp,0
    3cb4:	1400                	addi	s0,sp,544
    3cb6:	001d                	c.addi	zero,7
    3cb8:	0000                	unimp
    3cba:	0f00                	addi	s0,sp,912
    3cbc:	6304                	flw	fs1,0(a4)
    3cbe:	0008                	addi	a0,sp,0
    3cc0:	0f00                	addi	s0,sp,912
    3cc2:	5204                	lw	s1,32(a2)
    3cc4:	0008                	addi	a0,sp,0
    3cc6:	0800                	addi	s0,sp,16
    3cc8:	000005f7          	0x5f7
    3ccc:	0879                	addi	a6,a6,30
    3cce:	0000                	unimp
    3cd0:	2409                	jal	3ed2 <main+0x52c>
    3cd2:	0000                	unimp
    3cd4:	0200                	addi	s0,sp,256
    3cd6:	1f00                	addi	s0,sp,944
    3cd8:	000006cb          	fnmsub.s	fa3,ft0,ft0,ft0,rne
    3cdc:	fe04                	fsw	fs1,56(a2)
    3cde:	1502                	slli	a0,a0,0x20
    3ce0:	0004                	addi	s1,sp,0
    3ce2:	1f00                	addi	s0,sp,944
    3ce4:	06c4                	addi	s1,sp,836
    3ce6:	0000                	unimp
    3ce8:	ff04                	fsw	fs1,56(a4)
    3cea:	1b02                	slli	s6,s6,0x20
    3cec:	0004                	addi	s1,sp,0
    3cee:	0800                	addi	s0,sp,16
    3cf0:	058e                	slli	a1,a1,0x3
    3cf2:	0000                	unimp
    3cf4:	089c                	addi	a5,sp,80
    3cf6:	0000                	unimp
    3cf8:	0020                	addi	s0,sp,8
    3cfa:	9115                	srli	a0,a0,0x25
    3cfc:	0008                	addi	a0,sp,0
    3cfe:	2100                	fld	fs0,0(a0)
    3d00:	02ee                	slli	t0,t0,0x1b
    3d02:	0000                	unimp
    3d04:	1405                	addi	s0,s0,-31
    3d06:	089c                	addi	a5,sp,80
    3d08:	0000                	unimp
    3d0a:	c321                	beqz	a4,3d4a <main+0x3a4>
    3d0c:	0005                	c.addi	zero,1
    3d0e:	0500                	addi	s0,sp,640
    3d10:	1d15                	addi	s10,s10,-27
    3d12:	0000                	unimp
    3d14:	0f00                	addi	s0,sp,912
    3d16:	bd04                	fsd	fs1,56(a0)
    3d18:	0008                	addi	a0,sp,0
    3d1a:	1300                	addi	s0,sp,416
    3d1c:	001d                	c.addi	zero,7
    3d1e:	0000                	unimp
    3d20:	08d1                	addi	a7,a7,20
    3d22:	0000                	unimp
    3d24:	d114                	sw	a3,32(a0)
    3d26:	0008                	addi	a0,sp,0
    3d28:	1400                	addi	s0,sp,544
    3d2a:	08d1                	addi	a7,a7,20
    3d2c:	0000                	unimp
    3d2e:	0f00                	addi	s0,sp,912
    3d30:	d704                	sw	s1,40(a4)
    3d32:	0008                	addi	a0,sp,0
    3d34:	2200                	fld	fs0,0(a2)
    3d36:	fc21                	bnez	s0,3c8e <main+0x2e8>
    3d38:	0004                	addi	s1,sp,0
    3d3a:	0600                	addi	s0,sp,768
    3d3c:	00055263          	bgez	a0,3d40 <main+0x39a>
    3d40:	2100                	fld	fs0,0(a0)
    3d42:	043a                	slli	s0,s0,0xe
    3d44:	0000                	unimp
    3d46:	08ee1007          	0x8ee1007
    3d4a:	0000                	unimp
    3d4c:	0552040f          	0x552040f
    3d50:	0000                	unimp
    3d52:	ff21                	bnez	a4,3caa <main+0x304>
    3d54:	0004                	addi	s1,sp,0
    3d56:	0700                	addi	s0,sp,896
    3d58:	52e2                	lw	t0,56(sp)
    3d5a:	0005                	c.addi	zero,1
    3d5c:	2100                	fld	fs0,0(a0)
    3d5e:	014c                	addi	a1,sp,132
    3d60:	0000                	unimp
    3d62:	001de307          	0x1de307
    3d66:	0000                	unimp
    3d68:	6121                	addi	sp,sp,64
    3d6a:	0006                	0x6
    3d6c:	0700                	addi	s0,sp,896
    3d6e:	00001de3          	bnez	zero,4588 <core_state_transition+0x24>
    3d72:	2100                	fld	fs0,0(a0)
    3d74:	0774                	addi	a3,sp,908
    3d76:	0000                	unimp
    3d78:	001de307          	0x1de307
    3d7c:	0000                	unimp
    3d7e:	6e21                	lui	t3,0x8
    3d80:	0004                	addi	s1,sp,0
    3d82:	0700                	addi	s0,sp,896
    3d84:	1de5                	addi	s11,s11,-7
    3d86:	0000                	unimp
    3d88:	2100                	fld	fs0,0(a0)
    3d8a:	052c                	addi	a1,sp,648
    3d8c:	0000                	unimp
    3d8e:	9a08                	0x9a08
    3d90:	0055                	c.addi	zero,21
    3d92:	0000                	unimp
    3d94:	2f21                	jal	44ac <core_init_state+0x120>
    3d96:	0000                	unimp
    3d98:	0800                	addi	s0,sp,16
    3d9a:	00001d9b          	0x1d9b
    3d9e:	0800                	addi	s0,sp,16
    3da0:	0552                	slli	a0,a0,0x14
    3da2:	0000                	unimp
    3da4:	0951                	addi	s2,s2,20
    3da6:	0000                	unimp
    3da8:	2409                	jal	3faa <main+0x604>
    3daa:	0000                	unimp
    3dac:	0100                	addi	s0,sp,128
    3dae:	2100                	fld	fs0,0(a0)
    3db0:	0000018b          	0x18b
    3db4:	9e08                	0x9e08
    3db6:	0941                	addi	s2,s2,16
    3db8:	0000                	unimp
    3dba:	ad04                	fsd	fs1,24(a0)
    3dbc:	09000003          	lb	zero,144(zero) # f01a3ca6 <__C_STACK_TOP__+0xf0193ca6>
    3dc0:	242a                	fld	fs0,136(sp)
    3dc2:	0000                	unimp
    3dc4:	0400                	addi	s0,sp,512
    3dc6:	05b1                	addi	a1,a1,12
    3dc8:	0000                	unimp
    3dca:	2f09                	jal	44dc <core_init_state+0x150>
    3dcc:	0972                	slli	s2,s2,0x1c
    3dce:	0000                	unimp
    3dd0:	0978040f          	0x978040f
    3dd4:	0000                	unimp
    3dd6:	00095c13          	srli	s8,s2,0x0
    3dda:	8700                	0x8700
    3ddc:	0009                	c.addi	zero,2
    3dde:	1400                	addi	s0,sp,544
    3de0:	08d1                	addi	a7,a7,20
    3de2:	0000                	unimp
    3de4:	0400                	addi	s0,sp,512
    3de6:	07c6                	slli	a5,a5,0x11
    3de8:	0000                	unimp
    3dea:	3609                	jal	38ec <iterate+0x10c>
    3dec:	000008b7          	lui	a7,0x0
    3df0:	0a21                	addi	s4,s4,8
    3df2:	0000                	unimp
    3df4:	0900                	addi	s0,sp,144
    3df6:	000967bb          	0x967bb
    3dfa:	2100                	fld	fs0,0(a0)
    3dfc:	000006af          	0x6af
    3e00:	be09                	j	3912 <iterate+0x132>
    3e02:	00000987          	0x987
    3e06:	00038023          	sb	zero,0(t2) # 0 <buf.1775>
    3e0a:	0700                	addi	s0,sp,896
    3e0c:	2404                	fld	fs1,8(s0)
    3e0e:	0000                	unimp
    3e10:	0a00                	addi	s0,sp,272
    3e12:	de18                	sw	a4,56(a2)
    3e14:	0009                	c.addi	zero,2
    3e16:	2400                	fld	fs0,8(s0)
    3e18:	0562                	slli	a0,a0,0x18
    3e1a:	0000                	unimp
    3e1c:	2400                	fld	fs0,8(s0)
    3e1e:	04d2                	slli	s1,s1,0x14
    3e20:	0000                	unimp
    3e22:	2401                	jal	4022 <crcu8+0x34>
    3e24:	049d                	addi	s1,s1,7
    3e26:	0000                	unimp
    3e28:	2402                	fld	fs0,0(sp)
    3e2a:	0559                	addi	a0,a0,22
    3e2c:	0000                	unimp
    3e2e:	077b2403          	lw	s0,119(s6) # 8c37 <__BSS_END__+0x25f7>
    3e32:	0000                	unimp
    3e34:	2404                	fld	fs1,8(s0)
    3e36:	076a                	slli	a4,a4,0x1a
    3e38:	0000                	unimp
    3e3a:	0005                	c.addi	zero,1
    3e3c:	6721                	lui	a4,0x8
    3e3e:	0001                	nop
    3e40:	0a00                	addi	s0,sp,272
    3e42:	a820                	fsd	fs0,80(s0)
    3e44:	0009                	c.addi	zero,2
    3e46:	2300                	fld	fs0,0(a4)
    3e48:	04a8                	addi	a0,sp,584
    3e4a:	0000                	unimp
    3e4c:	00240407          	0x240407
    3e50:	0000                	unimp
    3e52:	220a                	fld	ft4,128(sp)
    3e54:	0a0d                	addi	s4,s4,3
    3e56:	0000                	unimp
    3e58:	a724                	fsd	fs1,72(a4)
    3e5a:	0005                	c.addi	zero,1
    3e5c:	0000                	unimp
    3e5e:	7824                	flw	fs1,112(s0)
    3e60:	0005                	c.addi	zero,1
    3e62:	0100                	addi	s0,sp,128
    3e64:	8424                	0x8424
    3e66:	0006                	0x6
    3e68:	0200                	addi	s0,sp,256
    3e6a:	2100                	fld	fs0,0(a0)
    3e6c:	0322                	slli	t1,t1,0x8
    3e6e:	0000                	unimp
    3e70:	270a                	fld	fa4,128(sp)
    3e72:	09e9                	addi	s3,s3,26
    3e74:	0000                	unimp
    3e76:	5f21                	li	t5,-24
    3e78:	0004                	addi	s1,sp,0
    3e7a:	0b00                	addi	s0,sp,400
    3e7c:	9c25                	0x9c25
    3e7e:	0008                	addi	a0,sp,0
    3e80:	2100                	fld	fs0,0(a0)
    3e82:	0000064b          	fnmsub.s	fa2,ft0,ft0,ft0,rne
    3e86:	089c310b          	0x89c310b
    3e8a:	0000                	unimp
    3e8c:	a204                	fsd	fs1,0(a2)
    3e8e:	0c000007          	0xc000007
    3e92:	0000407b          	0x407b
    3e96:	1500                	addi	s0,sp,672
    3e98:	0a2e                	slli	s4,s4,0xb
    3e9a:	0000                	unimp
    3e9c:	e5040403          	lb	s0,-432(s0) # 4890c <__C_STACK_TOP__+0x3890c>
    3ea0:	0004                	addi	s1,sp,0
    3ea2:	0300                	addi	s0,sp,384
    3ea4:	0308                	addi	a0,sp,384
    3ea6:	04dd                	addi	s1,s1,23
    3ea8:	0000                	unimp
    3eaa:	60040803          	lb	a6,1536(s0)
    3eae:	0001                	nop
    3eb0:	0300                	addi	s0,sp,384
    3eb2:	0310                	addi	a2,sp,384
    3eb4:	0039                	c.addi	zero,14
    3eb6:	0000                	unimp
    3eb8:	53032003          	lw	zero,1328(t1) # 7ce58 <__C_STACK_TOP__+0x6ce58>
    3ebc:	0001                	nop
    3ebe:	0800                	addi	s0,sp,16
    3ec0:	0a39                	addi	s4,s4,14
    3ec2:	0000                	unimp
    3ec4:	0a71                	addi	s4,s4,28
    3ec6:	0000                	unimp
    3ec8:	2409                	jal	40ca <crcu8+0xdc>
    3eca:	0000                	unimp
    3ecc:	ff00                	fsw	fs0,56(a4)
    3ece:	1500                	addi	s0,sp,672
    3ed0:	0a61                	addi	s4,s4,24
    3ed2:	0000                	unimp
    3ed4:	1b1f 0007 0c00      	0xc0000071b1f
    3eda:	01fc                	addi	a5,sp,204
    3edc:	0a71                	addi	s4,s4,28
    3ede:	0000                	unimp
    3ee0:	f91f 0003 0c00      	0xc000003f91f
    3ee6:	0202                	slli	tp,tp,0x0
    3ee8:	0a71                	addi	s4,s4,28
    3eea:	0000                	unimp
    3eec:	8225                	srli	a2,a2,0x9
    3eee:	000a                	0xa
    3ef0:	0d00                	addi	s0,sp,656
    3ef2:	02b1                	addi	t0,t0,12
    3ef4:	0305                	addi	t1,t1,1
    3ef6:	5d0c                	lw	a1,56(a0)
    3ef8:	0000                	unimp
	...

Дизассемблирование раздела .debug_abbrev:

00000000 <.debug_abbrev>:
   0:	1101                	addi	sp,sp,-32
   2:	2501                	jal	602 <vprintfmt.constprop.0+0x18c>
   4:	130e                	slli	t1,t1,0x23
   6:	1b0e030b          	0x1b0e030b
   a:	110e                	slli	sp,sp,0x23
   c:	1201                	addi	tp,tp,-32
   e:	1006                	0x1006
  10:	02000017          	auipc	zero,0x2000
  14:	0024                	addi	s1,sp,8
  16:	0b3e0b0b          	0xb3e0b0b
  1a:	00000e03          	lb	t3,0(zero) # 2000010 <__C_STACK_TOP__+0x1ff0010>
  1e:	0b002403          	lw	s0,176(zero) # b0 <buflen.1776+0x70>
  22:	030b3e0b          	0x30b3e0b
  26:	0008                	addi	a0,sp,0
  28:	0400                	addi	s0,sp,512
  2a:	0016                	0x16
  2c:	0b3a0e03          	lb	t3,179(s4) # 37bd7 <__C_STACK_TOP__+0x27bd7>
  30:	13490b3b          	0x13490b3b
  34:	0000                	unimp
  36:	1605                	addi	a2,a2,-31
  38:	0300                	addi	s0,sp,384
  3a:	3a0e                	fld	fs4,224(sp)
  3c:	49053b0b          	0x49053b0b
  40:	06000013          	li	zero,96
  44:	0b0b0117          	auipc	sp,0xb0b0
  48:	0b3a                	slli	s6,s6,0xe
  4a:	13010b3b          	0x13010b3b
  4e:	0000                	unimp
  50:	03000d07          	0x3000d07
  54:	3a0e                	fld	fs4,224(sp)
  56:	490b3b0b          	0x490b3b0b
  5a:	08000013          	li	zero,128
  5e:	0101                	addi	sp,sp,0
  60:	1349                	addi	t1,t1,-14
  62:	1301                	addi	t1,t1,-32
  64:	0000                	unimp
  66:	2109                	jal	468 <STACK_SIZE+0x68>
  68:	4900                	lw	s0,16(a0)
  6a:	000b2f13          	slti	t5,s6,0
  6e:	0a00                	addi	s0,sp,272
  70:	0b0b0113          	addi	sp,s6,176
  74:	0b3a                	slli	s6,s6,0xe
  76:	13010b3b          	0x13010b3b
  7a:	0000                	unimp
  7c:	03000d0b          	0x3000d0b
  80:	3a0e                	fld	fs4,224(sp)
  82:	490b3b0b          	0x490b3b0b
  86:	000b3813          	sltiu	a6,s6,0
  8a:	0c00                	addi	s0,sp,528
  8c:	0b0b000f          	0xb0b000f
  90:	0000                	unimp
  92:	130d                	addi	t1,t1,-29
  94:	0301                	addi	t1,t1,0
  96:	0b0e                	slli	s6,s6,0x3
  98:	3b0b3a0b          	0x3b0b3a0b
  9c:	0013010b          	0x13010b
  a0:	0e00                	addi	s0,sp,784
  a2:	000d                	c.addi	zero,3
  a4:	0b3a0803          	lb	a6,179(s4)
  a8:	13490b3b          	0x13490b3b
  ac:	0b38                	addi	a4,sp,408
  ae:	0000                	unimp
  b0:	0b000f0f          	0xb000f0f
  b4:	0013490b          	0x13490b
  b8:	1000                	addi	s0,sp,32
  ba:	0e030113          	addi	sp,t1,224
  be:	0b3a050b          	0xb3a050b
  c2:	13010b3b          	0x13010b3b
  c6:	0000                	unimp
  c8:	0d11                	addi	s10,s10,4
  ca:	0300                	addi	s0,sp,384
  cc:	3a0e                	fld	fs4,224(sp)
  ce:	490b3b0b          	0x490b3b0b
  d2:	00053813          	sltiu	a6,a0,0
  d6:	1200                	addi	s0,sp,288
  d8:	0015                	c.addi	zero,5
  da:	00001927          	0x1927
  de:	27011513          	0x27011513
  e2:	4919                	li	s2,6
  e4:	00130113          	addi	sp,t1,1
  e8:	1400                	addi	s0,sp,544
  ea:	0005                	c.addi	zero,1
  ec:	1349                	addi	t1,t1,-14
  ee:	0000                	unimp
  f0:	2615                	jal	414 <STACK_SIZE+0x14>
  f2:	4900                	lw	s0,16(a0)
  f4:	16000013          	li	zero,352
  f8:	0e030113          	addi	sp,t1,224
  fc:	0b3a050b          	0xb3a050b
 100:	1301053b          	0x1301053b
 104:	0000                	unimp
 106:	03000d17          	auipc	s10,0x3000
 10a:	3a0e                	fld	fs4,224(sp)
 10c:	49053b0b          	0x49053b0b
 110:	000b3813          	sltiu	a6,s6,0
 114:	1800                	addi	s0,sp,48
 116:	000d                	c.addi	zero,3
 118:	0b3a0e03          	lb	t3,179(s4)
 11c:	1349053b          	0x1349053b
 120:	0538                	addi	a4,sp,648
 122:	0000                	unimp
 124:	1319                	addi	t1,t1,-26
 126:	0301                	addi	t1,t1,0
 128:	0b0e                	slli	s6,s6,0x3
 12a:	3b0b3a0b          	0x3b0b3a0b
 12e:	0105                	addi	sp,sp,1
 130:	1a000013          	li	zero,416
 134:	0b0b0113          	addi	sp,s6,176
 138:	0b3a                	slli	s6,s6,0xe
 13a:	1301053b          	0x1301053b
 13e:	0000                	unimp
 140:	0b01171b          	0xb01171b
 144:	3b0b3a0b          	0x3b0b3a0b
 148:	0105                	addi	sp,sp,1
 14a:	1c000013          	li	zero,448
 14e:	000d                	c.addi	zero,3
 150:	0b3a0e03          	lb	t3,179(s4)
 154:	1349053b          	0x1349053b
 158:	0000                	unimp
 15a:	131d                	addi	t1,t1,-25
 15c:	0300                	addi	s0,sp,384
 15e:	3c0e                	fld	fs8,224(sp)
 160:	0019                	c.addi	zero,6
 162:	1e00                	addi	s0,sp,816
 164:	0115                	addi	sp,sp,5
 166:	13011927          	0x13011927
 16a:	0000                	unimp
 16c:	341f 0300 3a0e      	0x3a0e0300341f
 172:	49053b0b          	0x49053b0b
 176:	3c193f13          	sltiu	t5,s2,961
 17a:	0019                	c.addi	zero,6
 17c:	2000                	fld	fs0,0(s0)
 17e:	0021                	c.addi	zero,8
 180:	0000                	unimp
 182:	3421                	jal	fffffb8a <__C_STACK_TOP__+0xfffefb8a>
 184:	0300                	addi	s0,sp,384
 186:	3a0e                	fld	fs4,224(sp)
 188:	490b3b0b          	0x490b3b0b
 18c:	3c193f13          	sltiu	t5,s2,961
 190:	0019                	c.addi	zero,6
 192:	2200                	fld	fs0,0(a2)
 194:	0026                	0x26
 196:	0000                	unimp
 198:	03010423          	sb	a6,40(sp) # b0b006c <__C_STACK_TOP__+0xb0a006c>
 19c:	3e0e                	fld	ft8,224(sp)
 19e:	490b0b0b          	0x490b0b0b
 1a2:	3b0b3a13          	sltiu	s4,s6,944
 1a6:	0013010b          	0x13010b
 1aa:	2400                	fld	fs0,8(s0)
 1ac:	0028                	addi	a0,sp,8
 1ae:	0b1c0e03          	lb	t3,177(s8) # 1ac57 <__C_STACK_TOP__+0xac57>
 1b2:	0000                	unimp
 1b4:	0d25                	addi	s10,s10,9
 1b6:	0300                	addi	s0,sp,384
 1b8:	3a08                	fld	fa0,48(a2)
 1ba:	49053b0b          	0x49053b0b
 1be:	000b3813          	sltiu	a6,s6,0
 1c2:	2600                	fld	fs0,8(a2)
 1c4:	000d                	c.addi	zero,3
 1c6:	0b3a0803          	lb	a6,179(s4)
 1ca:	1349053b          	0x1349053b
 1ce:	0000                	unimp
 1d0:	3f012e27          	fsw	fa6,1020(sp)
 1d4:	0319                	addi	t1,t1,6
 1d6:	3a0e                	fld	fs4,224(sp)
 1d8:	27053b0b          	0x27053b0b
 1dc:	4919                	li	s2,6
 1de:	12011113          	0x12011113
 1e2:	4006                	0x4006
 1e4:	9718                	0x9718
 1e6:	1942                	slli	s2,s2,0x30
 1e8:	1301                	addi	t1,t1,-32
 1ea:	0000                	unimp
 1ec:	0528                	addi	a0,sp,648
 1ee:	0300                	addi	s0,sp,384
 1f0:	3a08                	fld	fa0,48(a2)
 1f2:	49053b0b          	0x49053b0b
 1f6:	00170213          	addi	tp,a4,1 # 8001 <__BSS_END__+0x19c1>
 1fa:	2900                	fld	fs0,16(a0)
 1fc:	0034                	addi	a3,sp,8
 1fe:	0b3a0803          	lb	a6,179(s4)
 202:	1349053b          	0x1349053b
 206:	1702                	slli	a4,a4,0x20
 208:	0000                	unimp
 20a:	1d2a                	slli	s10,s10,0x2a
 20c:	3101                	jal	fffffe0c <__C_STACK_TOP__+0xfffefe0c>
 20e:	55015213          	0x55015213
 212:	590b5817          	auipc	a6,0x590b5
 216:	0005                	c.addi	zero,1
 218:	2b00                	fld	fs0,16(a4)
 21a:	0005                	c.addi	zero,1
 21c:	1331                	addi	t1,t1,-20
 21e:	1702                	slli	a4,a4,0x20
 220:	0000                	unimp
 222:	052c                	addi	a1,sp,648
 224:	3100                	fld	fs0,32(a0)
 226:	2d000013          	li	zero,720
 22a:	1755010b          	0x1755010b
 22e:	0000                	unimp
 230:	342e                	fld	fs0,232(sp)
 232:	3100                	fld	fs0,32(a0)
 234:	2f000013          	li	zero,752
 238:	0034                	addi	a3,sp,8
 23a:	1331                	addi	t1,t1,-20
 23c:	1702                	slli	a4,a4,0x20
 23e:	0000                	unimp
 240:	0b30                	addi	a2,sp,408
 242:	3101                	jal	fffffe42 <__C_STACK_TOP__+0xfffefe42>
 244:	01175513          	srli	a0,a4,0x11
 248:	31000013          	li	zero,784
 24c:	1331010b          	0x1331010b
 250:	0111                	addi	sp,sp,4
 252:	0612                	slli	a2,a2,0x4
 254:	1301                	addi	t1,t1,-32
 256:	0000                	unimp
 258:	0b32                	slli	s6,s6,0xc
 25a:	3101                	jal	fffffe5a <__C_STACK_TOP__+0xfffefe5a>
 25c:	12011113          	0x12011113
 260:	0006                	0x6
 262:	3300                	fld	fs0,32(a4)
 264:	0034                	addi	a3,sp,8
 266:	1331                	addi	t1,t1,-20
 268:	1802                	slli	a6,a6,0x20
 26a:	0000                	unimp
 26c:	2e34                	fld	fa3,88(a2)
 26e:	0301                	addi	t1,t1,0
 270:	3a0e                	fld	fs4,224(sp)
 272:	27053b0b          	0x27053b0b
 276:	4919                	li	s2,6
 278:	010b2013          	slti	zero,s6,16
 27c:	35000013          	li	zero,848
 280:	0005                	c.addi	zero,1
 282:	0b3a0803          	lb	a6,179(s4)
 286:	1349053b          	0x1349053b
 28a:	0000                	unimp
 28c:	3436                	fld	fs0,360(sp)
 28e:	0300                	addi	s0,sp,384
 290:	3a08                	fld	fa0,48(a2)
 292:	49053b0b          	0x49053b0b
 296:	37000013          	li	zero,880
 29a:	1301010b          	0x1301010b
 29e:	0000                	unimp
 2a0:	3438                	fld	fa4,104(s0)
 2a2:	0300                	addi	s0,sp,384
 2a4:	3a0e                	fld	fs4,224(sp)
 2a6:	49053b0b          	0x49053b0b
 2aa:	39000013          	li	zero,912
 2ae:	0000010b          	0x10b
 2b2:	0100                	addi	s0,sp,128
 2b4:	0111                	addi	sp,sp,4
 2b6:	0e25                	addi	t3,t3,9
 2b8:	0e030b13          	addi	s6,t1,224
 2bc:	01110e1b          	0x1110e1b
 2c0:	0612                	slli	a2,a2,0x4
 2c2:	1710                	addi	a2,sp,928
 2c4:	0000                	unimp
 2c6:	2402                	fld	fs0,0(sp)
 2c8:	0b00                	addi	s0,sp,400
 2ca:	030b3e0b          	0x30b3e0b
 2ce:	000e                	0xe
 2d0:	0300                	addi	s0,sp,384
 2d2:	0024                	addi	s1,sp,8
 2d4:	0b3e0b0b          	0xb3e0b0b
 2d8:	00000803          	lb	a6,0(zero) # 0 <buf.1775>
 2dc:	1604                	addi	s1,sp,800
 2de:	0300                	addi	s0,sp,384
 2e0:	3a0e                	fld	fs4,224(sp)
 2e2:	490b3b0b          	0x490b3b0b
 2e6:	05000013          	li	zero,80
 2ea:	0016                	0x16
 2ec:	0b3a0e03          	lb	t3,179(s4)
 2f0:	1349053b          	0x1349053b
 2f4:	0000                	unimp
 2f6:	1706                	slli	a4,a4,0x21
 2f8:	0b01                	addi	s6,s6,0
 2fa:	3b0b3a0b          	0x3b0b3a0b
 2fe:	0013010b          	0x13010b
 302:	0700                	addi	s0,sp,896
 304:	000d                	c.addi	zero,3
 306:	0b3a0e03          	lb	t3,179(s4)
 30a:	13490b3b          	0x13490b3b
 30e:	0000                	unimp
 310:	0108                	addi	a0,sp,128
 312:	4901                	li	s2,0
 314:	00130113          	addi	sp,t1,1
 318:	0900                	addi	s0,sp,144
 31a:	0021                	c.addi	zero,8
 31c:	1349                	addi	t1,t1,-14
 31e:	00000b2f          	0xb2f
 322:	130a                	slli	t1,t1,0x22
 324:	0b01                	addi	s6,s6,0
 326:	3b0b3a0b          	0x3b0b3a0b
 32a:	0013010b          	0x13010b
 32e:	0b00                	addi	s0,sp,400
 330:	000d                	c.addi	zero,3
 332:	0b3a0e03          	lb	t3,179(s4)
 336:	13490b3b          	0x13490b3b
 33a:	0b38                	addi	a4,sp,408
 33c:	0000                	unimp
 33e:	0f0c                	addi	a1,sp,912
 340:	0b00                	addi	s0,sp,400
 342:	0d00000b          	0xd00000b
 346:	0e030113          	addi	sp,t1,224
 34a:	0b3a0b0b          	0xb3a0b0b
 34e:	13010b3b          	0x13010b3b
 352:	0000                	unimp
 354:	0d0e                	slli	s10,s10,0x3
 356:	0300                	addi	s0,sp,384
 358:	3a08                	fld	fa0,48(a2)
 35a:	490b3b0b          	0x490b3b0b
 35e:	000b3813          	sltiu	a6,s6,0
 362:	0f00                	addi	s0,sp,912
 364:	0b0b000f          	0xb0b000f
 368:	1349                	addi	t1,t1,-14
 36a:	0000                	unimp
 36c:	1310                	addi	a2,sp,416
 36e:	0301                	addi	t1,t1,0
 370:	0b0e                	slli	s6,s6,0x3
 372:	3a05                	jal	fffffca2 <__C_STACK_TOP__+0xfffefca2>
 374:	010b3b0b          	0x10b3b0b
 378:	11000013          	li	zero,272
 37c:	000d                	c.addi	zero,3
 37e:	0b3a0e03          	lb	t3,179(s4)
 382:	13490b3b          	0x13490b3b
 386:	0538                	addi	a4,sp,648
 388:	0000                	unimp
 38a:	1512                	slli	a0,a0,0x24
 38c:	2700                	fld	fs0,8(a4)
 38e:	0019                	c.addi	zero,6
 390:	1300                	addi	s0,sp,416
 392:	0115                	addi	sp,sp,5
 394:	13491927          	0x13491927
 398:	1301                	addi	t1,t1,-32
 39a:	0000                	unimp
 39c:	0514                	addi	a3,sp,640
 39e:	4900                	lw	s0,16(a0)
 3a0:	15000013          	li	zero,336
 3a4:	0026                	0x26
 3a6:	1349                	addi	t1,t1,-14
 3a8:	0000                	unimp
 3aa:	1316                	slli	t1,t1,0x25
 3ac:	0301                	addi	t1,t1,0
 3ae:	0b0e                	slli	s6,s6,0x3
 3b0:	3a05                	jal	fffffce0 <__C_STACK_TOP__+0xfffefce0>
 3b2:	01053b0b          	0x1053b0b
 3b6:	17000013          	li	zero,368
 3ba:	000d                	c.addi	zero,3
 3bc:	0b3a0e03          	lb	t3,179(s4)
 3c0:	1349053b          	0x1349053b
 3c4:	0b38                	addi	a4,sp,408
 3c6:	0000                	unimp
 3c8:	0d18                	addi	a4,sp,656
 3ca:	0300                	addi	s0,sp,384
 3cc:	3a0e                	fld	fs4,224(sp)
 3ce:	49053b0b          	0x49053b0b
 3d2:	00053813          	sltiu	a6,a0,0
 3d6:	1900                	addi	s0,sp,176
 3d8:	0e030113          	addi	sp,t1,224
 3dc:	0b3a0b0b          	0xb3a0b0b
 3e0:	1301053b          	0x1301053b
 3e4:	0000                	unimp
 3e6:	131a                	slli	t1,t1,0x26
 3e8:	0b01                	addi	s6,s6,0
 3ea:	3b0b3a0b          	0x3b0b3a0b
 3ee:	0105                	addi	sp,sp,1
 3f0:	1b000013          	li	zero,432
 3f4:	0b0b0117          	auipc	sp,0xb0b0
 3f8:	0b3a                	slli	s6,s6,0xe
 3fa:	1301053b          	0x1301053b
 3fe:	0000                	unimp
 400:	0d1c                	addi	a5,sp,656
 402:	0300                	addi	s0,sp,384
 404:	3a0e                	fld	fs4,224(sp)
 406:	49053b0b          	0x49053b0b
 40a:	1d000013          	li	zero,464
 40e:	0e030013          	addi	zero,t1,224
 412:	193c                	addi	a5,sp,184
 414:	0000                	unimp
 416:	151e                	slli	a0,a0,0x27
 418:	2701                	jal	b18 <vprintfmt.constprop.0+0x6a2>
 41a:	0119                	addi	sp,sp,6
 41c:	1f000013          	li	zero,496
 420:	0034                	addi	a3,sp,8
 422:	0b3a0e03          	lb	t3,179(s4)
 426:	1349053b          	0x1349053b
 42a:	193c193f 21200000 	0x21200000193c193f
 432:	0000                	unimp
 434:	2100                	fld	fs0,0(a0)
 436:	0034                	addi	a3,sp,8
 438:	0b3a0e03          	lb	t3,179(s4)
 43c:	13490b3b          	0x13490b3b
 440:	193c193f 26220000 	0x26220000193c193f
 448:	0000                	unimp
 44a:	2300                	fld	fs0,0(a4)
 44c:	0104                	addi	s1,sp,128
 44e:	0b3e0e03          	lb	t3,179(t3) # 80b3 <__BSS_END__+0x1a73>
 452:	13490b0b          	0x13490b0b
 456:	0b3a                	slli	s6,s6,0xe
 458:	13010b3b          	0x13010b3b
 45c:	0000                	unimp
 45e:	2824                	fld	fs1,80(s0)
 460:	0300                	addi	s0,sp,384
 462:	1c0e                	slli	s8,s8,0x23
 464:	2500000b          	0x2500000b
 468:	000d                	c.addi	zero,3
 46a:	0b3a0803          	lb	a6,179(s4)
 46e:	1349053b          	0x1349053b
 472:	0b38                	addi	a4,sp,408
 474:	0000                	unimp
 476:	0d26                	slli	s10,s10,0x9
 478:	0300                	addi	s0,sp,384
 47a:	3a08                	fld	fa0,48(a2)
 47c:	49053b0b          	0x49053b0b
 480:	27000013          	li	zero,624
 484:	012e                	slli	sp,sp,0xb
 486:	0e03193f 053b0b3a 	0x53b0b3a0e03193f
 48e:	13491927          	0x13491927
 492:	0111                	addi	sp,sp,4
 494:	0612                	slli	a2,a2,0x4
 496:	1840                	addi	s0,sp,52
 498:	01194297          	auipc	t0,0x1194
 49c:	28000013          	li	zero,640
 4a0:	0005                	c.addi	zero,1
 4a2:	0b3a0803          	lb	a6,179(s4)
 4a6:	1349053b          	0x1349053b
 4aa:	1702                	slli	a4,a4,0x20
 4ac:	0000                	unimp
 4ae:	1d29                	addi	s10,s10,-22
 4b0:	3101                	jal	b0 <buflen.1776+0x70>
 4b2:	55015213          	0x55015213
 4b6:	590b5817          	auipc	a6,0x590b5
 4ba:	0005                	c.addi	zero,1
 4bc:	2a00                	fld	fs0,16(a2)
 4be:	0005                	c.addi	zero,1
 4c0:	1331                	addi	t1,t1,-20
 4c2:	1702                	slli	a4,a4,0x20
 4c4:	0000                	unimp
 4c6:	55010b2b          	0x55010b2b
 4ca:	2c000017          	auipc	zero,0x2c000
 4ce:	0034                	addi	a3,sp,8
 4d0:	1331                	addi	t1,t1,-20
 4d2:	0000                	unimp
 4d4:	342d                	jal	fffffefe <__C_STACK_TOP__+0xfffefefe>
 4d6:	3100                	fld	fs0,32(a0)
 4d8:	00170213          	addi	tp,a4,1
 4dc:	2e00                	fld	fs0,24(a2)
 4de:	1331010b          	0x1331010b
 4e2:	1755                	addi	a4,a4,-11
 4e4:	1301                	addi	t1,t1,-32
 4e6:	0000                	unimp
 4e8:	31010b2f          	0x31010b2f
 4ec:	12011113          	0x12011113
 4f0:	0106                	slli	sp,sp,0x1
 4f2:	30000013          	li	zero,768
 4f6:	1331010b          	0x1331010b
 4fa:	1755                	addi	a4,a4,-11
 4fc:	0000                	unimp
 4fe:	2e31                	jal	81a <vprintfmt.constprop.0+0x3a4>
 500:	0301                	addi	t1,t1,0
 502:	3a0e                	fld	fs4,224(sp)
 504:	27053b0b          	0x27053b0b
 508:	4919                	li	s2,6
 50a:	010b2013          	slti	zero,s6,16
 50e:	32000013          	li	zero,800
 512:	0005                	c.addi	zero,1
 514:	0b3a0803          	lb	a6,179(s4)
 518:	1349053b          	0x1349053b
 51c:	0000                	unimp
 51e:	03003433          	mulhu	s0,zero,a6
 522:	3a08                	fld	fa0,48(a2)
 524:	49053b0b          	0x49053b0b
 528:	34000013          	li	zero,832
 52c:	1301010b          	0x1301010b
 530:	0000                	unimp
 532:	3435                	jal	ffffff5e <__C_STACK_TOP__+0xfffeff5e>
 534:	0300                	addi	s0,sp,384
 536:	3a0e                	fld	fs4,224(sp)
 538:	49053b0b          	0x49053b0b
 53c:	36000013          	li	zero,864
 540:	0000010b          	0x10b
 544:	0100                	addi	s0,sp,128
 546:	0111                	addi	sp,sp,4
 548:	0e25                	addi	t3,t3,9
 54a:	0e030b13          	addi	s6,t1,224
 54e:	01110e1b          	0x1110e1b
 552:	0612                	slli	a2,a2,0x4
 554:	1710                	addi	a2,sp,928
 556:	0000                	unimp
 558:	2402                	fld	fs0,0(sp)
 55a:	0b00                	addi	s0,sp,400
 55c:	030b3e0b          	0x30b3e0b
 560:	000e                	0xe
 562:	0300                	addi	s0,sp,384
 564:	0024                	addi	s1,sp,8
 566:	0b3e0b0b          	0xb3e0b0b
 56a:	00000803          	lb	a6,0(zero) # 2c0004ca <__C_STACK_TOP__+0x2bff04ca>
 56e:	1604                	addi	s1,sp,800
 570:	0300                	addi	s0,sp,384
 572:	3a0e                	fld	fs4,224(sp)
 574:	490b3b0b          	0x490b3b0b
 578:	05000013          	li	zero,80
 57c:	0016                	0x16
 57e:	0b3a0e03          	lb	t3,179(s4)
 582:	1349053b          	0x1349053b
 586:	0000                	unimp
 588:	1706                	slli	a4,a4,0x21
 58a:	0b01                	addi	s6,s6,0
 58c:	3b0b3a0b          	0x3b0b3a0b
 590:	0013010b          	0x13010b
 594:	0700                	addi	s0,sp,896
 596:	000d                	c.addi	zero,3
 598:	0b3a0e03          	lb	t3,179(s4)
 59c:	13490b3b          	0x13490b3b
 5a0:	0000                	unimp
 5a2:	0108                	addi	a0,sp,128
 5a4:	4901                	li	s2,0
 5a6:	00130113          	addi	sp,t1,1
 5aa:	0900                	addi	s0,sp,144
 5ac:	0021                	c.addi	zero,8
 5ae:	1349                	addi	t1,t1,-14
 5b0:	00000b2f          	0xb2f
 5b4:	130a                	slli	t1,t1,0x22
 5b6:	0b01                	addi	s6,s6,0
 5b8:	3b0b3a0b          	0x3b0b3a0b
 5bc:	0013010b          	0x13010b
 5c0:	0b00                	addi	s0,sp,400
 5c2:	000d                	c.addi	zero,3
 5c4:	0b3a0e03          	lb	t3,179(s4)
 5c8:	13490b3b          	0x13490b3b
 5cc:	0b38                	addi	a4,sp,408
 5ce:	0000                	unimp
 5d0:	0f0c                	addi	a1,sp,912
 5d2:	0b00                	addi	s0,sp,400
 5d4:	0d00000b          	0xd00000b
 5d8:	0e030113          	addi	sp,t1,224
 5dc:	0b3a0b0b          	0xb3a0b0b
 5e0:	13010b3b          	0x13010b3b
 5e4:	0000                	unimp
 5e6:	0d0e                	slli	s10,s10,0x3
 5e8:	0300                	addi	s0,sp,384
 5ea:	3a08                	fld	fa0,48(a2)
 5ec:	490b3b0b          	0x490b3b0b
 5f0:	000b3813          	sltiu	a6,s6,0
 5f4:	0f00                	addi	s0,sp,912
 5f6:	0b0b000f          	0xb0b000f
 5fa:	1349                	addi	t1,t1,-14
 5fc:	0000                	unimp
 5fe:	1310                	addi	a2,sp,416
 600:	0301                	addi	t1,t1,0
 602:	0b0e                	slli	s6,s6,0x3
 604:	3a05                	jal	ffffff34 <__C_STACK_TOP__+0xfffeff34>
 606:	010b3b0b          	0x10b3b0b
 60a:	11000013          	li	zero,272
 60e:	000d                	c.addi	zero,3
 610:	0b3a0e03          	lb	t3,179(s4)
 614:	13490b3b          	0x13490b3b
 618:	0538                	addi	a4,sp,648
 61a:	0000                	unimp
 61c:	1512                	slli	a0,a0,0x24
 61e:	2700                	fld	fs0,8(a4)
 620:	0019                	c.addi	zero,6
 622:	1300                	addi	s0,sp,416
 624:	0115                	addi	sp,sp,5
 626:	13491927          	0x13491927
 62a:	1301                	addi	t1,t1,-32
 62c:	0000                	unimp
 62e:	0514                	addi	a3,sp,640
 630:	4900                	lw	s0,16(a0)
 632:	15000013          	li	zero,336
 636:	0026                	0x26
 638:	1349                	addi	t1,t1,-14
 63a:	0000                	unimp
 63c:	1316                	slli	t1,t1,0x25
 63e:	0301                	addi	t1,t1,0
 640:	0b0e                	slli	s6,s6,0x3
 642:	3a05                	jal	ffffff72 <__C_STACK_TOP__+0xfffeff72>
 644:	01053b0b          	0x1053b0b
 648:	17000013          	li	zero,368
 64c:	000d                	c.addi	zero,3
 64e:	0b3a0e03          	lb	t3,179(s4)
 652:	1349053b          	0x1349053b
 656:	0b38                	addi	a4,sp,408
 658:	0000                	unimp
 65a:	0d18                	addi	a4,sp,656
 65c:	0300                	addi	s0,sp,384
 65e:	3a0e                	fld	fs4,224(sp)
 660:	49053b0b          	0x49053b0b
 664:	00053813          	sltiu	a6,a0,0
 668:	1900                	addi	s0,sp,176
 66a:	0e030113          	addi	sp,t1,224
 66e:	0b3a0b0b          	0xb3a0b0b
 672:	1301053b          	0x1301053b
 676:	0000                	unimp
 678:	131a                	slli	t1,t1,0x26
 67a:	0b01                	addi	s6,s6,0
 67c:	3b0b3a0b          	0x3b0b3a0b
 680:	0105                	addi	sp,sp,1
 682:	1b000013          	li	zero,432
 686:	0b0b0117          	auipc	sp,0xb0b0
 68a:	0b3a                	slli	s6,s6,0xe
 68c:	1301053b          	0x1301053b
 690:	0000                	unimp
 692:	0d1c                	addi	a5,sp,656
 694:	0300                	addi	s0,sp,384
 696:	3a0e                	fld	fs4,224(sp)
 698:	49053b0b          	0x49053b0b
 69c:	1d000013          	li	zero,464
 6a0:	0e030013          	addi	zero,t1,224
 6a4:	193c                	addi	a5,sp,184
 6a6:	0000                	unimp
 6a8:	151e                	slli	a0,a0,0x27
 6aa:	2701                	jal	daa <calc_func+0xb6>
 6ac:	0119                	addi	sp,sp,6
 6ae:	1f000013          	li	zero,496
 6b2:	0034                	addi	a3,sp,8
 6b4:	0b3a0e03          	lb	t3,179(s4)
 6b8:	1349053b          	0x1349053b
 6bc:	193c193f 21200000 	0x21200000193c193f
 6c4:	0000                	unimp
 6c6:	2100                	fld	fs0,0(a0)
 6c8:	0034                	addi	a3,sp,8
 6ca:	0b3a0e03          	lb	t3,179(s4)
 6ce:	13490b3b          	0x13490b3b
 6d2:	193c193f 26220000 	0x26220000193c193f
 6da:	0000                	unimp
 6dc:	2300                	fld	fs0,0(a4)
 6de:	0104                	addi	s1,sp,128
 6e0:	0b3e0e03          	lb	t3,179(t3)
 6e4:	13490b0b          	0x13490b0b
 6e8:	0b3a                	slli	s6,s6,0xe
 6ea:	13010b3b          	0x13010b3b
 6ee:	0000                	unimp
 6f0:	2824                	fld	fs1,80(s0)
 6f2:	0300                	addi	s0,sp,384
 6f4:	1c0e                	slli	s8,s8,0x23
 6f6:	2500000b          	0x2500000b
 6fa:	000d                	c.addi	zero,3
 6fc:	0b3a0803          	lb	a6,179(s4)
 700:	1349053b          	0x1349053b
 704:	0b38                	addi	a4,sp,408
 706:	0000                	unimp
 708:	0d26                	slli	s10,s10,0x9
 70a:	0300                	addi	s0,sp,384
 70c:	3a08                	fld	fa0,48(a2)
 70e:	49053b0b          	0x49053b0b
 712:	27000013          	li	zero,624
 716:	012e                	slli	sp,sp,0xb
 718:	0e03193f 053b0b3a 	0x53b0b3a0e03193f
 720:	13491927          	0x13491927
 724:	0111                	addi	sp,sp,4
 726:	0612                	slli	a2,a2,0x4
 728:	1840                	addi	s0,sp,52
 72a:	01194297          	auipc	t0,0x1194
 72e:	28000013          	li	zero,640
 732:	0005                	c.addi	zero,1
 734:	0b3a0803          	lb	a6,179(s4)
 738:	1349053b          	0x1349053b
 73c:	1702                	slli	a4,a4,0x20
 73e:	0000                	unimp
 740:	3429                	jal	14a <SIM_STOP+0x52>
 742:	0300                	addi	s0,sp,384
 744:	3a08                	fld	fa0,48(a2)
 746:	49053b0b          	0x49053b0b
 74a:	00170213          	addi	tp,a4,1
 74e:	2a00                	fld	fs0,16(a2)
 750:	011d                	addi	sp,sp,7
 752:	1331                	addi	t1,t1,-20
 754:	0152                	slli	sp,sp,0x14
 756:	1755                	addi	a4,a4,-11
 758:	0b58                	addi	a4,sp,404
 75a:	0559                	addi	a0,a0,22
 75c:	0000                	unimp
 75e:	3100052b          	0x3100052b
 762:	00170213          	addi	tp,a4,1
 766:	2c00                	fld	fs0,24(s0)
 768:	1755010b          	0x1755010b
 76c:	0000                	unimp
 76e:	342d                	jal	198 <SIM_STOP+0xa0>
 770:	3100                	fld	fs0,32(a0)
 772:	2e000013          	li	zero,736
 776:	0034                	addi	a3,sp,8
 778:	1331                	addi	t1,t1,-20
 77a:	1702                	slli	a4,a4,0x20
 77c:	0000                	unimp
 77e:	31010b2f          	0x31010b2f
 782:	01175513          	srli	a0,a4,0x11
 786:	30000013          	li	zero,768
 78a:	1331010b          	0x1331010b
 78e:	0111                	addi	sp,sp,4
 790:	0612                	slli	a2,a2,0x4
 792:	1301                	addi	t1,t1,-32
 794:	0000                	unimp
 796:	0b31                	addi	s6,s6,12
 798:	3101                	jal	398 <printf_putch+0x28>
 79a:	12011113          	0x12011113
 79e:	0006                	0x6
 7a0:	3200                	fld	fs0,32(a2)
 7a2:	0034                	addi	a3,sp,8
 7a4:	1331                	addi	t1,t1,-20
 7a6:	1802                	slli	a6,a6,0x20
 7a8:	0000                	unimp
 7aa:	03012e33          	mulhsu	t3,sp,a6
 7ae:	3a0e                	fld	fs4,224(sp)
 7b0:	27053b0b          	0x27053b0b
 7b4:	4919                	li	s2,6
 7b6:	010b2013          	slti	zero,s6,16
 7ba:	34000013          	li	zero,832
 7be:	0005                	c.addi	zero,1
 7c0:	0b3a0803          	lb	a6,179(s4)
 7c4:	1349053b          	0x1349053b
 7c8:	0000                	unimp
 7ca:	3435                	jal	1f6 <machine_trap_entry+0x36>
 7cc:	0300                	addi	s0,sp,384
 7ce:	3a08                	fld	fa0,48(a2)
 7d0:	49053b0b          	0x49053b0b
 7d4:	36000013          	li	zero,864
 7d8:	1301010b          	0x1301010b
 7dc:	0000                	unimp
 7de:	03003437          	lui	s0,0x3003
 7e2:	3a0e                	fld	fs4,224(sp)
 7e4:	49053b0b          	0x49053b0b
 7e8:	38000013          	li	zero,896
 7ec:	0000010b          	0x10b
 7f0:	0100                	addi	s0,sp,128
 7f2:	0111                	addi	sp,sp,4
 7f4:	0e25                	addi	t3,t3,9
 7f6:	0e030b13          	addi	s6,t1,224
 7fa:	17100e1b          	0x17100e1b
 7fe:	0000                	unimp
 800:	2402                	fld	fs0,0(sp)
 802:	0b00                	addi	s0,sp,400
 804:	030b3e0b          	0x30b3e0b
 808:	0008                	addi	a0,sp,0
 80a:	0300                	addi	s0,sp,384
 80c:	0024                	addi	s1,sp,8
 80e:	0b3e0b0b          	0xb3e0b0b
 812:	00000e03          	lb	t3,0(zero) # 0 <buf.1775>
 816:	1604                	addi	s1,sp,800
 818:	0300                	addi	s0,sp,384
 81a:	3a0e                	fld	fs4,224(sp)
 81c:	490b3b0b          	0x490b3b0b
 820:	05000013          	li	zero,80
 824:	0016                	0x16
 826:	0b3a0e03          	lb	t3,179(s4)
 82a:	1349053b          	0x1349053b
 82e:	0000                	unimp
 830:	1706                	slli	a4,a4,0x21
 832:	0b01                	addi	s6,s6,0
 834:	3b0b3a0b          	0x3b0b3a0b
 838:	0013010b          	0x13010b
 83c:	0700                	addi	s0,sp,896
 83e:	000d                	c.addi	zero,3
 840:	0b3a0e03          	lb	t3,179(s4)
 844:	13490b3b          	0x13490b3b
 848:	0000                	unimp
 84a:	0108                	addi	a0,sp,128
 84c:	4901                	li	s2,0
 84e:	00130113          	addi	sp,t1,1
 852:	0900                	addi	s0,sp,144
 854:	0021                	c.addi	zero,8
 856:	1349                	addi	t1,t1,-14
 858:	00000b2f          	0xb2f
 85c:	130a                	slli	t1,t1,0x22
 85e:	0b01                	addi	s6,s6,0
 860:	3b0b3a0b          	0x3b0b3a0b
 864:	0013010b          	0x13010b
 868:	0b00                	addi	s0,sp,400
 86a:	000d                	c.addi	zero,3
 86c:	0b3a0e03          	lb	t3,179(s4)
 870:	13490b3b          	0x13490b3b
 874:	0b38                	addi	a4,sp,408
 876:	0000                	unimp
 878:	0f0c                	addi	a1,sp,912
 87a:	0b00                	addi	s0,sp,400
 87c:	0d00000b          	0xd00000b
 880:	0e030113          	addi	sp,t1,224
 884:	0b3a0b0b          	0xb3a0b0b
 888:	13010b3b          	0x13010b3b
 88c:	0000                	unimp
 88e:	0d0e                	slli	s10,s10,0x3
 890:	0300                	addi	s0,sp,384
 892:	3a08                	fld	fa0,48(a2)
 894:	490b3b0b          	0x490b3b0b
 898:	000b3813          	sltiu	a6,s6,0
 89c:	0f00                	addi	s0,sp,912
 89e:	0b0b000f          	0xb0b000f
 8a2:	1349                	addi	t1,t1,-14
 8a4:	0000                	unimp
 8a6:	1310                	addi	a2,sp,416
 8a8:	0301                	addi	t1,t1,0
 8aa:	0b0e                	slli	s6,s6,0x3
 8ac:	3a05                	jal	1dc <machine_trap_entry+0x1c>
 8ae:	010b3b0b          	0x10b3b0b
 8b2:	11000013          	li	zero,272
 8b6:	000d                	c.addi	zero,3
 8b8:	0b3a0e03          	lb	t3,179(s4)
 8bc:	13490b3b          	0x13490b3b
 8c0:	0538                	addi	a4,sp,648
 8c2:	0000                	unimp
 8c4:	1512                	slli	a0,a0,0x24
 8c6:	2700                	fld	fs0,8(a4)
 8c8:	0019                	c.addi	zero,6
 8ca:	1300                	addi	s0,sp,416
 8cc:	0115                	addi	sp,sp,5
 8ce:	13491927          	0x13491927
 8d2:	1301                	addi	t1,t1,-32
 8d4:	0000                	unimp
 8d6:	0514                	addi	a3,sp,640
 8d8:	4900                	lw	s0,16(a0)
 8da:	15000013          	li	zero,336
 8de:	0026                	0x26
 8e0:	1349                	addi	t1,t1,-14
 8e2:	0000                	unimp
 8e4:	1316                	slli	t1,t1,0x25
 8e6:	0301                	addi	t1,t1,0
 8e8:	0b0e                	slli	s6,s6,0x3
 8ea:	3a05                	jal	21a <_start+0x1a>
 8ec:	01053b0b          	0x1053b0b
 8f0:	17000013          	li	zero,368
 8f4:	000d                	c.addi	zero,3
 8f6:	0b3a0e03          	lb	t3,179(s4)
 8fa:	1349053b          	0x1349053b
 8fe:	0b38                	addi	a4,sp,408
 900:	0000                	unimp
 902:	0d18                	addi	a4,sp,656
 904:	0300                	addi	s0,sp,384
 906:	3a0e                	fld	fs4,224(sp)
 908:	49053b0b          	0x49053b0b
 90c:	00053813          	sltiu	a6,a0,0
 910:	1900                	addi	s0,sp,176
 912:	0e030113          	addi	sp,t1,224
 916:	0b3a0b0b          	0xb3a0b0b
 91a:	1301053b          	0x1301053b
 91e:	0000                	unimp
 920:	131a                	slli	t1,t1,0x26
 922:	0b01                	addi	s6,s6,0
 924:	3b0b3a0b          	0x3b0b3a0b
 928:	0105                	addi	sp,sp,1
 92a:	1b000013          	li	zero,432
 92e:	0b0b0117          	auipc	sp,0xb0b0
 932:	0b3a                	slli	s6,s6,0xe
 934:	1301053b          	0x1301053b
 938:	0000                	unimp
 93a:	0d1c                	addi	a5,sp,656
 93c:	0300                	addi	s0,sp,384
 93e:	3a0e                	fld	fs4,224(sp)
 940:	49053b0b          	0x49053b0b
 944:	1d000013          	li	zero,464
 948:	0e030013          	addi	zero,t1,224
 94c:	193c                	addi	a5,sp,184
 94e:	0000                	unimp
 950:	151e                	slli	a0,a0,0x27
 952:	2701                	jal	1052 <core_bench_list+0x20>
 954:	0119                	addi	sp,sp,6
 956:	1f000013          	li	zero,496
 95a:	0034                	addi	a3,sp,8
 95c:	0b3a0e03          	lb	t3,179(s4)
 960:	1349053b          	0x1349053b
 964:	193c193f 21200000 	0x21200000193c193f
 96c:	0000                	unimp
 96e:	2100                	fld	fs0,0(a0)
 970:	0034                	addi	a3,sp,8
 972:	0b3a0e03          	lb	t3,179(s4)
 976:	13490b3b          	0x13490b3b
 97a:	193c193f 26220000 	0x26220000193c193f
 982:	0000                	unimp
 984:	2300                	fld	fs0,0(a4)
 986:	0104                	addi	s1,sp,128
 988:	0b3e0e03          	lb	t3,179(t3)
 98c:	13490b0b          	0x13490b0b
 990:	0b3a                	slli	s6,s6,0xe
 992:	13010b3b          	0x13010b3b
 996:	0000                	unimp
 998:	2824                	fld	fs1,80(s0)
 99a:	0300                	addi	s0,sp,384
 99c:	1c0e                	slli	s8,s8,0x23
 99e:	2500000b          	0x2500000b
 9a2:	0034                	addi	a3,sp,8
 9a4:	0b3a1347          	fmsub.d	ft6,fs4,fs3,ft1,rtz
 9a8:	1802053b          	0x1802053b
 9ac:	0000                	unimp
	...

Дизассемблирование раздела .debug_loc:

00000000 <.debug_loc>:
       0:	0000                	unimp
       2:	0000                	unimp
       4:	000c                	addi	a1,sp,0
       6:	0000                	unimp
       8:	0006                	0x6
       a:	935a                	add	t1,t1,s6
       c:	5b04                	lw	s1,48(a4)
       e:	000c0493          	mv	s1,s8
      12:	0000                	unimp
      14:	0458                	addi	a4,sp,516
      16:	0000                	unimp
      18:	0006                	0x6
      1a:	0af503f3          	0xaf503f3
      1e:	9f2c                	0x9f2c
	...
      2c:	0024                	addi	s1,sp,8
      2e:	0000                	unimp
      30:	0006                	0x6
      32:	935c                	0x935c
      34:	5d04                	lw	s1,56(a0)
      36:	00240493          	addi	s1,s0,2 # 3003002 <__C_STACK_TOP__+0x2ff3002>
      3a:	0000                	unimp
      3c:	0458                	addi	a4,sp,516
      3e:	0000                	unimp
      40:	0006                	0x6
      42:	0cf503f3          	0xcf503f3
      46:	9f2c                	0x9f2c
	...
      54:	0008                	addi	a0,sp,0
      56:	0000                	unimp
      58:	0002                	0x2
      5a:	9f30                	0x9f30
      5c:	0008                	addi	a0,sp,0
      5e:	0000                	unimp
      60:	001c                	addi	a5,sp,0
      62:	0000                	unimp
      64:	ff090003          	lb	zero,-16(s2) # 38c1e <__C_STACK_TOP__+0x28c1e>
      68:	1c9f 0000 5800      	0x580000001c9f
      6e:	0004                	addi	s1,sp,0
      70:	0100                	addi	s0,sp,128
      72:	6100                	flw	fs0,0(a0)
	...
      80:	000c                	addi	a1,sp,0
      82:	0000                	unimp
      84:	0006                	0x6
      86:	935a                	add	t1,t1,s6
      88:	5b04                	lw	s1,48(a4)
      8a:	00180493          	addi	s1,a6,1 # 590b54b7 <__C_STACK_TOP__+0x590a54b7>
      8e:	0000                	unimp
      90:	001c                	addi	a5,sp,0
      92:	0000                	unimp
      94:	0006                	0x6
      96:	935a                	add	t1,t1,s6
      98:	5b04                	lw	s1,48(a4)
      9a:	00000493          	li	s1,0
	...
      a6:	0000                	unimp
      a8:	0024                	addi	s1,sp,8
      aa:	0000                	unimp
      ac:	0006                	0x6
      ae:	935c                	0x935c
      b0:	5d04                	lw	s1,56(a0)
      b2:	00300493          	li	s1,3
      b6:	0000                	unimp
      b8:	0048                	addi	a0,sp,4
      ba:	0000                	unimp
      bc:	0006                	0x6
      be:	935c                	0x935c
      c0:	5d04                	lw	s1,56(a0)
      c2:	00480493          	addi	s1,a6,4
      c6:	0000                	unimp
      c8:	0064                	addi	s1,sp,12
      ca:	0000                	unimp
      cc:	0006                	0x6
      ce:	935c                	0x935c
      d0:	5604                	lw	s1,40(a2)
      d2:	01280493          	addi	s1,a6,18
      d6:	0000                	unimp
      d8:	0130                	addi	a2,sp,136
      da:	0000                	unimp
      dc:	0006                	0x6
      de:	935c                	0x935c
      e0:	5604                	lw	s1,40(a2)
      e2:	013c0493          	addi	s1,s8,19
      e6:	0000                	unimp
      e8:	015c                	addi	a5,sp,132
      ea:	0000                	unimp
      ec:	0006                	0x6
      ee:	935c                	0x935c
      f0:	5604                	lw	s1,40(a2)
      f2:	01f00493          	li	s1,31
      f6:	0000                	unimp
      f8:	01f8                	addi	a4,sp,204
      fa:	0000                	unimp
      fc:	0006                	0x6
      fe:	935c                	0x935c
     100:	5604                	lw	s1,40(a2)
     102:	02900493          	li	s1,41
     106:	0000                	unimp
     108:	02a8                	addi	a0,sp,328
     10a:	0000                	unimp
     10c:	0006                	0x6
     10e:	935c                	0x935c
     110:	5604                	lw	s1,40(a2)
     112:	02a80493          	addi	s1,a6,42
     116:	0000                	unimp
     118:	02dc                	addi	a5,sp,324
     11a:	0000                	unimp
     11c:	0006                	0x6
     11e:	935c                	0x935c
     120:	5d04                	lw	s1,56(a0)
     122:	02f00493          	li	s1,47
     126:	0000                	unimp
     128:	02f4                	addi	a3,sp,332
     12a:	0000                	unimp
     12c:	0006                	0x6
     12e:	935c                	0x935c
     130:	5604                	lw	s1,40(a2)
     132:	02f40493          	addi	s1,s0,47
     136:	0000                	unimp
     138:	030c                	addi	a1,sp,384
     13a:	0000                	unimp
     13c:	0006                	0x6
     13e:	935c                	0x935c
     140:	5d04                	lw	s1,56(a0)
     142:	00000493          	li	s1,0
     146:	0000                	unimp
     148:	0000                	unimp
     14a:	0000                	unimp
     14c:	010c                	addi	a1,sp,128
     14e:	0000                	unimp
     150:	011c                	addi	a5,sp,128
     152:	0000                	unimp
     154:	0006                	0x6
     156:	935a                	add	t1,t1,s6
     158:	5b04                	lw	s1,48(a4)
     15a:	02ec0493          	addi	s1,s8,46
     15e:	0000                	unimp
     160:	02f0                	addi	a2,sp,332
     162:	0000                	unimp
     164:	0006                	0x6
     166:	935f 5e04 0493      	0x4935e04935f
     16c:	0454                	addi	a3,sp,516
     16e:	0000                	unimp
     170:	0458                	addi	a4,sp,516
     172:	0000                	unimp
     174:	0006                	0x6
     176:	935a                	add	t1,t1,s6
     178:	5b04                	lw	s1,48(a4)
     17a:	00000493          	li	s1,0
     17e:	0000                	unimp
     180:	0000                	unimp
     182:	0000                	unimp
     184:	0030                	addi	a2,sp,8
     186:	0000                	unimp
     188:	010c                	addi	a1,sp,128
     18a:	0000                	unimp
     18c:	0006                	0x6
     18e:	7cf2                	flw	fs9,60(sp)
     190:	0000000b          	0xb
     194:	0128                	addi	a0,sp,136
     196:	0000                	unimp
     198:	0458                	addi	a4,sp,516
     19a:	0000                	unimp
     19c:	0006                	0x6
     19e:	7cf2                	flw	fs9,60(sp)
     1a0:	0000000b          	0xb
	...
     1ac:	0030                	addi	a2,sp,8
     1ae:	0000                	unimp
     1b0:	0048                	addi	a0,sp,4
     1b2:	0000                	unimp
     1b4:	0006                	0x6
     1b6:	935c                	0x935c
     1b8:	5d04                	lw	s1,56(a0)
     1ba:	00480493          	addi	s1,a6,4
     1be:	0000                	unimp
     1c0:	0064                	addi	s1,sp,12
     1c2:	0000                	unimp
     1c4:	0006                	0x6
     1c6:	935c                	0x935c
     1c8:	5604                	lw	s1,40(a2)
     1ca:	01280493          	addi	s1,a6,18
     1ce:	0000                	unimp
     1d0:	0130                	addi	a2,sp,136
     1d2:	0000                	unimp
     1d4:	0006                	0x6
     1d6:	935c                	0x935c
     1d8:	5604                	lw	s1,40(a2)
     1da:	013c0493          	addi	s1,s8,19
     1de:	0000                	unimp
     1e0:	015c                	addi	a5,sp,132
     1e2:	0000                	unimp
     1e4:	0006                	0x6
     1e6:	935c                	0x935c
     1e8:	5604                	lw	s1,40(a2)
     1ea:	01f00493          	li	s1,31
     1ee:	0000                	unimp
     1f0:	01f8                	addi	a4,sp,204
     1f2:	0000                	unimp
     1f4:	0006                	0x6
     1f6:	935c                	0x935c
     1f8:	5604                	lw	s1,40(a2)
     1fa:	02900493          	li	s1,41
     1fe:	0000                	unimp
     200:	02a8                	addi	a0,sp,328
     202:	0000                	unimp
     204:	0006                	0x6
     206:	935c                	0x935c
     208:	5604                	lw	s1,40(a2)
     20a:	02a80493          	addi	s1,a6,42
     20e:	0000                	unimp
     210:	02dc                	addi	a5,sp,324
     212:	0000                	unimp
     214:	0006                	0x6
     216:	935c                	0x935c
     218:	5d04                	lw	s1,56(a0)
     21a:	02f00493          	li	s1,47
     21e:	0000                	unimp
     220:	02f4                	addi	a3,sp,332
     222:	0000                	unimp
     224:	0006                	0x6
     226:	935c                	0x935c
     228:	5604                	lw	s1,40(a2)
     22a:	02f40493          	addi	s1,s0,47
     22e:	0000                	unimp
     230:	030c                	addi	a1,sp,384
     232:	0000                	unimp
     234:	0006                	0x6
     236:	935c                	0x935c
     238:	5d04                	lw	s1,56(a0)
     23a:	00000493          	li	s1,0
     23e:	0000                	unimp
     240:	0000                	unimp
     242:	0000                	unimp
     244:	0034                	addi	a3,sp,8
     246:	0000                	unimp
     248:	008c                	addi	a1,sp,64
     24a:	0000                	unimp
     24c:	0001                	nop
     24e:	8c5c                	0x8c5c
     250:	0000                	unimp
     252:	0c00                	addi	s0,sp,528
     254:	0001                	nop
     256:	0100                	addi	s0,sp,128
     258:	6000                	flw	fs0,0(s0)
     25a:	0128                	addi	a0,sp,136
     25c:	0000                	unimp
     25e:	0148                	addi	a0,sp,132
     260:	0000                	unimp
     262:	0001                	nop
     264:	485c                	lw	a5,20(s0)
     266:	0001                	nop
     268:	9000                	0x9000
     26a:	0002                	0x2
     26c:	0100                	addi	s0,sp,128
     26e:	6000                	flw	fs0,0(s0)
     270:	0290                	addi	a2,sp,320
     272:	0000                	unimp
     274:	0424                	addi	s1,sp,520
     276:	0000                	unimp
     278:	0001                	nop
     27a:	005c                	addi	a5,sp,4
     27c:	0000                	unimp
     27e:	0000                	unimp
     280:	0000                	unimp
     282:	3800                	fld	fs0,48(s0)
     284:	0000                	unimp
     286:	4800                	lw	s0,16(s0)
     288:	0000                	unimp
     28a:	0100                	addi	s0,sp,128
     28c:	5d00                	lw	s0,56(a0)
     28e:	0048                	addi	a0,sp,4
     290:	0000                	unimp
     292:	0064                	addi	s1,sp,12
     294:	0000                	unimp
     296:	0001                	nop
     298:	2856                	fld	fa6,336(sp)
     29a:	0001                	nop
     29c:	3000                	fld	fs0,32(s0)
     29e:	0001                	nop
     2a0:	0100                	addi	s0,sp,128
     2a2:	5600                	lw	s0,40(a2)
     2a4:	013c                	addi	a5,sp,136
     2a6:	0000                	unimp
     2a8:	015c                	addi	a5,sp,132
     2aa:	0000                	unimp
     2ac:	0001                	nop
     2ae:	f056                	fsw	fs5,32(sp)
     2b0:	0001                	nop
     2b2:	f800                	fsw	fs0,48(s0)
     2b4:	0001                	nop
     2b6:	0100                	addi	s0,sp,128
     2b8:	5600                	lw	s0,40(a2)
     2ba:	0290                	addi	a2,sp,320
     2bc:	0000                	unimp
     2be:	02a8                	addi	a0,sp,328
     2c0:	0000                	unimp
     2c2:	0001                	nop
     2c4:	a856                	fsd	fs5,16(sp)
     2c6:	0002                	0x2
     2c8:	dc00                	sw	s0,56(s0)
     2ca:	0002                	0x2
     2cc:	0100                	addi	s0,sp,128
     2ce:	5d00                	lw	s0,56(a0)
     2d0:	02f0                	addi	a2,sp,332
     2d2:	0000                	unimp
     2d4:	02f4                	addi	a3,sp,332
     2d6:	0000                	unimp
     2d8:	0001                	nop
     2da:	f456                	fsw	fs5,40(sp)
     2dc:	0002                	0x2
     2de:	0c00                	addi	s0,sp,528
     2e0:	01000003          	lb	zero,16(zero) # 10 <buf.1775+0x10>
     2e4:	5d00                	lw	s0,56(a0)
     2e6:	0310                	addi	a2,sp,384
     2e8:	0000                	unimp
     2ea:	0458                	addi	a4,sp,516
     2ec:	0000                	unimp
     2ee:	0001                	nop
     2f0:	005d                	c.addi	zero,23
     2f2:	0000                	unimp
     2f4:	0000                	unimp
     2f6:	0000                	unimp
     2f8:	3c00                	fld	fs0,56(s0)
     2fa:	0000                	unimp
     2fc:	9400                	0x9400
     2fe:	0000                	unimp
     300:	0100                	addi	s0,sp,128
     302:	5a00                	lw	s0,48(a2)
     304:	0094                	addi	a3,sp,64
     306:	0000                	unimp
     308:	00d8                	addi	a4,sp,68
     30a:	0000                	unimp
     30c:	0001                	nop
     30e:	045f 0001 0c00      	0xc000001045f
     314:	0001                	nop
     316:	0100                	addi	s0,sp,128
     318:	5f00                	lw	s0,56(a4)
     31a:	0128                	addi	a0,sp,136
     31c:	0000                	unimp
     31e:	017c                	addi	a5,sp,140
     320:	0000                	unimp
     322:	0001                	nop
     324:	ec5a                	fsw	fs6,24(sp)
     326:	0001                	nop
     328:	f000                	fsw	fs0,32(s0)
     32a:	0001                	nop
     32c:	0100                	addi	s0,sp,128
     32e:	5f00                	lw	s0,56(a4)
     330:	01f0                	addi	a2,sp,204
     332:	0000                	unimp
     334:	0218                	addi	a4,sp,256
     336:	0000                	unimp
     338:	0001                	nop
     33a:	905a                	0x905a
     33c:	0002                	0x2
     33e:	e000                	fsw	fs0,0(s0)
     340:	0002                	0x2
     342:	0100                	addi	s0,sp,128
     344:	5a00                	lw	s0,48(a2)
     346:	02e4                	addi	s1,sp,332
     348:	0000                	unimp
     34a:	02f0                	addi	a2,sp,332
     34c:	0000                	unimp
     34e:	0001                	nop
     350:	f05f 0002 3c00      	0x3c000002f05f
     356:	0004                	addi	s1,sp,0
     358:	0100                	addi	s0,sp,128
     35a:	5a00                	lw	s0,48(a2)
     35c:	0444                	addi	s1,sp,516
     35e:	0000                	unimp
     360:	044c                	addi	a1,sp,516
     362:	0000                	unimp
     364:	0001                	nop
     366:	005e                	0x5e
     368:	0000                	unimp
     36a:	0000                	unimp
     36c:	0000                	unimp
     36e:	9000                	0x9000
     370:	0000                	unimp
     372:	ac00                	fsd	fs0,24(s0)
     374:	0000                	unimp
     376:	0100                	addi	s0,sp,128
     378:	5e00                	lw	s0,56(a2)
     37a:	017c                	addi	a5,sp,140
     37c:	0000                	unimp
     37e:	0194                	addi	a3,sp,192
     380:	0000                	unimp
     382:	0001                	nop
     384:	0002245b          	0x2245b
     388:	6000                	flw	fs0,0(s0)
     38a:	0002                	0x2
     38c:	0100                	addi	s0,sp,128
     38e:	6c00                	flw	fs0,24(s0)
     390:	028c                	addi	a1,sp,320
     392:	0000                	unimp
     394:	0290                	addi	a2,sp,320
     396:	0000                	unimp
     398:	0001                	nop
     39a:	0002e45b          	0x2e45b
     39e:	f000                	fsw	fs0,32(s0)
     3a0:	0002                	0x2
     3a2:	0100                	addi	s0,sp,128
     3a4:	5e00                	lw	s0,56(a2)
     3a6:	0338                	addi	a4,sp,392
     3a8:	0000                	unimp
     3aa:	0390                	addi	a2,sp,448
     3ac:	0000                	unimp
     3ae:	0001                	nop
     3b0:	c45e                	sw	s7,8(sp)
     3b2:	44000003          	lb	zero,1088(zero) # 440 <STACK_SIZE+0x40>
     3b6:	0004                	addi	s1,sp,0
     3b8:	0100                	addi	s0,sp,128
     3ba:	6e00                	flw	fs0,24(a2)
     3bc:	0444                	addi	s1,sp,516
     3be:	0000                	unimp
     3c0:	0454                	addi	a3,sp,516
     3c2:	0000                	unimp
     3c4:	0001                	nop
     3c6:	0000005b          	0x5b
     3ca:	0000                	unimp
     3cc:	0000                	unimp
     3ce:	0c00                	addi	s0,sp,528
     3d0:	0002                	0x2
     3d2:	9000                	0x9000
     3d4:	0002                	0x2
     3d6:	0100                	addi	s0,sp,128
     3d8:	6d00                	flw	fs0,24(a0)
     3da:	0338                	addi	a4,sp,392
     3dc:	0000                	unimp
     3de:	0340                	addi	s0,sp,388
     3e0:	0000                	unimp
     3e2:	0001                	nop
     3e4:	005f 0000 0000      	0x5f
     3ea:	0000                	unimp
     3ec:	d400                	sw	s0,40(s0)
     3ee:	0002                	0x2
     3f0:	e400                	fsw	fs0,8(s0)
     3f2:	0002                	0x2
     3f4:	0200                	addi	s0,sp,256
     3f6:	3100                	fld	fs0,32(a0)
     3f8:	009f 0000 0000      	0x9f
     3fe:	0000                	unimp
     400:	e400                	fsw	fs0,8(s0)
     402:	0002                	0x2
     404:	f000                	fsw	fs0,32(s0)
     406:	0002                	0x2
     408:	0200                	addi	s0,sp,256
     40a:	3000                	fld	fs0,32(s0)
     40c:	349f 0004 5800      	0x58000004349f
     412:	0004                	addi	s1,sp,0
     414:	0200                	addi	s0,sp,256
     416:	3000                	fld	fs0,32(s0)
     418:	009f 0000 0000      	0x9f
     41e:	0000                	unimp
     420:	0400                	addi	s0,sp,512
     422:	0002                	0x2
     424:	1400                	addi	s0,sp,544
     426:	0002                	0x2
     428:	0100                	addi	s0,sp,128
     42a:	6c00                	flw	fs0,24(s0)
     42c:	0304                	addi	s1,sp,384
     42e:	0000                	unimp
     430:	0458                	addi	a4,sp,516
     432:	0000                	unimp
     434:	0001                	nop
     436:	006d                	c.addi	zero,27
     438:	0000                	unimp
     43a:	0000                	unimp
     43c:	0000                	unimp
     43e:	7c00                	flw	fs0,56(s0)
     440:	0000                	unimp
     442:	0c00                	addi	s0,sp,528
     444:	0001                	nop
     446:	0100                	addi	s0,sp,128
     448:	5600                	lw	s0,40(a2)
     44a:	0174                	addi	a3,sp,140
     44c:	0000                	unimp
     44e:	01f0                	addi	a2,sp,204
     450:	0000                	unimp
     452:	0001                	nop
     454:	0456                	slli	s0,s0,0x15
     456:	0002                	0x2
     458:	9000                	0x9000
     45a:	0002                	0x2
     45c:	0100                	addi	s0,sp,128
     45e:	5600                	lw	s0,40(a2)
     460:	02c8                	addi	a0,sp,324
     462:	0000                	unimp
     464:	02f0                	addi	a2,sp,332
     466:	0000                	unimp
     468:	0001                	nop
     46a:	046c                	addi	a1,sp,524
     46c:	58000003          	lb	zero,1408(zero) # 580 <vprintfmt.constprop.0+0x10a>
     470:	0004                	addi	s1,sp,0
     472:	0100                	addi	s0,sp,128
     474:	6c00                	flw	fs0,24(s0)
	...
     47e:	0050                	addi	a2,sp,4
     480:	0000                	unimp
     482:	009c                	addi	a5,sp,64
     484:	0000                	unimp
     486:	0001                	nop
     488:	285c                	fld	fa5,144(s0)
     48a:	0001                	nop
     48c:	3c00                	fld	fs0,56(s0)
     48e:	0001                	nop
     490:	0100                	addi	s0,sp,128
     492:	5c00                	lw	s0,56(s0)
	...
     49c:	0064                	addi	s1,sp,12
     49e:	0000                	unimp
     4a0:	0078                	addi	a4,sp,12
     4a2:	0000                	unimp
     4a4:	0001                	nop
     4a6:	0056                	0x56
     4a8:	0000                	unimp
     4aa:	0000                	unimp
     4ac:	0000                	unimp
     4ae:	9800                	0x9800
     4b0:	0000                	unimp
     4b2:	0400                	addi	s0,sp,512
     4b4:	0001                	nop
     4b6:	0100                	addi	s0,sp,128
     4b8:	5b00                	lw	s0,48(a4)
	...
     4c2:	00a4                	addi	s1,sp,72
     4c4:	0000                	unimp
     4c6:	00e8                	addi	a0,sp,76
     4c8:	0000                	unimp
     4ca:	0001                	nop
     4cc:	e85a                	fsw	fs6,16(sp)
     4ce:	0000                	unimp
     4d0:	0400                	addi	s0,sp,512
     4d2:	0001                	nop
     4d4:	0700                	addi	s0,sp,896
     4d6:	8000                	0x8000
     4d8:	4000                	lw	s0,0(s0)
     4da:	4024                	lw	s1,64(s0)
     4dc:	9f25                	0x9f25
	...
     4e6:	00e0                	addi	s0,sp,76
     4e8:	0000                	unimp
     4ea:	00e4                	addi	s1,sp,76
     4ec:	0000                	unimp
     4ee:	0001                	nop
     4f0:	005d                	c.addi	zero,23
     4f2:	0000                	unimp
     4f4:	0000                	unimp
     4f6:	0000                	unimp
     4f8:	a400                	fsd	fs0,8(s0)
     4fa:	0000                	unimp
     4fc:	b000                	fsd	fs0,32(s0)
     4fe:	0000                	unimp
     500:	0100                	addi	s0,sp,128
     502:	5c00                	lw	s0,56(s0)
     504:	00b8                	addi	a4,sp,72
     506:	0000                	unimp
     508:	00e0                	addi	s0,sp,76
     50a:	0000                	unimp
     50c:	0001                	nop
     50e:	005d                	c.addi	zero,23
     510:	0000                	unimp
     512:	0000                	unimp
     514:	0000                	unimp
     516:	d400                	sw	s0,40(s0)
     518:	0000                	unimp
     51a:	ec00                	fsw	fs0,24(s0)
     51c:	0000                	unimp
     51e:	0100                	addi	s0,sp,128
     520:	5e00                	lw	s0,56(a2)
     522:	00ec                	addi	a1,sp,76
     524:	0000                	unimp
     526:	0104                	addi	s1,sp,128
     528:	0000                	unimp
     52a:	0001                	nop
     52c:	005f 0000 0000      	0x5f
     532:	0000                	unimp
     534:	b800                	fsd	fs0,48(s0)
     536:	0000                	unimp
     538:	d400                	sw	s0,40(s0)
     53a:	0000                	unimp
     53c:	0100                	addi	s0,sp,128
     53e:	5e00                	lw	s0,56(a2)
     540:	00e4                	addi	s1,sp,76
     542:	0000                	unimp
     544:	0104                	addi	s1,sp,128
     546:	0000                	unimp
     548:	0001                	nop
     54a:	005d                	c.addi	zero,23
     54c:	0000                	unimp
     54e:	0000                	unimp
     550:	0000                	unimp
     552:	4800                	lw	s0,16(s0)
     554:	0001                	nop
     556:	7c00                	flw	fs0,56(s0)
     558:	0001                	nop
     55a:	0100                	addi	s0,sp,128
     55c:	6000                	flw	fs0,0(s0)
     55e:	01f0                	addi	a2,sp,204
     560:	0000                	unimp
     562:	0208                	addi	a0,sp,256
     564:	0000                	unimp
     566:	0001                	nop
     568:	0060                	addi	s0,sp,12
     56a:	0000                	unimp
     56c:	0000                	unimp
     56e:	0000                	unimp
     570:	5c00                	lw	s0,56(s0)
     572:	0001                	nop
     574:	7000                	flw	fs0,32(s0)
     576:	0001                	nop
     578:	0100                	addi	s0,sp,128
     57a:	5600                	lw	s0,40(a2)
	...
     584:	0180                	addi	s0,sp,192
     586:	0000                	unimp
     588:	01f0                	addi	a2,sp,204
     58a:	0000                	unimp
     58c:	0001                	nop
     58e:	005d                	c.addi	zero,23
     590:	0000                	unimp
     592:	0000                	unimp
     594:	0000                	unimp
     596:	8800                	0x8800
     598:	0001                	nop
     59a:	d000                	sw	s0,32(s0)
     59c:	0001                	nop
     59e:	0100                	addi	s0,sp,128
     5a0:	5a00                	lw	s0,48(a2)
     5a2:	01d0                	addi	a2,sp,196
     5a4:	0000                	unimp
     5a6:	01f0                	addi	a2,sp,204
     5a8:	0000                	unimp
     5aa:	00800007          	0x800007
     5ae:	2440                	fld	fs0,136(s0)
     5b0:	2540                	fld	fs0,136(a0)
     5b2:	009f 0000 0000      	0x9f
     5b8:	0000                	unimp
     5ba:	9400                	0x9400
     5bc:	0001                	nop
     5be:	a000                	fsd	fs0,0(s0)
     5c0:	0001                	nop
     5c2:	0100                	addi	s0,sp,128
     5c4:	5b00                	lw	s0,48(a4)
	...
     5ce:	01c8                	addi	a0,sp,196
     5d0:	0000                	unimp
     5d2:	01cc                	addi	a1,sp,196
     5d4:	0000                	unimp
     5d6:	0001                	nop
     5d8:	0000005b          	0x5b
     5dc:	0000                	unimp
     5de:	0000                	unimp
     5e0:	9000                	0x9000
     5e2:	0001                	nop
     5e4:	9800                	0x9800
     5e6:	0001                	nop
     5e8:	0100                	addi	s0,sp,128
     5ea:	5e00                	lw	s0,56(a2)
     5ec:	01a0                	addi	s0,sp,200
     5ee:	0000                	unimp
     5f0:	01b8                	addi	a4,sp,200
     5f2:	0000                	unimp
     5f4:	0001                	nop
     5f6:	b85e                	fsd	fs7,48(sp)
     5f8:	0001                	nop
     5fa:	c800                	sw	s0,16(s0)
     5fc:	0001                	nop
     5fe:	0100                	addi	s0,sp,128
     600:	5b00                	lw	s0,48(a4)
	...
     60a:	01bc                	addi	a5,sp,200
     60c:	0000                	unimp
     60e:	01d4                	addi	a3,sp,196
     610:	0000                	unimp
     612:	0001                	nop
     614:	d45e                	sw	s7,40(sp)
     616:	0001                	nop
     618:	f000                	fsw	fs0,32(s0)
     61a:	0001                	nop
     61c:	0100                	addi	s0,sp,128
     61e:	5f00                	lw	s0,56(a4)
	...
     628:	01a0                	addi	s0,sp,200
     62a:	0000                	unimp
     62c:	01b8                	addi	a4,sp,200
     62e:	0000                	unimp
     630:	0001                	nop
     632:	0001cc5b          	0x1cc5b
     636:	f000                	fsw	fs0,32(s0)
     638:	0001                	nop
     63a:	0100                	addi	s0,sp,128
     63c:	5b00                	lw	s0,48(a4)
	...
     646:	0224                	addi	s1,sp,264
     648:	0000                	unimp
     64a:	0290                	addi	a2,sp,320
     64c:	0000                	unimp
     64e:	0001                	nop
     650:	005a                	0x5a
     652:	0000                	unimp
     654:	0000                	unimp
     656:	0000                	unimp
     658:	2c00                	fld	fs0,24(s0)
     65a:	0002                	0x2
     65c:	7400                	flw	fs0,40(s0)
     65e:	0002                	0x2
     660:	0100                	addi	s0,sp,128
     662:	5b00                	lw	s0,48(a4)
     664:	0274                	addi	a3,sp,268
     666:	0000                	unimp
     668:	0290                	addi	a2,sp,320
     66a:	0000                	unimp
     66c:	00800007          	0x800007
     670:	2440                	fld	fs0,136(s0)
     672:	2540                	fld	fs0,136(a0)
     674:	009f 0000 0000      	0x9f
     67a:	0000                	unimp
     67c:	3400                	fld	fs0,40(s0)
     67e:	0002                	0x2
     680:	3800                	fld	fs0,48(s0)
     682:	0002                	0x2
     684:	0100                	addi	s0,sp,128
     686:	5d00                	lw	s0,56(a0)
     688:	0238                	addi	a4,sp,264
     68a:	0000                	unimp
     68c:	0244                	addi	s1,sp,260
     68e:	0000                	unimp
     690:	000c                	addi	a1,sp,0
     692:	008d                	addi	ra,ra,3
     694:	007a25f7          	0x7a25f7
     698:	f71b25f7          	0xf71b25f7
     69c:	9f00                	0x9f00
     69e:	0244                	addi	s1,sp,260
     6a0:	0000                	unimp
     6a2:	0250                	addi	a2,sp,260
     6a4:	0000                	unimp
     6a6:	000e                	0xe
     6a8:	008d                	addi	ra,ra,3
     6aa:	007a25f7          	0x7a25f7
     6ae:	f71b25f7          	0xf71b25f7
     6b2:	3100                	fld	fs0,32(a0)
     6b4:	9f1c                	0x9f1c
     6b6:	0250                	addi	a2,sp,260
     6b8:	0000                	unimp
     6ba:	0254                	addi	a3,sp,260
     6bc:	0000                	unimp
     6be:	000e                	0xe
     6c0:	008d                	addi	ra,ra,3
     6c2:	007a25f7          	0x7a25f7
     6c6:	f71b25f7          	0xf71b25f7
     6ca:	3200                	fld	fs0,32(a2)
     6cc:	9f1c                	0x9f1c
	...
     6d6:	0268                	addi	a0,sp,268
     6d8:	0000                	unimp
     6da:	0270                	addi	a2,sp,268
     6dc:	0000                	unimp
     6de:	0001                	nop
     6e0:	005c                	addi	a5,sp,4
     6e2:	0000                	unimp
     6e4:	0000                	unimp
     6e6:	0000                	unimp
     6e8:	3400                	fld	fs0,40(s0)
     6ea:	0002                	0x2
     6ec:	3c00                	fld	fs0,56(s0)
     6ee:	0002                	0x2
     6f0:	0100                	addi	s0,sp,128
     6f2:	5e00                	lw	s0,56(a2)
     6f4:	023c                	addi	a5,sp,264
     6f6:	0000                	unimp
     6f8:	0240                	addi	s0,sp,260
     6fa:	0000                	unimp
     6fc:	0006                	0x6
     6fe:	008d                	addi	ra,ra,3
     700:	007a                	0x7a
     702:	9f1d                	0x9f1d
     704:	0240                	addi	s0,sp,260
     706:	0000                	unimp
     708:	0258                	addi	a4,sp,260
     70a:	0000                	unimp
     70c:	0001                	nop
     70e:	585e                	lw	a6,244(sp)
     710:	0002                	0x2
     712:	6800                	flw	fs0,16(s0)
     714:	0002                	0x2
     716:	0100                	addi	s0,sp,128
     718:	5c00                	lw	s0,56(s0)
	...
     722:	025c                	addi	a5,sp,260
     724:	0000                	unimp
     726:	026c                	addi	a1,sp,268
     728:	0000                	unimp
     72a:	0001                	nop
     72c:	745e                	flw	fs0,244(sp)
     72e:	0002                	0x2
     730:	9000                	0x9000
     732:	0002                	0x2
     734:	0100                	addi	s0,sp,128
     736:	5b00                	lw	s0,48(a4)
	...
     740:	0238                	addi	a4,sp,264
     742:	0000                	unimp
     744:	0270                	addi	a2,sp,268
     746:	0000                	unimp
     748:	0001                	nop
     74a:	705d                	0x705d
     74c:	0002                	0x2
     74e:	9000                	0x9000
     750:	0002                	0x2
     752:	0100                	addi	s0,sp,128
     754:	5c00                	lw	s0,56(s0)
	...
     75e:	0294                	addi	a3,sp,320
     760:	0000                	unimp
     762:	02a8                	addi	a0,sp,328
     764:	0000                	unimp
     766:	0001                	nop
     768:	a856                	fsd	fs5,16(sp)
     76a:	0002                	0x2
     76c:	dc00                	sw	s0,56(s0)
     76e:	0002                	0x2
     770:	0100                	addi	s0,sp,128
     772:	5d00                	lw	s0,56(a0)
     774:	02f0                	addi	a2,sp,332
     776:	0000                	unimp
     778:	02f4                	addi	a3,sp,332
     77a:	0000                	unimp
     77c:	0001                	nop
     77e:	f456                	fsw	fs5,40(sp)
     780:	0002                	0x2
     782:	0c00                	addi	s0,sp,528
     784:	01000003          	lb	zero,16(zero) # 10 <buf.1775+0x10>
     788:	5d00                	lw	s0,56(a0)
	...
     792:	02a8                	addi	a0,sp,328
     794:	0000                	unimp
     796:	02f0                	addi	a2,sp,332
     798:	0000                	unimp
     79a:	0001                	nop
     79c:	0460                	addi	s0,sp,524
     79e:	34000003          	lb	zero,832(zero) # 340 <portable_init+0x6>
     7a2:	01000003          	lb	zero,16(zero) # 10 <buf.1775+0x10>
     7a6:	6000                	flw	fs0,0(s0)
	...
     7b0:	02d8                	addi	a4,sp,324
     7b2:	0000                	unimp
     7b4:	02e4                	addi	s1,sp,332
     7b6:	0000                	unimp
     7b8:	0001                	nop
     7ba:	005f 0000 0000      	0x5f
     7c0:	0000                	unimp
     7c2:	1000                	addi	s0,sp,32
     7c4:	0004                	addi	s1,sp,0
     7c6:	2c00                	fld	fs0,24(s0)
     7c8:	0004                	addi	s1,sp,0
     7ca:	0100                	addi	s0,sp,128
     7cc:	5b00                	lw	s0,48(a4)
     7ce:	0430                	addi	a2,sp,520
     7d0:	0000                	unimp
     7d2:	0440                	addi	s0,sp,516
     7d4:	0000                	unimp
     7d6:	0001                	nop
     7d8:	0000005b          	0x5b
     7dc:	0000                	unimp
     7de:	0000                	unimp
     7e0:	1400                	addi	s0,sp,544
     7e2:	0004                	addi	s1,sp,0
     7e4:	2800                	fld	fs0,16(s0)
     7e6:	0004                	addi	s1,sp,0
     7e8:	0100                	addi	s0,sp,128
     7ea:	5e00                	lw	s0,56(a2)
     7ec:	0430                	addi	a2,sp,520
     7ee:	0000                	unimp
     7f0:	0434                	addi	a3,sp,520
     7f2:	0000                	unimp
     7f4:	0001                	nop
     7f6:	345c                	fld	fa5,168(s0)
     7f8:	0004                	addi	s1,sp,0
     7fa:	3800                	fld	fs0,48(s0)
     7fc:	0004                	addi	s1,sp,0
     7fe:	0100                	addi	s0,sp,128
     800:	5e00                	lw	s0,56(a2)
	...
     80a:	033c                	addi	a5,sp,392
     80c:	0000                	unimp
     80e:	0380                	addi	s0,sp,448
     810:	0000                	unimp
     812:	0001                	nop
     814:	0003805b          	0x3805b
     818:	5800                	lw	s0,48(s0)
     81a:	0004                	addi	s1,sp,0
     81c:	0500                	addi	s0,sp,640
     81e:	7d00                	flw	fs0,56(a0)
     820:	4000                	lw	s0,0(s0)
     822:	9f25                	0x9f25
	...
     82c:	033c                	addi	a5,sp,392
     82e:	0000                	unimp
     830:	0384                	addi	s1,sp,448
     832:	0000                	unimp
     834:	0001                	nop
     836:	846e                	mv	s0,s11
     838:	58000003          	lb	zero,1408(zero) # 580 <vprintfmt.constprop.0+0x10a>
     83c:	0004                	addi	s1,sp,0
     83e:	0700                	addi	s0,sp,896
     840:	7d00                	flw	fs0,56(a0)
     842:	4000                	lw	s0,0(s0)
     844:	4024                	lw	s1,64(s0)
     846:	9f25                	0x9f25
	...
     850:	0340                	addi	s0,sp,388
     852:	0000                	unimp
     854:	035c                	addi	a5,sp,388
     856:	0000                	unimp
     858:	0001                	nop
     85a:	5c5f 0003 b000      	0xb00000035c5f
     860:	01000003          	lb	zero,16(zero) # 10 <buf.1775+0x10>
     864:	5600                	lw	s0,40(a2)
	...
     86e:	0378                	addi	a4,sp,396
     870:	0000                	unimp
     872:	039c                	addi	a5,sp,448
     874:	0000                	unimp
     876:	0001                	nop
     878:	9c60                	0x9c60
     87a:	d4000003          	lb	zero,-704(zero) # fffffd40 <__C_STACK_TOP__+0xfffefd40>
     87e:	01000003          	lb	zero,16(zero) # 10 <buf.1775+0x10>
     882:	5e00                	lw	s0,56(a2)
	...
     88c:	033c                	addi	a5,sp,392
     88e:	0000                	unimp
     890:	0344                	addi	s1,sp,388
     892:	0000                	unimp
     894:	0001                	nop
     896:	4c56                	lw	s8,84(sp)
     898:	58000003          	lb	zero,1408(zero) # 580 <vprintfmt.constprop.0+0x10a>
     89c:	01000003          	lb	zero,16(zero) # 10 <buf.1775+0x10>
     8a0:	6000                	flw	fs0,0(s0)
     8a2:	035c                	addi	a5,sp,388
     8a4:	0000                	unimp
     8a6:	0378                	addi	a4,sp,396
     8a8:	0000                	unimp
     8aa:	0001                	nop
     8ac:	0060                	addi	s0,sp,12
     8ae:	0000                	unimp
     8b0:	0000                	unimp
     8b2:	0000                	unimp
     8b4:	7400                	flw	fs0,40(s0)
     8b6:	7c000003          	lb	zero,1984(zero) # 7c0 <vprintfmt.constprop.0+0x34a>
     8ba:	01000003          	lb	zero,16(zero) # 10 <buf.1775+0x10>
     8be:	6f00                	flw	fs0,24(a4)
     8c0:	038c                	addi	a1,sp,448
     8c2:	0000                	unimp
     8c4:	0398                	addi	a4,sp,448
     8c6:	0000                	unimp
     8c8:	0001                	nop
     8ca:	9c6e                	add	s8,s8,s11
     8cc:	58000003          	lb	zero,1408(zero) # 580 <vprintfmt.constprop.0+0x10a>
     8d0:	0004                	addi	s1,sp,0
     8d2:	0100                	addi	s0,sp,128
     8d4:	6e00                	flw	fs0,24(a2)
	...
     8de:	034c                	addi	a1,sp,388
     8e0:	0000                	unimp
     8e2:	0374                	addi	a3,sp,396
     8e4:	0000                	unimp
     8e6:	0001                	nop
     8e8:	0003746f          	jal	s0,378e8 <__C_STACK_TOP__+0x278e8>
     8ec:	8000                	0x8000
     8ee:	06000003          	lb	zero,96(zero) # 60 <buflen.1776+0x20>
     8f2:	8e00                	0x8e00
     8f4:	7f00                	flw	fs0,56(a4)
     8f6:	1e00                	addi	s0,sp,816
     8f8:	809f 0003 c800      	0xc8000003809f
     8fe:	01000003          	lb	zero,16(zero) # 10 <buf.1775+0x10>
     902:	5b00                	lw	s0,48(a4)
	...
     90c:	03d4                	addi	a3,sp,452
     90e:	0000                	unimp
     910:	040c                	addi	a1,sp,512
     912:	0000                	unimp
     914:	0001                	nop
     916:	005e                	0x5e
     918:	0000                	unimp
     91a:	0000                	unimp
     91c:	0000                	unimp
     91e:	ec00                	fsw	fs0,24(s0)
     920:	04000003          	lb	zero,64(zero) # 40 <buflen.1776>
     924:	0004                	addi	s1,sp,0
     926:	0100                	addi	s0,sp,128
     928:	6000                	flw	fs0,0(s0)
	...
     932:	03d8                	addi	a4,sp,452
     934:	0000                	unimp
     936:	03f8                	addi	a4,sp,460
     938:	0000                	unimp
     93a:	0001                	nop
     93c:	005f 0000 0000      	0x5f
     942:	0000                	unimp
     944:	c800                	sw	s0,16(s0)
     946:	dc000003          	lb	zero,-576(zero) # fffffdc0 <__C_STACK_TOP__+0xfffefdc0>
     94a:	01000003          	lb	zero,16(zero) # 10 <buf.1775+0x10>
     94e:	5b00                	lw	s0,48(a4)
	...
     958:	03d0                	addi	a2,sp,452
     95a:	0000                	unimp
     95c:	03d8                	addi	a4,sp,452
     95e:	0000                	unimp
     960:	0001                	nop
     962:	d85f 0003 fc00      	0xfc000003d85f
     968:	06000003          	lb	zero,96(zero) # 60 <buflen.1776+0x20>
     96c:	8f00                	0x8f00
     96e:	7c7f                	0x7c7f
     970:	1a00                	addi	s0,sp,304
     972:	fc9f 0003 2400      	0x24000003fc9f
     978:	0004                	addi	s1,sp,0
     97a:	0600                	addi	s0,sp,768
     97c:	7c00                	flw	fs0,56(s0)
     97e:	7f00                	flw	fs0,56(a4)
     980:	1a00                	addi	s0,sp,304
     982:	009f 0000 0000      	0x9f
     988:	0000                	unimp
     98a:	cc00                	sw	s0,24(s0)
     98c:	e0000003          	lb	zero,-512(zero) # fffffe00 <__C_STACK_TOP__+0xfffefe00>
     990:	01000003          	lb	zero,16(zero) # 10 <buf.1775+0x10>
     994:	5600                	lw	s0,40(a2)
	...
     99e:	0424                	addi	s1,sp,520
     9a0:	0000                	unimp
     9a2:	0434                	addi	a3,sp,520
     9a4:	0000                	unimp
     9a6:	0001                	nop
     9a8:	005c                	addi	a5,sp,4
     9aa:	0000                	unimp
     9ac:	0000                	unimp
     9ae:	0000                	unimp
     9b0:	3800                	fld	fs0,48(s0)
     9b2:	0004                	addi	s1,sp,0
     9b4:	4c00                	lw	s0,24(s0)
     9b6:	0004                	addi	s1,sp,0
     9b8:	0100                	addi	s0,sp,128
     9ba:	5e00                	lw	s0,56(a2)
	...
     9c8:	0068                	addi	a0,sp,12
     9ca:	0000                	unimp
     9cc:	0006                	0x6
     9ce:	935a                	add	t1,t1,s6
     9d0:	5b04                	lw	s1,48(a4)
     9d2:	00680493          	addi	s1,a6,6
     9d6:	0000                	unimp
     9d8:	00f4                	addi	a3,sp,76
     9da:	0000                	unimp
     9dc:	0006                	0x6
     9de:	0af503f3          	0xaf503f3
     9e2:	9f25                	0x9f25
     9e4:	00f4                	addi	a3,sp,76
     9e6:	0000                	unimp
     9e8:	014c                	addi	a1,sp,132
     9ea:	0000                	unimp
     9ec:	0006                	0x6
     9ee:	935a                	add	t1,t1,s6
     9f0:	5b04                	lw	s1,48(a4)
     9f2:	014c0493          	addi	s1,s8,20
     9f6:	0000                	unimp
     9f8:	01dc                	addi	a5,sp,196
     9fa:	0000                	unimp
     9fc:	0006                	0x6
     9fe:	0af503f3          	0xaf503f3
     a02:	9f25                	0x9f25
     a04:	01dc                	addi	a5,sp,196
     a06:	0000                	unimp
     a08:	0204                	addi	s1,sp,256
     a0a:	0000                	unimp
     a0c:	0006                	0x6
     a0e:	935a                	add	t1,t1,s6
     a10:	5b04                	lw	s1,48(a4)
     a12:	02040493          	addi	s1,s0,32
     a16:	0000                	unimp
     a18:	029c                	addi	a5,sp,320
     a1a:	0000                	unimp
     a1c:	0006                	0x6
     a1e:	0af503f3          	0xaf503f3
     a22:	9f25                	0x9f25
     a24:	029c                	addi	a5,sp,320
     a26:	0000                	unimp
     a28:	02e4                	addi	s1,sp,332
     a2a:	0000                	unimp
     a2c:	0006                	0x6
     a2e:	935a                	add	t1,t1,s6
     a30:	5b04                	lw	s1,48(a4)
     a32:	02e40493          	addi	s1,s0,46
     a36:	0000                	unimp
     a38:	02ec                	addi	a1,sp,332
     a3a:	0000                	unimp
     a3c:	0006                	0x6
     a3e:	0af503f3          	0xaf503f3
     a42:	9f25                	0x9f25
     a44:	02ec                	addi	a1,sp,332
     a46:	0000                	unimp
     a48:	0414                	addi	a3,sp,512
     a4a:	0000                	unimp
     a4c:	0006                	0x6
     a4e:	935a                	add	t1,t1,s6
     a50:	5b04                	lw	s1,48(a4)
     a52:	04140493          	addi	s1,s0,65
     a56:	0000                	unimp
     a58:	0428                	addi	a0,sp,520
     a5a:	0000                	unimp
     a5c:	0006                	0x6
     a5e:	0af503f3          	0xaf503f3
     a62:	9f25                	0x9f25
     a64:	0428                	addi	a0,sp,520
     a66:	0000                	unimp
     a68:	0434                	addi	a3,sp,520
     a6a:	0000                	unimp
     a6c:	0006                	0x6
     a6e:	935a                	add	t1,t1,s6
     a70:	5b04                	lw	s1,48(a4)
     a72:	00000493          	li	s1,0
	...
     a7e:	0000                	unimp
     a80:	0070                	addi	a2,sp,12
     a82:	0000                	unimp
     a84:	0006                	0x6
     a86:	935c                	0x935c
     a88:	5d04                	lw	s1,56(a0)
     a8a:	00700493          	li	s1,7
     a8e:	0000                	unimp
     a90:	00f4                	addi	a3,sp,76
     a92:	0000                	unimp
     a94:	0006                	0x6
     a96:	0cf503f3          	0xcf503f3
     a9a:	9f25                	0x9f25
     a9c:	00f4                	addi	a3,sp,76
     a9e:	0000                	unimp
     aa0:	014c                	addi	a1,sp,132
     aa2:	0000                	unimp
     aa4:	0006                	0x6
     aa6:	935c                	0x935c
     aa8:	5d04                	lw	s1,56(a0)
     aaa:	014c0493          	addi	s1,s8,20
     aae:	0000                	unimp
     ab0:	01dc                	addi	a5,sp,196
     ab2:	0000                	unimp
     ab4:	0006                	0x6
     ab6:	0cf503f3          	0xcf503f3
     aba:	9f25                	0x9f25
     abc:	01dc                	addi	a5,sp,196
     abe:	0000                	unimp
     ac0:	021c                	addi	a5,sp,256
     ac2:	0000                	unimp
     ac4:	0006                	0x6
     ac6:	935c                	0x935c
     ac8:	5d04                	lw	s1,56(a0)
     aca:	021c0493          	addi	s1,s8,33
     ace:	0000                	unimp
     ad0:	029c                	addi	a5,sp,320
     ad2:	0000                	unimp
     ad4:	0006                	0x6
     ad6:	0cf503f3          	0xcf503f3
     ada:	9f25                	0x9f25
     adc:	029c                	addi	a5,sp,320
     ade:	0000                	unimp
     ae0:	0334                	addi	a3,sp,392
     ae2:	0000                	unimp
     ae4:	0006                	0x6
     ae6:	935c                	0x935c
     ae8:	5d04                	lw	s1,56(a0)
     aea:	03340493          	addi	s1,s0,51
     aee:	0000                	unimp
     af0:	0428                	addi	a0,sp,520
     af2:	0000                	unimp
     af4:	0006                	0x6
     af6:	0cf503f3          	0xcf503f3
     afa:	9f25                	0x9f25
     afc:	0428                	addi	a0,sp,520
     afe:	0000                	unimp
     b00:	0434                	addi	a3,sp,520
     b02:	0000                	unimp
     b04:	0006                	0x6
     b06:	935c                	0x935c
     b08:	5d04                	lw	s1,56(a0)
     b0a:	00000493          	li	s1,0
	...
     b16:	0000                	unimp
     b18:	01d4                	addi	a3,sp,196
     b1a:	0000                	unimp
     b1c:	0002                	0x2
     b1e:	9f30                	0x9f30
     b20:	01dc                	addi	a5,sp,196
     b22:	0000                	unimp
     b24:	0434                	addi	a3,sp,520
     b26:	0000                	unimp
     b28:	0002                	0x2
     b2a:	9f30                	0x9f30
	...
     b38:	0024                	addi	s1,sp,8
     b3a:	0000                	unimp
     b3c:	0006                	0x6
     b3e:	935c                	0x935c
     b40:	5d04                	lw	s1,56(a0)
     b42:	00240493          	addi	s1,s0,2
     b46:	0000                	unimp
     b48:	0034                	addi	a3,sp,8
     b4a:	0000                	unimp
     b4c:	0006                	0x6
     b4e:	935c                	0x935c
     b50:	6104                	flw	fs1,0(a0)
     b52:	00f40493          	addi	s1,s0,15
     b56:	0000                	unimp
     b58:	00f8                	addi	a4,sp,76
     b5a:	0000                	unimp
     b5c:	0006                	0x6
     b5e:	935c                	0x935c
     b60:	6104                	flw	fs1,0(a0)
     b62:	01080493          	addi	s1,a6,16
     b66:	0000                	unimp
     b68:	0110                	addi	a2,sp,128
     b6a:	0000                	unimp
     b6c:	0006                	0x6
     b6e:	935c                	0x935c
     b70:	5d04                	lw	s1,56(a0)
     b72:	01100493          	li	s1,17
     b76:	0000                	unimp
     b78:	0128                	addi	a0,sp,136
     b7a:	0000                	unimp
     b7c:	0006                	0x6
     b7e:	935c                	0x935c
     b80:	6104                	flw	fs1,0(a0)
     b82:	01dc0493          	addi	s1,s8,29
     b86:	0000                	unimp
     b88:	01e4                	addi	s1,sp,204
     b8a:	0000                	unimp
     b8c:	0006                	0x6
     b8e:	935c                	0x935c
     b90:	6104                	flw	fs1,0(a0)
     b92:	029c0493          	addi	s1,s8,41
     b96:	0000                	unimp
     b98:	0308                	addi	a0,sp,384
     b9a:	0000                	unimp
     b9c:	0006                	0x6
     b9e:	935c                	0x935c
     ba0:	5d04                	lw	s1,56(a0)
     ba2:	03080493          	addi	s1,a6,48
     ba6:	0000                	unimp
     ba8:	0318                	addi	a4,sp,384
     baa:	0000                	unimp
     bac:	0006                	0x6
     bae:	935c                	0x935c
     bb0:	6104                	flw	fs1,0(a0)
     bb2:	04280493          	addi	s1,a6,66
     bb6:	0000                	unimp
     bb8:	0434                	addi	a3,sp,520
     bba:	0000                	unimp
     bbc:	0006                	0x6
     bbe:	935c                	0x935c
     bc0:	5d04                	lw	s1,56(a0)
     bc2:	00000493          	li	s1,0
	...
     bce:	0000                	unimp
     bd0:	0060                	addi	s0,sp,12
     bd2:	0000                	unimp
     bd4:	0006                	0x6
     bd6:	935a                	add	t1,t1,s6
     bd8:	5b04                	lw	s1,48(a4)
     bda:	00f40493          	addi	s1,s0,15
     bde:	0000                	unimp
     be0:	014c                	addi	a1,sp,132
     be2:	0000                	unimp
     be4:	0006                	0x6
     be6:	9356                	add	t1,t1,s5
     be8:	5b04                	lw	s1,48(a4)
     bea:	01dc0493          	addi	s1,s8,29
     bee:	0000                	unimp
     bf0:	01f8                	addi	a4,sp,204
     bf2:	0000                	unimp
     bf4:	0006                	0x6
     bf6:	9356                	add	t1,t1,s5
     bf8:	5b04                	lw	s1,48(a4)
     bfa:	01f80493          	addi	s1,a6,31
     bfe:	0000                	unimp
     c00:	01fc                	addi	a5,sp,204
     c02:	0000                	unimp
     c04:	0006                	0x6
     c06:	9356                	add	t1,t1,s5
     c08:	5f04                	lw	s1,56(a4)
     c0a:	01fc0493          	addi	s1,s8,31
     c0e:	0000                	unimp
     c10:	0204                	addi	s1,sp,256
     c12:	0000                	unimp
     c14:	0006                	0x6
     c16:	935a                	add	t1,t1,s6
     c18:	5f04                	lw	s1,56(a4)
     c1a:	029c0493          	addi	s1,s8,41
     c1e:	0000                	unimp
     c20:	02b4                	addi	a3,sp,328
     c22:	0000                	unimp
     c24:	0006                	0x6
     c26:	9356                	add	t1,t1,s5
     c28:	5b04                	lw	s1,48(a4)
     c2a:	02b40493          	addi	s1,s0,43
     c2e:	0000                	unimp
     c30:	02ec                	addi	a1,sp,332
     c32:	0000                	unimp
     c34:	0006                	0x6
     c36:	9356                	add	t1,t1,s5
     c38:	5f04                	lw	s1,56(a4)
     c3a:	02ec0493          	addi	s1,s8,46
     c3e:	0000                	unimp
     c40:	02f0                	addi	a2,sp,332
     c42:	0000                	unimp
     c44:	0006                	0x6
     c46:	9356                	add	t1,t1,s5
     c48:	5b04                	lw	s1,48(a4)
     c4a:	02f00493          	li	s1,47
     c4e:	0000                	unimp
     c50:	031c                	addi	a5,sp,384
     c52:	0000                	unimp
     c54:	0006                	0x6
     c56:	9356                	add	t1,t1,s5
     c58:	5f04                	lw	s1,56(a4)
     c5a:	04280493          	addi	s1,a6,66
     c5e:	0000                	unimp
     c60:	042c                	addi	a1,sp,520
     c62:	0000                	unimp
     c64:	0006                	0x6
     c66:	9356                	add	t1,t1,s5
     c68:	5b04                	lw	s1,48(a4)
     c6a:	042c0493          	addi	s1,s8,66
     c6e:	0000                	unimp
     c70:	0434                	addi	a3,sp,520
     c72:	0000                	unimp
     c74:	0006                	0x6
     c76:	9356                	add	t1,t1,s5
     c78:	5f04                	lw	s1,56(a4)
     c7a:	00000493          	li	s1,0
     c7e:	0000                	unimp
     c80:	0000                	unimp
     c82:	0000                	unimp
     c84:	0008                	addi	a0,sp,0
     c86:	0000                	unimp
     c88:	0050                	addi	a2,sp,4
     c8a:	0000                	unimp
     c8c:	0001                	nop
     c8e:	505c                	lw	a5,36(s0)
     c90:	0000                	unimp
     c92:	5c00                	lw	s0,56(s0)
     c94:	0000                	unimp
     c96:	0600                	addi	s0,sp,768
     c98:	7c00                	flw	fs0,56(s0)
     c9a:	7e00                	flw	fs0,56(a2)
     c9c:	2400                	fld	fs0,8(s0)
     c9e:	5c9f 0000 ec00      	0xec0000005c9f
     ca4:	0000                	unimp
     ca6:	0100                	addi	s0,sp,128
     ca8:	6000                	flw	fs0,0(s0)
     caa:	00f4                	addi	a3,sp,76
     cac:	0000                	unimp
     cae:	0110                	addi	a2,sp,128
     cb0:	0000                	unimp
     cb2:	0001                	nop
     cb4:	105c                	addi	a5,sp,36
     cb6:	0001                	nop
     cb8:	1400                	addi	s0,sp,544
     cba:	0001                	nop
     cbc:	0b00                	addi	s0,sp,400
     cbe:	3100                	fld	fs0,32(a0)
     cc0:	007c2cf7          	0x7c2cf7
     cc4:	f71b2cf7          	0xf71b2cf7
     cc8:	9f00                	0x9f00
     cca:	0114                	addi	a3,sp,128
     ccc:	0000                	unimp
     cce:	01d4                	addi	a3,sp,196
     cd0:	0000                	unimp
     cd2:	0001                	nop
     cd4:	dc60                	sw	s0,124(s0)
     cd6:	0001                	nop
     cd8:	f000                	fsw	fs0,32(s0)
     cda:	0001                	nop
     cdc:	0100                	addi	s0,sp,128
     cde:	6000                	flw	fs0,0(s0)
     ce0:	01f0                	addi	a2,sp,204
     ce2:	0000                	unimp
     ce4:	01f4                	addi	a3,sp,204
     ce6:	0000                	unimp
     ce8:	0006                	0x6
     cea:	0080                	addi	s0,sp,64
     cec:	007e                	0x7e
     cee:	9f24                	0x9f24
     cf0:	01f4                	addi	a3,sp,204
     cf2:	0000                	unimp
     cf4:	029c                	addi	a5,sp,320
     cf6:	0000                	unimp
     cf8:	0001                	nop
     cfa:	9c60                	0x9c60
     cfc:	0002                	0x2
     cfe:	c800                	sw	s0,16(s0)
     d00:	01000003          	lb	zero,16(zero) # 10 <buf.1775+0x10>
     d04:	5c00                	lw	s0,56(s0)
     d06:	0428                	addi	a0,sp,520
     d08:	0000                	unimp
     d0a:	0434                	addi	a3,sp,520
     d0c:	0000                	unimp
     d0e:	0001                	nop
     d10:	005c                	addi	a5,sp,4
     d12:	0000                	unimp
     d14:	0000                	unimp
     d16:	0000                	unimp
     d18:	0c00                	addi	s0,sp,528
     d1a:	0000                	unimp
     d1c:	2400                	fld	fs0,8(s0)
     d1e:	0000                	unimp
     d20:	0100                	addi	s0,sp,128
     d22:	5d00                	lw	s0,56(a0)
     d24:	0024                	addi	s1,sp,8
     d26:	0000                	unimp
     d28:	0034                	addi	a3,sp,8
     d2a:	0000                	unimp
     d2c:	0001                	nop
     d2e:	f461                	bnez	s0,cf6 <calc_func+0x2>
     d30:	0000                	unimp
     d32:	f800                	fsw	fs0,48(s0)
     d34:	0000                	unimp
     d36:	0100                	addi	s0,sp,128
     d38:	6100                	flw	fs0,0(a0)
     d3a:	0108                	addi	a0,sp,128
     d3c:	0000                	unimp
     d3e:	0110                	addi	a2,sp,128
     d40:	0000                	unimp
     d42:	0001                	nop
     d44:	105d                	c.addi	zero,-9
     d46:	0001                	nop
     d48:	2800                	fld	fs0,16(s0)
     d4a:	0001                	nop
     d4c:	0100                	addi	s0,sp,128
     d4e:	6100                	flw	fs0,0(a0)
     d50:	01dc                	addi	a5,sp,196
     d52:	0000                	unimp
     d54:	01e4                	addi	s1,sp,204
     d56:	0000                	unimp
     d58:	0001                	nop
     d5a:	9c61                	0x9c61
     d5c:	0002                	0x2
     d5e:	0800                	addi	s0,sp,16
     d60:	01000003          	lb	zero,16(zero) # 10 <buf.1775+0x10>
     d64:	5d00                	lw	s0,56(a0)
     d66:	0308                	addi	a0,sp,384
     d68:	0000                	unimp
     d6a:	030c                	addi	a1,sp,384
     d6c:	0000                	unimp
     d6e:	0001                	nop
     d70:	0c61                	addi	s8,s8,24
     d72:	d4000003          	lb	zero,-704(zero) # fffffd40 <__C_STACK_TOP__+0xfffefd40>
     d76:	01000003          	lb	zero,16(zero) # 10 <buf.1775+0x10>
     d7a:	5d00                	lw	s0,56(a0)
     d7c:	0428                	addi	a0,sp,520
     d7e:	0000                	unimp
     d80:	0434                	addi	a3,sp,520
     d82:	0000                	unimp
     d84:	0001                	nop
     d86:	005d                	c.addi	zero,23
     d88:	0000                	unimp
     d8a:	0000                	unimp
     d8c:	0000                	unimp
     d8e:	1000                	addi	s0,sp,32
     d90:	0000                	unimp
     d92:	6400                	flw	fs0,8(s0)
     d94:	0000                	unimp
     d96:	0100                	addi	s0,sp,128
     d98:	5a00                	lw	s0,48(a2)
     d9a:	0064                	addi	s1,sp,12
     d9c:	0000                	unimp
     d9e:	00b4                	addi	a3,sp,72
     da0:	0000                	unimp
     da2:	0001                	nop
     da4:	f456                	fsw	fs5,40(sp)
     da6:	0000                	unimp
     da8:	9c00                	0x9c00
     daa:	0001                	nop
     dac:	0100                	addi	s0,sp,128
     dae:	5600                	lw	s0,40(a2)
     db0:	01dc                	addi	a5,sp,196
     db2:	0000                	unimp
     db4:	01fc                	addi	a5,sp,204
     db6:	0000                	unimp
     db8:	0001                	nop
     dba:	fc56                	fsw	fs5,56(sp)
     dbc:	0001                	nop
     dbe:	0400                	addi	s0,sp,512
     dc0:	0002                	0x2
     dc2:	0100                	addi	s0,sp,128
     dc4:	5a00                	lw	s0,48(a2)
     dc6:	0210                	addi	a2,sp,256
     dc8:	0000                	unimp
     dca:	0324                	addi	s1,sp,392
     dcc:	0000                	unimp
     dce:	0001                	nop
     dd0:	2456                	fld	fs0,336(sp)
     dd2:	34000003          	lb	zero,832(zero) # 340 <portable_init+0x6>
     dd6:	01000003          	lb	zero,16(zero) # 10 <buf.1775+0x10>
     dda:	5a00                	lw	s0,48(a2)
     ddc:	0334                	addi	a3,sp,392
     dde:	0000                	unimp
     de0:	0414                	addi	a3,sp,512
     de2:	0000                	unimp
     de4:	0006                	0x6
     de6:	007a                	0x7a
     de8:	9f24007b          	0x9f24007b
     dec:	0428                	addi	a0,sp,520
     dee:	0000                	unimp
     df0:	0434                	addi	a3,sp,520
     df2:	0000                	unimp
     df4:	0001                	nop
     df6:	0056                	0x56
     df8:	0000                	unimp
     dfa:	0000                	unimp
     dfc:	0000                	unimp
     dfe:	1000                	addi	s0,sp,32
     e00:	0000                	unimp
     e02:	8000                	0x8000
     e04:	0000                	unimp
     e06:	0100                	addi	s0,sp,128
     e08:	5b00                	lw	s0,48(a4)
     e0a:	00f4                	addi	a3,sp,76
     e0c:	0000                	unimp
     e0e:	0148                	addi	a0,sp,132
     e10:	0000                	unimp
     e12:	0001                	nop
     e14:	0001485b          	0x1485b
     e18:	6400                	flw	fs0,8(s0)
     e1a:	0001                	nop
     e1c:	0100                	addi	s0,sp,128
     e1e:	5f00                	lw	s0,56(a4)
     e20:	01dc                	addi	a5,sp,196
     e22:	0000                	unimp
     e24:	01f8                	addi	a4,sp,204
     e26:	0000                	unimp
     e28:	0001                	nop
     e2a:	0001f85b          	0x1f85b
     e2e:	0800                	addi	s0,sp,16
     e30:	0002                	0x2
     e32:	0100                	addi	s0,sp,128
     e34:	5f00                	lw	s0,56(a4)
     e36:	0210                	addi	a2,sp,256
     e38:	0000                	unimp
     e3a:	0258                	addi	a4,sp,260
     e3c:	0000                	unimp
     e3e:	0001                	nop
     e40:	9861                	andi	s0,s0,-8
     e42:	0002                	0x2
     e44:	9c00                	0x9c00
     e46:	0002                	0x2
     e48:	0100                	addi	s0,sp,128
     e4a:	5f00                	lw	s0,56(a4)
     e4c:	029c                	addi	a5,sp,320
     e4e:	0000                	unimp
     e50:	02b4                	addi	a3,sp,328
     e52:	0000                	unimp
     e54:	0001                	nop
     e56:	0002b45b          	0x2b45b
     e5a:	ec00                	fsw	fs0,24(s0)
     e5c:	0002                	0x2
     e5e:	0100                	addi	s0,sp,128
     e60:	5f00                	lw	s0,56(a4)
     e62:	02ec                	addi	a1,sp,332
     e64:	0000                	unimp
     e66:	02f0                	addi	a2,sp,332
     e68:	0000                	unimp
     e6a:	0001                	nop
     e6c:	0002f05b          	0x2f05b
     e70:	1c00                	addi	s0,sp,560
     e72:	01000003          	lb	zero,16(zero) # 10 <buf.1775+0x10>
     e76:	5f00                	lw	s0,56(a4)
     e78:	0334                	addi	a3,sp,392
     e7a:	0000                	unimp
     e7c:	03b4                	addi	a3,sp,456
     e7e:	0000                	unimp
     e80:	0001                	nop
     e82:	b456                	fsd	fs5,40(sp)
     e84:	00000003          	lb	zero,0(zero) # 0 <buf.1775>
     e88:	0004                	addi	s1,sp,0
     e8a:	0100                	addi	s0,sp,128
     e8c:	5f00                	lw	s0,56(a4)
     e8e:	0428                	addi	a0,sp,520
     e90:	0000                	unimp
     e92:	042c                	addi	a1,sp,520
     e94:	0000                	unimp
     e96:	0001                	nop
     e98:	00042c5b          	0x42c5b
     e9c:	3400                	fld	fs0,40(s0)
     e9e:	0004                	addi	s1,sp,0
     ea0:	0100                	addi	s0,sp,128
     ea2:	5f00                	lw	s0,56(a4)
	...
     eac:	01f8                	addi	a4,sp,204
     eae:	0000                	unimp
     eb0:	0220                	addi	s0,sp,264
     eb2:	0000                	unimp
     eb4:	0001                	nop
     eb6:	0003345b          	0x3345b
     eba:	3800                	fld	fs0,48(s0)
     ebc:	01000003          	lb	zero,16(zero) # 10 <buf.1775+0x10>
     ec0:	5e00                	lw	s0,56(a2)
	...
     eca:	00ec                	addi	a1,sp,76
     ecc:	0000                	unimp
     ece:	00f4                	addi	a3,sp,76
     ed0:	0000                	unimp
     ed2:	0001                	nop
     ed4:	b45e                	fsd	fs7,40(sp)
     ed6:	28000003          	lb	zero,640(zero) # 280 <trap_entry+0x1c>
     eda:	0004                	addi	s1,sp,0
     edc:	0100                	addi	s0,sp,128
     ede:	5e00                	lw	s0,56(a2)
	...
     ee8:	0148                	addi	a0,sp,132
     eea:	0000                	unimp
     eec:	014c                	addi	a1,sp,132
     eee:	0000                	unimp
     ef0:	0002                	0x2
     ef2:	9f31                	0x9f31
     ef4:	014c                	addi	a1,sp,132
     ef6:	0000                	unimp
     ef8:	01d4                	addi	a3,sp,196
     efa:	0000                	unimp
     efc:	0001                	nop
     efe:	0002985b          	0x2985b
     f02:	9c00                	0x9c00
     f04:	0002                	0x2
     f06:	0100                	addi	s0,sp,128
     f08:	5b00                	lw	s0,48(a4)
	...
     f12:	01f0                	addi	a2,sp,204
     f14:	0000                	unimp
     f16:	0200                	addi	s0,sp,256
     f18:	0000                	unimp
     f1a:	0001                	nop
     f1c:	005d                	c.addi	zero,23
     f1e:	20000003          	lb	zero,512(zero) # 200 <_start>
     f22:	01000003          	lb	zero,16(zero) # 10 <buf.1775+0x10>
     f26:	6000                	flw	fs0,0(s0)
	...
     f30:	004c                	addi	a1,sp,4
     f32:	0000                	unimp
     f34:	007c                	addi	a5,sp,12
     f36:	0000                	unimp
     f38:	0001                	nop
     f3a:	405e                	0x405e
     f3c:	0001                	nop
     f3e:	4c00                	lw	s0,24(s0)
     f40:	0001                	nop
     f42:	0100                	addi	s0,sp,128
     f44:	5e00                	lw	s0,56(a2)
     f46:	01f0                	addi	a2,sp,204
     f48:	0000                	unimp
     f4a:	020c                	addi	a1,sp,256
     f4c:	0000                	unimp
     f4e:	0001                	nop
     f50:	d45e                	sw	s7,40(sp)
     f52:	0002                	0x2
     f54:	ec00                	fsw	fs0,24(s0)
     f56:	0002                	0x2
     f58:	0100                	addi	s0,sp,128
     f5a:	5b00                	lw	s0,48(a4)
     f5c:	0300                	addi	s0,sp,384
     f5e:	0000                	unimp
     f60:	041c                	addi	a5,sp,512
     f62:	0000                	unimp
     f64:	0001                	nop
     f66:	0000005b          	0x5b
     f6a:	0000                	unimp
     f6c:	0000                	unimp
     f6e:	2000                	fld	fs0,0(s0)
     f70:	0000                	unimp
     f72:	5000                	lw	s0,32(s0)
     f74:	0000                	unimp
     f76:	0100                	addi	s0,sp,128
     f78:	5c00                	lw	s0,56(s0)
     f7a:	0050                	addi	a2,sp,4
     f7c:	0000                	unimp
     f7e:	005c                	addi	a5,sp,4
     f80:	0000                	unimp
     f82:	0006                	0x6
     f84:	007c                	addi	a5,sp,12
     f86:	007e                	0x7e
     f88:	9f24                	0x9f24
     f8a:	005c                	addi	a5,sp,4
     f8c:	0000                	unimp
     f8e:	00ec                	addi	a1,sp,76
     f90:	0000                	unimp
     f92:	0001                	nop
     f94:	f460                	fsw	fs0,108(s0)
     f96:	0000                	unimp
     f98:	0800                	addi	s0,sp,16
     f9a:	0001                	nop
     f9c:	0100                	addi	s0,sp,128
     f9e:	5c00                	lw	s0,56(s0)
	...
     fa8:	0034                	addi	a3,sp,8
     faa:	0000                	unimp
     fac:	0044                	addi	s1,sp,4
     fae:	0000                	unimp
     fb0:	0001                	nop
     fb2:	005d                	c.addi	zero,23
     fb4:	0000                	unimp
     fb6:	0000                	unimp
     fb8:	0000                	unimp
     fba:	6800                	flw	fs0,16(s0)
     fbc:	0000                	unimp
     fbe:	cc00                	sw	s0,24(s0)
     fc0:	0000                	unimp
     fc2:	0100                	addi	s0,sp,128
     fc4:	5a00                	lw	s0,48(a2)
     fc6:	00cc                	addi	a1,sp,68
     fc8:	0000                	unimp
     fca:	00ec                	addi	a1,sp,76
     fcc:	0000                	unimp
     fce:	0005                	c.addi	zero,1
     fd0:	0080                	addi	s0,sp,64
     fd2:	2540                	fld	fs0,136(a0)
     fd4:	009f 0000 0000      	0x9f
     fda:	0000                	unimp
     fdc:	7400                	flw	fs0,40(s0)
     fde:	0000                	unimp
     fe0:	ec00                	fsw	fs0,24(s0)
     fe2:	0000                	unimp
     fe4:	0100                	addi	s0,sp,128
     fe6:	5c00                	lw	s0,56(s0)
	...
     ff0:	007c                	addi	a5,sp,12
     ff2:	0000                	unimp
     ff4:	0098                	addi	a4,sp,64
     ff6:	0000                	unimp
     ff8:	0001                	nop
     ffa:	985f 0000 e800      	0xe8000000985f
    1000:	0000                	unimp
    1002:	0100                	addi	s0,sp,128
    1004:	5e00                	lw	s0,56(a2)
	...
    100e:	00bc                	addi	a5,sp,72
    1010:	0000                	unimp
    1012:	00d8                	addi	a4,sp,68
    1014:	0000                	unimp
    1016:	0001                	nop
    1018:	d85d                	beqz	s0,fce <core_list_mergesort+0xe6>
    101a:	0000                	unimp
    101c:	ec00                	fsw	fs0,24(s0)
    101e:	0000                	unimp
    1020:	0100                	addi	s0,sp,128
    1022:	5a00                	lw	s0,48(a2)
	...
    102c:	007c                	addi	a5,sp,12
    102e:	0000                	unimp
    1030:	0084                	addi	s1,sp,64
    1032:	0000                	unimp
    1034:	0001                	nop
    1036:	885e                	mv	a6,s7
    1038:	0000                	unimp
    103a:	9400                	0x9400
    103c:	0000                	unimp
    103e:	0100                	addi	s0,sp,128
    1040:	5d00                	lw	s0,56(a0)
    1042:	0098                	addi	a4,sp,64
    1044:	0000                	unimp
    1046:	00bc                	addi	a5,sp,72
    1048:	0000                	unimp
    104a:	0001                	nop
    104c:	005d                	c.addi	zero,23
    104e:	0000                	unimp
    1050:	0000                	unimp
    1052:	0000                	unimp
    1054:	b000                	fsd	fs0,32(s0)
    1056:	0000                	unimp
    1058:	c000                	sw	s0,0(s0)
    105a:	0000                	unimp
    105c:	0100                	addi	s0,sp,128
    105e:	5f00                	lw	s0,56(a4)
    1060:	00c8                	addi	a0,sp,68
    1062:	0000                	unimp
    1064:	00d4                	addi	a3,sp,68
    1066:	0000                	unimp
    1068:	0001                	nop
    106a:	0056                	0x56
    106c:	0000                	unimp
    106e:	0000                	unimp
    1070:	0000                	unimp
    1072:	8000                	0x8000
    1074:	0000                	unimp
    1076:	ec00                	fsw	fs0,24(s0)
    1078:	0000                	unimp
    107a:	0100                	addi	s0,sp,128
    107c:	5b00                	lw	s0,48(a4)
	...
    1086:	03f4                	addi	a3,sp,460
    1088:	0000                	unimp
    108a:	0424                	addi	s1,sp,520
    108c:	0000                	unimp
    108e:	0001                	nop
    1090:	0061                	c.addi	zero,24
    1092:	0000                	unimp
    1094:	0000                	unimp
    1096:	0000                	unimp
    1098:	f400                	fsw	fs0,40(s0)
    109a:	08000003          	lb	zero,128(zero) # 80 <buflen.1776+0x40>
    109e:	0004                	addi	s1,sp,0
    10a0:	1000                	addi	s0,sp,32
    10a2:	8c00                	0x8c00
    10a4:	0a00                	addi	s0,sp,272
    10a6:	ffff                	0xffff
    10a8:	7d1a                	flw	fs10,164(sp)
    10aa:	0a00                	addi	s0,sp,272
    10ac:	ffff                	0xffff
    10ae:	401a                	0x401a
    10b0:	2224                	fld	fs1,64(a2)
    10b2:	089f 0004 1000      	0x10000004089f
    10b8:	0004                	addi	s1,sp,0
    10ba:	1500                	addi	s0,sp,672
    10bc:	8c00                	0x8c00
    10be:	0a00                	addi	s0,sp,272
    10c0:	ffff                	0xffff
    10c2:	8c1a                	mv	s8,t1
    10c4:	4000                	lw	s0,0(s0)
    10c6:	7625                	lui	a2,0xfffe9
    10c8:	2200                	fld	fs0,0(a2)
    10ca:	ff0a                	fsw	ft2,188(sp)
    10cc:	1aff                	0x1aff
    10ce:	2440                	fld	fs0,136(s0)
    10d0:	9f22                	add	t5,t5,s0
	...
    10da:	0334                	addi	a3,sp,392
    10dc:	0000                	unimp
    10de:	0378                	addi	a4,sp,396
    10e0:	0000                	unimp
    10e2:	0001                	nop
    10e4:	786d                	lui	a6,0xffffb
    10e6:	d4000003          	lb	zero,-704(zero) # fffffd40 <__C_STACK_TOP__+0xfffefd40>
    10ea:	05000003          	lb	zero,80(zero) # 50 <buflen.1776+0x10>
    10ee:	7d00                	flw	fs0,56(a0)
    10f0:	4000                	lw	s0,0(s0)
    10f2:	9f25                	0x9f25
	...
    10fc:	0334                	addi	a3,sp,392
    10fe:	0000                	unimp
    1100:	037c                	addi	a5,sp,396
    1102:	0000                	unimp
    1104:	0001                	nop
    1106:	7c5f 0003 d400      	0xd40000037c5f
    110c:	07000003          	lb	zero,112(zero) # 70 <buflen.1776+0x30>
    1110:	7d00                	flw	fs0,56(a0)
    1112:	4000                	lw	s0,0(s0)
    1114:	4024                	lw	s1,64(s0)
    1116:	9f25                	0x9f25
	...
    1120:	0338                	addi	a4,sp,392
    1122:	0000                	unimp
    1124:	0354                	addi	a3,sp,388
    1126:	0000                	unimp
    1128:	0001                	nop
    112a:	545e                	lw	s0,244(sp)
    112c:	a8000003          	lb	zero,-1408(zero) # fffffa80 <__C_STACK_TOP__+0xfffefa80>
    1130:	01000003          	lb	zero,16(zero) # 10 <buf.1775+0x10>
    1134:	6c00                	flw	fs0,24(s0)
	...
    113e:	0370                	addi	a2,sp,396
    1140:	0000                	unimp
    1142:	0394                	addi	a3,sp,448
    1144:	0000                	unimp
    1146:	0001                	nop
    1148:	9460                	0x9460
    114a:	b4000003          	lb	zero,-1216(zero) # fffffb40 <__C_STACK_TOP__+0xfffefb40>
    114e:	01000003          	lb	zero,16(zero) # 10 <buf.1775+0x10>
    1152:	5e00                	lw	s0,56(a2)
	...
    115c:	0334                	addi	a3,sp,392
    115e:	0000                	unimp
    1160:	033c                	addi	a5,sp,392
    1162:	0000                	unimp
    1164:	0001                	nop
    1166:	4461                	li	s0,24
    1168:	50000003          	lb	zero,1280(zero) # 500 <vprintfmt.constprop.0+0x8a>
    116c:	01000003          	lb	zero,16(zero) # 10 <buf.1775+0x10>
    1170:	6000                	flw	fs0,0(s0)
    1172:	0350                	addi	a2,sp,388
    1174:	0000                	unimp
    1176:	0354                	addi	a3,sp,388
    1178:	0000                	unimp
    117a:	0008                	addi	a0,sp,0
    117c:	0076                	0x76
    117e:	2540                	fld	fs0,136(a0)
    1180:	0081                	addi	ra,ra,0
    1182:	9f21                	0x9f21
    1184:	0354                	addi	a3,sp,388
    1186:	0000                	unimp
    1188:	0370                	addi	a2,sp,396
    118a:	0000                	unimp
    118c:	0001                	nop
    118e:	0060                	addi	s0,sp,12
    1190:	0000                	unimp
    1192:	0000                	unimp
    1194:	0000                	unimp
    1196:	6c00                	flw	fs0,24(s0)
    1198:	74000003          	lb	zero,1856(zero) # 740 <vprintfmt.constprop.0+0x2ca>
    119c:	01000003          	lb	zero,16(zero) # 10 <buf.1775+0x10>
    11a0:	6100                	flw	fs0,0(a0)
    11a2:	0384                	addi	s1,sp,448
    11a4:	0000                	unimp
    11a6:	0390                	addi	a2,sp,448
    11a8:	0000                	unimp
    11aa:	0001                	nop
    11ac:	905f 0003 9400      	0x94000003905f
    11b2:	0a000003          	lb	zero,160(zero) # a0 <buflen.1776+0x60>
    11b6:	7600                	flw	fs0,40(a2)
    11b8:	4000                	lw	s0,0(s0)
    11ba:	4024                	lw	s1,64(s0)
    11bc:	8125                	srli	a0,a0,0x9
    11be:	2100                	fld	fs0,0(a0)
    11c0:	949f 0003 0000      	0x3949f
    11c6:	0004                	addi	s1,sp,0
    11c8:	0100                	addi	s0,sp,128
    11ca:	5f00                	lw	s0,56(a4)
	...
    11d4:	0344                	addi	s1,sp,388
    11d6:	0000                	unimp
    11d8:	0378                	addi	a4,sp,396
    11da:	0000                	unimp
    11dc:	0001                	nop
    11de:	786e                	flw	fa6,248(sp)
    11e0:	b0000003          	lb	zero,-1280(zero) # fffffb00 <__C_STACK_TOP__+0xfffefb00>
    11e4:	01000003          	lb	zero,16(zero) # 10 <buf.1775+0x10>
    11e8:	6d00                	flw	fs0,24(a0)
    11ea:	03b0                	addi	a2,sp,456
    11ec:	0000                	unimp
    11ee:	03b8                	addi	a4,sp,456
    11f0:	0000                	unimp
    11f2:	000a                	0xa
    11f4:	007d                	c.addi	zero,31
    11f6:	2440                	fld	fs0,136(s0)
    11f8:	2540                	fld	fs0,136(a0)
    11fa:	0080                	addi	s0,sp,64
    11fc:	9f1e                	add	t5,t5,t2
	...
    1206:	03cc                	addi	a1,sp,452
    1208:	0000                	unimp
    120a:	0410                	addi	a2,sp,512
    120c:	0000                	unimp
    120e:	0001                	nop
    1210:	006c                	addi	a1,sp,12
    1212:	0000                	unimp
    1214:	0000                	unimp
    1216:	0000                	unimp
    1218:	cc00                	sw	s0,24(s0)
    121a:	d8000003          	lb	zero,-640(zero) # fffffd80 <__C_STACK_TOP__+0xfffefd80>
    121e:	06000003          	lb	zero,96(zero) # 60 <buflen.1776+0x20>
    1222:	7600                	flw	fs0,40(a2)
    1224:	7c00                	flw	fs0,56(s0)
    1226:	1e00                	addi	s0,sp,816
    1228:	d89f 0003 dc00      	0xdc000003d89f
    122e:	01000003          	lb	zero,16(zero) # 10 <buf.1775+0x10>
    1232:	5600                	lw	s0,40(a2)
    1234:	03dc                	addi	a5,sp,452
    1236:	0000                	unimp
    1238:	03e4                	addi	s1,sp,460
    123a:	0000                	unimp
    123c:	0009                	c.addi	zero,2
    123e:	7f8d                	lui	t6,0xfffe3
    1240:	007e                	0x7e
    1242:	7c1a                	flw	fs8,164(sp)
    1244:	1e00                	addi	s0,sp,816
    1246:	e49f 0003 0800      	0x8000003e49f
    124c:	0004                	addi	s1,sp,0
    124e:	0100                	addi	s0,sp,128
    1250:	5d00                	lw	s0,56(a0)
    1252:	0408                	addi	a0,sp,512
    1254:	0000                	unimp
    1256:	0410                	addi	a2,sp,512
    1258:	0000                	unimp
    125a:	0008                	addi	a0,sp,0
    125c:	008c                	addi	a1,sp,64
    125e:	2540                	fld	fs0,136(a0)
    1260:	0076                	0x76
    1262:	9f22                	add	t5,t5,s0
	...
    126c:	03d0                	addi	a2,sp,452
    126e:	0000                	unimp
    1270:	0428                	addi	a0,sp,520
    1272:	0000                	unimp
    1274:	0001                	nop
    1276:	0060                	addi	s0,sp,12
    1278:	0000                	unimp
    127a:	0000                	unimp
    127c:	0000                	unimp
    127e:	e400                	fsw	fs0,8(s0)
    1280:	f4000003          	lb	zero,-192(zero) # ffffff40 <__C_STACK_TOP__+0xfffeff40>
    1284:	01000003          	lb	zero,16(zero) # 10 <buf.1775+0x10>
    1288:	6100                	flw	fs0,0(a0)
	...
    1292:	03bc                	addi	a5,sp,456
    1294:	0000                	unimp
    1296:	03d8                	addi	a4,sp,452
    1298:	0000                	unimp
    129a:	0001                	nop
    129c:	d856                	sw	s5,48(sp)
    129e:	04000003          	lb	zero,64(zero) # 40 <buflen.1776>
    12a2:	0004                	addi	s1,sp,0
    12a4:	0600                	addi	s0,sp,768
    12a6:	8d00                	0x8d00
    12a8:	7e7f                	0x7e7f
    12aa:	1a00                	addi	s0,sp,304
    12ac:	049f 0004 2000      	0x20000004049f
    12b2:	0004                	addi	s1,sp,0
    12b4:	0600                	addi	s0,sp,768
    12b6:	7e00                	flw	fs0,56(a2)
    12b8:	7f00                	flw	fs0,56(a4)
    12ba:	1a00                	addi	s0,sp,304
    12bc:	209f 0004 2400      	0x24000004209f
    12c2:	0004                	addi	s1,sp,0
    12c4:	0600                	addi	s0,sp,768
    12c6:	8d00                	0x8d00
    12c8:	7e7f                	0x7e7f
    12ca:	1a00                	addi	s0,sp,304
    12cc:	249f 0004 2800      	0x28000004249f
    12d2:	0004                	addi	s1,sp,0
    12d4:	0600                	addi	s0,sp,768
    12d6:	7e00                	flw	fs0,56(a2)
    12d8:	8d01                	sub	a0,a0,s0
    12da:	1a7f                	0x1a7f
    12dc:	009f 0000 0000      	0x9f
    12e2:	0000                	unimp
    12e4:	c400                	sw	s0,8(s0)
    12e6:	d0000003          	lb	zero,-768(zero) # fffffd00 <__C_STACK_TOP__+0xfffefd00>
    12ea:	01000003          	lb	zero,16(zero) # 10 <buf.1775+0x10>
    12ee:	6000                	flw	fs0,0(s0)
	...
    12f8:	03c0                	addi	s0,sp,452
    12fa:	0000                	unimp
    12fc:	03e4                	addi	s1,sp,460
    12fe:	0000                	unimp
    1300:	0001                	nop
    1302:	e461                	bnez	s0,13ca <core_list_init+0x1c6>
    1304:	24000003          	lb	zero,576(zero) # 240 <_start+0x40>
    1308:	0004                	addi	s1,sp,0
    130a:	0500                	addi	s0,sp,640
    130c:	7e00                	flw	fs0,56(a2)
    130e:	4000                	lw	s0,0(s0)
    1310:	9f25                	0x9f25
    1312:	0424                	addi	s1,sp,520
    1314:	0000                	unimp
    1316:	0428                	addi	a0,sp,520
    1318:	0000                	unimp
    131a:	0005                	c.addi	zero,1
    131c:	017e                	slli	sp,sp,0x1f
    131e:	2540                	fld	fs0,136(a0)
    1320:	009f 0000 0000      	0x9f
    1326:	0000                	unimp
    1328:	c800                	sw	s0,16(s0)
    132a:	f0000003          	lb	zero,-256(zero) # ffffff00 <__C_STACK_TOP__+0xfffeff00>
    132e:	01000003          	lb	zero,16(zero) # 10 <buf.1775+0x10>
    1332:	5c00                	lw	s0,56(s0)
	...
    133c:	0114                	addi	a3,sp,128
    133e:	0000                	unimp
    1340:	01d4                	addi	a3,sp,196
    1342:	0000                	unimp
    1344:	0001                	nop
    1346:	dc60                	sw	s0,124(s0)
    1348:	0001                	nop
    134a:	f000                	fsw	fs0,32(s0)
    134c:	0001                	nop
    134e:	0100                	addi	s0,sp,128
    1350:	6000                	flw	fs0,0(s0)
    1352:	01f0                	addi	a2,sp,204
    1354:	0000                	unimp
    1356:	01f4                	addi	a3,sp,204
    1358:	0000                	unimp
    135a:	0006                	0x6
    135c:	0080                	addi	s0,sp,64
    135e:	007e                	0x7e
    1360:	9f24                	0x9f24
    1362:	01f4                	addi	a3,sp,204
    1364:	0000                	unimp
    1366:	029c                	addi	a5,sp,320
    1368:	0000                	unimp
    136a:	0001                	nop
    136c:	0060                	addi	s0,sp,12
    136e:	0000                	unimp
    1370:	0000                	unimp
    1372:	0000                	unimp
    1374:	2800                	fld	fs0,16(s0)
    1376:	0001                	nop
    1378:	4c00                	lw	s0,24(s0)
    137a:	0001                	nop
    137c:	0100                	addi	s0,sp,128
    137e:	6100                	flw	fs0,0(a0)
    1380:	01f0                	addi	a2,sp,204
    1382:	0000                	unimp
    1384:	0210                	addi	a2,sp,256
    1386:	0000                	unimp
    1388:	0001                	nop
    138a:	0061                	c.addi	zero,24
    138c:	0000                	unimp
    138e:	0000                	unimp
    1390:	0000                	unimp
    1392:	5000                	lw	s0,32(s0)
    1394:	0001                	nop
    1396:	d400                	sw	s0,40(s0)
    1398:	0001                	nop
    139a:	0100                	addi	s0,sp,128
    139c:	5c00                	lw	s0,56(s0)
	...
    13a6:	0158                	addi	a4,sp,132
    13a8:	0000                	unimp
    13aa:	01b0                	addi	a2,sp,200
    13ac:	0000                	unimp
    13ae:	0001                	nop
    13b0:	b061                	j	c38 <putchar+0xba>
    13b2:	0001                	nop
    13b4:	d400                	sw	s0,40(s0)
    13b6:	0001                	nop
    13b8:	0700                	addi	s0,sp,896
    13ba:	8000                	0x8000
    13bc:	4000                	lw	s0,0(s0)
    13be:	4024                	lw	s1,64(s0)
    13c0:	9f25                	0x9f25
	...
    13ca:	0164                	addi	s1,sp,140
    13cc:	0000                	unimp
    13ce:	0180                	addi	s0,sp,192
    13d0:	0000                	unimp
    13d2:	0001                	nop
    13d4:	805f 0001 d000      	0xd0000001805f
    13da:	0001                	nop
    13dc:	0100                	addi	s0,sp,128
    13de:	5e00                	lw	s0,56(a2)
	...
    13e8:	01a4                	addi	s1,sp,200
    13ea:	0000                	unimp
    13ec:	01c0                	addi	s0,sp,196
    13ee:	0000                	unimp
    13f0:	0001                	nop
    13f2:	c05d                	beqz	s0,1498 <core_list_init+0x294>
    13f4:	0001                	nop
    13f6:	d400                	sw	s0,40(s0)
    13f8:	0001                	nop
    13fa:	0100                	addi	s0,sp,128
    13fc:	5a00                	lw	s0,48(a2)
	...
    1406:	0160                	addi	s0,sp,140
    1408:	0000                	unimp
    140a:	0168                	addi	a0,sp,140
    140c:	0000                	unimp
    140e:	0001                	nop
    1410:	705e                	flw	ft0,244(sp)
    1412:	0001                	nop
    1414:	7c00                	flw	fs0,56(s0)
    1416:	0001                	nop
    1418:	0100                	addi	s0,sp,128
    141a:	5d00                	lw	s0,56(a0)
    141c:	0180                	addi	s0,sp,192
    141e:	0000                	unimp
    1420:	01a4                	addi	s1,sp,200
    1422:	0000                	unimp
    1424:	0001                	nop
    1426:	005d                	c.addi	zero,23
    1428:	0000                	unimp
    142a:	0000                	unimp
    142c:	0000                	unimp
    142e:	9800                	0x9800
    1430:	0001                	nop
    1432:	a800                	fsd	fs0,16(s0)
    1434:	0001                	nop
    1436:	0100                	addi	s0,sp,128
    1438:	5f00                	lw	s0,56(a4)
    143a:	01b0                	addi	a2,sp,200
    143c:	0000                	unimp
    143e:	01bc                	addi	a5,sp,200
    1440:	0000                	unimp
    1442:	0001                	nop
    1444:	0056                	0x56
    1446:	0000                	unimp
    1448:	0000                	unimp
    144a:	0000                	unimp
    144c:	7000                	flw	fs0,32(s0)
    144e:	0001                	nop
    1450:	b000                	fsd	fs0,32(s0)
    1452:	0001                	nop
    1454:	0100                	addi	s0,sp,128
    1456:	5a00                	lw	s0,48(a2)
    1458:	01b0                	addi	a2,sp,200
    145a:	0000                	unimp
    145c:	01d4                	addi	a3,sp,196
    145e:	0000                	unimp
    1460:	0001                	nop
    1462:	0061                	c.addi	zero,24
    1464:	0000                	unimp
    1466:	0000                	unimp
    1468:	0000                	unimp
    146a:	1000                	addi	s0,sp,32
    146c:	0002                	0x2
    146e:	9c00                	0x9c00
    1470:	0002                	0x2
    1472:	0100                	addi	s0,sp,128
    1474:	5a00                	lw	s0,48(a2)
	...
    147e:	0218                	addi	a4,sp,256
    1480:	0000                	unimp
    1482:	026c                	addi	a1,sp,268
    1484:	0000                	unimp
    1486:	0001                	nop
    1488:	6c5f 0002 9c00      	0x9c0000026c5f
    148e:	0002                	0x2
    1490:	0700                	addi	s0,sp,896
    1492:	8000                	0x8000
    1494:	4000                	lw	s0,0(s0)
    1496:	4024                	lw	s1,64(s0)
    1498:	9f25                	0x9f25
	...
    14a2:	0220                	addi	s0,sp,264
    14a4:	0000                	unimp
    14a6:	023c                	addi	a5,sp,264
    14a8:	0000                	unimp
    14aa:	0001                	nop
    14ac:	00023c5b          	0x23c5b
    14b0:	9c00                	0x9c00
    14b2:	0002                	0x2
    14b4:	0100                	addi	s0,sp,128
    14b6:	5c00                	lw	s0,56(s0)
	...
    14c0:	0260                	addi	s0,sp,268
    14c2:	0000                	unimp
    14c4:	027c                	addi	a5,sp,268
    14c6:	0000                	unimp
    14c8:	0001                	nop
    14ca:	7c5d                	lui	s8,0xffff7
    14cc:	0002                	0x2
    14ce:	9c00                	0x9c00
    14d0:	0002                	0x2
    14d2:	0100                	addi	s0,sp,128
    14d4:	5e00                	lw	s0,56(a2)
	...
    14de:	0218                	addi	a4,sp,256
    14e0:	0000                	unimp
    14e2:	0224                	addi	s1,sp,264
    14e4:	0000                	unimp
    14e6:	0001                	nop
    14e8:	2c5e                	fld	fs8,464(sp)
    14ea:	0002                	0x2
    14ec:	3800                	fld	fs0,48(s0)
    14ee:	0002                	0x2
    14f0:	0100                	addi	s0,sp,128
    14f2:	5e00                	lw	s0,56(a2)
    14f4:	023c                	addi	a5,sp,264
    14f6:	0000                	unimp
    14f8:	0250                	addi	a2,sp,260
    14fa:	0000                	unimp
    14fc:	0001                	nop
    14fe:	505e                	0x505e
    1500:	0002                	0x2
    1502:	6000                	flw	fs0,0(s0)
    1504:	0002                	0x2
    1506:	0100                	addi	s0,sp,128
    1508:	5d00                	lw	s0,56(a0)
	...
    1512:	0254                	addi	a3,sp,260
    1514:	0000                	unimp
    1516:	0264                	addi	s1,sp,268
    1518:	0000                	unimp
    151a:	0001                	nop
    151c:	6c5e                	flw	fs8,212(sp)
    151e:	0002                	0x2
    1520:	7800                	flw	fs0,48(s0)
    1522:	0002                	0x2
    1524:	0100                	addi	s0,sp,128
    1526:	5f00                	lw	s0,56(a4)
    1528:	027c                	addi	a5,sp,268
    152a:	0000                	unimp
    152c:	029c                	addi	a5,sp,320
    152e:	0000                	unimp
    1530:	0001                	nop
    1532:	005f 0000 0000      	0x5f
    1538:	0000                	unimp
    153a:	2c00                	fld	fs0,24(s0)
    153c:	0002                	0x2
    153e:	5000                	lw	s0,32(s0)
    1540:	0002                	0x2
    1542:	0100                	addi	s0,sp,128
    1544:	5d00                	lw	s0,56(a0)
    1546:	0250                	addi	a2,sp,260
    1548:	0000                	unimp
    154a:	0268                	addi	a0,sp,268
    154c:	0000                	unimp
    154e:	0006                	0x6
    1550:	007f                	0x7f
    1552:	9f1e007b          	0x9f1e007b
    1556:	0268                	addi	a0,sp,268
    1558:	0000                	unimp
    155a:	0294                	addi	a3,sp,320
    155c:	0000                	unimp
    155e:	0001                	nop
    1560:	0002945b          	0x2945b
    1564:	9c00                	0x9c00
    1566:	0002                	0x2
    1568:	0a00                	addi	s0,sp,272
    156a:	8000                	0x8000
    156c:	4000                	lw	s0,0(s0)
    156e:	4024                	lw	s1,64(s0)
    1570:	7d25                	lui	s10,0xfffe9
    1572:	1e00                	addi	s0,sp,816
    1574:	009f 0000 0000      	0x9f
    157a:	0000                	unimp
    157c:	a000                	fsd	fs0,0(s0)
    157e:	0002                	0x2
    1580:	0800                	addi	s0,sp,16
    1582:	01000003          	lb	zero,16(zero) # 10 <buf.1775+0x10>
    1586:	5d00                	lw	s0,56(a0)
    1588:	0308                	addi	a0,sp,384
    158a:	0000                	unimp
    158c:	0318                	addi	a4,sp,384
    158e:	0000                	unimp
    1590:	0001                	nop
    1592:	0061                	c.addi	zero,24
    1594:	0000                	unimp
    1596:	0000                	unimp
    1598:	0000                	unimp
    159a:	b400                	fsd	fs0,40(s0)
    159c:	0002                	0x2
    159e:	dc00                	sw	s0,56(s0)
    15a0:	0002                	0x2
    15a2:	0100                	addi	s0,sp,128
    15a4:	5e00                	lw	s0,56(a2)
    15a6:	0300                	addi	s0,sp,384
    15a8:	0000                	unimp
    15aa:	0304                	addi	s1,sp,384
    15ac:	0000                	unimp
    15ae:	0001                	nop
    15b0:	005e                	0x5e
	...
    15ba:	0000                	unimp
    15bc:	7000                	flw	fs0,32(s0)
    15be:	0000                	unimp
    15c0:	0600                	addi	s0,sp,768
    15c2:	5a00                	lw	s0,48(a2)
    15c4:	935b0493          	addi	s1,s6,-1739
    15c8:	7004                	flw	fs1,32(s0)
    15ca:	0000                	unimp
    15cc:	e000                	fsw	fs0,0(s0)
    15ce:	0000                	unimp
    15d0:	0600                	addi	s0,sp,768
    15d2:	f300                	fsw	fs0,32(a4)
    15d4:	250af503          	0x250af503
    15d8:	e09f 0000 3400      	0x34000000e09f
    15de:	0001                	nop
    15e0:	0600                	addi	s0,sp,768
    15e2:	5a00                	lw	s0,48(a2)
    15e4:	935b0493          	addi	s1,s6,-1739
    15e8:	3404                	fld	fs1,40(s0)
    15ea:	0001                	nop
    15ec:	a800                	fsd	fs0,16(s0)
    15ee:	0001                	nop
    15f0:	0600                	addi	s0,sp,768
    15f2:	f300                	fsw	fs0,32(a4)
    15f4:	250af503          	0x250af503
    15f8:	a89f 0001 d000      	0xd0000001a89f
    15fe:	0001                	nop
    1600:	0600                	addi	s0,sp,768
    1602:	5a00                	lw	s0,48(a2)
    1604:	935b0493          	addi	s1,s6,-1739
    1608:	d004                	sw	s1,32(s0)
    160a:	0001                	nop
    160c:	4800                	lw	s0,16(s0)
    160e:	0002                	0x2
    1610:	0600                	addi	s0,sp,768
    1612:	f300                	fsw	fs0,32(a4)
    1614:	250af503          	0x250af503
    1618:	489f 0002 9800      	0x98000002489f
    161e:	0002                	0x2
    1620:	0600                	addi	s0,sp,768
    1622:	5a00                	lw	s0,48(a2)
    1624:	935b0493          	addi	s1,s6,-1739
    1628:	9804                	0x9804
    162a:	0002                	0x2
    162c:	a800                	fsd	fs0,16(s0)
    162e:	0002                	0x2
    1630:	0600                	addi	s0,sp,768
    1632:	f300                	fsw	fs0,32(a4)
    1634:	250af503          	0x250af503
    1638:	a89f 0002 f400      	0xf4000002a89f
    163e:	0002                	0x2
    1640:	0600                	addi	s0,sp,768
    1642:	5a00                	lw	s0,48(a2)
    1644:	935b0493          	addi	s1,s6,-1739
    1648:	f404                	fsw	fs1,40(s0)
    164a:	0002                	0x2
    164c:	1000                	addi	s0,sp,32
    164e:	0004                	addi	s1,sp,0
    1650:	0600                	addi	s0,sp,768
    1652:	f300                	fsw	fs0,32(a4)
    1654:	250af503          	0x250af503
    1658:	009f 0000 0000      	0x9f
    165e:	0000                	unimp
    1660:	0000                	unimp
    1662:	0000                	unimp
    1664:	6800                	flw	fs0,16(s0)
    1666:	0000                	unimp
    1668:	0600                	addi	s0,sp,768
    166a:	5c00                	lw	s0,56(s0)
    166c:	935d0493          	addi	s1,s10,-1739 # fffe8935 <__C_STACK_TOP__+0xfffd8935>
    1670:	6804                	flw	fs1,16(s0)
    1672:	0000                	unimp
    1674:	e000                	fsw	fs0,0(s0)
    1676:	0000                	unimp
    1678:	0600                	addi	s0,sp,768
    167a:	f300                	fsw	fs0,32(a4)
    167c:	250cf503          	0x250cf503
    1680:	e09f 0000 fc00      	0xfc000000e09f
    1686:	0000                	unimp
    1688:	0600                	addi	s0,sp,768
    168a:	5c00                	lw	s0,56(s0)
    168c:	935d0493          	addi	s1,s10,-1739
    1690:	fc04                	fsw	fs1,56(s0)
    1692:	0000                	unimp
    1694:	4800                	lw	s0,16(s0)
    1696:	0002                	0x2
    1698:	0600                	addi	s0,sp,768
    169a:	f300                	fsw	fs0,32(a4)
    169c:	250cf503          	0x250cf503
    16a0:	489f 0002 f000      	0xf0000002489f
    16a6:	0002                	0x2
    16a8:	0600                	addi	s0,sp,768
    16aa:	5c00                	lw	s0,56(s0)
    16ac:	935d0493          	addi	s1,s10,-1739
    16b0:	f004                	fsw	fs1,32(s0)
    16b2:	0002                	0x2
    16b4:	1000                	addi	s0,sp,32
    16b6:	0004                	addi	s1,sp,0
    16b8:	0600                	addi	s0,sp,768
    16ba:	f300                	fsw	fs0,32(a4)
    16bc:	250cf503          	0x250cf503
    16c0:	009f 0000 0000      	0x9f
    16c6:	0000                	unimp
    16c8:	a400                	fsd	fs0,8(s0)
    16ca:	0002                	0x2
    16cc:	a800                	fsd	fs0,16(s0)
    16ce:	0002                	0x2
    16d0:	0600                	addi	s0,sp,768
    16d2:	5f00                	lw	s0,56(a4)
    16d4:	93600493          	li	s1,-1738
    16d8:	0004                	addi	s1,sp,0
	...
    16e2:	0000                	unimp
    16e4:	dc00                	sw	s0,56(s0)
    16e6:	0000                	unimp
    16e8:	0600                	addi	s0,sp,768
    16ea:	f200                	fsw	fs0,32(a2)
    16ec:	00002e27          	fsw	ft0,28(zero) # 1c <buf.1775+0x1c>
    16f0:	e000                	fsw	fs0,0(s0)
    16f2:	0000                	unimp
    16f4:	0c00                	addi	s0,sp,528
    16f6:	0004                	addi	s1,sp,0
    16f8:	0600                	addi	s0,sp,768
    16fa:	f200                	fsw	fs0,32(a2)
    16fc:	00002e27          	fsw	ft0,28(zero) # 1c <buf.1775+0x1c>
	...
    170c:	1800                	addi	s0,sp,48
    170e:	0000                	unimp
    1710:	0600                	addi	s0,sp,768
    1712:	5c00                	lw	s0,56(s0)
    1714:	935d0493          	addi	s1,s10,-1739
    1718:	1804                	addi	s1,sp,48
    171a:	0000                	unimp
    171c:	3400                	fld	fs0,40(s0)
    171e:	0000                	unimp
    1720:	0600                	addi	s0,sp,768
    1722:	5c00                	lw	s0,56(s0)
    1724:	935e0493          	addi	s1,t3,-1739
    1728:	e004                	fsw	fs1,0(s0)
    172a:	0000                	unimp
    172c:	e800                	fsw	fs0,16(s0)
    172e:	0000                	unimp
    1730:	0600                	addi	s0,sp,768
    1732:	5c00                	lw	s0,56(s0)
    1734:	935e0493          	addi	s1,t3,-1739
    1738:	f404                	fsw	fs1,40(s0)
    173a:	0000                	unimp
    173c:	fc00                	fsw	fs0,56(s0)
    173e:	0000                	unimp
    1740:	0600                	addi	s0,sp,768
    1742:	5c00                	lw	s0,56(s0)
    1744:	935e0493          	addi	s1,t3,-1739
    1748:	fc04                	fsw	fs1,56(s0)
    174a:	0000                	unimp
    174c:	0000                	unimp
    174e:	0001                	nop
    1750:	0600                	addi	s0,sp,768
    1752:	6100                	flw	fs0,0(a0)
    1754:	935e0493          	addi	s1,t3,-1739
    1758:	4804                	lw	s1,16(s0)
    175a:	0002                	0x2
    175c:	c400                	sw	s0,8(s0)
    175e:	0002                	0x2
    1760:	0600                	addi	s0,sp,768
    1762:	5c00                	lw	s0,56(s0)
    1764:	935d0493          	addi	s1,s10,-1739
    1768:	0004                	addi	s1,sp,0
	...
    1772:	0000                	unimp
    1774:	5400                	lw	s0,40(s0)
    1776:	0000                	unimp
    1778:	0600                	addi	s0,sp,768
    177a:	5a00                	lw	s0,48(a2)
    177c:	935b0493          	addi	s1,s6,-1739
    1780:	5404                	lw	s1,40(s0)
    1782:	0000                	unimp
    1784:	6000                	flw	fs0,0(s0)
    1786:	0000                	unimp
    1788:	0600                	addi	s0,sp,768
    178a:	5a00                	lw	s0,48(a2)
    178c:	93600493          	li	s1,-1738
    1790:	e004                	fsw	fs1,0(s0)
    1792:	0000                	unimp
    1794:	3400                	fld	fs0,40(s0)
    1796:	0001                	nop
    1798:	0600                	addi	s0,sp,768
    179a:	5a00                	lw	s0,48(a2)
    179c:	935b0493          	addi	s1,s6,-1739
    17a0:	a804                	fsd	fs1,16(s0)
    17a2:	0001                	nop
    17a4:	d000                	sw	s0,32(s0)
    17a6:	0001                	nop
    17a8:	0600                	addi	s0,sp,768
    17aa:	5a00                	lw	s0,48(a2)
    17ac:	935b0493          	addi	s1,s6,-1739
    17b0:	4804                	lw	s1,16(s0)
    17b2:	0002                	0x2
    17b4:	9400                	0x9400
    17b6:	0002                	0x2
    17b8:	0600                	addi	s0,sp,768
    17ba:	5a00                	lw	s0,48(a2)
    17bc:	935b0493          	addi	s1,s6,-1739
    17c0:	9404                	0x9404
    17c2:	0002                	0x2
    17c4:	9800                	0x9800
    17c6:	0002                	0x2
    17c8:	0600                	addi	s0,sp,768
    17ca:	5a00                	lw	s0,48(a2)
    17cc:	93600493          	li	s1,-1738
    17d0:	a804                	fsd	fs1,16(s0)
    17d2:	0002                	0x2
    17d4:	d400                	sw	s0,40(s0)
    17d6:	0002                	0x2
    17d8:	0600                	addi	s0,sp,768
    17da:	5a00                	lw	s0,48(a2)
    17dc:	935b0493          	addi	s1,s6,-1739
    17e0:	d404                	sw	s1,40(s0)
    17e2:	0002                	0x2
    17e4:	f400                	fsw	fs0,40(s0)
    17e6:	0002                	0x2
    17e8:	0600                	addi	s0,sp,768
    17ea:	5a00                	lw	s0,48(a2)
    17ec:	93600493          	li	s1,-1738
    17f0:	0004                	addi	s1,sp,0
    17f2:	0000                	unimp
    17f4:	0000                	unimp
    17f6:	0000                	unimp
    17f8:	0400                	addi	s0,sp,512
    17fa:	0000                	unimp
    17fc:	5c00                	lw	s0,56(s0)
    17fe:	0000                	unimp
    1800:	0100                	addi	s0,sp,128
    1802:	5c00                	lw	s0,56(s0)
    1804:	005c                	addi	a5,sp,4
    1806:	0000                	unimp
    1808:	00dc                	addi	a5,sp,68
    180a:	0000                	unimp
    180c:	0001                	nop
    180e:	e061                	bnez	s0,18ce <core_init_matrix+0xf2>
    1810:	0000                	unimp
    1812:	fc00                	fsw	fs0,56(s0)
    1814:	0000                	unimp
    1816:	0100                	addi	s0,sp,128
    1818:	5c00                	lw	s0,56(s0)
    181a:	00fc                	addi	a5,sp,76
    181c:	0000                	unimp
    181e:	0248                	addi	a0,sp,260
    1820:	0000                	unimp
    1822:	0001                	nop
    1824:	4861                	li	a6,24
    1826:	0002                	0x2
    1828:	dc00                	sw	s0,56(s0)
    182a:	01000003          	lb	zero,16(zero) # 10 <buf.1775+0x10>
    182e:	5c00                	lw	s0,56(s0)
	...
    1838:	0008                	addi	a0,sp,0
    183a:	0000                	unimp
    183c:	0018                	addi	a4,sp,0
    183e:	0000                	unimp
    1840:	0001                	nop
    1842:	185d                	addi	a6,a6,-9
    1844:	0000                	unimp
    1846:	3400                	fld	fs0,40(s0)
    1848:	0000                	unimp
    184a:	0100                	addi	s0,sp,128
    184c:	5e00                	lw	s0,56(a2)
    184e:	00e0                	addi	s0,sp,76
    1850:	0000                	unimp
    1852:	00e8                	addi	a0,sp,76
    1854:	0000                	unimp
    1856:	0001                	nop
    1858:	f45e                	fsw	fs7,40(sp)
    185a:	0000                	unimp
    185c:	1400                	addi	s0,sp,544
    185e:	0001                	nop
    1860:	0100                	addi	s0,sp,128
    1862:	5e00                	lw	s0,56(a2)
    1864:	01a8                	addi	a0,sp,200
    1866:	0000                	unimp
    1868:	01b0                	addi	a2,sp,200
    186a:	0000                	unimp
    186c:	0001                	nop
    186e:	485e                	lw	a6,212(sp)
    1870:	0002                	0x2
    1872:	c400                	sw	s0,8(s0)
    1874:	0002                	0x2
    1876:	0100                	addi	s0,sp,128
    1878:	5d00                	lw	s0,56(a0)
    187a:	02c8                	addi	a0,sp,324
    187c:	0000                	unimp
    187e:	040c                	addi	a1,sp,512
    1880:	0000                	unimp
    1882:	0001                	nop
    1884:	005d                	c.addi	zero,23
    1886:	0000                	unimp
    1888:	0000                	unimp
    188a:	0000                	unimp
    188c:	0c00                	addi	s0,sp,528
    188e:	0000                	unimp
    1890:	6400                	flw	fs0,8(s0)
    1892:	0000                	unimp
    1894:	0100                	addi	s0,sp,128
    1896:	5a00                	lw	s0,48(a2)
    1898:	0064                	addi	s1,sp,12
    189a:	0000                	unimp
    189c:	00a8                	addi	a0,sp,72
    189e:	0000                	unimp
    18a0:	0001                	nop
    18a2:	d45f 0000 dc00      	0xdc000000d45f
    18a8:	0000                	unimp
    18aa:	0100                	addi	s0,sp,128
    18ac:	5f00                	lw	s0,56(a4)
    18ae:	00e0                	addi	s0,sp,76
    18b0:	0000                	unimp
    18b2:	0134                	addi	a3,sp,136
    18b4:	0000                	unimp
    18b6:	0001                	nop
    18b8:	a45a                	fsd	fs6,8(sp)
    18ba:	0001                	nop
    18bc:	a800                	fsd	fs0,16(s0)
    18be:	0001                	nop
    18c0:	0100                	addi	s0,sp,128
    18c2:	5f00                	lw	s0,56(a4)
    18c4:	01a8                	addi	a0,sp,200
    18c6:	0000                	unimp
    18c8:	01d0                	addi	a2,sp,196
    18ca:	0000                	unimp
    18cc:	0001                	nop
    18ce:	485a                	lw	a6,148(sp)
    18d0:	0002                	0x2
    18d2:	9800                	0x9800
    18d4:	0002                	0x2
    18d6:	0100                	addi	s0,sp,128
    18d8:	5a00                	lw	s0,48(a2)
    18da:	029c                	addi	a5,sp,320
    18dc:	0000                	unimp
    18de:	02a8                	addi	a0,sp,328
    18e0:	0000                	unimp
    18e2:	0001                	nop
    18e4:	a85f 0002 f400      	0xf4000002a85f
    18ea:	01000003          	lb	zero,16(zero) # 10 <buf.1775+0x10>
    18ee:	5a00                	lw	s0,48(a2)
    18f0:	03fc                	addi	a5,sp,460
    18f2:	0000                	unimp
    18f4:	0404                	addi	s1,sp,512
    18f6:	0000                	unimp
    18f8:	0001                	nop
    18fa:	005e                	0x5e
    18fc:	0000                	unimp
    18fe:	0000                	unimp
    1900:	0000                	unimp
    1902:	1000                	addi	s0,sp,32
    1904:	0000                	unimp
    1906:	5400                	lw	s0,40(s0)
    1908:	0000                	unimp
    190a:	0100                	addi	s0,sp,128
    190c:	5b00                	lw	s0,48(a4)
    190e:	0054                	addi	a3,sp,4
    1910:	0000                	unimp
    1912:	007c                	addi	a5,sp,12
    1914:	0000                	unimp
    1916:	0001                	nop
    1918:	e060                	fsw	fs0,68(s0)
    191a:	0000                	unimp
    191c:	4c00                	lw	s0,24(s0)
    191e:	0001                	nop
    1920:	0100                	addi	s0,sp,128
    1922:	5b00                	lw	s0,48(a4)
    1924:	01a8                	addi	a0,sp,200
    1926:	0000                	unimp
    1928:	01d8                	addi	a4,sp,196
    192a:	0000                	unimp
    192c:	0001                	nop
    192e:	0001d85b          	0x1d85b
    1932:	dc00                	sw	s0,56(s0)
    1934:	0001                	nop
    1936:	0100                	addi	s0,sp,128
    1938:	6000                	flw	fs0,0(s0)
    193a:	01dc                	addi	a5,sp,196
    193c:	0000                	unimp
    193e:	0218                	addi	a4,sp,256
    1940:	0000                	unimp
    1942:	0001                	nop
    1944:	446c                	lw	a1,76(s0)
    1946:	0002                	0x2
    1948:	9400                	0x9400
    194a:	0002                	0x2
    194c:	0100                	addi	s0,sp,128
    194e:	5b00                	lw	s0,48(a4)
    1950:	0294                	addi	a3,sp,320
    1952:	0000                	unimp
    1954:	02a8                	addi	a0,sp,328
    1956:	0000                	unimp
    1958:	0001                	nop
    195a:	a860                	fsd	fs0,208(s0)
    195c:	0002                	0x2
    195e:	d400                	sw	s0,40(s0)
    1960:	0002                	0x2
    1962:	0100                	addi	s0,sp,128
    1964:	5b00                	lw	s0,48(a4)
    1966:	02d4                	addi	a3,sp,324
    1968:	0000                	unimp
    196a:	02f0                	addi	a2,sp,332
    196c:	0000                	unimp
    196e:	0001                	nop
    1970:	f060                	fsw	fs0,100(s0)
    1972:	0002                	0x2
    1974:	7400                	flw	fs0,40(s0)
    1976:	01000003          	lb	zero,16(zero) # 10 <buf.1775+0x10>
    197a:	5f00                	lw	s0,56(a4)
    197c:	037c                	addi	a5,sp,396
    197e:	0000                	unimp
    1980:	03fc                	addi	a5,sp,460
    1982:	0000                	unimp
    1984:	0001                	nop
    1986:	fc6e                	fsw	fs11,56(sp)
    1988:	0c000003          	lb	zero,192(zero) # c0 <buflen.1776+0x80>
    198c:	0004                	addi	s1,sp,0
    198e:	0100                	addi	s0,sp,128
    1990:	5b00                	lw	s0,48(a4)
	...
    199a:	01c4                	addi	s1,sp,196
    199c:	0000                	unimp
    199e:	01ec                	addi	a1,sp,204
    19a0:	0000                	unimp
    19a2:	0001                	nop
    19a4:	f05e                	fsw	fs7,32(sp)
    19a6:	0002                	0x2
    19a8:	f800                	fsw	fs0,48(s0)
    19aa:	0002                	0x2
    19ac:	0100                	addi	s0,sp,128
    19ae:	5e00                	lw	s0,56(a2)
    19b0:	02f8                	addi	a4,sp,332
    19b2:	0000                	unimp
    19b4:	0304                	addi	s1,sp,384
    19b6:	0000                	unimp
    19b8:	0006                	0x6
    19ba:	0080                	addi	s0,sp,64
    19bc:	008d                	addi	ra,ra,3
    19be:	9f25                	0x9f25
	...
    19c8:	028c                	addi	a1,sp,320
    19ca:	0000                	unimp
    19cc:	029c                	addi	a5,sp,320
    19ce:	0000                	unimp
    19d0:	0002                	0x2
    19d2:	9f31                	0x9f31
	...
    19dc:	029c                	addi	a5,sp,320
    19de:	0000                	unimp
    19e0:	02a8                	addi	a0,sp,328
    19e2:	0000                	unimp
    19e4:	0002                	0x2
    19e6:	9f30                	0x9f30
    19e8:	03ec                	addi	a1,sp,460
    19ea:	0000                	unimp
    19ec:	040c                	addi	a1,sp,512
    19ee:	0000                	unimp
    19f0:	0002                	0x2
    19f2:	9f30                	0x9f30
	...
    19fc:	01bc                	addi	a5,sp,200
    19fe:	0000                	unimp
    1a00:	01cc                	addi	a1,sp,196
    1a02:	0000                	unimp
    1a04:	0001                	nop
    1a06:	bc6c                	fsd	fa1,248(s0)
    1a08:	0002                	0x2
    1a0a:	1000                	addi	s0,sp,32
    1a0c:	0004                	addi	s1,sp,0
    1a0e:	0100                	addi	s0,sp,128
    1a10:	6d00                	flw	fs0,24(a0)
	...
    1a1a:	004c                	addi	a1,sp,4
    1a1c:	0000                	unimp
    1a1e:	00dc                	addi	a5,sp,68
    1a20:	0000                	unimp
    1a22:	0001                	nop
    1a24:	2c56                	fld	fs8,336(sp)
    1a26:	0001                	nop
    1a28:	a800                	fsd	fs0,16(s0)
    1a2a:	0001                	nop
    1a2c:	0100                	addi	s0,sp,128
    1a2e:	5600                	lw	s0,40(a2)
    1a30:	01bc                	addi	a5,sp,200
    1a32:	0000                	unimp
    1a34:	0248                	addi	a0,sp,260
    1a36:	0000                	unimp
    1a38:	0001                	nop
    1a3a:	8056                	0x8056
    1a3c:	0002                	0x2
    1a3e:	a800                	fsd	fs0,16(s0)
    1a40:	0002                	0x2
    1a42:	0100                	addi	s0,sp,128
    1a44:	6c00                	flw	fs0,24(s0)
    1a46:	02bc                	addi	a5,sp,328
    1a48:	0000                	unimp
    1a4a:	040c                	addi	a1,sp,512
    1a4c:	0000                	unimp
    1a4e:	0001                	nop
    1a50:	006c                	addi	a1,sp,12
    1a52:	0000                	unimp
    1a54:	0000                	unimp
    1a56:	0000                	unimp
    1a58:	2000                	fld	fs0,0(s0)
    1a5a:	0000                	unimp
    1a5c:	6800                	flw	fs0,16(s0)
    1a5e:	0000                	unimp
    1a60:	0100                	addi	s0,sp,128
    1a62:	5c00                	lw	s0,56(s0)
    1a64:	00e0                	addi	s0,sp,76
    1a66:	0000                	unimp
    1a68:	00f4                	addi	a3,sp,76
    1a6a:	0000                	unimp
    1a6c:	0001                	nop
    1a6e:	005c                	addi	a5,sp,4
    1a70:	0000                	unimp
    1a72:	0000                	unimp
    1a74:	0000                	unimp
    1a76:	3400                	fld	fs0,40(s0)
    1a78:	0000                	unimp
    1a7a:	6c00                	flw	fs0,24(s0)
    1a7c:	0000                	unimp
    1a7e:	0100                	addi	s0,sp,128
    1a80:	5e00                	lw	s0,56(a2)
	...
    1a8a:	0068                	addi	a0,sp,12
    1a8c:	0000                	unimp
    1a8e:	00d4                	addi	a3,sp,68
    1a90:	0000                	unimp
    1a92:	0001                	nop
    1a94:	005c                	addi	a5,sp,4
    1a96:	0000                	unimp
    1a98:	0000                	unimp
    1a9a:	0000                	unimp
    1a9c:	7400                	flw	fs0,40(s0)
    1a9e:	0000                	unimp
    1aa0:	b800                	fsd	fs0,48(s0)
    1aa2:	0000                	unimp
    1aa4:	0100                	addi	s0,sp,128
    1aa6:	5a00                	lw	s0,48(a2)
    1aa8:	00b8                	addi	a4,sp,72
    1aaa:	0000                	unimp
    1aac:	00d4                	addi	a3,sp,68
    1aae:	0000                	unimp
    1ab0:	00810007          	0x810007
    1ab4:	2440                	fld	fs0,136(s0)
    1ab6:	2540                	fld	fs0,136(a0)
    1ab8:	009f 0000 0000      	0x9f
    1abe:	0000                	unimp
    1ac0:	b000                	fsd	fs0,32(s0)
    1ac2:	0000                	unimp
    1ac4:	b400                	fsd	fs0,40(s0)
    1ac6:	0000                	unimp
    1ac8:	0100                	addi	s0,sp,128
    1aca:	5d00                	lw	s0,56(a0)
	...
    1ad4:	0074                	addi	a3,sp,12
    1ad6:	0000                	unimp
    1ad8:	0080                	addi	s0,sp,64
    1ada:	0000                	unimp
    1adc:	0001                	nop
    1ade:	885e                	mv	a6,s7
    1ae0:	0000                	unimp
    1ae2:	b000                	fsd	fs0,32(s0)
    1ae4:	0000                	unimp
    1ae6:	0100                	addi	s0,sp,128
    1ae8:	5d00                	lw	s0,56(a0)
	...
    1af2:	00a4                	addi	s1,sp,72
    1af4:	0000                	unimp
    1af6:	00bc                	addi	a5,sp,72
    1af8:	0000                	unimp
    1afa:	0001                	nop
    1afc:	bc5e                	fsd	fs7,56(sp)
    1afe:	0000                	unimp
    1b00:	d400                	sw	s0,40(s0)
    1b02:	0000                	unimp
    1b04:	0100                	addi	s0,sp,128
    1b06:	5f00                	lw	s0,56(a4)
	...
    1b10:	0088                	addi	a0,sp,64
    1b12:	0000                	unimp
    1b14:	00b4                	addi	a3,sp,72
    1b16:	0000                	unimp
    1b18:	0001                	nop
    1b1a:	b460                	fsd	fs0,232(s0)
    1b1c:	0000                	unimp
    1b1e:	d400                	sw	s0,40(s0)
    1b20:	0000                	unimp
    1b22:	0100                	addi	s0,sp,128
    1b24:	5d00                	lw	s0,56(a0)
	...
    1b2e:	0100                	addi	s0,sp,128
    1b30:	0000                	unimp
    1b32:	0134                	addi	a3,sp,136
    1b34:	0000                	unimp
    1b36:	0001                	nop
    1b38:	a861                	j	1bd0 <matrix_test+0xf2>
    1b3a:	0001                	nop
    1b3c:	c000                	sw	s0,0(s0)
    1b3e:	0001                	nop
    1b40:	0100                	addi	s0,sp,128
    1b42:	6100                	flw	fs0,0(a0)
	...
    1b4c:	0114                	addi	a3,sp,128
    1b4e:	0000                	unimp
    1b50:	0134                	addi	a3,sp,136
    1b52:	0000                	unimp
    1b54:	0001                	nop
    1b56:	bc5e                	fsd	fs7,56(sp)
    1b58:	0001                	nop
    1b5a:	c400                	sw	s0,8(s0)
    1b5c:	0001                	nop
    1b5e:	0100                	addi	s0,sp,128
    1b60:	5e00                	lw	s0,56(a2)
	...
    1b6a:	0138                	addi	a4,sp,136
    1b6c:	0000                	unimp
    1b6e:	01a8                	addi	a0,sp,200
    1b70:	0000                	unimp
    1b72:	0001                	nop
    1b74:	005e                	0x5e
    1b76:	0000                	unimp
    1b78:	0000                	unimp
    1b7a:	0000                	unimp
    1b7c:	4000                	lw	s0,0(s0)
    1b7e:	0001                	nop
    1b80:	8800                	0x8800
    1b82:	0001                	nop
    1b84:	0100                	addi	s0,sp,128
    1b86:	5a00                	lw	s0,48(a2)
    1b88:	0188                	addi	a0,sp,192
    1b8a:	0000                	unimp
    1b8c:	01a8                	addi	a0,sp,200
    1b8e:	0000                	unimp
    1b90:	00810007          	0x810007
    1b94:	2440                	fld	fs0,136(s0)
    1b96:	2540                	fld	fs0,136(a0)
    1b98:	009f 0000 0000      	0x9f
    1b9e:	0000                	unimp
    1ba0:	4c00                	lw	s0,24(s0)
    1ba2:	0001                	nop
    1ba4:	5800                	lw	s0,48(s0)
    1ba6:	0001                	nop
    1ba8:	0100                	addi	s0,sp,128
    1baa:	5b00                	lw	s0,48(a4)
	...
    1bb4:	0180                	addi	s0,sp,192
    1bb6:	0000                	unimp
    1bb8:	0184                	addi	s1,sp,192
    1bba:	0000                	unimp
    1bbc:	0001                	nop
    1bbe:	0000005b          	0x5b
    1bc2:	0000                	unimp
    1bc4:	0000                	unimp
    1bc6:	4800                	lw	s0,16(s0)
    1bc8:	0001                	nop
    1bca:	5000                	lw	s0,32(s0)
    1bcc:	0001                	nop
    1bce:	0100                	addi	s0,sp,128
    1bd0:	5d00                	lw	s0,56(a0)
    1bd2:	0158                	addi	a4,sp,132
    1bd4:	0000                	unimp
    1bd6:	0170                	addi	a2,sp,140
    1bd8:	0000                	unimp
    1bda:	0001                	nop
    1bdc:	705d                	0x705d
    1bde:	0001                	nop
    1be0:	8000                	0x8000
    1be2:	0001                	nop
    1be4:	0100                	addi	s0,sp,128
    1be6:	5b00                	lw	s0,48(a4)
	...
    1bf0:	0174                	addi	a3,sp,140
    1bf2:	0000                	unimp
    1bf4:	018c                	addi	a1,sp,192
    1bf6:	0000                	unimp
    1bf8:	0001                	nop
    1bfa:	8c5d                	or	s0,s0,a5
    1bfc:	0001                	nop
    1bfe:	a800                	fsd	fs0,16(s0)
    1c00:	0001                	nop
    1c02:	0100                	addi	s0,sp,128
    1c04:	5f00                	lw	s0,56(a4)
	...
    1c0e:	0158                	addi	a4,sp,132
    1c10:	0000                	unimp
    1c12:	0170                	addi	a2,sp,140
    1c14:	0000                	unimp
    1c16:	0001                	nop
    1c18:	0001845b          	0x1845b
    1c1c:	a800                	fsd	fs0,16(s0)
    1c1e:	0001                	nop
    1c20:	0100                	addi	s0,sp,128
    1c22:	5b00                	lw	s0,48(a4)
	...
    1c2c:	01dc                	addi	a5,sp,196
    1c2e:	0000                	unimp
    1c30:	0248                	addi	a0,sp,260
    1c32:	0000                	unimp
    1c34:	0001                	nop
    1c36:	005a                	0x5a
    1c38:	0000                	unimp
    1c3a:	0000                	unimp
    1c3c:	0000                	unimp
    1c3e:	e400                	fsw	fs0,8(s0)
    1c40:	0001                	nop
    1c42:	2c00                	fld	fs0,24(s0)
    1c44:	0002                	0x2
    1c46:	0100                	addi	s0,sp,128
    1c48:	5b00                	lw	s0,48(a4)
    1c4a:	022c                	addi	a1,sp,264
    1c4c:	0000                	unimp
    1c4e:	0248                	addi	a0,sp,260
    1c50:	0000                	unimp
    1c52:	00810007          	0x810007
    1c56:	2440                	fld	fs0,136(s0)
    1c58:	2540                	fld	fs0,136(a0)
    1c5a:	009f 0000 0000      	0x9f
    1c60:	0000                	unimp
    1c62:	ec00                	fsw	fs0,24(s0)
    1c64:	0001                	nop
    1c66:	f800                	fsw	fs0,48(s0)
    1c68:	0001                	nop
    1c6a:	0100                	addi	s0,sp,128
    1c6c:	5e00                	lw	s0,56(a2)
	...
    1c76:	0220                	addi	s0,sp,264
    1c78:	0000                	unimp
    1c7a:	0228                	addi	a0,sp,264
    1c7c:	0000                	unimp
    1c7e:	0001                	nop
    1c80:	005c                	addi	a5,sp,4
    1c82:	0000                	unimp
    1c84:	0000                	unimp
    1c86:	0000                	unimp
    1c88:	e400                	fsw	fs0,8(s0)
    1c8a:	0001                	nop
    1c8c:	f000                	fsw	fs0,32(s0)
    1c8e:	0001                	nop
    1c90:	0100                	addi	s0,sp,128
    1c92:	5d00                	lw	s0,56(a0)
    1c94:	01f8                	addi	a4,sp,204
    1c96:	0000                	unimp
    1c98:	0210                	addi	a2,sp,256
    1c9a:	0000                	unimp
    1c9c:	0001                	nop
    1c9e:	105d                	c.addi	zero,-9
    1ca0:	0002                	0x2
    1ca2:	2000                	fld	fs0,0(s0)
    1ca4:	0002                	0x2
    1ca6:	0100                	addi	s0,sp,128
    1ca8:	5c00                	lw	s0,56(s0)
	...
    1cb2:	0214                	addi	a3,sp,256
    1cb4:	0000                	unimp
    1cb6:	0224                	addi	s1,sp,264
    1cb8:	0000                	unimp
    1cba:	0001                	nop
    1cbc:	2c5d                	jal	1f72 <matrix_test+0x494>
    1cbe:	0002                	0x2
    1cc0:	4800                	lw	s0,16(s0)
    1cc2:	0002                	0x2
    1cc4:	0100                	addi	s0,sp,128
    1cc6:	5b00                	lw	s0,48(a4)
	...
    1cd0:	01f8                	addi	a4,sp,204
    1cd2:	0000                	unimp
    1cd4:	0228                	addi	a0,sp,264
    1cd6:	0000                	unimp
    1cd8:	0001                	nop
    1cda:	285e                	fld	fa6,464(sp)
    1cdc:	0002                	0x2
    1cde:	4800                	lw	s0,16(s0)
    1ce0:	0002                	0x2
    1ce2:	0100                	addi	s0,sp,128
    1ce4:	5c00                	lw	s0,56(s0)
	...
    1cee:	024c                	addi	a1,sp,260
    1cf0:	0000                	unimp
    1cf2:	02c4                	addi	s1,sp,324
    1cf4:	0000                	unimp
    1cf6:	0001                	nop
    1cf8:	005d                	c.addi	zero,23
    1cfa:	0000                	unimp
    1cfc:	0000                	unimp
    1cfe:	0000                	unimp
    1d00:	6000                	flw	fs0,0(s0)
    1d02:	0002                	0x2
    1d04:	a800                	fsd	fs0,16(s0)
    1d06:	0002                	0x2
    1d08:	0100                	addi	s0,sp,128
    1d0a:	5e00                	lw	s0,56(a2)
    1d0c:	02bc                	addi	a5,sp,328
    1d0e:	0000                	unimp
    1d10:	02c0                	addi	s0,sp,324
    1d12:	0000                	unimp
    1d14:	0001                	nop
    1d16:	005e                	0x5e
    1d18:	0000                	unimp
    1d1a:	0000                	unimp
    1d1c:	0000                	unimp
    1d1e:	9000                	0x9000
    1d20:	0002                	0x2
    1d22:	9c00                	0x9c00
    1d24:	0002                	0x2
    1d26:	0100                	addi	s0,sp,128
    1d28:	5f00                	lw	s0,56(a4)
	...
    1d32:	03c8                	addi	a0,sp,452
    1d34:	0000                	unimp
    1d36:	03e4                	addi	s1,sp,460
    1d38:	0000                	unimp
    1d3a:	0001                	nop
    1d3c:	0003e85b          	0x3e85b
    1d40:	f800                	fsw	fs0,48(s0)
    1d42:	01000003          	lb	zero,16(zero) # 10 <buf.1775+0x10>
    1d46:	5b00                	lw	s0,48(a4)
	...
    1d50:	03cc                	addi	a1,sp,452
    1d52:	0000                	unimp
    1d54:	03e0                	addi	s0,sp,460
    1d56:	0000                	unimp
    1d58:	0001                	nop
    1d5a:	e85e                	fsw	fs7,16(sp)
    1d5c:	ec000003          	lb	zero,-320(zero) # fffffec0 <__C_STACK_TOP__+0xfffefec0>
    1d60:	01000003          	lb	zero,16(zero) # 10 <buf.1775+0x10>
    1d64:	5c00                	lw	s0,56(s0)
    1d66:	03ec                	addi	a1,sp,460
    1d68:	0000                	unimp
    1d6a:	03f0                	addi	a2,sp,460
    1d6c:	0000                	unimp
    1d6e:	0001                	nop
    1d70:	005e                	0x5e
    1d72:	0000                	unimp
    1d74:	0000                	unimp
    1d76:	0000                	unimp
    1d78:	f400                	fsw	fs0,40(s0)
    1d7a:	0002                	0x2
    1d7c:	3800                	fld	fs0,48(s0)
    1d7e:	01000003          	lb	zero,16(zero) # 10 <buf.1775+0x10>
    1d82:	5b00                	lw	s0,48(a4)
    1d84:	0338                	addi	a4,sp,392
    1d86:	0000                	unimp
    1d88:	040c                	addi	a1,sp,512
    1d8a:	0000                	unimp
    1d8c:	0005                	c.addi	zero,1
    1d8e:	007d                	c.addi	zero,31
    1d90:	2540                	fld	fs0,136(a0)
    1d92:	009f 0000 0000      	0x9f
    1d98:	0000                	unimp
    1d9a:	f400                	fsw	fs0,40(s0)
    1d9c:	0002                	0x2
    1d9e:	3c00                	fld	fs0,56(s0)
    1da0:	01000003          	lb	zero,16(zero) # 10 <buf.1775+0x10>
    1da4:	6e00                	flw	fs0,24(a2)
    1da6:	033c                	addi	a5,sp,392
    1da8:	0000                	unimp
    1daa:	040c                	addi	a1,sp,512
    1dac:	0000                	unimp
    1dae:	007d0007          	0x7d0007
    1db2:	2440                	fld	fs0,136(s0)
    1db4:	2540                	fld	fs0,136(a0)
    1db6:	009f 0000 0000      	0x9f
    1dbc:	0000                	unimp
    1dbe:	f800                	fsw	fs0,48(s0)
    1dc0:	0002                	0x2
    1dc2:	1400                	addi	s0,sp,544
    1dc4:	01000003          	lb	zero,16(zero) # 10 <buf.1775+0x10>
    1dc8:	5e00                	lw	s0,56(a2)
    1dca:	0314                	addi	a3,sp,384
    1dcc:	0000                	unimp
    1dce:	0368                	addi	a0,sp,396
    1dd0:	0000                	unimp
    1dd2:	0001                	nop
    1dd4:	0056                	0x56
    1dd6:	0000                	unimp
    1dd8:	0000                	unimp
    1dda:	0000                	unimp
    1ddc:	3000                	fld	fs0,32(s0)
    1dde:	54000003          	lb	zero,1344(zero) # 540 <vprintfmt.constprop.0+0xca>
    1de2:	01000003          	lb	zero,16(zero) # 10 <buf.1775+0x10>
    1de6:	6100                	flw	fs0,0(a0)
    1de8:	0354                	addi	a3,sp,388
    1dea:	0000                	unimp
    1dec:	038c                	addi	a1,sp,448
    1dee:	0000                	unimp
    1df0:	0001                	nop
    1df2:	005e                	0x5e
    1df4:	0000                	unimp
    1df6:	0000                	unimp
    1df8:	0000                	unimp
    1dfa:	f400                	fsw	fs0,40(s0)
    1dfc:	0002                	0x2
    1dfe:	fc00                	fsw	fs0,56(s0)
    1e00:	0002                	0x2
    1e02:	0100                	addi	s0,sp,128
    1e04:	5600                	lw	s0,40(a2)
    1e06:	02fc                	addi	a5,sp,332
    1e08:	0000                	unimp
    1e0a:	0304                	addi	s1,sp,384
    1e0c:	0000                	unimp
    1e0e:	0009                	c.addi	zero,2
    1e10:	0080                	addi	s0,sp,64
    1e12:	008d                	addi	ra,ra,3
    1e14:	7b25                	lui	s6,0xfffe9
    1e16:	1d00                	addi	s0,sp,688
    1e18:	049f 0003 1000      	0x10000003049f
    1e1e:	01000003          	lb	zero,16(zero) # 10 <buf.1775+0x10>
    1e22:	6100                	flw	fs0,0(a0)
    1e24:	0314                	addi	a3,sp,384
    1e26:	0000                	unimp
    1e28:	0330                	addi	a2,sp,392
    1e2a:	0000                	unimp
    1e2c:	0001                	nop
    1e2e:	0061                	c.addi	zero,24
    1e30:	0000                	unimp
    1e32:	0000                	unimp
    1e34:	0000                	unimp
    1e36:	2c00                	fld	fs0,24(s0)
    1e38:	34000003          	lb	zero,832(zero) # 340 <portable_init+0x6>
    1e3c:	01000003          	lb	zero,16(zero) # 10 <buf.1775+0x10>
    1e40:	6f00                	flw	fs0,24(a4)
    1e42:	0344                	addi	s1,sp,388
    1e44:	0000                	unimp
    1e46:	0350                	addi	a2,sp,388
    1e48:	0000                	unimp
    1e4a:	0001                	nop
    1e4c:	506e                	0x506e
    1e4e:	54000003          	lb	zero,1344(zero) # 540 <vprintfmt.constprop.0+0xca>
    1e52:	0a000003          	lb	zero,160(zero) # a0 <buflen.1776+0x60>
    1e56:	7f00                	flw	fs0,56(a4)
    1e58:	4000                	lw	s0,0(s0)
    1e5a:	4024                	lw	s1,64(s0)
    1e5c:	8f25                	xor	a4,a4,s1
    1e5e:	2100                	fld	fs0,0(a0)
    1e60:	549f 0003 0c00      	0xc000003549f
    1e66:	0004                	addi	s1,sp,0
    1e68:	0100                	addi	s0,sp,128
    1e6a:	6e00                	flw	fs0,24(a2)
	...
    1e74:	0304                	addi	s1,sp,384
    1e76:	0000                	unimp
    1e78:	0338                	addi	a4,sp,392
    1e7a:	0000                	unimp
    1e7c:	0001                	nop
    1e7e:	3860                	fld	fs0,240(s0)
    1e80:	80000003          	lb	zero,-2048(zero) # fffff800 <__C_STACK_TOP__+0xfffef800>
    1e84:	01000003          	lb	zero,16(zero) # 10 <buf.1775+0x10>
    1e88:	5b00                	lw	s0,48(a4)
	...
    1e92:	038c                	addi	a1,sp,448
    1e94:	0000                	unimp
    1e96:	03c4                	addi	s1,sp,452
    1e98:	0000                	unimp
    1e9a:	0001                	nop
    1e9c:	005e                	0x5e
    1e9e:	0000                	unimp
    1ea0:	0000                	unimp
    1ea2:	0000                	unimp
    1ea4:	a400                	fsd	fs0,8(s0)
    1ea6:	bc000003          	lb	zero,-1088(zero) # fffffbc0 <__C_STACK_TOP__+0xfffefbc0>
    1eaa:	01000003          	lb	zero,16(zero) # 10 <buf.1775+0x10>
    1eae:	6000                	flw	fs0,0(s0)
	...
    1eb8:	0390                	addi	a2,sp,448
    1eba:	0000                	unimp
    1ebc:	03b0                	addi	a2,sp,456
    1ebe:	0000                	unimp
    1ec0:	0001                	nop
    1ec2:	005f 0000 0000      	0x5f
    1ec8:	0000                	unimp
    1eca:	9800                	0x9800
    1ecc:	0c000003          	lb	zero,192(zero) # c0 <buflen.1776+0x80>
    1ed0:	0004                	addi	s1,sp,0
    1ed2:	0100                	addi	s0,sp,128
    1ed4:	5600                	lw	s0,40(a2)
	...
    1ede:	0380                	addi	s0,sp,448
    1ee0:	0000                	unimp
    1ee2:	0394                	addi	a3,sp,448
    1ee4:	0000                	unimp
    1ee6:	0001                	nop
    1ee8:	0000005b          	0x5b
    1eec:	0000                	unimp
    1eee:	0000                	unimp
    1ef0:	8800                	0x8800
    1ef2:	90000003          	lb	zero,-1792(zero) # fffff900 <__C_STACK_TOP__+0xfffef900>
    1ef6:	01000003          	lb	zero,16(zero) # 10 <buf.1775+0x10>
    1efa:	5f00                	lw	s0,56(a4)
    1efc:	0390                	addi	a2,sp,448
    1efe:	0000                	unimp
    1f00:	03b4                	addi	a3,sp,456
    1f02:	0000                	unimp
    1f04:	0006                	0x6
    1f06:	7f81                	lui	t6,0xfffe0
    1f08:	007c                	addi	a5,sp,12
    1f0a:	9f1a                	add	t5,t5,t1
    1f0c:	03b4                	addi	a3,sp,456
    1f0e:	0000                	unimp
    1f10:	03dc                	addi	a5,sp,452
    1f12:	0000                	unimp
    1f14:	0006                	0x6
    1f16:	007c                	addi	a5,sp,12
    1f18:	007f                	0x7f
    1f1a:	9f1a                	add	t5,t5,t1
	...
    1f24:	0384                	addi	s1,sp,448
    1f26:	0000                	unimp
    1f28:	0398                	addi	a4,sp,448
    1f2a:	0000                	unimp
    1f2c:	0001                	nop
    1f2e:	0056                	0x56
    1f30:	0000                	unimp
    1f32:	0000                	unimp
    1f34:	0000                	unimp
    1f36:	dc00                	sw	s0,56(s0)
    1f38:	ec000003          	lb	zero,-320(zero) # fffffec0 <__C_STACK_TOP__+0xfffefec0>
    1f3c:	01000003          	lb	zero,16(zero) # 10 <buf.1775+0x10>
    1f40:	5c00                	lw	s0,56(s0)
	...
    1f4a:	03f0                	addi	a2,sp,460
    1f4c:	0000                	unimp
    1f4e:	0404                	addi	s1,sp,512
    1f50:	0000                	unimp
    1f52:	0001                	nop
    1f54:	005e                	0x5e
    1f56:	0000                	unimp
    1f58:	0000                	unimp
    1f5a:	0000                	unimp
	...

Дизассемблирование раздела .debug_aranges:

00000000 <.debug_aranges>:
   0:	001c                	addi	a5,sp,0
   2:	0000                	unimp
   4:	0002                	0x2
   6:	0000                	unimp
   8:	0000                	unimp
   a:	0004                	addi	s1,sp,0
   c:	0000                	unimp
   e:	0000                	unimp
  10:	4978                	lw	a4,84(a0)
  12:	0000                	unimp
  14:	0458                	addi	a4,sp,516
	...
  1e:	0000                	unimp
  20:	001c                	addi	a5,sp,0
  22:	0000                	unimp
  24:	0002                	0x2
  26:	11ad                	addi	gp,gp,-21
  28:	0000                	unimp
  2a:	0004                	addi	s1,sp,0
  2c:	0000                	unimp
  2e:	0000                	unimp
  30:	4dd4                	lw	a3,28(a1)
  32:	0000                	unimp
  34:	0434                	addi	a3,sp,520
	...
  3e:	0000                	unimp
  40:	001c                	addi	a5,sp,0
  42:	0000                	unimp
  44:	0002                	0x2
  46:	000022d7          	0x22d7
  4a:	0004                	addi	s1,sp,0
  4c:	0000                	unimp
  4e:	0000                	unimp
  50:	520c                	lw	a1,32(a2)
  52:	0000                	unimp
  54:	0410                	addi	a2,sp,512
	...
  5e:	0000                	unimp
  60:	0014                	addi	a3,sp,0
  62:	0000                	unimp
  64:	0002                	0x2
  66:	345e                	fld	fs0,496(sp)
  68:	0000                	unimp
  6a:	0004                	addi	s1,sp,0
	...

Дизассемблирование раздела .debug_ranges:

00000000 <.debug_ranges>:
   0:	0030                	addi	a2,sp,8
   2:	0000                	unimp
   4:	010c                	addi	a1,sp,128
   6:	0000                	unimp
   8:	0128                	addi	a0,sp,136
   a:	0000                	unimp
   c:	0458                	addi	a4,sp,516
	...
  16:	0000                	unimp
  18:	0050                	addi	a2,sp,4
  1a:	0000                	unimp
  1c:	007c                	addi	a5,sp,12
  1e:	0000                	unimp
  20:	0128                	addi	a0,sp,136
  22:	0000                	unimp
  24:	013c                	addi	a5,sp,136
	...
  2e:	0000                	unimp
  30:	0148                	addi	a0,sp,132
  32:	0000                	unimp
  34:	0174                	addi	a3,sp,140
  36:	0000                	unimp
  38:	01f0                	addi	a2,sp,204
  3a:	0000                	unimp
  3c:	0204                	addi	s1,sp,256
	...
  46:	0000                	unimp
  48:	0214                	addi	a3,sp,256
  4a:	0000                	unimp
  4c:	021c                	addi	a5,sp,256
  4e:	0000                	unimp
  50:	0224                	addi	s1,sp,264
  52:	0000                	unimp
  54:	0290                	addi	a2,sp,320
	...
  5e:	0000                	unimp
  60:	0294                	addi	a3,sp,320
  62:	0000                	unimp
  64:	02c8                	addi	a0,sp,324
  66:	0000                	unimp
  68:	02f0                	addi	a2,sp,332
  6a:	0000                	unimp
  6c:	0304                	addi	s1,sp,384
	...
  76:	0000                	unimp
  78:	0320                	addi	s0,sp,392
  7a:	0000                	unimp
  7c:	0334                	addi	a3,sp,392
  7e:	0000                	unimp
  80:	033c                	addi	a5,sp,392
  82:	0000                	unimp
  84:	03b0                	addi	a2,sp,456
  86:	0000                	unimp
  88:	03b4                	addi	a3,sp,456
  8a:	0000                	unimp
  8c:	03b8                	addi	a4,sp,456
  8e:	0000                	unimp
  90:	03c0                	addi	s0,sp,452
  92:	0000                	unimp
  94:	03c4                	addi	s1,sp,452
	...
  9e:	0000                	unimp
  a0:	03b0                	addi	a2,sp,456
  a2:	0000                	unimp
  a4:	03b4                	addi	a3,sp,456
  a6:	0000                	unimp
  a8:	03b8                	addi	a4,sp,456
  aa:	0000                	unimp
  ac:	03c0                	addi	s0,sp,452
  ae:	0000                	unimp
  b0:	03c4                	addi	s1,sp,452
  b2:	0000                	unimp
  b4:	0414                	addi	a3,sp,512
	...
  be:	0000                	unimp
  c0:	0004                	addi	s1,sp,0
  c2:	0000                	unimp
  c4:	01d4                	addi	a3,sp,196
  c6:	0000                	unimp
  c8:	01dc                	addi	a5,sp,196
  ca:	0000                	unimp
  cc:	0434                	addi	a3,sp,520
	...
  d6:	0000                	unimp
  d8:	0020                	addi	s0,sp,8
  da:	0000                	unimp
  dc:	004c                	addi	a1,sp,4
  de:	0000                	unimp
  e0:	00f4                	addi	a3,sp,76
  e2:	0000                	unimp
  e4:	0108                	addi	a0,sp,128
	...
  ee:	0000                	unimp
  f0:	00ec                	addi	a1,sp,76
  f2:	0000                	unimp
  f4:	00f4                	addi	a3,sp,76
  f6:	0000                	unimp
  f8:	0300                	addi	s0,sp,384
  fa:	0000                	unimp
  fc:	0428                	addi	a0,sp,520
	...
 106:	0000                	unimp
 108:	030c                	addi	a1,sp,384
 10a:	0000                	unimp
 10c:	0310                	addi	a2,sp,384
 10e:	0000                	unimp
 110:	0314                	addi	a3,sp,384
 112:	0000                	unimp
 114:	0318                	addi	a4,sp,384
 116:	0000                	unimp
 118:	0324                	addi	s1,sp,392
 11a:	0000                	unimp
 11c:	0330                	addi	a2,sp,392
 11e:	0000                	unimp
 120:	0334                	addi	a3,sp,392
 122:	0000                	unimp
 124:	03ac                	addi	a1,sp,456
 126:	0000                	unimp
 128:	03b0                	addi	a2,sp,456
 12a:	0000                	unimp
 12c:	03b4                	addi	a3,sp,456
	...
 136:	0000                	unimp
 138:	03ac                	addi	a1,sp,456
 13a:	0000                	unimp
 13c:	03b0                	addi	a2,sp,456
 13e:	0000                	unimp
 140:	03b4                	addi	a3,sp,456
 142:	0000                	unimp
 144:	03f4                	addi	a3,sp,460
 146:	0000                	unimp
 148:	03fc                	addi	a5,sp,460
 14a:	0000                	unimp
 14c:	0410                	addi	a2,sp,512
 14e:	0000                	unimp
 150:	0414                	addi	a3,sp,512
 152:	0000                	unimp
 154:	0418                	addi	a4,sp,512
	...
 15e:	0000                	unimp
 160:	0114                	addi	a3,sp,128
 162:	0000                	unimp
 164:	0140                	addi	s0,sp,132
 166:	0000                	unimp
 168:	01dc                	addi	a5,sp,196
 16a:	0000                	unimp
 16c:	01f0                	addi	a2,sp,204
	...
 176:	0000                	unimp
 178:	0200                	addi	s0,sp,256
 17a:	0000                	unimp
 17c:	0204                	addi	s1,sp,256
 17e:	0000                	unimp
 180:	0208                	addi	a0,sp,256
 182:	0000                	unimp
 184:	020c                	addi	a1,sp,256
 186:	0000                	unimp
 188:	0210                	addi	a2,sp,256
 18a:	0000                	unimp
 18c:	029c                	addi	a5,sp,320
	...
 196:	0000                	unimp
 198:	02a0                	addi	s0,sp,328
 19a:	0000                	unimp
 19c:	02d4                	addi	a3,sp,324
 19e:	0000                	unimp
 1a0:	02ec                	addi	a1,sp,332
 1a2:	0000                	unimp
 1a4:	0300                	addi	s0,sp,384
	...
 1b2:	0000                	unimp
 1b4:	00dc                	addi	a5,sp,68
 1b6:	0000                	unimp
 1b8:	00e0                	addi	s0,sp,76
 1ba:	0000                	unimp
 1bc:	040c                	addi	a1,sp,512
	...
 1c6:	0000                	unimp
 1c8:	0020                	addi	s0,sp,8
 1ca:	0000                	unimp
 1cc:	004c                	addi	a1,sp,4
 1ce:	0000                	unimp
 1d0:	00e0                	addi	s0,sp,76
 1d2:	0000                	unimp
 1d4:	00f4                	addi	a3,sp,76
	...
 1de:	0000                	unimp
 1e0:	0100                	addi	s0,sp,128
 1e2:	0000                	unimp
 1e4:	012c                	addi	a1,sp,136
 1e6:	0000                	unimp
 1e8:	01a8                	addi	a0,sp,200
 1ea:	0000                	unimp
 1ec:	01bc                	addi	a5,sp,200
	...
 1f6:	0000                	unimp
 1f8:	01cc                	addi	a1,sp,196
 1fa:	0000                	unimp
 1fc:	01d4                	addi	a3,sp,196
 1fe:	0000                	unimp
 200:	01dc                	addi	a5,sp,196
 202:	0000                	unimp
 204:	0248                	addi	a0,sp,260
	...
 20e:	0000                	unimp
 210:	024c                	addi	a1,sp,260
 212:	0000                	unimp
 214:	0280                	addi	s0,sp,320
 216:	0000                	unimp
 218:	02a8                	addi	a0,sp,328
 21a:	0000                	unimp
 21c:	02bc                	addi	a5,sp,328
	...
 226:	0000                	unimp
 228:	02d8                	addi	a4,sp,324
 22a:	0000                	unimp
 22c:	02ec                	addi	a1,sp,332
 22e:	0000                	unimp
 230:	02f4                	addi	a3,sp,332
 232:	0000                	unimp
 234:	0368                	addi	a0,sp,396
 236:	0000                	unimp
 238:	036c                	addi	a1,sp,396
 23a:	0000                	unimp
 23c:	0370                	addi	a2,sp,396
 23e:	0000                	unimp
 240:	0378                	addi	a4,sp,396
 242:	0000                	unimp
 244:	037c                	addi	a5,sp,396
	...
 24e:	0000                	unimp
 250:	0368                	addi	a0,sp,396
 252:	0000                	unimp
 254:	036c                	addi	a1,sp,396
 256:	0000                	unimp
 258:	0370                	addi	a2,sp,396
 25a:	0000                	unimp
 25c:	0378                	addi	a4,sp,396
 25e:	0000                	unimp
 260:	037c                	addi	a5,sp,396
 262:	0000                	unimp
 264:	03cc                	addi	a1,sp,452
	...

Дизассемблирование раздела .debug_line:

00000000 <.debug_line>:
   0:	042a                	slli	s0,s0,0xa
   2:	0000                	unimp
   4:	0002                	0x2
   6:	0296                	slli	t0,t0,0x5
   8:	0000                	unimp
   a:	0101                	addi	sp,sp,0
   c:	000d0efb          	0xd0efb
  10:	0101                	addi	sp,sp,0
  12:	0101                	addi	sp,sp,0
  14:	0000                	unimp
  16:	0100                	addi	s0,sp,128
  18:	0000                	unimp
  1a:	2f01                	jal	72a <vprintfmt.constprop.0+0x2b4>
  1c:	6f68                	flw	fa0,92(a4)
  1e:	656d                	lui	a0,0x1b
  20:	7263732f          	0x7263732f
  24:	6f74                	flw	fa3,92(a4)
  26:	2f736c6f          	jal	s8,36b1c <__C_STACK_TOP__+0x26b1c>
  2a:	6b726f77          	0x6b726f77
  2e:	736f682f          	0x736f682f
  32:	5f74                	lw	a3,124(a4)
  34:	6b726f77          	0x6b726f77
  38:	6f6f742f          	0x6f6f742f
  3c:	736c                	flw	fa1,100(a4)
  3e:	7370752f          	0x7370752f
  42:	7274                	flw	fa3,100(a2)
  44:	6165                	addi	sp,sp,112
  46:	2d6d                	jal	700 <vprintfmt.constprop.0+0x28a>
  48:	2d312e37          	lui	t3,0x2d312
  4c:	7672                	flw	fa2,60(sp)
  4e:	2f653233          	0x2f653233
  52:	6972                	flw	fs2,28(sp)
  54:	2d766373          	csrrsi	t1,0x2d7,12
  58:	2f636367          	0x2f636367
  5c:	696c                	flw	fa1,84(a0)
  5e:	6762                	flw	fa4,24(sp)
  60:	2f006363          	bltu	zero,a6,346 <portable_init+0xc>
  64:	2f74706f          	j	47b5a <__C_STACK_TOP__+0x37b5a>
  68:	74726373          	csrrsi	t1,0x747,4
  6c:	736c6f6f          	jal	t5,c67a2 <__C_STACK_TOP__+0xb67a2>
  70:	3038312f          	0x3038312f
  74:	3131                	jal	fffffc80 <__C_STACK_TOP__+0xfffefc80>
  76:	2f35                	jal	7b2 <vprintfmt.constprop.0+0x33c>
  78:	32356567          	0x32356567
  7c:	36643537          	lui	a0,0x36643
  80:	2f66                	fld	ft10,88(sp)
  82:	6972                	flw	fs2,28(sp)
  84:	36766373          	csrrsi	t1,0x367,12
  88:	2d34                	fld	fa3,88(a0)
  8a:	6e75                	lui	t3,0x1d
  8c:	776f6e6b          	0x776f6e6b
  90:	2d6e                	fld	fs10,216(sp)
  92:	6c65                	lui	s8,0x19
  94:	2f66                	fld	ft10,88(sp)
  96:	6e69                	lui	t3,0x1a
  98:	64756c63          	bltu	a0,t2,6f0 <vprintfmt.constprop.0+0x27a>
  9c:	2f65                	jal	854 <vprintfmt.constprop.0+0x3de>
  9e:	00737973          	csrrci	s2,0x7,6
  a2:	6d6f682f          	0x6d6f682f
  a6:	2f65                	jal	85e <vprintfmt.constprop.0+0x3e8>
  a8:	74726373          	csrrsi	t1,0x747,4
  ac:	736c6f6f          	jal	t5,c67e2 <__C_STACK_TOP__+0xb67e2>
  b0:	726f772f          	0x726f772f
  b4:	6f682f6b          	0x6f682f6b
  b8:	775f7473          	csrrci	s0,0x775,30
  bc:	2f6b726f          	jal	tp,b73b2 <__C_STACK_TOP__+0xa73b2>
  c0:	6f74                	flw	fa3,92(a4)
  c2:	2f736c6f          	jal	s8,36bb8 <__C_STACK_TOP__+0x26bb8>
  c6:	7075                	0x7075
  c8:	65727473          	csrrci	s0,0x657,4
  cc:	6d61                	lui	s10,0x18
  ce:	372d                	jal	fffffff8 <__C_STACK_TOP__+0xfffefff8>
  d0:	312e                	fld	ft2,232(sp)
  d2:	722d                	lui	tp,0xfffeb
  d4:	3376                	fld	ft6,376(sp)
  d6:	6532                	flw	fa0,12(sp)
  d8:	6975622f          	0x6975622f
  dc:	646c                	flw	fa1,76(s0)
  de:	672d                	lui	a4,0xb
  e0:	6e2d6363          	bltu	s10,sp,7c6 <vprintfmt.constprop.0+0x350>
  e4:	7765                	lui	a4,0xffff9
  e6:	696c                	flw	fa1,84(a0)
  e8:	2d62                	fld	fs10,24(sp)
  ea:	67617473          	csrrci	s0,0x676,2
  ee:	3265                	jal	fffffa96 <__C_STACK_TOP__+0xfffefa96>
  f0:	6363672f          	0x6363672f
  f4:	636e692f          	0x636e692f
  f8:	756c                	flw	fa1,108(a0)
  fa:	6564                	flw	fs1,76(a0)
  fc:	2f00                	fld	fs0,24(a4)
  fe:	2f74706f          	j	47bf4 <__C_STACK_TOP__+0x37bf4>
 102:	74726373          	csrrsi	t1,0x747,4
 106:	736c6f6f          	jal	t5,c683c <__C_STACK_TOP__+0xb683c>
 10a:	3038312f          	0x3038312f
 10e:	3131                	jal	fffffd1a <__C_STACK_TOP__+0xfffefd1a>
 110:	2f35                	jal	84c <vprintfmt.constprop.0+0x3d6>
 112:	32356567          	0x32356567
 116:	36643537          	lui	a0,0x36643
 11a:	2f66                	fld	ft10,88(sp)
 11c:	6972                	flw	fs2,28(sp)
 11e:	36766373          	csrrsi	t1,0x367,12
 122:	2d34                	fld	fa3,88(a0)
 124:	6e75                	lui	t3,0x1d
 126:	776f6e6b          	0x776f6e6b
 12a:	2d6e                	fld	fs10,216(sp)
 12c:	6c65                	lui	s8,0x19
 12e:	2f66                	fld	ft10,88(sp)
 130:	6e69                	lui	t3,0x1a
 132:	64756c63          	bltu	a0,t2,78a <vprintfmt.constprop.0+0x314>
 136:	0065                	c.addi	zero,25
 138:	6d6f682f          	0x6d6f682f
 13c:	2f65                	jal	8f4 <vprintfmt.constprop.0+0x47e>
 13e:	74726373          	csrrsi	t1,0x747,4
 142:	736c6f6f          	jal	t5,c6878 <__C_STACK_TOP__+0xb6878>
 146:	726f772f          	0x726f772f
 14a:	6f682f6b          	0x6f682f6b
 14e:	775f7473          	csrrci	s0,0x775,30
 152:	2f6b726f          	jal	tp,b7448 <__C_STACK_TOP__+0xa7448>
 156:	6f74                	flw	fa3,92(a4)
 158:	2f736c6f          	jal	s8,36c4e <__C_STACK_TOP__+0x26c4e>
 15c:	7075                	0x7075
 15e:	65727473          	csrrci	s0,0x657,4
 162:	6d61                	lui	s10,0x18
 164:	372d                	jal	8e <buflen.1776+0x4e>
 166:	312e                	fld	ft2,232(sp)
 168:	722d                	lui	tp,0xfffeb
 16a:	3376                	fld	ft6,376(sp)
 16c:	6532                	flw	fa0,12(sp)
 16e:	7369722f          	0x7369722f
 172:	672d7663          	bleu	s2,s10,7de <vprintfmt.constprop.0+0x368>
 176:	6c2f6363          	bltu	t5,sp,83c <vprintfmt.constprop.0+0x3c6>
 17a:	6269                	lui	tp,0x1a
 17c:	2f636367          	0x2f636367
 180:	2e2e                	fld	ft8,200(sp)
 182:	636e692f          	0x636e692f
 186:	756c                	flw	fa1,108(a0)
 188:	6564                	flw	fs1,76(a0)
 18a:	2f00                	fld	fs0,24(a4)
 18c:	6f68                	flw	fa0,92(a4)
 18e:	656d                	lui	a0,0x1b
 190:	7263732f          	0x7263732f
 194:	6f74                	flw	fa3,92(a4)
 196:	2f736c6f          	jal	s8,36c8c <__C_STACK_TOP__+0x26c8c>
 19a:	6b726f77          	0x6b726f77
 19e:	736f682f          	0x736f682f
 1a2:	5f74                	lw	a3,124(a4)
 1a4:	6b726f77          	0x6b726f77
 1a8:	6f6f742f          	0x6f6f742f
 1ac:	736c                	flw	fa1,100(a4)
 1ae:	7370752f          	0x7370752f
 1b2:	7274                	flw	fa3,100(a2)
 1b4:	6165                	addi	sp,sp,112
 1b6:	2d6d                	jal	870 <vprintfmt.constprop.0+0x3fa>
 1b8:	2d312e37          	lui	t3,0x2d312
 1bc:	7672                	flw	fa2,60(sp)
 1be:	2f653233          	0x2f653233
 1c2:	6972                	flw	fs2,28(sp)
 1c4:	2d766373          	csrrsi	t1,0x2d7,12
 1c8:	2f636367          	0x2f636367
 1cc:	696c                	flw	fa1,84(a0)
 1ce:	6762                	flw	fa4,24(sp)
 1d0:	2e2f6363          	bltu	t5,sp,4b6 <vprintfmt.constprop.0+0x40>
 1d4:	2f2e                	fld	ft10,200(sp)
 1d6:	2f636367          	0x2f636367
 1da:	666e6f63          	bltu	t3,t1,858 <vprintfmt.constprop.0+0x3e2>
 1de:	6769                	lui	a4,0x1a
 1e0:	7369722f          	0x7369722f
 1e4:	2e007663          	bleu	zero,zero,4d0 <vprintfmt.constprop.0+0x5a>
 1e8:	2f2e                	fld	ft10,200(sp)
 1ea:	2e2e                	fld	ft8,200(sp)
 1ec:	2f2e2e2f          	0x2f2e2e2f
 1f0:	2e2e                	fld	ft8,200(sp)
 1f2:	672f2e2f          	amoand.w.aqrl	t3,s2,(t5)
 1f6:	00006363          	bltu	zero,zero,1fc <machine_trap_entry+0x3c>
 1fa:	696c                	flw	fa1,84(a0)
 1fc:	6762                	flw	fa4,24(sp)
 1fe:	2e326363          	bltu	tp,gp,4e4 <vprintfmt.constprop.0+0x6e>
 202:	00010063          	beqz	sp,202 <_start+0x2>
 206:	6c00                	flw	fs0,24(s0)
 208:	2e6b636f          	jal	t1,b64ee <__C_STACK_TOP__+0xa64ee>
 20c:	0068                	addi	a0,sp,12
 20e:	0002                	0x2
 210:	5f00                	lw	s0,56(a4)
 212:	7974                	flw	fa3,116(a0)
 214:	6570                	flw	fa2,76(a0)
 216:	00682e73          	csrrs	t3,0x6,a6
 21a:	0002                	0x2
 21c:	7300                	flw	fs0,32(a4)
 21e:	6474                	flw	fa3,76(s0)
 220:	6564                	flw	fs1,76(a0)
 222:	2e66                	fld	ft8,88(sp)
 224:	0068                	addi	a0,sp,12
 226:	72000003          	lb	zero,1824(zero) # 720 <vprintfmt.constprop.0+0x2aa>
 22a:	6565                	lui	a0,0x19
 22c:	746e                	flw	fs0,248(sp)
 22e:	682e                	flw	fa6,200(sp)
 230:	0200                	addi	s0,sp,256
 232:	0000                	unimp
 234:	7265                	lui	tp,0xffff9
 236:	6e72                	flw	ft8,28(sp)
 238:	00682e6f          	jal	t3,8223e <__C_STACK_TOP__+0x7223e>
 23c:	0002                	0x2
 23e:	7300                	flw	fs0,32(a4)
 240:	6474                	flw	fa3,76(s0)
 242:	696c                	flw	fa1,84(a0)
 244:	2e62                	fld	ft8,24(sp)
 246:	0068                	addi	a0,sp,12
 248:	0004                	addi	s1,sp,0
 24a:	7500                	flw	fs0,40(a0)
 24c:	696e                	flw	fs2,216(sp)
 24e:	2e647473          	csrrci	s0,0x2e6,8
 252:	0068                	addi	a0,sp,12
 254:	0002                	0x2
 256:	7400                	flw	fs0,40(s0)
 258:	6d69                	lui	s10,0x1a
 25a:	2e65                	jal	612 <vprintfmt.constprop.0+0x19c>
 25c:	0068                	addi	a0,sp,12
 25e:	0004                	addi	s1,sp,0
 260:	6800                	flw	fs0,16(s0)
 262:	7361                	lui	t1,0xffff8
 264:	7468                	flw	fa0,108(s0)
 266:	6261                	lui	tp,0x18
 268:	682e                	flw	fa6,200(sp)
 26a:	0500                	addi	s0,sp,640
 26c:	0000                	unimp
 26e:	6972                	flw	fs2,28(sp)
 270:	2d766373          	csrrsi	t1,0x2d7,12
 274:	7374706f          	j	481aa <__C_STACK_TOP__+0x381aa>
 278:	682e                	flw	fa6,200(sp)
 27a:	0600                	addi	s0,sp,768
 27c:	0000                	unimp
 27e:	6e69                	lui	t3,0x1a
 280:	632d6e73          	csrrsi	t3,0x632,26
 284:	74736e6f          	jal	t3,371ca <__C_STACK_TOP__+0x271ca>
 288:	6e61                	lui	t3,0x18
 28a:	7374                	flw	fa3,100(a4)
 28c:	682e                	flw	fa6,200(sp)
 28e:	0700                	addi	s0,sp,896
 290:	0000                	unimp
 292:	696c                	flw	fa1,84(a0)
 294:	6762                	flw	fa4,24(sp)
 296:	2e326363          	bltu	tp,gp,57c <vprintfmt.constprop.0+0x106>
 29a:	0068                	addi	a0,sp,12
 29c:	0001                	nop
 29e:	0000                	unimp
 2a0:	0500                	addi	s0,sp,640
 2a2:	7802                	flw	fa6,32(sp)
 2a4:	0049                	c.addi	zero,18
 2a6:	0300                	addi	s0,sp,384
 2a8:	09e6                	slli	s3,s3,0x19
 2aa:	0301                	addi	t1,t1,0
 2ac:	0901                	addi	s2,s2,0
 2ae:	0000                	unimp
 2b0:	0301                	addi	t1,t1,0
 2b2:	0905                	addi	s2,s2,1
 2b4:	0004                	addi	s1,sp,0
 2b6:	0301                	addi	t1,t1,0
 2b8:	0902                	slli	s2,s2,0x0
 2ba:	0004                	addi	s1,sp,0
 2bc:	0301                	addi	t1,t1,0
 2be:	097f                	0x97f
 2c0:	0010                	addi	a2,sp,0
 2c2:	0301                	addi	t1,t1,0
 2c4:	0902                	slli	s2,s2,0x0
 2c6:	0004                	addi	s1,sp,0
 2c8:	0301                	addi	t1,t1,0
 2ca:	0901                	addi	s2,s2,0
 2cc:	0004                	addi	s1,sp,0
 2ce:	0301                	addi	t1,t1,0
 2d0:	7e8e                	flw	ft9,224(sp)
 2d2:	1009                	c.addi	zero,-30
 2d4:	0100                	addi	s0,sp,128
 2d6:	04090103          	lb	sp,64(s2)
 2da:	0100                	addi	s0,sp,128
 2dc:	04090103          	lb	sp,64(s2)
 2e0:	0100                	addi	s0,sp,128
 2e2:	04090103          	lb	sp,64(s2)
 2e6:	0100                	addi	s0,sp,128
 2e8:	04092503          	lw	a0,64(s2)
 2ec:	0100                	addi	s0,sp,128
 2ee:	0c090203          	lb	tp,192(s2)
 2f2:	0100                	addi	s0,sp,128
 2f4:	04090403          	lb	s0,64(s2)
 2f8:	0100                	addi	s0,sp,128
 2fa:	2c090203          	lb	tp,704(s2)
 2fe:	0100                	addi	s0,sp,128
 300:	04090603          	lb	a2,64(s2)
 304:	0100                	addi	s0,sp,128
 306:	08097f03          	0x8097f03
 30a:	0100                	addi	s0,sp,128
 30c:	04090103          	lb	sp,64(s2)
 310:	0100                	addi	s0,sp,128
 312:	04090103          	lb	sp,64(s2)
 316:	0100                	addi	s0,sp,128
 318:	04090303          	lb	t1,64(s2)
 31c:	0100                	addi	s0,sp,128
 31e:	70093103          	0x70093103
 322:	0100                	addi	s0,sp,128
 324:	04090203          	lb	tp,64(s2)
 328:	0100                	addi	s0,sp,128
 32a:	09018803          	lb	a6,144(gp) # 66b0 <__BSS_END__+0x70>
 32e:	0004                	addi	s1,sp,0
 330:	0301                	addi	t1,t1,0
 332:	0901                	addi	s2,s2,0
 334:	0004                	addi	s1,sp,0
 336:	0301                	addi	t1,t1,0
 338:	00140903          	lb	s2,1(s0)
 33c:	0301                	addi	t1,t1,0
 33e:	7eb5                	lui	t4,0xfffed
 340:	0409                	addi	s0,s0,2
 342:	0100                	addi	s0,sp,128
 344:	14091503          	lh	a0,320(s2)
 348:	0100                	addi	s0,sp,128
 34a:	04090103          	lb	sp,64(s2)
 34e:	0100                	addi	s0,sp,128
 350:	08090203          	lb	tp,128(s2)
 354:	0100                	addi	s0,sp,128
 356:	2c090203          	lb	tp,704(s2)
 35a:	0100                	addi	s0,sp,128
 35c:	04090903          	lb	s2,64(s2)
 360:	0100                	addi	s0,sp,128
 362:	04091303          	lh	t1,64(s2)
 366:	0100                	addi	s0,sp,128
 368:	74096203          	0x74096203
 36c:	0100                	addi	s0,sp,128
 36e:	14091403          	lh	s0,320(s2)
 372:	0100                	addi	s0,sp,128
 374:	04090103          	lb	sp,64(s2)
 378:	0100                	addi	s0,sp,128
 37a:	04090203          	lb	tp,64(s2)
 37e:	0100                	addi	s0,sp,128
 380:	04097f03          	0x4097f03
 384:	0100                	addi	s0,sp,128
 386:	04090303          	lb	t1,64(s2)
 38a:	0100                	addi	s0,sp,128
 38c:	08097d03          	0x8097d03
 390:	0100                	addi	s0,sp,128
 392:	08090303          	lb	t1,128(s2)
 396:	0100                	addi	s0,sp,128
 398:	6c091503          	lh	a0,1728(s2)
 39c:	0100                	addi	s0,sp,128
 39e:	04091303          	lh	t1,64(s2)
 3a2:	0100                	addi	s0,sp,128
 3a4:	34090103          	lb	sp,832(s2)
 3a8:	0100                	addi	s0,sp,128
 3aa:	04090a03          	lb	s4,64(s2)
 3ae:	0100                	addi	s0,sp,128
 3b0:	08090303          	lb	t1,128(s2)
 3b4:	0100                	addi	s0,sp,128
 3b6:	10090b03          	lb	s6,256(s2)
 3ba:	0100                	addi	s0,sp,128
 3bc:	0c096703          	0xc096703
 3c0:	0100                	addi	s0,sp,128
 3c2:	14092303          	lw	t1,320(s2)
 3c6:	0100                	addi	s0,sp,128
 3c8:	0c090203          	lb	tp,192(s2)
 3cc:	0100                	addi	s0,sp,128
 3ce:	04090103          	lb	sp,64(s2)
 3d2:	0100                	addi	s0,sp,128
 3d4:	0c090303          	lb	t1,192(s2)
 3d8:	0100                	addi	s0,sp,128
 3da:	14097b03          	0x14097b03
 3de:	0100                	addi	s0,sp,128
 3e0:	04090303          	lb	t1,64(s2)
 3e4:	0100                	addi	s0,sp,128
 3e6:	04090203          	lb	tp,64(s2)
 3ea:	0100                	addi	s0,sp,128
 3ec:	74090103          	lb	sp,1856(s2)
 3f0:	0100                	addi	s0,sp,128
 3f2:	04097f03          	0x4097f03
 3f6:	0100                	addi	s0,sp,128
 3f8:	04090103          	lb	sp,64(s2)
 3fc:	0100                	addi	s0,sp,128
 3fe:	08097f03          	0x8097f03
 402:	0100                	addi	s0,sp,128
 404:	04090103          	lb	sp,64(s2)
 408:	0100                	addi	s0,sp,128
 40a:	50090203          	lb	tp,1280(s2)
 40e:	0100                	addi	s0,sp,128
 410:	0c090303          	lb	t1,192(s2)
 414:	0100                	addi	s0,sp,128
 416:	14090803          	lb	a6,320(s2)
 41a:	0100                	addi	s0,sp,128
 41c:	10090103          	lb	sp,256(s2)
 420:	0100                	addi	s0,sp,128
 422:	08090203          	lb	tp,128(s2)
 426:	0100                	addi	s0,sp,128
 428:	0c09                	addi	s8,s8,2
 42a:	0000                	unimp
 42c:	0101                	addi	sp,sp,0
 42e:	0414                	addi	a3,sp,512
 430:	0000                	unimp
 432:	0002                	0x2
 434:	0296                	slli	t0,t0,0x5
 436:	0000                	unimp
 438:	0101                	addi	sp,sp,0
 43a:	000d0efb          	0xd0efb
 43e:	0101                	addi	sp,sp,0
 440:	0101                	addi	sp,sp,0
 442:	0000                	unimp
 444:	0100                	addi	s0,sp,128
 446:	0000                	unimp
 448:	2f01                	jal	b58 <vprintfmt.constprop.0+0x6e2>
 44a:	6f68                	flw	fa0,92(a4)
 44c:	656d                	lui	a0,0x1b
 44e:	7263732f          	0x7263732f
 452:	6f74                	flw	fa3,92(a4)
 454:	2f736c6f          	jal	s8,36f4a <__C_STACK_TOP__+0x26f4a>
 458:	6b726f77          	0x6b726f77
 45c:	736f682f          	0x736f682f
 460:	5f74                	lw	a3,124(a4)
 462:	6b726f77          	0x6b726f77
 466:	6f6f742f          	0x6f6f742f
 46a:	736c                	flw	fa1,100(a4)
 46c:	7370752f          	0x7370752f
 470:	7274                	flw	fa3,100(a2)
 472:	6165                	addi	sp,sp,112
 474:	2d6d                	jal	b2e <vprintfmt.constprop.0+0x6b8>
 476:	2d312e37          	lui	t3,0x2d312
 47a:	7672                	flw	fa2,60(sp)
 47c:	2f653233          	0x2f653233
 480:	6972                	flw	fs2,28(sp)
 482:	2d766373          	csrrsi	t1,0x2d7,12
 486:	2f636367          	0x2f636367
 48a:	696c                	flw	fa1,84(a0)
 48c:	6762                	flw	fa4,24(sp)
 48e:	2f006363          	bltu	zero,a6,774 <vprintfmt.constprop.0+0x2fe>
 492:	2f74706f          	j	47f88 <__C_STACK_TOP__+0x37f88>
 496:	74726373          	csrrsi	t1,0x747,4
 49a:	736c6f6f          	jal	t5,c6bd0 <__C_STACK_TOP__+0xb6bd0>
 49e:	3038312f          	0x3038312f
 4a2:	3131                	jal	ae <buflen.1776+0x6e>
 4a4:	2f35                	jal	be0 <putchar+0x62>
 4a6:	32356567          	0x32356567
 4aa:	36643537          	lui	a0,0x36643
 4ae:	2f66                	fld	ft10,88(sp)
 4b0:	6972                	flw	fs2,28(sp)
 4b2:	36766373          	csrrsi	t1,0x367,12
 4b6:	2d34                	fld	fa3,88(a0)
 4b8:	6e75                	lui	t3,0x1d
 4ba:	776f6e6b          	0x776f6e6b
 4be:	2d6e                	fld	fs10,216(sp)
 4c0:	6c65                	lui	s8,0x19
 4c2:	2f66                	fld	ft10,88(sp)
 4c4:	6e69                	lui	t3,0x1a
 4c6:	64756c63          	bltu	a0,t2,b1e <vprintfmt.constprop.0+0x6a8>
 4ca:	2f65                	jal	c82 <putchar+0x104>
 4cc:	00737973          	csrrci	s2,0x7,6
 4d0:	6d6f682f          	0x6d6f682f
 4d4:	2f65                	jal	c8c <sc_printf+0x4>
 4d6:	74726373          	csrrsi	t1,0x747,4
 4da:	736c6f6f          	jal	t5,c6c10 <__C_STACK_TOP__+0xb6c10>
 4de:	726f772f          	0x726f772f
 4e2:	6f682f6b          	0x6f682f6b
 4e6:	775f7473          	csrrci	s0,0x775,30
 4ea:	2f6b726f          	jal	tp,b77e0 <__C_STACK_TOP__+0xa77e0>
 4ee:	6f74                	flw	fa3,92(a4)
 4f0:	2f736c6f          	jal	s8,36fe6 <__C_STACK_TOP__+0x26fe6>
 4f4:	7075                	0x7075
 4f6:	65727473          	csrrci	s0,0x657,4
 4fa:	6d61                	lui	s10,0x18
 4fc:	372d                	jal	426 <STACK_SIZE+0x26>
 4fe:	312e                	fld	ft2,232(sp)
 500:	722d                	lui	tp,0xfffeb
 502:	3376                	fld	ft6,376(sp)
 504:	6532                	flw	fa0,12(sp)
 506:	6975622f          	0x6975622f
 50a:	646c                	flw	fa1,76(s0)
 50c:	672d                	lui	a4,0xb
 50e:	6e2d6363          	bltu	s10,sp,bf4 <putchar+0x76>
 512:	7765                	lui	a4,0xffff9
 514:	696c                	flw	fa1,84(a0)
 516:	2d62                	fld	fs10,24(sp)
 518:	67617473          	csrrci	s0,0x676,2
 51c:	3265                	jal	fffffec4 <__C_STACK_TOP__+0xfffefec4>
 51e:	6363672f          	0x6363672f
 522:	636e692f          	0x636e692f
 526:	756c                	flw	fa1,108(a0)
 528:	6564                	flw	fs1,76(a0)
 52a:	2f00                	fld	fs0,24(a4)
 52c:	2f74706f          	j	48022 <__C_STACK_TOP__+0x38022>
 530:	74726373          	csrrsi	t1,0x747,4
 534:	736c6f6f          	jal	t5,c6c6a <__C_STACK_TOP__+0xb6c6a>
 538:	3038312f          	0x3038312f
 53c:	3131                	jal	148 <SIM_STOP+0x50>
 53e:	2f35                	jal	c7a <putchar+0xfc>
 540:	32356567          	0x32356567
 544:	36643537          	lui	a0,0x36643
 548:	2f66                	fld	ft10,88(sp)
 54a:	6972                	flw	fs2,28(sp)
 54c:	36766373          	csrrsi	t1,0x367,12
 550:	2d34                	fld	fa3,88(a0)
 552:	6e75                	lui	t3,0x1d
 554:	776f6e6b          	0x776f6e6b
 558:	2d6e                	fld	fs10,216(sp)
 55a:	6c65                	lui	s8,0x19
 55c:	2f66                	fld	ft10,88(sp)
 55e:	6e69                	lui	t3,0x1a
 560:	64756c63          	bltu	a0,t2,bb8 <putchar+0x3a>
 564:	0065                	c.addi	zero,25
 566:	6d6f682f          	0x6d6f682f
 56a:	2f65                	jal	d22 <calc_func+0x2e>
 56c:	74726373          	csrrsi	t1,0x747,4
 570:	736c6f6f          	jal	t5,c6ca6 <__C_STACK_TOP__+0xb6ca6>
 574:	726f772f          	0x726f772f
 578:	6f682f6b          	0x6f682f6b
 57c:	775f7473          	csrrci	s0,0x775,30
 580:	2f6b726f          	jal	tp,b7876 <__C_STACK_TOP__+0xa7876>
 584:	6f74                	flw	fa3,92(a4)
 586:	2f736c6f          	jal	s8,3707c <__C_STACK_TOP__+0x2707c>
 58a:	7075                	0x7075
 58c:	65727473          	csrrci	s0,0x657,4
 590:	6d61                	lui	s10,0x18
 592:	372d                	jal	4bc <vprintfmt.constprop.0+0x46>
 594:	312e                	fld	ft2,232(sp)
 596:	722d                	lui	tp,0xfffeb
 598:	3376                	fld	ft6,376(sp)
 59a:	6532                	flw	fa0,12(sp)
 59c:	7369722f          	0x7369722f
 5a0:	672d7663          	bleu	s2,s10,c0c <putchar+0x8e>
 5a4:	6c2f6363          	bltu	t5,sp,c6a <putchar+0xec>
 5a8:	6269                	lui	tp,0x1a
 5aa:	2f636367          	0x2f636367
 5ae:	2e2e                	fld	ft8,200(sp)
 5b0:	636e692f          	0x636e692f
 5b4:	756c                	flw	fa1,108(a0)
 5b6:	6564                	flw	fs1,76(a0)
 5b8:	2f00                	fld	fs0,24(a4)
 5ba:	6f68                	flw	fa0,92(a4)
 5bc:	656d                	lui	a0,0x1b
 5be:	7263732f          	0x7263732f
 5c2:	6f74                	flw	fa3,92(a4)
 5c4:	2f736c6f          	jal	s8,370ba <__C_STACK_TOP__+0x270ba>
 5c8:	6b726f77          	0x6b726f77
 5cc:	736f682f          	0x736f682f
 5d0:	5f74                	lw	a3,124(a4)
 5d2:	6b726f77          	0x6b726f77
 5d6:	6f6f742f          	0x6f6f742f
 5da:	736c                	flw	fa1,100(a4)
 5dc:	7370752f          	0x7370752f
 5e0:	7274                	flw	fa3,100(a2)
 5e2:	6165                	addi	sp,sp,112
 5e4:	2d6d                	jal	c9e <sc_printf+0x16>
 5e6:	2d312e37          	lui	t3,0x2d312
 5ea:	7672                	flw	fa2,60(sp)
 5ec:	2f653233          	0x2f653233
 5f0:	6972                	flw	fs2,28(sp)
 5f2:	2d766373          	csrrsi	t1,0x2d7,12
 5f6:	2f636367          	0x2f636367
 5fa:	696c                	flw	fa1,84(a0)
 5fc:	6762                	flw	fa4,24(sp)
 5fe:	2e2f6363          	bltu	t5,sp,8e4 <vprintfmt.constprop.0+0x46e>
 602:	2f2e                	fld	ft10,200(sp)
 604:	2f636367          	0x2f636367
 608:	666e6f63          	bltu	t3,t1,c86 <putchar+0x108>
 60c:	6769                	lui	a4,0x1a
 60e:	7369722f          	0x7369722f
 612:	2e007663          	bleu	zero,zero,8fe <vprintfmt.constprop.0+0x488>
 616:	2f2e                	fld	ft10,200(sp)
 618:	2e2e                	fld	ft8,200(sp)
 61a:	2f2e2e2f          	0x2f2e2e2f
 61e:	2e2e                	fld	ft8,200(sp)
 620:	672f2e2f          	amoand.w.aqrl	t3,s2,(t5)
 624:	00006363          	bltu	zero,zero,62a <vprintfmt.constprop.0+0x1b4>
 628:	696c                	flw	fa1,84(a0)
 62a:	6762                	flw	fa4,24(sp)
 62c:	2e326363          	bltu	tp,gp,912 <vprintfmt.constprop.0+0x49c>
 630:	00010063          	beqz	sp,630 <vprintfmt.constprop.0+0x1ba>
 634:	6c00                	flw	fs0,24(s0)
 636:	2e6b636f          	jal	t1,b691c <__C_STACK_TOP__+0xa691c>
 63a:	0068                	addi	a0,sp,12
 63c:	0002                	0x2
 63e:	5f00                	lw	s0,56(a4)
 640:	7974                	flw	fa3,116(a0)
 642:	6570                	flw	fa2,76(a0)
 644:	00682e73          	csrrs	t3,0x6,a6
 648:	0002                	0x2
 64a:	7300                	flw	fs0,32(a4)
 64c:	6474                	flw	fa3,76(s0)
 64e:	6564                	flw	fs1,76(a0)
 650:	2e66                	fld	ft8,88(sp)
 652:	0068                	addi	a0,sp,12
 654:	72000003          	lb	zero,1824(zero) # 720 <vprintfmt.constprop.0+0x2aa>
 658:	6565                	lui	a0,0x19
 65a:	746e                	flw	fs0,248(sp)
 65c:	682e                	flw	fa6,200(sp)
 65e:	0200                	addi	s0,sp,256
 660:	0000                	unimp
 662:	7265                	lui	tp,0xffff9
 664:	6e72                	flw	ft8,28(sp)
 666:	00682e6f          	jal	t3,8266c <__C_STACK_TOP__+0x7266c>
 66a:	0002                	0x2
 66c:	7300                	flw	fs0,32(a4)
 66e:	6474                	flw	fa3,76(s0)
 670:	696c                	flw	fa1,84(a0)
 672:	2e62                	fld	ft8,24(sp)
 674:	0068                	addi	a0,sp,12
 676:	0004                	addi	s1,sp,0
 678:	7500                	flw	fs0,40(a0)
 67a:	696e                	flw	fs2,216(sp)
 67c:	2e647473          	csrrci	s0,0x2e6,8
 680:	0068                	addi	a0,sp,12
 682:	0002                	0x2
 684:	7400                	flw	fs0,40(s0)
 686:	6d69                	lui	s10,0x1a
 688:	2e65                	jal	a40 <vprintfmt.constprop.0+0x5ca>
 68a:	0068                	addi	a0,sp,12
 68c:	0004                	addi	s1,sp,0
 68e:	6800                	flw	fs0,16(s0)
 690:	7361                	lui	t1,0xffff8
 692:	7468                	flw	fa0,108(s0)
 694:	6261                	lui	tp,0x18
 696:	682e                	flw	fa6,200(sp)
 698:	0500                	addi	s0,sp,640
 69a:	0000                	unimp
 69c:	6972                	flw	fs2,28(sp)
 69e:	2d766373          	csrrsi	t1,0x2d7,12
 6a2:	7374706f          	j	485d8 <__C_STACK_TOP__+0x385d8>
 6a6:	682e                	flw	fa6,200(sp)
 6a8:	0600                	addi	s0,sp,768
 6aa:	0000                	unimp
 6ac:	6e69                	lui	t3,0x1a
 6ae:	632d6e73          	csrrsi	t3,0x632,26
 6b2:	74736e6f          	jal	t3,375f8 <__C_STACK_TOP__+0x275f8>
 6b6:	6e61                	lui	t3,0x18
 6b8:	7374                	flw	fa3,100(a4)
 6ba:	682e                	flw	fa6,200(sp)
 6bc:	0700                	addi	s0,sp,896
 6be:	0000                	unimp
 6c0:	696c                	flw	fa1,84(a0)
 6c2:	6762                	flw	fa4,24(sp)
 6c4:	2e326363          	bltu	tp,gp,9aa <vprintfmt.constprop.0+0x534>
 6c8:	0068                	addi	a0,sp,12
 6ca:	0001                	nop
 6cc:	0000                	unimp
 6ce:	0500                	addi	s0,sp,640
 6d0:	d402                	sw	zero,40(sp)
 6d2:	004d                	c.addi	zero,19
 6d4:	0300                	addi	s0,sp,384
 6d6:	0aa5                	addi	s5,s5,9
 6d8:	0301                	addi	t1,t1,0
 6da:	0900                	addi	s0,sp,144
 6dc:	0000                	unimp
 6de:	0301                	addi	t1,t1,0
 6e0:	7dd9                	lui	s11,0xffff6
 6e2:	0409                	addi	s0,s0,2
 6e4:	0100                	addi	s0,sp,128
 6e6:	04090103          	lb	sp,64(s2)
 6ea:	0100                	addi	s0,sp,128
 6ec:	04090103          	lb	sp,64(s2)
 6f0:	0100                	addi	s0,sp,128
 6f2:	04092603          	lw	a2,64(s2)
 6f6:	0100                	addi	s0,sp,128
 6f8:	0c090203          	lb	tp,192(s2)
 6fc:	0100                	addi	s0,sp,128
 6fe:	04090403          	lb	s0,64(s2)
 702:	0100                	addi	s0,sp,128
 704:	2c090203          	lb	tp,704(s2)
 708:	0100                	addi	s0,sp,128
 70a:	04090603          	lb	a2,64(s2)
 70e:	0100                	addi	s0,sp,128
 710:	08097f03          	0x8097f03
 714:	0100                	addi	s0,sp,128
 716:	04090103          	lb	sp,64(s2)
 71a:	0100                	addi	s0,sp,128
 71c:	04090103          	lb	sp,64(s2)
 720:	0100                	addi	s0,sp,128
 722:	04090303          	lb	t1,64(s2)
 726:	0100                	addi	s0,sp,128
 728:	0900ff03          	0x900ff03
 72c:	0088                	addi	a0,sp,64
 72e:	0301                	addi	t1,t1,0
 730:	7ef5                	lui	t4,0xffffd
 732:	0809                	addi	a6,a6,2
 734:	0100                	addi	s0,sp,128
 736:	14091503          	lh	a0,320(s2)
 73a:	0100                	addi	s0,sp,128
 73c:	04090103          	lb	sp,64(s2)
 740:	0100                	addi	s0,sp,128
 742:	08090203          	lb	tp,128(s2)
 746:	0100                	addi	s0,sp,128
 748:	2c090203          	lb	tp,704(s2)
 74c:	0100                	addi	s0,sp,128
 74e:	04090903          	lb	s2,64(s2)
 752:	0100                	addi	s0,sp,128
 754:	04090103          	lb	sp,64(s2)
 758:	0100                	addi	s0,sp,128
 75a:	04091203          	lh	tp,64(s2)
 75e:	0100                	addi	s0,sp,128
 760:	0901c503          	lbu	a0,144(gp) # 66b0 <__BSS_END__+0x70>
 764:	0088                	addi	a0,sp,64
 766:	0301                	addi	t1,t1,0
 768:	7e9d                	lui	t4,0xfffe7
 76a:	0809                	addi	a6,a6,2
 76c:	0100                	addi	s0,sp,128
 76e:	14091403          	lh	s0,320(s2)
 772:	0100                	addi	s0,sp,128
 774:	04090103          	lb	sp,64(s2)
 778:	0100                	addi	s0,sp,128
 77a:	04090203          	lb	tp,64(s2)
 77e:	0100                	addi	s0,sp,128
 780:	04097f03          	0x4097f03
 784:	0100                	addi	s0,sp,128
 786:	04090303          	lb	t1,64(s2)
 78a:	0100                	addi	s0,sp,128
 78c:	04097d03          	0x4097d03
 790:	0100                	addi	s0,sp,128
 792:	04090303          	lb	t1,64(s2)
 796:	0100                	addi	s0,sp,128
 798:	04097d03          	0x4097d03
 79c:	0100                	addi	s0,sp,128
 79e:	04090303          	lb	t1,64(s2)
 7a2:	0100                	addi	s0,sp,128
 7a4:	8c091503          	lh	a0,-1856(s2)
 7a8:	0100                	addi	s0,sp,128
 7aa:	04091303          	lh	t1,64(s2)
 7ae:	0100                	addi	s0,sp,128
 7b0:	34090103          	lb	sp,832(s2)
 7b4:	0100                	addi	s0,sp,128
 7b6:	04090c03          	lb	s8,64(s2)
 7ba:	0100                	addi	s0,sp,128
 7bc:	04097e03          	0x4097e03
 7c0:	0100                	addi	s0,sp,128
 7c2:	10097503          	0x10097503
 7c6:	0100                	addi	s0,sp,128
 7c8:	14092303          	lw	t1,320(s2)
 7cc:	0100                	addi	s0,sp,128
 7ce:	0c090603          	lb	a2,192(s2)
 7d2:	0100                	addi	s0,sp,128
 7d4:	04097c03          	0x4097c03
 7d8:	0100                	addi	s0,sp,128
 7da:	04090403          	lb	s0,64(s2)
 7de:	0100                	addi	s0,sp,128
 7e0:	04097d03          	0x4097d03
 7e4:	0100                	addi	s0,sp,128
 7e6:	0c090303          	lb	t1,192(s2)
 7ea:	0100                	addi	s0,sp,128
 7ec:	0c097b03          	0xc097b03
 7f0:	0100                	addi	s0,sp,128
 7f2:	04090503          	lb	a0,64(s2)
 7f6:	0100                	addi	s0,sp,128
 7f8:	78090103          	lb	sp,1920(s2)
 7fc:	0100                	addi	s0,sp,128
 7fe:	04097f03          	0x4097f03
 802:	0100                	addi	s0,sp,128
 804:	04090103          	lb	sp,64(s2)
 808:	0100                	addi	s0,sp,128
 80a:	40090203          	lb	tp,1024(s2)
 80e:	0100                	addi	s0,sp,128
 810:	08097e03          	0x8097e03
 814:	0100                	addi	s0,sp,128
 816:	14097d03          	0x14097d03
 81a:	0100                	addi	s0,sp,128
 81c:	04090303          	lb	t1,64(s2)
 820:	0100                	addi	s0,sp,128
 822:	04090803          	lb	a6,64(s2)
 826:	0100                	addi	s0,sp,128
 828:	04097a03          	0x4097a03
 82c:	0100                	addi	s0,sp,128
 82e:	04090203          	lb	tp,64(s2)
 832:	0100                	addi	s0,sp,128
 834:	08094403          	lbu	s0,128(s2)
 838:	0100                	addi	s0,sp,128
 83a:	04097f03          	0x4097f03
 83e:	0100                	addi	s0,sp,128
 840:	0809                	addi	a6,a6,2
 842:	0000                	unimp
 844:	0101                	addi	sp,sp,0
 846:	00000407          	0x407
 84a:	0002                	0x2
 84c:	0296                	slli	t0,t0,0x5
 84e:	0000                	unimp
 850:	0101                	addi	sp,sp,0
 852:	000d0efb          	0xd0efb
 856:	0101                	addi	sp,sp,0
 858:	0101                	addi	sp,sp,0
 85a:	0000                	unimp
 85c:	0100                	addi	s0,sp,128
 85e:	0000                	unimp
 860:	2f01                	jal	f70 <core_list_mergesort+0x88>
 862:	6f68                	flw	fa0,92(a4)
 864:	656d                	lui	a0,0x1b
 866:	7263732f          	0x7263732f
 86a:	6f74                	flw	fa3,92(a4)
 86c:	2f736c6f          	jal	s8,37362 <__C_STACK_TOP__+0x27362>
 870:	6b726f77          	0x6b726f77
 874:	736f682f          	0x736f682f
 878:	5f74                	lw	a3,124(a4)
 87a:	6b726f77          	0x6b726f77
 87e:	6f6f742f          	0x6f6f742f
 882:	736c                	flw	fa1,100(a4)
 884:	7370752f          	0x7370752f
 888:	7274                	flw	fa3,100(a2)
 88a:	6165                	addi	sp,sp,112
 88c:	2d6d                	jal	f46 <core_list_mergesort+0x5e>
 88e:	2d312e37          	lui	t3,0x2d312
 892:	7672                	flw	fa2,60(sp)
 894:	2f653233          	0x2f653233
 898:	6972                	flw	fs2,28(sp)
 89a:	2d766373          	csrrsi	t1,0x2d7,12
 89e:	2f636367          	0x2f636367
 8a2:	696c                	flw	fa1,84(a0)
 8a4:	6762                	flw	fa4,24(sp)
 8a6:	2f006363          	bltu	zero,a6,b8c <putchar+0xe>
 8aa:	2f74706f          	j	483a0 <__C_STACK_TOP__+0x383a0>
 8ae:	74726373          	csrrsi	t1,0x747,4
 8b2:	736c6f6f          	jal	t5,c6fe8 <__C_STACK_TOP__+0xb6fe8>
 8b6:	3038312f          	0x3038312f
 8ba:	3131                	jal	4c6 <vprintfmt.constprop.0+0x50>
 8bc:	2f35                	jal	ff8 <core_list_mergesort+0x110>
 8be:	32356567          	0x32356567
 8c2:	36643537          	lui	a0,0x36643
 8c6:	2f66                	fld	ft10,88(sp)
 8c8:	6972                	flw	fs2,28(sp)
 8ca:	36766373          	csrrsi	t1,0x367,12
 8ce:	2d34                	fld	fa3,88(a0)
 8d0:	6e75                	lui	t3,0x1d
 8d2:	776f6e6b          	0x776f6e6b
 8d6:	2d6e                	fld	fs10,216(sp)
 8d8:	6c65                	lui	s8,0x19
 8da:	2f66                	fld	ft10,88(sp)
 8dc:	6e69                	lui	t3,0x1a
 8de:	64756c63          	bltu	a0,t2,f36 <core_list_mergesort+0x4e>
 8e2:	2f65                	jal	109a <core_bench_list+0x68>
 8e4:	00737973          	csrrci	s2,0x7,6
 8e8:	6d6f682f          	0x6d6f682f
 8ec:	2f65                	jal	10a4 <core_bench_list+0x72>
 8ee:	74726373          	csrrsi	t1,0x747,4
 8f2:	736c6f6f          	jal	t5,c7028 <__C_STACK_TOP__+0xb7028>
 8f6:	726f772f          	0x726f772f
 8fa:	6f682f6b          	0x6f682f6b
 8fe:	775f7473          	csrrci	s0,0x775,30
 902:	2f6b726f          	jal	tp,b7bf8 <__C_STACK_TOP__+0xa7bf8>
 906:	6f74                	flw	fa3,92(a4)
 908:	2f736c6f          	jal	s8,373fe <__C_STACK_TOP__+0x273fe>
 90c:	7075                	0x7075
 90e:	65727473          	csrrci	s0,0x657,4
 912:	6d61                	lui	s10,0x18
 914:	372d                	jal	83e <vprintfmt.constprop.0+0x3c8>
 916:	312e                	fld	ft2,232(sp)
 918:	722d                	lui	tp,0xfffeb
 91a:	3376                	fld	ft6,376(sp)
 91c:	6532                	flw	fa0,12(sp)
 91e:	6975622f          	0x6975622f
 922:	646c                	flw	fa1,76(s0)
 924:	672d                	lui	a4,0xb
 926:	6e2d6363          	bltu	s10,sp,100c <core_list_mergesort+0x124>
 92a:	7765                	lui	a4,0xffff9
 92c:	696c                	flw	fa1,84(a0)
 92e:	2d62                	fld	fs10,24(sp)
 930:	67617473          	csrrci	s0,0x676,2
 934:	3265                	jal	2dc <trap_entry+0x78>
 936:	6363672f          	0x6363672f
 93a:	636e692f          	0x636e692f
 93e:	756c                	flw	fa1,108(a0)
 940:	6564                	flw	fs1,76(a0)
 942:	2f00                	fld	fs0,24(a4)
 944:	2f74706f          	j	4843a <__C_STACK_TOP__+0x3843a>
 948:	74726373          	csrrsi	t1,0x747,4
 94c:	736c6f6f          	jal	t5,c7082 <__C_STACK_TOP__+0xb7082>
 950:	3038312f          	0x3038312f
 954:	3131                	jal	560 <vprintfmt.constprop.0+0xea>
 956:	2f35                	jal	1092 <core_bench_list+0x60>
 958:	32356567          	0x32356567
 95c:	36643537          	lui	a0,0x36643
 960:	2f66                	fld	ft10,88(sp)
 962:	6972                	flw	fs2,28(sp)
 964:	36766373          	csrrsi	t1,0x367,12
 968:	2d34                	fld	fa3,88(a0)
 96a:	6e75                	lui	t3,0x1d
 96c:	776f6e6b          	0x776f6e6b
 970:	2d6e                	fld	fs10,216(sp)
 972:	6c65                	lui	s8,0x19
 974:	2f66                	fld	ft10,88(sp)
 976:	6e69                	lui	t3,0x1a
 978:	64756c63          	bltu	a0,t2,fd0 <core_list_mergesort+0xe8>
 97c:	0065                	c.addi	zero,25
 97e:	6d6f682f          	0x6d6f682f
 982:	2f65                	jal	113a <core_bench_list+0x108>
 984:	74726373          	csrrsi	t1,0x747,4
 988:	736c6f6f          	jal	t5,c70be <__C_STACK_TOP__+0xb70be>
 98c:	726f772f          	0x726f772f
 990:	6f682f6b          	0x6f682f6b
 994:	775f7473          	csrrci	s0,0x775,30
 998:	2f6b726f          	jal	tp,b7c8e <__C_STACK_TOP__+0xa7c8e>
 99c:	6f74                	flw	fa3,92(a4)
 99e:	2f736c6f          	jal	s8,37494 <__C_STACK_TOP__+0x27494>
 9a2:	7075                	0x7075
 9a4:	65727473          	csrrci	s0,0x657,4
 9a8:	6d61                	lui	s10,0x18
 9aa:	372d                	jal	8d4 <vprintfmt.constprop.0+0x45e>
 9ac:	312e                	fld	ft2,232(sp)
 9ae:	722d                	lui	tp,0xfffeb
 9b0:	3376                	fld	ft6,376(sp)
 9b2:	6532                	flw	fa0,12(sp)
 9b4:	7369722f          	0x7369722f
 9b8:	672d7663          	bleu	s2,s10,1024 <core_list_mergesort+0x13c>
 9bc:	6c2f6363          	bltu	t5,sp,1082 <core_bench_list+0x50>
 9c0:	6269                	lui	tp,0x1a
 9c2:	2f636367          	0x2f636367
 9c6:	2e2e                	fld	ft8,200(sp)
 9c8:	636e692f          	0x636e692f
 9cc:	756c                	flw	fa1,108(a0)
 9ce:	6564                	flw	fs1,76(a0)
 9d0:	2f00                	fld	fs0,24(a4)
 9d2:	6f68                	flw	fa0,92(a4)
 9d4:	656d                	lui	a0,0x1b
 9d6:	7263732f          	0x7263732f
 9da:	6f74                	flw	fa3,92(a4)
 9dc:	2f736c6f          	jal	s8,374d2 <__C_STACK_TOP__+0x274d2>
 9e0:	6b726f77          	0x6b726f77
 9e4:	736f682f          	0x736f682f
 9e8:	5f74                	lw	a3,124(a4)
 9ea:	6b726f77          	0x6b726f77
 9ee:	6f6f742f          	0x6f6f742f
 9f2:	736c                	flw	fa1,100(a4)
 9f4:	7370752f          	0x7370752f
 9f8:	7274                	flw	fa3,100(a2)
 9fa:	6165                	addi	sp,sp,112
 9fc:	2d6d                	jal	10b6 <core_bench_list+0x84>
 9fe:	2d312e37          	lui	t3,0x2d312
 a02:	7672                	flw	fa2,60(sp)
 a04:	2f653233          	0x2f653233
 a08:	6972                	flw	fs2,28(sp)
 a0a:	2d766373          	csrrsi	t1,0x2d7,12
 a0e:	2f636367          	0x2f636367
 a12:	696c                	flw	fa1,84(a0)
 a14:	6762                	flw	fa4,24(sp)
 a16:	2e2f6363          	bltu	t5,sp,cfc <calc_func+0x8>
 a1a:	2f2e                	fld	ft10,200(sp)
 a1c:	2f636367          	0x2f636367
 a20:	666e6f63          	bltu	t3,t1,109e <core_bench_list+0x6c>
 a24:	6769                	lui	a4,0x1a
 a26:	7369722f          	0x7369722f
 a2a:	2e007663          	bleu	zero,zero,d16 <calc_func+0x22>
 a2e:	2f2e                	fld	ft10,200(sp)
 a30:	2e2e                	fld	ft8,200(sp)
 a32:	2f2e2e2f          	0x2f2e2e2f
 a36:	2e2e                	fld	ft8,200(sp)
 a38:	672f2e2f          	amoand.w.aqrl	t3,s2,(t5)
 a3c:	00006363          	bltu	zero,zero,a42 <vprintfmt.constprop.0+0x5cc>
 a40:	696c                	flw	fa1,84(a0)
 a42:	6762                	flw	fa4,24(sp)
 a44:	2e326363          	bltu	tp,gp,d2a <calc_func+0x36>
 a48:	00010063          	beqz	sp,a48 <vprintfmt.constprop.0+0x5d2>
 a4c:	6c00                	flw	fs0,24(s0)
 a4e:	2e6b636f          	jal	t1,b6d34 <__C_STACK_TOP__+0xa6d34>
 a52:	0068                	addi	a0,sp,12
 a54:	0002                	0x2
 a56:	5f00                	lw	s0,56(a4)
 a58:	7974                	flw	fa3,116(a0)
 a5a:	6570                	flw	fa2,76(a0)
 a5c:	00682e73          	csrrs	t3,0x6,a6
 a60:	0002                	0x2
 a62:	7300                	flw	fs0,32(a4)
 a64:	6474                	flw	fa3,76(s0)
 a66:	6564                	flw	fs1,76(a0)
 a68:	2e66                	fld	ft8,88(sp)
 a6a:	0068                	addi	a0,sp,12
 a6c:	72000003          	lb	zero,1824(zero) # 720 <vprintfmt.constprop.0+0x2aa>
 a70:	6565                	lui	a0,0x19
 a72:	746e                	flw	fs0,248(sp)
 a74:	682e                	flw	fa6,200(sp)
 a76:	0200                	addi	s0,sp,256
 a78:	0000                	unimp
 a7a:	7265                	lui	tp,0xffff9
 a7c:	6e72                	flw	ft8,28(sp)
 a7e:	00682e6f          	jal	t3,82a84 <__C_STACK_TOP__+0x72a84>
 a82:	0002                	0x2
 a84:	7300                	flw	fs0,32(a4)
 a86:	6474                	flw	fa3,76(s0)
 a88:	696c                	flw	fa1,84(a0)
 a8a:	2e62                	fld	ft8,24(sp)
 a8c:	0068                	addi	a0,sp,12
 a8e:	0004                	addi	s1,sp,0
 a90:	7500                	flw	fs0,40(a0)
 a92:	696e                	flw	fs2,216(sp)
 a94:	2e647473          	csrrci	s0,0x2e6,8
 a98:	0068                	addi	a0,sp,12
 a9a:	0002                	0x2
 a9c:	7400                	flw	fs0,40(s0)
 a9e:	6d69                	lui	s10,0x1a
 aa0:	2e65                	jal	e58 <core_list_insert_new+0x4c>
 aa2:	0068                	addi	a0,sp,12
 aa4:	0004                	addi	s1,sp,0
 aa6:	6800                	flw	fs0,16(s0)
 aa8:	7361                	lui	t1,0xffff8
 aaa:	7468                	flw	fa0,108(s0)
 aac:	6261                	lui	tp,0x18
 aae:	682e                	flw	fa6,200(sp)
 ab0:	0500                	addi	s0,sp,640
 ab2:	0000                	unimp
 ab4:	6972                	flw	fs2,28(sp)
 ab6:	2d766373          	csrrsi	t1,0x2d7,12
 aba:	7374706f          	j	489f0 <__C_STACK_TOP__+0x389f0>
 abe:	682e                	flw	fa6,200(sp)
 ac0:	0600                	addi	s0,sp,768
 ac2:	0000                	unimp
 ac4:	6e69                	lui	t3,0x1a
 ac6:	632d6e73          	csrrsi	t3,0x632,26
 aca:	74736e6f          	jal	t3,37a10 <__C_STACK_TOP__+0x27a10>
 ace:	6e61                	lui	t3,0x18
 ad0:	7374                	flw	fa3,100(a4)
 ad2:	682e                	flw	fa6,200(sp)
 ad4:	0700                	addi	s0,sp,896
 ad6:	0000                	unimp
 ad8:	696c                	flw	fa1,84(a0)
 ada:	6762                	flw	fa4,24(sp)
 adc:	2e326363          	bltu	tp,gp,dc2 <calc_func+0xce>
 ae0:	0068                	addi	a0,sp,12
 ae2:	0001                	nop
 ae4:	0000                	unimp
 ae6:	0500                	addi	s0,sp,640
 ae8:	0c02                	slli	s8,s8,0x0
 aea:	0052                	0x52
 aec:	0300                	addi	s0,sp,384
 aee:	0a99                	addi	s5,s5,6
 af0:	0301                	addi	t1,t1,0
 af2:	7de5                	lui	s11,0xffff9
 af4:	0009                	c.addi	zero,2
 af6:	0100                	addi	s0,sp,128
 af8:	04090103          	lb	sp,64(s2)
 afc:	0100                	addi	s0,sp,128
 afe:	04090103          	lb	sp,64(s2)
 b02:	0100                	addi	s0,sp,128
 b04:	04090103          	lb	sp,64(s2)
 b08:	0100                	addi	s0,sp,128
 b0a:	04092503          	lw	a0,64(s2)
 b0e:	0100                	addi	s0,sp,128
 b10:	0c090203          	lb	tp,192(s2)
 b14:	0100                	addi	s0,sp,128
 b16:	04090403          	lb	s0,64(s2)
 b1a:	0100                	addi	s0,sp,128
 b1c:	2c090203          	lb	tp,704(s2)
 b20:	0100                	addi	s0,sp,128
 b22:	04090603          	lb	a2,64(s2)
 b26:	0100                	addi	s0,sp,128
 b28:	08097f03          	0x8097f03
 b2c:	0100                	addi	s0,sp,128
 b2e:	04090103          	lb	sp,64(s2)
 b32:	0100                	addi	s0,sp,128
 b34:	04090103          	lb	sp,64(s2)
 b38:	0100                	addi	s0,sp,128
 b3a:	04090303          	lb	t1,64(s2)
 b3e:	0100                	addi	s0,sp,128
 b40:	70093103          	0x70093103
 b44:	0100                	addi	s0,sp,128
 b46:	04090203          	lb	tp,64(s2)
 b4a:	0100                	addi	s0,sp,128
 b4c:	0901b403          	0x901b403
 b50:	0004                	addi	s1,sp,0
 b52:	0301                	addi	t1,t1,0
 b54:	7e8d                	lui	t4,0xfffe3
 b56:	0409                	addi	s0,s0,2
 b58:	0100                	addi	s0,sp,128
 b5a:	14091503          	lh	a0,320(s2)
 b5e:	0100                	addi	s0,sp,128
 b60:	04090103          	lb	sp,64(s2)
 b64:	0100                	addi	s0,sp,128
 b66:	08090203          	lb	tp,128(s2)
 b6a:	0100                	addi	s0,sp,128
 b6c:	2c090203          	lb	tp,704(s2)
 b70:	0100                	addi	s0,sp,128
 b72:	04090903          	lb	s2,64(s2)
 b76:	0100                	addi	s0,sp,128
 b78:	04091303          	lh	t1,64(s2)
 b7c:	0100                	addi	s0,sp,128
 b7e:	74096203          	0x74096203
 b82:	0100                	addi	s0,sp,128
 b84:	14091403          	lh	s0,320(s2)
 b88:	0100                	addi	s0,sp,128
 b8a:	04090103          	lb	sp,64(s2)
 b8e:	0100                	addi	s0,sp,128
 b90:	04090203          	lb	tp,64(s2)
 b94:	0100                	addi	s0,sp,128
 b96:	04097f03          	0x4097f03
 b9a:	0100                	addi	s0,sp,128
 b9c:	04090303          	lb	t1,64(s2)
 ba0:	0100                	addi	s0,sp,128
 ba2:	08097d03          	0x8097d03
 ba6:	0100                	addi	s0,sp,128
 ba8:	08090303          	lb	t1,128(s2)
 bac:	0100                	addi	s0,sp,128
 bae:	6c091503          	lh	a0,1728(s2)
 bb2:	0100                	addi	s0,sp,128
 bb4:	04091303          	lh	t1,64(s2)
 bb8:	0100                	addi	s0,sp,128
 bba:	34090103          	lb	sp,832(s2)
 bbe:	0100                	addi	s0,sp,128
 bc0:	04090a03          	lb	s4,64(s2)
 bc4:	0100                	addi	s0,sp,128
 bc6:	08090303          	lb	t1,128(s2)
 bca:	0100                	addi	s0,sp,128
 bcc:	10090b03          	lb	s6,256(s2)
 bd0:	0100                	addi	s0,sp,128
 bd2:	0c096703          	0xc096703
 bd6:	0100                	addi	s0,sp,128
 bd8:	14092303          	lw	t1,320(s2)
 bdc:	0100                	addi	s0,sp,128
 bde:	0c090303          	lb	t1,192(s2)
 be2:	0100                	addi	s0,sp,128
 be4:	04097f03          	0x4097f03
 be8:	0100                	addi	s0,sp,128
 bea:	04090103          	lb	sp,64(s2)
 bee:	0100                	addi	s0,sp,128
 bf0:	08090303          	lb	t1,128(s2)
 bf4:	0100                	addi	s0,sp,128
 bf6:	14097b03          	0x14097b03
 bfa:	0100                	addi	s0,sp,128
 bfc:	04090303          	lb	t1,64(s2)
 c00:	0100                	addi	s0,sp,128
 c02:	04090203          	lb	tp,64(s2)
 c06:	0100                	addi	s0,sp,128
 c08:	74090103          	lb	sp,1856(s2)
 c0c:	0100                	addi	s0,sp,128
 c0e:	04097f03          	0x4097f03
 c12:	0100                	addi	s0,sp,128
 c14:	04090103          	lb	sp,64(s2)
 c18:	0100                	addi	s0,sp,128
 c1a:	08097f03          	0x8097f03
 c1e:	0100                	addi	s0,sp,128
 c20:	04090103          	lb	sp,64(s2)
 c24:	0100                	addi	s0,sp,128
 c26:	50090203          	lb	tp,1280(s2)
 c2a:	0100                	addi	s0,sp,128
 c2c:	0c090303          	lb	t1,192(s2)
 c30:	0100                	addi	s0,sp,128
 c32:	14090803          	lb	a6,320(s2)
 c36:	0100                	addi	s0,sp,128
 c38:	10090103          	lb	sp,256(s2)
 c3c:	0100                	addi	s0,sp,128
 c3e:	08090203          	lb	tp,128(s2)
 c42:	0100                	addi	s0,sp,128
 c44:	0900df03          	lhu	t5,144(ra)
 c48:	0008                	addi	a0,sp,0
 c4a:	0901                	addi	s2,s2,0
 c4c:	0004                	addi	s1,sp,0
 c4e:	0100                	addi	s0,sp,128
 c50:	9c01                	0x9c01
 c52:	0002                	0x2
 c54:	0200                	addi	s0,sp,256
 c56:	9600                	0x9600
 c58:	0002                	0x2
 c5a:	0100                	addi	s0,sp,128
 c5c:	fb01                	bnez	a4,b6c <vprintfmt.constprop.0+0x6f6>
 c5e:	0d0e                	slli	s10,s10,0x3
 c60:	0100                	addi	s0,sp,128
 c62:	0101                	addi	sp,sp,0
 c64:	0001                	nop
 c66:	0000                	unimp
 c68:	0001                	nop
 c6a:	0100                	addi	s0,sp,128
 c6c:	74706f2f          	0x74706f2f
 c70:	7263732f          	0x7263732f
 c74:	6f74                	flw	fa3,92(a4)
 c76:	2f736c6f          	jal	s8,3776c <__C_STACK_TOP__+0x2776c>
 c7a:	3831                	jal	496 <vprintfmt.constprop.0+0x20>
 c7c:	3130                	fld	fa2,96(a0)
 c7e:	3531                	jal	a8a <vprintfmt.constprop.0+0x614>
 c80:	3565672f          	0x3565672f
 c84:	3732                	fld	fa4,296(sp)
 c86:	6435                	lui	s0,0xd
 c88:	6636                	flw	fa2,76(sp)
 c8a:	7369722f          	0x7369722f
 c8e:	34367663          	bleu	gp,a2,fda <core_list_mergesort+0xf2>
 c92:	752d                	lui	a0,0xfffeb
 c94:	6b6e                	flw	fs6,216(sp)
 c96:	6f6e                	flw	ft10,216(sp)
 c98:	652d6e77          	0x652d6e77
 c9c:	666c                	flw	fa1,76(a2)
 c9e:	636e692f          	0x636e692f
 ca2:	756c                	flw	fa1,108(a0)
 ca4:	6564                	flw	fs1,76(a0)
 ca6:	7379732f          	0x7379732f
 caa:	2f00                	fld	fs0,24(a4)
 cac:	6f68                	flw	fa0,92(a4)
 cae:	656d                	lui	a0,0x1b
 cb0:	7263732f          	0x7263732f
 cb4:	6f74                	flw	fa3,92(a4)
 cb6:	2f736c6f          	jal	s8,377ac <__C_STACK_TOP__+0x277ac>
 cba:	6b726f77          	0x6b726f77
 cbe:	736f682f          	0x736f682f
 cc2:	5f74                	lw	a3,124(a4)
 cc4:	6b726f77          	0x6b726f77
 cc8:	6f6f742f          	0x6f6f742f
 ccc:	736c                	flw	fa1,100(a4)
 cce:	7370752f          	0x7370752f
 cd2:	7274                	flw	fa3,100(a2)
 cd4:	6165                	addi	sp,sp,112
 cd6:	2d6d                	jal	1390 <core_list_init+0x18c>
 cd8:	2d312e37          	lui	t3,0x2d312
 cdc:	7672                	flw	fa2,60(sp)
 cde:	2f653233          	0x2f653233
 ce2:	7562                	flw	fa0,56(sp)
 ce4:	6c69                	lui	s8,0x1a
 ce6:	2d64                	fld	fs1,216(a0)
 ce8:	2d636367          	0x2d636367
 cec:	656e                	flw	fa0,216(sp)
 cee:	62696c77          	0x62696c77
 cf2:	732d                	lui	t1,0xfffeb
 cf4:	6174                	flw	fa3,68(a0)
 cf6:	2f326567          	0x2f326567
 cfa:	2f636367          	0x2f636367
 cfe:	6e69                	lui	t3,0x1a
 d00:	64756c63          	bltu	a0,t2,1358 <core_list_init+0x154>
 d04:	0065                	c.addi	zero,25
 d06:	74706f2f          	0x74706f2f
 d0a:	7263732f          	0x7263732f
 d0e:	6f74                	flw	fa3,92(a4)
 d10:	2f736c6f          	jal	s8,37806 <__C_STACK_TOP__+0x27806>
 d14:	3831                	jal	530 <vprintfmt.constprop.0+0xba>
 d16:	3130                	fld	fa2,96(a0)
 d18:	3531                	jal	b24 <vprintfmt.constprop.0+0x6ae>
 d1a:	3565672f          	0x3565672f
 d1e:	3732                	fld	fa4,296(sp)
 d20:	6435                	lui	s0,0xd
 d22:	6636                	flw	fa2,76(sp)
 d24:	7369722f          	0x7369722f
 d28:	34367663          	bleu	gp,a2,1074 <core_bench_list+0x42>
 d2c:	752d                	lui	a0,0xfffeb
 d2e:	6b6e                	flw	fs6,216(sp)
 d30:	6f6e                	flw	ft10,216(sp)
 d32:	652d6e77          	0x652d6e77
 d36:	666c                	flw	fa1,76(a2)
 d38:	636e692f          	0x636e692f
 d3c:	756c                	flw	fa1,108(a0)
 d3e:	6564                	flw	fs1,76(a0)
 d40:	2f00                	fld	fs0,24(a4)
 d42:	6f68                	flw	fa0,92(a4)
 d44:	656d                	lui	a0,0x1b
 d46:	7263732f          	0x7263732f
 d4a:	6f74                	flw	fa3,92(a4)
 d4c:	2f736c6f          	jal	s8,37842 <__C_STACK_TOP__+0x27842>
 d50:	6b726f77          	0x6b726f77
 d54:	736f682f          	0x736f682f
 d58:	5f74                	lw	a3,124(a4)
 d5a:	6b726f77          	0x6b726f77
 d5e:	6f6f742f          	0x6f6f742f
 d62:	736c                	flw	fa1,100(a4)
 d64:	7370752f          	0x7370752f
 d68:	7274                	flw	fa3,100(a2)
 d6a:	6165                	addi	sp,sp,112
 d6c:	2d6d                	jal	1426 <core_list_init+0x222>
 d6e:	2d312e37          	lui	t3,0x2d312
 d72:	7672                	flw	fa2,60(sp)
 d74:	2f653233          	0x2f653233
 d78:	6972                	flw	fs2,28(sp)
 d7a:	2d766373          	csrrsi	t1,0x2d7,12
 d7e:	2f636367          	0x2f636367
 d82:	696c                	flw	fa1,84(a0)
 d84:	6762                	flw	fa4,24(sp)
 d86:	2e2f6363          	bltu	t5,sp,106c <core_bench_list+0x3a>
 d8a:	2f2e                	fld	ft10,200(sp)
 d8c:	6e69                	lui	t3,0x1a
 d8e:	64756c63          	bltu	a0,t2,13e6 <core_list_init+0x1e2>
 d92:	0065                	c.addi	zero,25
 d94:	6d6f682f          	0x6d6f682f
 d98:	2f65                	jal	1550 <core_list_init+0x34c>
 d9a:	74726373          	csrrsi	t1,0x747,4
 d9e:	736c6f6f          	jal	t5,c74d4 <__C_STACK_TOP__+0xb74d4>
 da2:	726f772f          	0x726f772f
 da6:	6f682f6b          	0x6f682f6b
 daa:	775f7473          	csrrci	s0,0x775,30
 dae:	2f6b726f          	jal	tp,b80a4 <__C_STACK_TOP__+0xa80a4>
 db2:	6f74                	flw	fa3,92(a4)
 db4:	2f736c6f          	jal	s8,378aa <__C_STACK_TOP__+0x278aa>
 db8:	7075                	0x7075
 dba:	65727473          	csrrci	s0,0x657,4
 dbe:	6d61                	lui	s10,0x18
 dc0:	372d                	jal	cea <cmp_idx+0x3c>
 dc2:	312e                	fld	ft2,232(sp)
 dc4:	722d                	lui	tp,0xfffeb
 dc6:	3376                	fld	ft6,376(sp)
 dc8:	6532                	flw	fa0,12(sp)
 dca:	7369722f          	0x7369722f
 dce:	672d7663          	bleu	s2,s10,143a <core_list_init+0x236>
 dd2:	6c2f6363          	bltu	t5,sp,1498 <core_list_init+0x294>
 dd6:	6269                	lui	tp,0x1a
 dd8:	2f636367          	0x2f636367
 ddc:	2e2e                	fld	ft8,200(sp)
 dde:	6363672f          	0x6363672f
 de2:	6e6f632f          	0x6e6f632f
 de6:	6966                	flw	fs2,88(sp)
 de8:	69722f67          	0x69722f67
 dec:	00766373          	csrrsi	t1,0x7,12
 df0:	2e2e                	fld	ft8,200(sp)
 df2:	2f2e2e2f          	0x2f2e2e2f
 df6:	2e2e                	fld	ft8,200(sp)
 df8:	2f2e2e2f          	0x2f2e2e2f
 dfc:	2f2e                	fld	ft10,200(sp)
 dfe:	00636367          	0x636367
 e02:	6d6f682f          	0x6d6f682f
 e06:	2f65                	jal	15be <core_list_init+0x3ba>
 e08:	74726373          	csrrsi	t1,0x747,4
 e0c:	736c6f6f          	jal	t5,c7542 <__C_STACK_TOP__+0xb7542>
 e10:	726f772f          	0x726f772f
 e14:	6f682f6b          	0x6f682f6b
 e18:	775f7473          	csrrci	s0,0x775,30
 e1c:	2f6b726f          	jal	tp,b8112 <__C_STACK_TOP__+0xa8112>
 e20:	6f74                	flw	fa3,92(a4)
 e22:	2f736c6f          	jal	s8,37918 <__C_STACK_TOP__+0x27918>
 e26:	7075                	0x7075
 e28:	65727473          	csrrci	s0,0x657,4
 e2c:	6d61                	lui	s10,0x18
 e2e:	372d                	jal	d58 <calc_func+0x64>
 e30:	312e                	fld	ft2,232(sp)
 e32:	722d                	lui	tp,0xfffeb
 e34:	3376                	fld	ft6,376(sp)
 e36:	6532                	flw	fa0,12(sp)
 e38:	7369722f          	0x7369722f
 e3c:	672d7663          	bleu	s2,s10,14a8 <core_list_init+0x2a4>
 e40:	6c2f6363          	bltu	t5,sp,1506 <core_list_init+0x302>
 e44:	6269                	lui	tp,0x1a
 e46:	00636367          	0x636367
 e4a:	6c00                	flw	fs0,24(s0)
 e4c:	2e6b636f          	jal	t1,b7132 <__C_STACK_TOP__+0xa7132>
 e50:	0068                	addi	a0,sp,12
 e52:	0001                	nop
 e54:	5f00                	lw	s0,56(a4)
 e56:	7974                	flw	fa3,116(a0)
 e58:	6570                	flw	fa2,76(a0)
 e5a:	00682e73          	csrrs	t3,0x6,a6
 e5e:	0001                	nop
 e60:	7300                	flw	fs0,32(a4)
 e62:	6474                	flw	fa3,76(s0)
 e64:	6564                	flw	fs1,76(a0)
 e66:	2e66                	fld	ft8,88(sp)
 e68:	0068                	addi	a0,sp,12
 e6a:	0002                	0x2
 e6c:	7200                	flw	fs0,32(a2)
 e6e:	6565                	lui	a0,0x19
 e70:	746e                	flw	fs0,248(sp)
 e72:	682e                	flw	fa6,200(sp)
 e74:	0100                	addi	s0,sp,128
 e76:	0000                	unimp
 e78:	7265                	lui	tp,0xffff9
 e7a:	6e72                	flw	ft8,28(sp)
 e7c:	00682e6f          	jal	t3,82e82 <__C_STACK_TOP__+0x72e82>
 e80:	0001                	nop
 e82:	7300                	flw	fs0,32(a4)
 e84:	6474                	flw	fa3,76(s0)
 e86:	696c                	flw	fa1,84(a0)
 e88:	2e62                	fld	ft8,24(sp)
 e8a:	0068                	addi	a0,sp,12
 e8c:	75000003          	lb	zero,1872(zero) # 750 <vprintfmt.constprop.0+0x2da>
 e90:	696e                	flw	fs2,216(sp)
 e92:	2e647473          	csrrci	s0,0x2e6,8
 e96:	0068                	addi	a0,sp,12
 e98:	0001                	nop
 e9a:	7400                	flw	fs0,40(s0)
 e9c:	6d69                	lui	s10,0x1a
 e9e:	2e65                	jal	1256 <core_list_init+0x52>
 ea0:	0068                	addi	a0,sp,12
 ea2:	68000003          	lb	zero,1664(zero) # 680 <vprintfmt.constprop.0+0x20a>
 ea6:	7361                	lui	t1,0xffff8
 ea8:	7468                	flw	fa0,108(s0)
 eaa:	6261                	lui	tp,0x18
 eac:	682e                	flw	fa6,200(sp)
 eae:	0400                	addi	s0,sp,512
 eb0:	0000                	unimp
 eb2:	6972                	flw	fs2,28(sp)
 eb4:	2d766373          	csrrsi	t1,0x2d7,12
 eb8:	7374706f          	j	48dee <__C_STACK_TOP__+0x38dee>
 ebc:	682e                	flw	fa6,200(sp)
 ebe:	0500                	addi	s0,sp,640
 ec0:	0000                	unimp
 ec2:	6e69                	lui	t3,0x1a
 ec4:	632d6e73          	csrrsi	t3,0x632,26
 ec8:	74736e6f          	jal	t3,37e0e <__C_STACK_TOP__+0x27e0e>
 ecc:	6e61                	lui	t3,0x18
 ece:	7374                	flw	fa3,100(a4)
 ed0:	682e                	flw	fa6,200(sp)
 ed2:	0600                	addi	s0,sp,768
 ed4:	0000                	unimp
 ed6:	696c                	flw	fa1,84(a0)
 ed8:	6762                	flw	fa4,24(sp)
 eda:	2e326363          	bltu	tp,gp,11c0 <core_bench_list+0x18e>
 ede:	0068                	addi	a0,sp,12
 ee0:	6c000007          	0x6c000007
 ee4:	6269                	lui	tp,0x1a
 ee6:	32636367          	0x32636367
 eea:	632e                	flw	ft6,200(sp)
 eec:	0700                	addi	s0,sp,896
 eee:	0000                	unimp
	...

Дизассемблирование раздела .debug_str:

00000000 <.debug_str>:
   0:	726f6873          	csrrsi	a6,0x726,30
   4:	2074                	fld	fa3,192(s0)
   6:	6e69                	lui	t3,0x1a
   8:	0074                	addi	a3,sp,12
   a:	7468                	flw	fa0,108(s0)
   c:	6261                	lui	tp,0x18
   e:	685f 7361 5f68      	0x5f687361685f
  14:	6f70                	flw	fa2,92(a4)
  16:	6e69                	lui	t3,0x1a
  18:	6574                	flw	fa3,76(a0)
  1a:	0072                	0x72
  1c:	725f 6e61 3464      	0x34646e61725f
  22:	0038                	addi	a4,sp,8
  24:	655f 656d 6772      	0x6772656d655f
  2a:	6e65                	lui	t3,0x19
  2c:	5f007963          	bleu	a6,zero,61e <vprintfmt.constprop.0+0x1a8>
  30:	6164                	flw	fs1,68(a0)
  32:	6c79                	lui	s8,0x1e
  34:	6769                	lui	a4,0x1a
  36:	7468                	flw	fa0,108(s0)
  38:	6300                	flw	fs0,0(a4)
  3a:	6c706d6f          	jal	s10,6f00 <__BSS_END__+0x8c0>
  3e:	7865                	lui	a6,0xffff9
  40:	6420                	flw	fs0,72(s0)
  42:	6c62756f          	jal	a0,27708 <__C_STACK_TOP__+0x17708>
  46:	0065                	c.addi	zero,25
  48:	675f 7465 6164      	0x61647465675f
  4e:	6574                	flw	fa3,76(a0)
  50:	655f 7272 5f00      	0x5f007272655f
  56:	6164                	flw	fs1,68(a0)
  58:	6174                	flw	fa3,68(a0)
  5a:	5f00                	lw	s0,56(a4)
  5c:	74726377          	0x74726377
  60:	5f626d6f          	jal	s10,26656 <__C_STACK_TOP__+0x16656>
  64:	74617473          	csrrci	s0,0x746,2
  68:	0065                	c.addi	zero,25
  6a:	20554e47          	fmsub.s	ft8,fa0,ft5,ft4,rmm
  6e:	20313143          	fmadd.s	ft2,ft2,ft3,ft4,rup
  72:	2e312e37          	lui	t3,0x2e312
  76:	2031                	jal	82 <buflen.1776+0x42>
  78:	3032                	fld	ft0,296(sp)
  7a:	3731                	jal	ffffff86 <__C_STACK_TOP__+0xfffeff86>
  7c:	3530                	fld	fa2,104(a0)
  7e:	3930                	fld	fa2,112(a0)
  80:	2d20                	fld	fs0,88(a0)
  82:	636d                	lui	t1,0x1b
  84:	6f6d                	lui	t5,0x1b
  86:	6564                	flw	fs1,76(a0)
  88:	3d6c                	fld	fa1,248(a0)
  8a:	656d                	lui	a0,0x1b
  8c:	6c64                	flw	fs1,92(s0)
  8e:	2d20776f          	jal	a4,7360 <__BSS_END__+0xd20>
  92:	616d                	addi	sp,sp,240
  94:	6372                	flw	ft6,28(sp)
  96:	3d68                	fld	fa0,248(a0)
  98:	7672                	flw	fa2,60(sp)
  9a:	6d693233          	0x6d693233
  9e:	2d20                	fld	fs0,88(a0)
  a0:	616d                	addi	sp,sp,240
  a2:	6962                	flw	fs2,24(sp)
  a4:	693d                	lui	s2,0xf
  a6:	706c                	flw	fa1,100(s0)
  a8:	2d203233          	0x2d203233
  ac:	636d                	lui	t1,0x1b
  ae:	6f6d                	lui	t5,0x1b
  b0:	6564                	flw	fs1,76(a0)
  b2:	3d6c                	fld	fa1,248(a0)
  b4:	656d                	lui	a0,0x1b
  b6:	6c64                	flw	fs1,92(s0)
  b8:	2d20776f          	jal	a4,738a <__BSS_END__+0xd4a>
  bc:	4f2d2067          	0x4f2d2067
  c0:	4f2d2073          	csrs	0x4f2,s10
  c4:	2032                	fld	ft0,264(sp)
  c6:	4f2d                	li	t5,11
  c8:	662d2073          	csrs	0x662,s10
  cc:	7562                	flw	fa0,56(sp)
  ce:	6c69                	lui	s8,0x1a
  d0:	6964                	flw	fs1,84(a0)
  d2:	676e                	flw	fa4,216(sp)
  d4:	6c2d                	lui	s8,0xb
  d6:	6269                	lui	tp,0x1a
  d8:	20636367          	0x20636367
  dc:	662d                	lui	a2,0xb
  de:	6f6e                	flw	ft10,216(sp)
  e0:	732d                	lui	t1,0xfffeb
  e2:	6174                	flw	fa3,68(a0)
  e4:	702d6b63          	bltu	s10,sp,7fa <vprintfmt.constprop.0+0x384>
  e8:	6f72                	flw	ft10,28(sp)
  ea:	6574                	flw	fa3,76(a0)
  ec:	726f7463          	bleu	t1,t5,814 <vprintfmt.constprop.0+0x39e>
  f0:	2d20                	fld	fs0,88(a0)
  f2:	6566                	flw	fa0,88(sp)
  f4:	6378                	flw	fa4,68(a4)
  f6:	7065                	0x7065
  f8:	6974                	flw	fa3,84(a0)
  fa:	20736e6f          	jal	t3,36b00 <__C_STACK_TOP__+0x26b00>
  fe:	662d                	lui	a2,0xb
 100:	6f6e                	flw	ft10,216(sp)
 102:	2d6e                	fld	fs10,216(sp)
 104:	6c6c6163          	bltu	s8,t1,7c6 <vprintfmt.constprop.0+0x350>
 108:	652d                	lui	a0,0xb
 10a:	6378                	flw	fa4,68(a4)
 10c:	7065                	0x7065
 10e:	6974                	flw	fa3,84(a0)
 110:	20736e6f          	jal	t3,36b16 <__C_STACK_TOP__+0x26b16>
 114:	662d                	lui	a2,0xb
 116:	6976                	flw	fs2,92(sp)
 118:	69626973          	csrrsi	s2,0x696,4
 11c:	696c                	flw	fa1,84(a0)
 11e:	7974                	flw	fa3,116(a0)
 120:	683d                	lui	a6,0xf
 122:	6469                	lui	s0,0x1a
 124:	6564                	flw	fs1,76(a0)
 126:	006e                	0x6e
 128:	775f 7363 7472      	0x74727363775f
 12e:	73626d6f          	jal	s10,26864 <__C_STACK_TOP__+0x16864>
 132:	735f 6174 6574      	0x65746174735f
 138:	5f00                	lw	s0,56(a4)
 13a:	645f 0030 5f5f      	0x5f5f0030645f
 140:	3164                	fld	fs1,224(a0)
 142:	5f00                	lw	s0,56(a4)
 144:	626c                	flw	fa1,68(a2)
 146:	7366                	flw	ft6,120(sp)
 148:	7a69                	lui	s4,0xffffa
 14a:	0065                	c.addi	zero,25
 14c:	6974706f          	j	47fe2 <__C_STACK_TOP__+0x37fe2>
 150:	646e                	flw	fs0,216(sp)
 152:	6300                	flw	fs0,0(a4)
 154:	6c706d6f          	jal	s10,701a <__BSS_END__+0x9da>
 158:	7865                	lui	a6,0xffff9
 15a:	6c20                	flw	fs0,88(s0)
 15c:	20676e6f          	jal	t3,76362 <__C_STACK_TOP__+0x66362>
 160:	6f64                	flw	fs1,92(a4)
 162:	6275                	lui	tp,0x1d
 164:	656c                	flw	fa1,76(a0)
 166:	7200                	flw	fs0,32(a2)
 168:	7369                	lui	t1,0xffffa
 16a:	615f7663          	bleu	s5,t5,776 <vprintfmt.constprop.0+0x300>
 16e:	6962                	flw	fs2,24(sp)
 170:	5f00                	lw	s0,56(a4)
 172:	6c5f 636f 6c61      	0x6c61636f6c5f
 178:	5f65                	li	t5,-7
 17a:	0074                	addi	a3,sp,12
 17c:	6d5f 7262 6f74      	0x6f7472626d5f
 182:	735f6377          	0x735f6377
 186:	6174                	flw	fa3,68(a0)
 188:	6574                	flw	fa3,76(a0)
 18a:	5f00                	lw	s0,56(a4)
 18c:	7a74                	flw	fa3,116(a2)
 18e:	616e                	flw	ft2,216(sp)
 190:	656d                	lui	a0,0x1b
 192:	5f00                	lw	s0,56(a4)
 194:	745f 5f6d 6573      	0x65735f6d745f
 19a:	635f0063          	beq	t5,s5,7ba <vprintfmt.constprop.0+0x344>
 19e:	6f6c                	flw	fa1,92(a4)
 1a0:	2f006573          	csrrsi	a0,0x2f0,0
 1a4:	6f68                	flw	fa0,92(a4)
 1a6:	656d                	lui	a0,0x1b
 1a8:	7263732f          	0x7263732f
 1ac:	6f74                	flw	fa3,92(a4)
 1ae:	2f736c6f          	jal	s8,36ca4 <__C_STACK_TOP__+0x26ca4>
 1b2:	6b726f77          	0x6b726f77
 1b6:	736f682f          	0x736f682f
 1ba:	5f74                	lw	a3,124(a4)
 1bc:	6b726f77          	0x6b726f77
 1c0:	6f6f742f          	0x6f6f742f
 1c4:	736c                	flw	fa1,100(a4)
 1c6:	7370752f          	0x7370752f
 1ca:	7274                	flw	fa3,100(a2)
 1cc:	6165                	addi	sp,sp,112
 1ce:	2d6d                	jal	888 <vprintfmt.constprop.0+0x412>
 1d0:	2d312e37          	lui	t3,0x2d312
 1d4:	7672                	flw	fa2,60(sp)
 1d6:	2f653233          	0x2f653233
 1da:	6972                	flw	fs2,28(sp)
 1dc:	2d766373          	csrrsi	t1,0x2d7,12
 1e0:	2f636367          	0x2f636367
 1e4:	696c                	flw	fa1,84(a0)
 1e6:	6762                	flw	fa4,24(sp)
 1e8:	6c2f6363          	bltu	t5,sp,8ae <vprintfmt.constprop.0+0x438>
 1ec:	6269                	lui	tp,0x1a
 1ee:	32636367          	0x32636367
 1f2:	632e                	flw	ft6,200(sp)
 1f4:	5f00                	lw	s0,56(a4)
 1f6:	6275                	lui	tp,0x1d
 1f8:	6675                	lui	a2,0x1d
 1fa:	5f00                	lw	s0,56(a4)
 1fc:	6162                	flw	ft2,24(sp)
 1fe:	5f006573          	csrrsi	a0,0x5f0,0
 202:	745f 5f6d 6f68      	0x6f685f6d745f
 208:	7275                	lui	tp,0xffffd
 20a:	5f00                	lw	s0,56(a4)
 20c:	6f746377          	0x6f746377
 210:	626d                	lui	tp,0x1b
 212:	735f 6174 6574      	0x65746174735f
 218:	5f00                	lw	s0,56(a4)
 21a:	735f 0066 6f5f      	0x6f5f0066735f
 220:	5f6e                	lw	t5,248(sp)
 222:	7865                	lui	a6,0xffff9
 224:	7469                	lui	s0,0xffffa
 226:	615f 6772 0073      	0x736772615f
 22c:	6d6f682f          	0x6d6f682f
 230:	2f65                	jal	9e8 <vprintfmt.constprop.0+0x572>
 232:	74726373          	csrrsi	t1,0x747,4
 236:	736c6f6f          	jal	t5,c696c <__C_STACK_TOP__+0xb696c>
 23a:	726f772f          	0x726f772f
 23e:	6f682f6b          	0x6f682f6b
 242:	775f7473          	csrrci	s0,0x775,30
 246:	2f6b726f          	jal	tp,b753c <__C_STACK_TOP__+0xa753c>
 24a:	6f74                	flw	fa3,92(a4)
 24c:	2f736c6f          	jal	s8,36d42 <__C_STACK_TOP__+0x26d42>
 250:	7075                	0x7075
 252:	65727473          	csrrci	s0,0x657,4
 256:	6d61                	lui	s10,0x18
 258:	372d                	jal	182 <SIM_STOP+0x8a>
 25a:	312e                	fld	ft2,232(sp)
 25c:	722d                	lui	tp,0xfffeb
 25e:	3376                	fld	ft6,376(sp)
 260:	6532                	flw	fa0,12(sp)
 262:	6975622f          	0x6975622f
 266:	646c                	flw	fa1,76(s0)
 268:	672d                	lui	a4,0xb
 26a:	6e2d6363          	bltu	s10,sp,950 <vprintfmt.constprop.0+0x4da>
 26e:	7765                	lui	a4,0xffff9
 270:	696c                	flw	fa1,84(a0)
 272:	2d62                	fld	fs10,24(sp)
 274:	67617473          	csrrci	s0,0x676,2
 278:	3265                	jal	fffffc20 <__C_STACK_TOP__+0xfffefc20>
 27a:	7369722f          	0x7369722f
 27e:	34367663          	bleu	gp,a2,5ca <vprintfmt.constprop.0+0x154>
 282:	752d                	lui	a0,0xfffeb
 284:	6b6e                	flw	fs6,216(sp)
 286:	6f6e                	flw	ft10,216(sp)
 288:	652d6e77          	0x652d6e77
 28c:	666c                	flw	fa1,76(a2)
 28e:	3376722f          	0x3376722f
 292:	6932                	flw	fs2,12(sp)
 294:	2f6d                	jal	a4e <vprintfmt.constprop.0+0x5d8>
 296:	6c69                	lui	s8,0x1a
 298:	3370                	fld	fa2,224(a4)
 29a:	2f32                	fld	ft10,264(sp)
 29c:	696c                	flw	fa1,84(a0)
 29e:	6762                	flw	fa4,24(sp)
 2a0:	5f006363          	bltu	zero,a6,886 <vprintfmt.constprop.0+0x410>
 2a4:	6b6f6f63          	bltu	t5,s6,962 <vprintfmt.constprop.0+0x4ec>
 2a8:	6569                	lui	a0,0x1a
 2aa:	5f00                	lw	s0,56(a4)
 2ac:	735f 6c67 6575      	0x65756c67735f
 2b2:	5f00                	lw	s0,56(a4)
 2b4:	6c66                	flw	fs8,88(sp)
 2b6:	6761                	lui	a4,0x18
 2b8:	695f0073          	0x695f0073
 2bc:	78635f73          	csrrwi	t5,0x786,6
 2c0:	0061                	c.addi	zero,24
 2c2:	775f 7364 5f00      	0x5f007364775f
 2c8:	465f 4c49 0045      	0x454c49465f
 2ce:	725f 7365 6c75      	0x6c757365725f
 2d4:	5f74                	lw	a3,124(a4)
 2d6:	5355006b          	0x5355006b
 2da:	7449                	lui	s0,0xffff2
 2dc:	7079                	0x7079
 2de:	0065                	c.addi	zero,25
 2e0:	6f6c                	flw	fa1,92(a4)
 2e2:	676e                	flw	fa4,216(sp)
 2e4:	6c20                	flw	fs0,88(s0)
 2e6:	20676e6f          	jal	t3,764ec <__C_STACK_TOP__+0x664ec>
 2ea:	6e69                	lui	t3,0x1a
 2ec:	0074                	addi	a3,sp,12
 2ee:	735f 7379 655f      	0x655f7379735f
 2f4:	7272                	flw	ft4,60(sp)
 2f6:	696c                	flw	fa1,84(a0)
 2f8:	5f007473          	csrrci	s0,0x5f0,0
 2fc:	62747663          	bleu	t2,s0,928 <vprintfmt.constprop.0+0x4b2>
 300:	6675                	lui	a2,0x1d
 302:	5f00                	lw	s0,56(a4)
 304:	626d                	lui	tp,0x1b
 306:	6f747273          	csrrci	tp,0x6f7,8
 30a:	5f736377          	0x5f736377
 30e:	74617473          	csrrci	s0,0x746,2
 312:	0065                	c.addi	zero,25
 314:	6d5f 7262 656c      	0x656c72626d5f
 31a:	5f6e                	lw	t5,248(sp)
 31c:	74617473          	csrrci	s0,0x746,2
 320:	0065                	c.addi	zero,25
 322:	6972                	flw	fs2,28(sp)
 324:	5f766373          	csrrsi	t1,0x5f7,12
 328:	646f6d63          	bltu	t5,t1,982 <vprintfmt.constprop.0+0x50c>
 32c:	6c65                	lui	s8,0x19
 32e:	5f00                	lw	s0,56(a4)
 330:	6e66                	flw	ft8,88(sp)
 332:	7261                	lui	tp,0xffff8
 334:	5f007367          	0x5f007367
 338:	6e66                	flw	ft8,88(sp)
 33a:	735f0073          	0x735f0073
 33e:	6769                	lui	a4,0x1a
 340:	006e                	0x6e
 342:	735f 6474 7265      	0x72656474735f
 348:	0072                	0x72
 34a:	675f 6d61 616d      	0x616d6d61675f
 350:	735f 6769 676e      	0x676e6769735f
 356:	6d61                	lui	s10,0x18
 358:	5f00                	lw	s0,56(a4)
 35a:	6d6e                	flw	fs10,216(sp)
 35c:	6c61                	lui	s8,0x18
 35e:	6f6c                	flw	fa1,92(a4)
 360:	755f0063          	beq	t5,s5,aa0 <vprintfmt.constprop.0+0x62a>
 364:	736e                	flw	ft6,248(sp)
 366:	6570                	flw	fa2,76(a0)
 368:	69666963          	bltu	a2,s6,9fa <vprintfmt.constprop.0+0x584>
 36c:	6465                	lui	s0,0x19
 36e:	6c5f 636f 6c61      	0x6c61636f6c5f
 374:	5f65                	li	t5,-7
 376:	6e69                	lui	t3,0x1a
 378:	6f66                	flw	ft10,88(sp)
 37a:	5f00                	lw	s0,56(a4)
 37c:	745f 006d 6972      	0x6972006d745f
 382:	5f766373          	csrrsi	t1,0x5f7,12
 386:	6261                	lui	tp,0x18
 388:	5f69                	li	t5,-6
 38a:	7974                	flw	fa3,116(a0)
 38c:	6570                	flw	fa2,76(a0)
 38e:	5f00                	lw	s0,56(a4)
 390:	626d                	lui	tp,0x1b
 392:	74617473          	csrrci	s0,0x746,2
 396:	0065                	c.addi	zero,25
 398:	5f5f 6377 6268      	0x626863775f5f
 39e:	5f00                	lw	s0,56(a4)
 3a0:	6c747663          	bleu	t2,s0,a6c <vprintfmt.constprop.0+0x5f6>
 3a4:	6e65                	lui	t3,0x19
 3a6:	5f00                	lw	s0,56(a4)
 3a8:	6966                	flw	fs2,88(sp)
 3aa:	656c                	flw	fa1,76(a0)
 3ac:	6800                	flw	fs0,16(s0)
 3ae:	7361                	lui	t1,0xffff8
 3b0:	7668                	flw	fa0,108(a2)
 3b2:	6c61                	lui	s8,0x18
 3b4:	745f 4400 7557      	0x75574400745f
 3ba:	696e                	flw	fs2,216(sp)
 3bc:	5f006e6f          	jal	t3,69ac <__BSS_END__+0x36c>
 3c0:	696e                	flw	fs2,216(sp)
 3c2:	0073626f          	jal	tp,36bc8 <__C_STACK_TOP__+0x26bc8>
 3c6:	6f6c                	flw	fa1,92(a4)
 3c8:	676e                	flw	fa4,216(sp)
 3ca:	6c20                	flw	fs0,88(s0)
 3cc:	20676e6f          	jal	t3,765d2 <__C_STACK_TOP__+0x665d2>
 3d0:	6e75                	lui	t3,0x1d
 3d2:	6e676973          	csrrsi	s2,0x6e6,14
 3d6:	6465                	lui	s0,0x19
 3d8:	6920                	flw	fs0,80(a0)
 3da:	746e                	flw	fs0,248(sp)
 3dc:	4400                	lw	s0,8(s0)
 3de:	72747357          	0x72747357
 3e2:	6375                	lui	t1,0x1d
 3e4:	0074                	addi	a3,sp,12
 3e6:	726f6873          	csrrsi	a6,0x726,30
 3ea:	2074                	fld	fa3,192(s0)
 3ec:	6e75                	lui	t3,0x1d
 3ee:	6e676973          	csrrsi	s2,0x6e6,14
 3f2:	6465                	lui	s0,0x19
 3f4:	6920                	flw	fs0,80(a0)
 3f6:	746e                	flw	fs0,248(sp)
 3f8:	5f00                	lw	s0,56(a4)
 3fa:	635f 7a6c 745f      	0x745f7a6c635f
 400:	6261                	lui	tp,0x18
 402:	5f00                	lw	s0,56(a4)
 404:	7461                	lui	s0,0xffff8
 406:	7865                	lui	a6,0xffff9
 408:	7469                	lui	s0,0xffffa
 40a:	0030                	addi	a2,sp,8
 40c:	735f 6769 616e      	0x616e6769735f
 412:	5f6c                	lw	a1,124(a4)
 414:	7562                	flw	fa0,56(sp)
 416:	0066                	0x66
 418:	615f 6373 6974      	0x69746373615f
 41e:	656d                	lui	a0,0x1b
 420:	625f 6675 5f00      	0x5f006675625f
 426:	6572                	flw	fa0,28(sp)
 428:	746c7573          	csrrci	a0,0x746,24
 42c:	5f00                	lw	s0,56(a4)
 42e:	775f 6863 5f00      	0x5f006863775f
 434:	656e                	flw	fa0,216(sp)
 436:	7478                	flw	fa4,108(s0)
 438:	0066                	0x66
 43a:	6e65                	lui	t3,0x19
 43c:	6976                	flw	fs2,92(sp)
 43e:	6f72                	flw	ft10,28(sp)
 440:	006e                	0x6e
 442:	746e6977          	0x746e6977
 446:	745f 5f00 6f6c      	0x6f6c5f00745f
 44c:	5f006b63          	bltu	zero,a6,a42 <vprintfmt.constprop.0+0x5cc>
 450:	755f 0068 6d5f      	0x6d5f0068755f
 456:	6c75                	lui	s8,0x1d
 458:	0074                	addi	a3,sp,12
 45a:	5f5f 6c75 7500      	0x75006c755f5f
 460:	736e                	flw	ft6,248(sp)
 462:	6570                	flw	fa2,76(a0)
 464:	74735f63          	ble	t2,t1,bc2 <putchar+0x44>
 468:	6972                	flw	fs2,28(sp)
 46a:	676e                	flw	fa4,216(sp)
 46c:	706f0073          	0x706f0073
 470:	7274                	flw	fa3,100(a2)
 472:	7365                	lui	t1,0xffff9
 474:	7465                	lui	s0,0xffff9
 476:	5f00                	lw	s0,56(a4)
 478:	74697277          	0x74697277
 47c:	0065                	c.addi	zero,25
 47e:	5f5f 6d74 795f      	0x795f6d745f5f
 484:	6165                	addi	sp,sp,112
 486:	0072                	0x72
 488:	5f5f 6f63 6e75      	0x6e756f635f5f
 48e:	0074                	addi	a3,sp,12
 490:	755f 756e 6573      	0x6573756e755f
 496:	5f64                	lw	s1,124(a4)
 498:	6172                	flw	ft2,28(sp)
 49a:	646e                	flw	fs0,216(sp)
 49c:	4100                	lw	s0,0(a0)
 49e:	4942                	lw	s2,16(sp)
 4a0:	495f 504c 3233      	0x3233504c495f
 4a6:	0044                	addi	s1,sp,4
 4a8:	6972                	flw	fs2,28(sp)
 4aa:	5f766373          	csrrsi	t1,0x5f7,12
 4ae:	65646f63          	bltu	s0,s6,b0c <vprintfmt.constprop.0+0x696>
 4b2:	6d5f 646f 6c65      	0x6c65646f6d5f
 4b8:	5f00                	lw	s0,56(a4)
 4ba:	7366666f          	jal	a2,66bf0 <__C_STACK_TOP__+0x56bf0>
 4be:	7465                	lui	s0,0xffff9
 4c0:	5f00                	lw	s0,56(a4)
 4c2:	6942                	flw	fs2,16(sp)
 4c4:	746e6967          	0x746e6967
 4c8:	5f00                	lw	s0,56(a4)
 4ca:	6d5f 646f 6964      	0x6964646f6d5f
 4d0:	42410033          	0x42410033
 4d4:	5f49                	li	t5,-14
 4d6:	4c49                	li	s8,18
 4d8:	3350                	fld	fa2,160(a4)
 4da:	4632                	lw	a2,12(sp)
 4dc:	6300                	flw	fs0,0(a4)
 4de:	6c706d6f          	jal	s10,73a4 <__BSS_END__+0xd64>
 4e2:	7865                	lui	a6,0xffff9
 4e4:	6620                	flw	fs0,72(a2)
 4e6:	6f6c                	flw	fa1,92(a4)
 4e8:	7461                	lui	s0,0xffff8
 4ea:	5f00                	lw	s0,56(a4)
 4ec:	745f 5f6d 6f6d      	0x6f6d5f6d745f
 4f2:	006e                	0x6e
 4f4:	615f 6574 6978      	0x69786574615f
 4fa:	0074                	addi	a3,sp,12
 4fc:	6f627573          	csrrci	a0,0x6f6,4
 500:	7470                	flw	fa2,108(s0)
 502:	7261                	lui	tp,0xffff8
 504:	5f5f0067          	jr	1525(t5) # 1b5f5 <__C_STACK_TOP__+0xb5f5>
 508:	64696473          	csrrsi	s0,0x646,18
 50c:	6e69                	lui	t3,0x1a
 50e:	7469                	lui	s0,0xffffa
 510:	5f00                	lw	s0,56(a4)
 512:	5f66666f          	jal	a2,66b08 <__C_STACK_TOP__+0x56b08>
 516:	0074                	addi	a3,sp,12
 518:	5f5f 6876 5f00      	0x5f0068765f5f
 51e:	765f 006c 665f      	0x665f006c765f
 524:	6572                	flw	fa0,28(sp)
 526:	6c65                	lui	s8,0x19
 528:	7369                	lui	t1,0xffffa
 52a:	0074                	addi	a3,sp,12
 52c:	745f 6d69 7a65      	0x7a656d69745f
 532:	00656e6f          	jal	t3,56538 <__C_STACK_TOP__+0x46538>
 536:	6d5f 7362 6174      	0x617473626d5f
 53c:	6574                	flw	fa3,76(a0)
 53e:	745f 5f00 4f4c      	0x4f4c5f00745f
 544:	525f4b43          	fmadd.d	fs6,ft10,ft5,fa0,rmm
 548:	4345                	li	t1,17
 54a:	5255                	li	tp,-11
 54c:	45564953          	0x45564953
 550:	545f 5f00 6572      	0x65725f00545f
 556:	6461                	lui	s0,0x18
 558:	4100                	lw	s0,0(a0)
 55a:	4942                	lw	s2,16(sp)
 55c:	4c5f 3650 0034      	0x3436504c5f
 562:	4241                	li	tp,16
 564:	5f49                	li	t5,-14
 566:	4c49                	li	s8,18
 568:	3350                	fld	fa2,160(a4)
 56a:	0032                	0x32
 56c:	645f 6f73 685f      	0x685f6f73645f
 572:	6e61                	lui	t3,0x18
 574:	6c64                	flw	fs1,92(s0)
 576:	0065                	c.addi	zero,25
 578:	4d5f4d43          	0x4d5f4d43
 57c:	4445                	li	s0,17
 57e:	4e41                	li	t3,16
 580:	0059                	c.addi	zero,22
 582:	6e5f 7765 5f00      	0x5f0077656e5f
 588:	5f68                	lw	a0,124(a4)
 58a:	7265                	lui	tp,0xffff9
 58c:	6e72                	flw	ft8,28(sp)
 58e:	665f006f          	j	f13f2 <__C_STACK_TOP__+0xe13f2>
 592:	6f6c                	flw	fa1,92(a4)
 594:	745f6b63          	bltu	t5,t0,cea <cmp_idx+0x3c>
 598:	5f00                	lw	s0,56(a4)
 59a:	6c66                	flw	fs8,88(sp)
 59c:	6761                	lui	a4,0x18
 59e:	5f003273          	csrrc	tp,0x5f0,zero
 5a2:	6f69                	lui	t5,0x1a
 5a4:	7362                	flw	ft6,56(sp)
 5a6:	4300                	lw	s0,0(a4)
 5a8:	5f4d                	li	t5,-13
 5aa:	454d                	li	a0,19
 5ac:	4c44                	lw	s1,28(s0)
 5ae:	6800574f          	fnmadd.s	fa4,ft0,ft0,fa3,unknown
 5b2:	6174                	flw	fa3,68(a0)
 5b4:	5f62                	lw	t5,56(sp)
 5b6:	6168                	flw	fa0,68(a0)
 5b8:	5f006873          	csrrsi	a6,0x5f0,0
 5bc:	735f 4946 454c      	0x454c4946735f
 5c2:	5f00                	lw	s0,56(a4)
 5c4:	5f737973          	csrrci	s2,0x5f7,6
 5c8:	656e                	flw	fa0,216(sp)
 5ca:	7272                	flw	ft4,60(sp)
 5cc:	5f00                	lw	s0,56(a4)
 5ce:	626d                	lui	tp,0x1b
 5d0:	656c                	flw	fa1,76(a0)
 5d2:	5f6e                	lw	t5,248(sp)
 5d4:	74617473          	csrrci	s0,0x746,2
 5d8:	0065                	c.addi	zero,25
 5da:	695f 636e 5f00      	0x5f00636e695f
 5e0:	6e69                	lui	t3,0x1a
 5e2:	0064                	addi	s1,sp,12
 5e4:	6c5f 636f 6c61      	0x6c61636f6c5f
 5ea:	0065                	c.addi	zero,25
 5ec:	5f5f 6c63 6165      	0x61656c635f5f
 5f2:	756e                	flw	fa0,248(sp)
 5f4:	0070                	addi	a2,sp,12
 5f6:	6d5f 7861 6477      	0x647778616d5f
 5fc:	725f0073          	0x725f0073
 600:	6565                	lui	a0,0x19
 602:	746e                	flw	fs0,248(sp)
 604:	5f00                	lw	s0,56(a4)
 606:	785f 0030 5f5f      	0x5f5f0030785f
 60c:	3178                	fld	fa4,224(a0)
 60e:	5f00                	lw	s0,56(a4)
 610:	785f 0032 5f5f      	0x5f5f0032785f
 616:	3378                	fld	fa4,224(a4)
 618:	5f00                	lw	s0,56(a4)
 61a:	765f 6c61 6575      	0x65756c61765f
 620:	5f00                	lw	s0,56(a4)
 622:	6b656573          	csrrsi	a0,0x6b6,10
 626:	5f00                	lw	s0,56(a4)
 628:	7066                	flw	ft0,120(sp)
 62a:	745f736f          	jal	t1,f856e <__C_STACK_TOP__+0xe856e>
 62e:	5f00                	lw	s0,56(a4)
 630:	6c62                	flw	fs8,24(sp)
 632:	7a69736b          	0x7a69736b
 636:	0065                	c.addi	zero,25
 638:	735f 7a69 0065      	0x657a69735f
 63e:	5f5f 6475 7669      	0x766964755f5f
 644:	6f6d                	lui	t5,0x1b
 646:	6464                	flw	fs1,76(s0)
 648:	3469                	jal	d2 <buflen.1776+0x92>
 64a:	7500                	flw	fs0,40(a0)
 64c:	736e                	flw	ft6,248(sp)
 64e:	6570                	flw	fa2,76(a0)
 650:	735f7663          	bleu	s5,t5,d7c <calc_func+0x88>
 654:	7274                	flw	fa3,100(a2)
 656:	6e69                	lui	t3,0x1a
 658:	5f007367          	0x5f007367
 65c:	64656573          	csrrsi	a0,0x646,10
 660:	6f00                	flw	fs0,24(a4)
 662:	7470                	flw	fa2,108(s0)
 664:	7265                	lui	tp,0xffff9
 666:	0072                	0x72
 668:	6968                	flw	fa0,84(a0)
 66a:	5f006867          	0x5f006867
 66e:	715f 0030 5f5f      	0x5f5f0030715f
 674:	3171                	jal	300 <barebones_clock>
 676:	5f00                	lw	s0,56(a4)
 678:	74727473          	csrrci	s0,0x747,4
 67c:	6c5f6b6f          	jal	s6,f7540 <__C_STACK_TOP__+0xe7540>
 680:	7361                	lui	t1,0xffff8
 682:	0074                	addi	a3,sp,12
 684:	505f4d43          	fmadd.s	fs10,ft10,ft5,fa0,rmm
 688:	4349                	li	t1,18
 68a:	5f00                	lw	s0,56(a4)
 68c:	6e66                	flw	ft8,88(sp)
 68e:	7974                	flw	fa3,116(a0)
 690:	6570                	flw	fa2,76(a0)
 692:	6e750073          	0x6e750073
 696:	6e676973          	csrrsi	s2,0x6e6,14
 69a:	6465                	lui	s0,0x19
 69c:	6320                	flw	fs0,64(a4)
 69e:	6168                	flw	fa0,68(a0)
 6a0:	0072                	0x72
 6a2:	615f 6464 5f00      	0x5f006464615f
 6a8:	555f 6f4c 676e      	0x676e6f4c555f
 6ae:	6800                	flw	fs0,16(s0)
 6b0:	6174                	flw	fa3,68(a0)
 6b2:	5f62                	lw	t5,56(sp)
 6b4:	7165                	addi	sp,sp,-400
 6b6:	705f 696f 746e      	0x746e696f705f
 6bc:	7265                	lui	tp,0xffff9
 6be:	5f00                	lw	s0,56(a4)
 6c0:	785f 0072 675f      	0x675f0072785f
 6c6:	6f6c                	flw	fa1,92(a4)
 6c8:	6162                	flw	ft2,24(sp)
 6ca:	5f6c                	lw	a1,124(a4)
 6cc:	6d69                	lui	s10,0x1a
 6ce:	7570                	flw	fa2,108(a0)
 6d0:	6572                	flw	fa0,28(sp)
 6d2:	705f 7274 5500      	0x55007274705f
 6d8:	4944                	lw	s1,20(a0)
 6da:	7974                	flw	fa3,116(a0)
 6dc:	6570                	flw	fa2,76(a0)
 6de:	5f00                	lw	s0,56(a4)
 6e0:	6f647473          	csrrci	s0,0x6f6,8
 6e4:	7475                	lui	s0,0xffffd
 6e6:	5f00                	lw	s0,56(a4)
 6e8:	745f 5f6d 6477      	0x64775f6d745f
 6ee:	7961                	lui	s2,0xffff8
 6f0:	5f00                	lw	s0,56(a4)
 6f2:	65756c67          	0x65756c67
 6f6:	5f00                	lw	s0,56(a4)
 6f8:	69647473          	csrrci	s0,0x696,8
 6fc:	006e                	0x6e
 6fe:	735f 6973 657a      	0x657a6973735f
 704:	745f 5f00 366c      	0x366c5f00745f
 70a:	6134                	flw	fa3,64(a0)
 70c:	625f 6675 5f00      	0x5f006675625f
 712:	5f676973          	csrrsi	s2,0x5f6,14
 716:	7566                	flw	fa0,120(sp)
 718:	636e                	flw	ft6,216(sp)
 71a:	5f00                	lw	s0,56(a4)
 71c:	705f 706f 6f63      	0x6f63706f705f
 722:	6e75                	lui	t3,0x1d
 724:	5f74                	lw	a3,124(a4)
 726:	6174                	flw	fa3,68(a0)
 728:	0062                	0x62
 72a:	6e5f 7562 0066      	0x6675626e5f
 730:	755f 756e 6573      	0x6573756e755f
 736:	0064                	addi	s1,sp,12
 738:	5f5f 3072 5f00      	0x5f0030725f5f
 73e:	725f 0031 5f5f      	0x5f5f0031725f
 744:	6d74                	flw	fa3,92(a0)
 746:	695f 6473 7473      	0x74736473695f
 74c:	5f00                	lw	s0,56(a4)
 74e:	6f6c                	flw	fa1,92(a4)
 750:	746c6163          	bltu	s8,t1,e92 <core_list_find+0xe>
 754:	6d69                	lui	s10,0x1a
 756:	5f65                	li	t5,-7
 758:	7562                	flw	fa0,56(sp)
 75a:	0066                	0x66
 75c:	5f5f 6d74 6d5f      	0x6d5f6d745f5f
 762:	6e69                	lui	t3,0x1a
 764:	5f00                	lw	s0,56(a4)
 766:	3472                	fld	fs0,312(sp)
 768:	0038                	addi	a4,sp,8
 76a:	4241                	li	tp,16
 76c:	5f49                	li	t5,-14
 76e:	504c                	lw	a1,36(s0)
 770:	3436                	fld	fs0,360(sp)
 772:	0044                	addi	s1,sp,4
 774:	6f74706f          	j	4866a <__C_STACK_TOP__+0x3866a>
 778:	7470                	flw	fa2,108(s0)
 77a:	4100                	lw	s0,0(a0)
 77c:	4942                	lw	s2,16(sp)
 77e:	4c5f 3650 4634      	0x463436504c5f
 784:	5f00                	lw	s0,56(a4)
 786:	626d                	lui	tp,0x1b
 788:	6f74                	flw	fa3,92(a4)
 78a:	735f6377          	0x735f6377
 78e:	6174                	flw	fa3,68(a0)
 790:	6574                	flw	fa3,76(a0)
 792:	5f00                	lw	s0,56(a4)
 794:	3570                	fld	fa2,232(a0)
 796:	5f5f0073          	0x5f5f0073
 79a:	6d74                	flw	fa3,92(a0)
 79c:	795f 6164 0079      	0x796164795f
 7a2:	5155                	li	sp,-11
 7a4:	7449                	lui	s0,0xffff2
 7a6:	7079                	0x7079
 7a8:	0065                	c.addi	zero,25
 7aa:	5f5f 6273 6675      	0x667562735f5f
 7b0:	5f00                	lw	s0,56(a4)
 7b2:	745f 5f6d 646d      	0x646d5f6d745f
 7b8:	7961                	lui	s2,0xffff8
 7ba:	5f00                	lw	s0,56(a4)
 7bc:	6172                	flw	ft2,28(sp)
 7be:	646e                	flw	fs0,216(sp)
 7c0:	6e5f 7865 0074      	0x7478656e5f
 7c6:	7468                	flw	fa0,108(s0)
 7c8:	6261                	lui	tp,0x18
 7ca:	655f 0071 5f5f      	0x5f5f0071655f
 7d0:	6475                	lui	s0,0x1d
 7d2:	7669                	lui	a2,0xffffa
 7d4:	6964                	flw	fs1,84(a0)
 7d6:	5f5f0033          	0x5f5f0033
 7da:	6d75                	lui	s10,0x1d
 7dc:	6964646f          	jal	s0,46e72 <__C_STACK_TOP__+0x36e72>
 7e0:	4e470033          	0x4e470033
 7e4:	2055                	jal	888 <vprintfmt.constprop.0+0x412>
 7e6:	20313143          	fmadd.s	ft2,ft2,ft3,ft4,rup
 7ea:	2e312e37          	lui	t3,0x2e312
 7ee:	2031                	jal	7fa <vprintfmt.constprop.0+0x384>
 7f0:	3032                	fld	ft0,296(sp)
 7f2:	3731                	jal	6fe <vprintfmt.constprop.0+0x288>
 7f4:	3530                	fld	fa2,104(a0)
 7f6:	3930                	fld	fa2,112(a0)
 7f8:	2d20                	fld	fs0,88(a0)
 7fa:	636d                	lui	t1,0x1b
 7fc:	6f6d                	lui	t5,0x1b
 7fe:	6564                	flw	fs1,76(a0)
 800:	3d6c                	fld	fa1,248(a0)
 802:	656d                	lui	a0,0x1b
 804:	6c64                	flw	fs1,92(s0)
 806:	2d20776f          	jal	a4,7ad8 <__BSS_END__+0x1498>
 80a:	616d                	addi	sp,sp,240
 80c:	6372                	flw	ft6,28(sp)
 80e:	3d68                	fld	fa0,248(a0)
 810:	7672                	flw	fa2,60(sp)
 812:	6d693233          	0x6d693233
 816:	2d20                	fld	fs0,88(a0)
 818:	616d                	addi	sp,sp,240
 81a:	6962                	flw	fs2,24(sp)
 81c:	693d                	lui	s2,0xf
 81e:	706c                	flw	fa1,100(s0)
 820:	2d203233          	0x2d203233
 824:	636d                	lui	t1,0x1b
 826:	6f6d                	lui	t5,0x1b
 828:	6564                	flw	fs1,76(a0)
 82a:	3d6c                	fld	fa1,248(a0)
 82c:	656d                	lui	a0,0x1b
 82e:	6c64                	flw	fs1,92(s0)
 830:	2d20776f          	jal	a4,7b02 <__BSS_END__+0x14c2>
 834:	4f2d2067          	0x4f2d2067
 838:	4f2d2073          	csrs	0x4f2,s10
 83c:	2032                	fld	ft0,264(sp)
 83e:	4f2d                	li	t5,11
 840:	662d2073          	csrs	0x662,s10
 844:	7562                	flw	fa0,56(sp)
 846:	6c69                	lui	s8,0x1a
 848:	6964                	flw	fs1,84(a0)
 84a:	676e                	flw	fa4,216(sp)
 84c:	6c2d                	lui	s8,0xb
 84e:	6269                	lui	tp,0x1a
 850:	20636367          	0x20636367
 854:	662d                	lui	a2,0xb
 856:	6f6e                	flw	ft10,216(sp)
 858:	732d                	lui	t1,0xfffeb
 85a:	6174                	flw	fa3,68(a0)
 85c:	702d6b63          	bltu	s10,sp,f72 <core_list_mergesort+0x8a>
 860:	6f72                	flw	ft10,28(sp)
 862:	6574                	flw	fa3,76(a0)
 864:	726f7463          	bleu	t1,t5,f8c <core_list_mergesort+0xa4>
 868:	2d20                	fld	fs0,88(a0)
 86a:	7666                	flw	fa2,120(sp)
 86c:	7369                	lui	t1,0xffffa
 86e:	6269                	lui	tp,0x1a
 870:	6c69                	lui	s8,0x1a
 872:	7469                	lui	s0,0xffffa
 874:	3d79                	jal	712 <vprintfmt.constprop.0+0x29c>
 876:	6968                	flw	fa0,84(a0)
 878:	6464                	flw	fs1,76(s0)
 87a:	6e65                	lui	t3,0x19
	...
