
/home/oleg/scr1/build/verilator_wf_AHB_IMC/coremark.elf:     формат файла elf32-littleriscv


Дизассемблирование раздела .text.init:

00000000 <SIM_EXIT-0xf4>:
	...

000000f4 <SIM_EXIT>:
  f4:	00000013          	nop

000000f8 <SIM_STOP>:
  f8:	0000006f          	j	f8 <SIM_STOP>
  fc:	ffff                	0xffff
  fe:	ffff                	0xffff

Дизассемблирование раздела .text:

00000100 <machine_trap_entry-0xc0>:
	...

000001c0 <machine_trap_entry>:
     1c0:	0a40006f          	j	264 <trap_entry>
     1c4:	00000013          	nop
     1c8:	00000013          	nop
     1cc:	00000013          	nop
     1d0:	00000013          	nop
     1d4:	00000013          	nop
     1d8:	00000013          	nop
     1dc:	00000013          	nop
     1e0:	00000013          	nop
     1e4:	00000013          	nop
     1e8:	00000013          	nop
     1ec:	00000013          	nop
     1f0:	00000013          	nop
     1f4:	00000013          	nop
     1f8:	00000013          	nop
     1fc:	00000013          	nop

00000200 <_start>:
     200:	00006197          	auipc	gp,0x6
     204:	42018193          	addi	gp,gp,1056 # 6620 <__global_pointer$>
     208:	00006597          	auipc	a1,0x6
     20c:	c3858593          	addi	a1,a1,-968 # 5e40 <__BSS_START__>
     210:	00006617          	auipc	a2,0x6
     214:	43060613          	addi	a2,a2,1072 # 6640 <__BSS_END__>
     218:	a021                	j	220 <_start+0x20>
     21a:	0005a023          	sw	zero,0(a1)
     21e:	0591                	addi	a1,a1,4
     220:	fec59de3          	bne	a1,a2,21a <_start+0x1a>
     224:	00010117          	auipc	sp,0x10
     228:	ddc10113          	addi	sp,sp,-548 # 10000 <__C_STACK_TOP__>
     22c:	004902b7          	lui	t0,0x490
     230:	4305                	li	t1,1
     232:	0062a023          	sw	t1,0(t0) # 490000 <__C_STACK_TOP__+0x480000>
     236:	004902b7          	lui	t0,0x490
     23a:	00428293          	addi	t0,t0,4 # 490004 <__C_STACK_TOP__+0x480004>
     23e:	06300313          	li	t1,99
     242:	0062a023          	sw	t1,0(t0)
     246:	004902b7          	lui	t0,0x490
     24a:	01028293          	addi	t0,t0,16 # 490010 <__C_STACK_TOP__+0x480010>
     24e:	537d                	li	t1,-1
     250:	0062a023          	sw	t1,0(t0)
     254:	0062a223          	sw	t1,4(t0)
     258:	4501                	li	a0,0
     25a:	4581                	li	a1,0
     25c:	74a030ef          	jal	ra,39a6 <main>
     260:	0960006f          	j	2f6 <handle_trap>

00000264 <trap_entry>:
     264:	716d                	addi	sp,sp,-272
     266:	c206                	sw	ra,4(sp)
     268:	c40a                	sw	sp,8(sp)
     26a:	c60e                	sw	gp,12(sp)
     26c:	c812                	sw	tp,16(sp)
     26e:	ca16                	sw	t0,20(sp)
     270:	cc1a                	sw	t1,24(sp)
     272:	ce1e                	sw	t2,28(sp)
     274:	d022                	sw	s0,32(sp)
     276:	d226                	sw	s1,36(sp)
     278:	d42a                	sw	a0,40(sp)
     27a:	d62e                	sw	a1,44(sp)
     27c:	d832                	sw	a2,48(sp)
     27e:	da36                	sw	a3,52(sp)
     280:	dc3a                	sw	a4,56(sp)
     282:	de3e                	sw	a5,60(sp)
     284:	c0c2                	sw	a6,64(sp)
     286:	c2c6                	sw	a7,68(sp)
     288:	c4ca                	sw	s2,72(sp)
     28a:	c6ce                	sw	s3,76(sp)
     28c:	c8d2                	sw	s4,80(sp)
     28e:	cad6                	sw	s5,84(sp)
     290:	ccda                	sw	s6,88(sp)
     292:	cede                	sw	s7,92(sp)
     294:	d0e2                	sw	s8,96(sp)
     296:	d2e6                	sw	s9,100(sp)
     298:	d4ea                	sw	s10,104(sp)
     29a:	d6ee                	sw	s11,108(sp)
     29c:	d8f2                	sw	t3,112(sp)
     29e:	daf6                	sw	t4,116(sp)
     2a0:	dcfa                	sw	t5,120(sp)
     2a2:	defe                	sw	t6,124(sp)
     2a4:	34202573          	csrr	a0,mcause
     2a8:	341025f3          	csrr	a1,mepc
     2ac:	860a                	mv	a2,sp
     2ae:	048000ef          	jal	ra,2f6 <handle_trap>
     2b2:	4092                	lw	ra,4(sp)
     2b4:	4122                	lw	sp,8(sp)
     2b6:	41b2                	lw	gp,12(sp)
     2b8:	4242                	lw	tp,16(sp)
     2ba:	42d2                	lw	t0,20(sp)
     2bc:	4362                	lw	t1,24(sp)
     2be:	43f2                	lw	t2,28(sp)
     2c0:	5402                	lw	s0,32(sp)
     2c2:	5492                	lw	s1,36(sp)
     2c4:	5522                	lw	a0,40(sp)
     2c6:	55b2                	lw	a1,44(sp)
     2c8:	5642                	lw	a2,48(sp)
     2ca:	56d2                	lw	a3,52(sp)
     2cc:	5762                	lw	a4,56(sp)
     2ce:	57f2                	lw	a5,60(sp)
     2d0:	4806                	lw	a6,64(sp)
     2d2:	4896                	lw	a7,68(sp)
     2d4:	4926                	lw	s2,72(sp)
     2d6:	49b6                	lw	s3,76(sp)
     2d8:	4a46                	lw	s4,80(sp)
     2da:	4ad6                	lw	s5,84(sp)
     2dc:	4b66                	lw	s6,88(sp)
     2de:	4bf6                	lw	s7,92(sp)
     2e0:	5c06                	lw	s8,96(sp)
     2e2:	5c96                	lw	s9,100(sp)
     2e4:	5d26                	lw	s10,104(sp)
     2e6:	5db6                	lw	s11,108(sp)
     2e8:	5e46                	lw	t3,112(sp)
     2ea:	5ed6                	lw	t4,116(sp)
     2ec:	5f66                	lw	t5,120(sp)
     2ee:	5ff6                	lw	t6,124(sp)
     2f0:	6151                	addi	sp,sp,272
     2f2:	30200073          	mret

000002f6 <handle_trap>:
     2f6:	dffff06f          	j	f4 <SIM_EXIT>
     2fa:	0000                	unimp
     2fc:	0000                	unimp
	...

00000300 <barebones_clock>:
     300:	c0102573          	rdtime	a0
     304:	8082                	ret

00000306 <start_time>:
     306:	c01027f3          	rdtime	a5
     30a:	82f1a223          	sw	a5,-2012(gp) # 5e44 <start_time_val>
     30e:	8082                	ret

00000310 <stop_time>:
     310:	c01027f3          	rdtime	a5
     314:	6719                	lui	a4,0x6
     316:	e4f72023          	sw	a5,-448(a4) # 5e40 <__BSS_START__>
     31a:	8082                	ret

0000031c <get_time>:
     31c:	6799                	lui	a5,0x6
     31e:	e407a503          	lw	a0,-448(a5) # 5e40 <__BSS_START__>
     322:	8241a303          	lw	t1,-2012(gp) # 5e44 <start_time_val>
     326:	40650533          	sub	a0,a0,t1
     32a:	8082                	ret

0000032c <time_in_secs>:
     32c:	009897b7          	lui	a5,0x989
     330:	68078293          	addi	t0,a5,1664 # 989680 <__C_STACK_TOP__+0x979680>
     334:	02555533          	divu	a0,a0,t0
     338:	8082                	ret

0000033a <portable_init>:
     33a:	1141                	addi	sp,sp,-16
     33c:	c422                	sw	s0,8(sp)
     33e:	842a                	mv	s0,a0
     340:	00005537          	lui	a0,0x5
     344:	62050513          	addi	a0,a0,1568 # 5620 <__umoddi3+0x414>
     348:	c606                	sw	ra,12(sp)
     34a:	13f000ef          	jal	ra,c88 <sc_printf>
     34e:	4785                	li	a5,1
     350:	00f40023          	sb	a5,0(s0)
     354:	40b2                	lw	ra,12(sp)
     356:	4422                	lw	s0,8(sp)
     358:	0141                	addi	sp,sp,16
     35a:	8082                	ret

0000035c <portable_fini>:
     35c:	1141                	addi	sp,sp,-16
     35e:	c606                	sw	ra,12(sp)
     360:	00050023          	sb	zero,0(a0)
     364:	4701                	li	a4,0
     366:	4681                	li	a3,0
     368:	4601                	li	a2,0
     36a:	4581                	li	a1,0
     36c:	4501                	li	a0,0
     36e:	3761                	jal	2f6 <handle_trap>

00000370 <printf_putch>:
     370:	04022803          	lw	a6,64(tp) # 40 <buflen.1776>
     374:	00020293          	mv	t0,tp
     378:	00180713          	addi	a4,a6,1
     37c:	01028333          	add	t1,t0,a6
     380:	04e22023          	sw	a4,64(tp) # 40 <buflen.1776>
     384:	00a30023          	sb	a0,0(t1)
     388:	43a9                	li	t2,10
     38a:	00750763          	beq	a0,t2,398 <printf_putch+0x28>
     38e:	04000513          	li	a0,64
     392:	00a70563          	beq	a4,a0,39c <printf_putch+0x2c>
     396:	8082                	ret
     398:	0ce05c63          	blez	a4,470 <STACK_SIZE+0x70>
     39c:	00777e13          	andi	t3,a4,7
     3a0:	00020793          	mv	a5,tp
     3a4:	f0000eb7          	lui	t4,0xf0000
     3a8:	fff70f13          	addi	t5,a4,-1
     3ac:	060e0f63          	beqz	t3,42a <STACK_SIZE+0x2a>
     3b0:	4f85                	li	t6,1
     3b2:	07fe0563          	beq	t3,t6,41c <STACK_SIZE+0x1c>
     3b6:	4589                	li	a1,2
     3b8:	04be0c63          	beq	t3,a1,410 <STACK_SIZE+0x10>
     3bc:	480d                	li	a6,3
     3be:	050e0363          	beq	t3,a6,404 <STACK_SIZE+0x4>
     3c2:	4691                	li	a3,4
     3c4:	02de0a63          	beq	t3,a3,3f8 <printf_putch+0x88>
     3c8:	4295                	li	t0,5
     3ca:	025e0163          	beq	t3,t0,3ec <printf_putch+0x7c>
     3ce:	4319                	li	t1,6
     3d0:	006e0863          	beq	t3,t1,3e0 <printf_putch+0x70>
     3d4:	0007c383          	lbu	t2,0(a5)
     3d8:	877a                	mv	a4,t5
     3da:	0785                	addi	a5,a5,1
     3dc:	007e8023          	sb	t2,0(t4) # f0000000 <__C_STACK_TOP__+0xefff0000>
     3e0:	0007c503          	lbu	a0,0(a5)
     3e4:	177d                	addi	a4,a4,-1
     3e6:	0785                	addi	a5,a5,1
     3e8:	00ae8023          	sb	a0,0(t4)
     3ec:	0007c883          	lbu	a7,0(a5)
     3f0:	177d                	addi	a4,a4,-1
     3f2:	0785                	addi	a5,a5,1
     3f4:	011e8023          	sb	a7,0(t4)
     3f8:	0007ce03          	lbu	t3,0(a5)
     3fc:	177d                	addi	a4,a4,-1
     3fe:	0785                	addi	a5,a5,1
     400:	01ce8023          	sb	t3,0(t4)
     404:	0007cf03          	lbu	t5,0(a5)
     408:	177d                	addi	a4,a4,-1
     40a:	0785                	addi	a5,a5,1
     40c:	01ee8023          	sb	t5,0(t4)
     410:	0007cf83          	lbu	t6,0(a5)
     414:	177d                	addi	a4,a4,-1
     416:	0785                	addi	a5,a5,1
     418:	01fe8023          	sb	t6,0(t4)
     41c:	0785                	addi	a5,a5,1
     41e:	fff7c583          	lbu	a1,-1(a5)
     422:	177d                	addi	a4,a4,-1
     424:	00be8023          	sb	a1,0(t4)
     428:	c721                	beqz	a4,470 <STACK_SIZE+0x70>
     42a:	0007c803          	lbu	a6,0(a5)
     42e:	07a1                	addi	a5,a5,8
     430:	1761                	addi	a4,a4,-8
     432:	010e8023          	sb	a6,0(t4)
     436:	ff97c683          	lbu	a3,-7(a5)
     43a:	00de8023          	sb	a3,0(t4)
     43e:	ffa7c283          	lbu	t0,-6(a5)
     442:	005e8023          	sb	t0,0(t4)
     446:	ffb7c303          	lbu	t1,-5(a5)
     44a:	006e8023          	sb	t1,0(t4)
     44e:	ffc7c383          	lbu	t2,-4(a5)
     452:	007e8023          	sb	t2,0(t4)
     456:	ffd7c503          	lbu	a0,-3(a5)
     45a:	00ae8023          	sb	a0,0(t4)
     45e:	ffe7c883          	lbu	a7,-2(a5)
     462:	011e8023          	sb	a7,0(t4)
     466:	fff7ce03          	lbu	t3,-1(a5)
     46a:	01ce8023          	sb	t3,0(t4)
     46e:	ff55                	bnez	a4,42a <STACK_SIZE+0x2a>
     470:	04022023          	sw	zero,64(tp) # 40 <buflen.1776>
     474:	8082                	ret

00000476 <vprintfmt.constprop.0>:
     476:	714d                	addi	sp,sp,-336
     478:	13712623          	sw	s7,300(sp)
     47c:	13912223          	sw	s9,292(sp)
     480:	6b99                	lui	s7,0x6
     482:	40000cb7          	lui	s9,0x40000
     486:	14112623          	sw	ra,332(sp)
     48a:	06100793          	li	a5,97
     48e:	b24b8093          	addi	ra,s7,-1244 # 5b24 <__umoddi3+0x918>
     492:	fffc8293          	addi	t0,s9,-1 # 3fffffff <__C_STACK_TOP__+0x3ffeffff>
     496:	14812423          	sw	s0,328(sp)
     49a:	13512a23          	sw	s5,308(sp)
     49e:	13812423          	sw	s8,296(sp)
     4a2:	14912223          	sw	s1,324(sp)
     4a6:	15212023          	sw	s2,320(sp)
     4aa:	13312e23          	sw	s3,316(sp)
     4ae:	13412c23          	sw	s4,312(sp)
     4b2:	13612823          	sw	s6,304(sp)
     4b6:	13a12023          	sw	s10,288(sp)
     4ba:	11b12e23          	sw	s11,284(sp)
     4be:	842a                	mv	s0,a0
     4c0:	8c2e                	mv	s8,a1
     4c2:	c43e                	sw	a5,8(sp)
     4c4:	02500a93          	li	s5,37
     4c8:	c206                	sw	ra,4(sp)
     4ca:	c616                	sw	t0,12(sp)
     4cc:	00044503          	lbu	a0,0(s0)
     4d0:	01550a63          	beq	a0,s5,4e4 <vprintfmt.constprop.0+0x6e>
     4d4:	c529                	beqz	a0,51e <vprintfmt.constprop.0+0xa8>
     4d6:	4581                	li	a1,0
     4d8:	0405                	addi	s0,s0,1
     4da:	3d59                	jal	370 <printf_putch>
     4dc:	00044503          	lbu	a0,0(s0)
     4e0:	ff551ae3          	bne	a0,s5,4d4 <vprintfmt.constprop.0+0x5e>
     4e4:	00144683          	lbu	a3,1(s0)
     4e8:	00140493          	addi	s1,s0,1
     4ec:	8726                	mv	a4,s1
     4ee:	02000a13          	li	s4,32
     4f2:	5dfd                	li	s11,-1
     4f4:	59fd                	li	s3,-1
     4f6:	4501                	li	a0,0
     4f8:	05500593          	li	a1,85
     4fc:	4825                	li	a6,9
     4fe:	fdd68313          	addi	t1,a3,-35
     502:	0ff37393          	andi	t2,t1,255
     506:	00170413          	addi	s0,a4,1
     50a:	5675e163          	bltu	a1,t2,a6c <vprintfmt.constprop.0+0x5f6>
     50e:	4612                	lw	a2,4(sp)
     510:	00239893          	slli	a7,t2,0x2
     514:	00c88b33          	add	s6,a7,a2
     518:	000b2d03          	lw	s10,0(s6)
     51c:	8d02                	jr	s10
     51e:	14c12083          	lw	ra,332(sp)
     522:	14812403          	lw	s0,328(sp)
     526:	14412483          	lw	s1,324(sp)
     52a:	14012903          	lw	s2,320(sp)
     52e:	13c12983          	lw	s3,316(sp)
     532:	13812a03          	lw	s4,312(sp)
     536:	13412a83          	lw	s5,308(sp)
     53a:	13012b03          	lw	s6,304(sp)
     53e:	12c12b83          	lw	s7,300(sp)
     542:	12812c03          	lw	s8,296(sp)
     546:	12412c83          	lw	s9,292(sp)
     54a:	12012d03          	lw	s10,288(sp)
     54e:	11c12d83          	lw	s11,284(sp)
     552:	6171                	addi	sp,sp,336
     554:	8082                	ret
     556:	06100493          	li	s1,97
     55a:	4941                	li	s2,16
     55c:	4b01                	li	s6,0
     55e:	c426                	sw	s1,8(sp)
     560:	4f05                	li	t5,1
     562:	50af5b63          	ble	a0,t5,a78 <vprintfmt.constprop.0+0x602>
     566:	007c0793          	addi	a5,s8,7
     56a:	ff87f093          	andi	ra,a5,-8
     56e:	0000ad03          	lw	s10,0(ra)
     572:	0040ab83          	lw	s7,4(ra)
     576:	00808c13          	addi	s8,ra,8
     57a:	864a                	mv	a2,s2
     57c:	4681                	li	a3,0
     57e:	856a                	mv	a0,s10
     580:	85de                	mv	a1,s7
     582:	48b040ef          	jal	ra,520c <__umoddi3>
     586:	c82a                	sw	a0,16(sp)
     588:	2f7b0363          	beq	s6,s7,86e <vprintfmt.constprop.0+0x3f8>
     58c:	01410c93          	addi	s9,sp,20
     590:	4485                	li	s1,1
     592:	864a                	mv	a2,s2
     594:	4681                	li	a3,0
     596:	856a                	mv	a0,s10
     598:	85de                	mv	a1,s7
     59a:	03b040ef          	jal	ra,4dd4 <__udivdi3>
     59e:	864a                	mv	a2,s2
     5a0:	4681                	li	a3,0
     5a2:	8d2a                	mv	s10,a0
     5a4:	8bae                	mv	s7,a1
     5a6:	467040ef          	jal	ra,520c <__umoddi3>
     5aa:	00aca023          	sw	a0,0(s9)
     5ae:	00148d93          	addi	s11,s1,1
     5b2:	0c91                	addi	s9,s9,4
     5b4:	017b0463          	beq	s6,s7,5bc <vprintfmt.constprop.0+0x146>
     5b8:	84ee                	mv	s1,s11
     5ba:	bfe1                	j	592 <vprintfmt.constprop.0+0x11c>
     5bc:	ff2d7ee3          	bleu	s2,s10,5b8 <vprintfmt.constprop.0+0x142>
     5c0:	0b3ddd63          	ble	s3,s11,67a <vprintfmt.constprop.0+0x204>
     5c4:	fffdc293          	not	t0,s11
     5c8:	01328333          	add	t1,t0,s3
     5cc:	fff98913          	addi	s2,s3,-1
     5d0:	4581                	li	a1,0
     5d2:	8552                	mv	a0,s4
     5d4:	00737b13          	andi	s6,t1,7
     5d8:	3b61                	jal	370 <printf_putch>
     5da:	0b2dd063          	ble	s2,s11,67a <vprintfmt.constprop.0+0x204>
     5de:	060b0363          	beqz	s6,644 <vprintfmt.constprop.0+0x1ce>
     5e2:	4385                	li	t2,1
     5e4:	047b0a63          	beq	s6,t2,638 <vprintfmt.constprop.0+0x1c2>
     5e8:	4889                	li	a7,2
     5ea:	051b0363          	beq	s6,a7,630 <vprintfmt.constprop.0+0x1ba>
     5ee:	460d                	li	a2,3
     5f0:	02cb0c63          	beq	s6,a2,628 <vprintfmt.constprop.0+0x1b2>
     5f4:	4691                	li	a3,4
     5f6:	02db0563          	beq	s6,a3,620 <vprintfmt.constprop.0+0x1aa>
     5fa:	4515                	li	a0,5
     5fc:	00ab0e63          	beq	s6,a0,618 <vprintfmt.constprop.0+0x1a2>
     600:	4719                	li	a4,6
     602:	00eb0763          	beq	s6,a4,610 <vprintfmt.constprop.0+0x19a>
     606:	4581                	li	a1,0
     608:	8552                	mv	a0,s4
     60a:	339d                	jal	370 <printf_putch>
     60c:	ffe98913          	addi	s2,s3,-2
     610:	4581                	li	a1,0
     612:	8552                	mv	a0,s4
     614:	3bb1                	jal	370 <printf_putch>
     616:	197d                	addi	s2,s2,-1
     618:	4581                	li	a1,0
     61a:	8552                	mv	a0,s4
     61c:	3b91                	jal	370 <printf_putch>
     61e:	197d                	addi	s2,s2,-1
     620:	4581                	li	a1,0
     622:	8552                	mv	a0,s4
     624:	33b1                	jal	370 <printf_putch>
     626:	197d                	addi	s2,s2,-1
     628:	4581                	li	a1,0
     62a:	8552                	mv	a0,s4
     62c:	3391                	jal	370 <printf_putch>
     62e:	197d                	addi	s2,s2,-1
     630:	4581                	li	a1,0
     632:	8552                	mv	a0,s4
     634:	3b35                	jal	370 <printf_putch>
     636:	197d                	addi	s2,s2,-1
     638:	197d                	addi	s2,s2,-1
     63a:	4581                	li	a1,0
     63c:	8552                	mv	a0,s4
     63e:	3b0d                	jal	370 <printf_putch>
     640:	032ddd63          	ble	s2,s11,67a <vprintfmt.constprop.0+0x204>
     644:	4581                	li	a1,0
     646:	8552                	mv	a0,s4
     648:	3325                	jal	370 <printf_putch>
     64a:	4581                	li	a1,0
     64c:	8552                	mv	a0,s4
     64e:	330d                	jal	370 <printf_putch>
     650:	4581                	li	a1,0
     652:	8552                	mv	a0,s4
     654:	3b31                	jal	370 <printf_putch>
     656:	4581                	li	a1,0
     658:	8552                	mv	a0,s4
     65a:	3b19                	jal	370 <printf_putch>
     65c:	4581                	li	a1,0
     65e:	8552                	mv	a0,s4
     660:	3b01                	jal	370 <printf_putch>
     662:	4581                	li	a1,0
     664:	8552                	mv	a0,s4
     666:	3329                	jal	370 <printf_putch>
     668:	4581                	li	a1,0
     66a:	8552                	mv	a0,s4
     66c:	3311                	jal	370 <printf_putch>
     66e:	1961                	addi	s2,s2,-8
     670:	4581                	li	a1,0
     672:	8552                	mv	a0,s4
     674:	39f5                	jal	370 <printf_putch>
     676:	fd2dc7e3          	blt	s11,s2,644 <vprintfmt.constprop.0+0x1ce>
     67a:	00249993          	slli	s3,s1,0x2
     67e:	0a0c                	addi	a1,sp,272
     680:	01358833          	add	a6,a1,s3
     684:	f0082503          	lw	a0,-256(a6)
     688:	4e32                	lw	t3,12(sp)
     68a:	47a2                	lw	a5,8(sp)
     68c:	01010f93          	addi	t6,sp,16
     690:	01c48eb3          	add	t4,s1,t3
     694:	002e9f13          	slli	t5,t4,0x2
     698:	0074fd13          	andi	s10,s1,7
     69c:	8da6                	mv	s11,s1
     69e:	01ef8933          	add	s2,t6,t5
     6a2:	4ba5                	li	s7,9
     6a4:	ff678c93          	addi	s9,a5,-10
     6a8:	3a0d0763          	beqz	s10,a56 <vprintfmt.constprop.0+0x5e0>
     6ac:	03000093          	li	ra,48
     6b0:	00abf363          	bleu	a0,s7,6b6 <vprintfmt.constprop.0+0x240>
     6b4:	80e6                	mv	ra,s9
     6b6:	4581                	li	a1,0
     6b8:	9506                	add	a0,a0,ra
     6ba:	395d                	jal	370 <printf_putch>
     6bc:	e09058e3          	blez	s1,4cc <vprintfmt.constprop.0+0x56>
     6c0:	4a05                	li	s4,1
     6c2:	00092503          	lw	a0,0(s2)
     6c6:	fff48d93          	addi	s11,s1,-1
     6ca:	1971                	addi	s2,s2,-4
     6cc:	394d0563          	beq	s10,s4,a56 <vprintfmt.constprop.0+0x5e0>
     6d0:	4289                	li	t0,2
     6d2:	085d0963          	beq	s10,t0,764 <vprintfmt.constprop.0+0x2ee>
     6d6:	430d                	li	t1,3
     6d8:	066d0a63          	beq	s10,t1,74c <vprintfmt.constprop.0+0x2d6>
     6dc:	4b11                	li	s6,4
     6de:	056d0b63          	beq	s10,s6,734 <vprintfmt.constprop.0+0x2be>
     6e2:	4395                	li	t2,5
     6e4:	027d0c63          	beq	s10,t2,71c <vprintfmt.constprop.0+0x2a6>
     6e8:	4899                	li	a7,6
     6ea:	011d0d63          	beq	s10,a7,704 <vprintfmt.constprop.0+0x28e>
     6ee:	03000613          	li	a2,48
     6f2:	46abe663          	bltu	s7,a0,b5e <vprintfmt.constprop.0+0x6e8>
     6f6:	9532                	add	a0,a0,a2
     6f8:	4581                	li	a1,0
     6fa:	399d                	jal	370 <printf_putch>
     6fc:	00092503          	lw	a0,0(s2)
     700:	1dfd                	addi	s11,s11,-1
     702:	1971                	addi	s2,s2,-4
     704:	03000693          	li	a3,48
     708:	00abf363          	bleu	a0,s7,70e <vprintfmt.constprop.0+0x298>
     70c:	86e6                	mv	a3,s9
     70e:	9536                	add	a0,a0,a3
     710:	4581                	li	a1,0
     712:	39b9                	jal	370 <printf_putch>
     714:	00092503          	lw	a0,0(s2)
     718:	1dfd                	addi	s11,s11,-1
     71a:	1971                	addi	s2,s2,-4
     71c:	03000713          	li	a4,48
     720:	00abf363          	bleu	a0,s7,726 <vprintfmt.constprop.0+0x2b0>
     724:	8766                	mv	a4,s9
     726:	953a                	add	a0,a0,a4
     728:	4581                	li	a1,0
     72a:	3199                	jal	370 <printf_putch>
     72c:	00092503          	lw	a0,0(s2)
     730:	1dfd                	addi	s11,s11,-1
     732:	1971                	addi	s2,s2,-4
     734:	03000493          	li	s1,48
     738:	00abf363          	bleu	a0,s7,73e <vprintfmt.constprop.0+0x2c8>
     73c:	84e6                	mv	s1,s9
     73e:	9526                	add	a0,a0,s1
     740:	4581                	li	a1,0
     742:	313d                	jal	370 <printf_putch>
     744:	00092503          	lw	a0,0(s2)
     748:	1dfd                	addi	s11,s11,-1
     74a:	1971                	addi	s2,s2,-4
     74c:	03000993          	li	s3,48
     750:	00abf363          	bleu	a0,s7,756 <vprintfmt.constprop.0+0x2e0>
     754:	89e6                	mv	s3,s9
     756:	954e                	add	a0,a0,s3
     758:	4581                	li	a1,0
     75a:	3919                	jal	370 <printf_putch>
     75c:	00092503          	lw	a0,0(s2)
     760:	1dfd                	addi	s11,s11,-1
     762:	1971                	addi	s2,s2,-4
     764:	03000593          	li	a1,48
     768:	00abf363          	bleu	a0,s7,76e <vprintfmt.constprop.0+0x2f8>
     76c:	85e6                	mv	a1,s9
     76e:	952e                	add	a0,a0,a1
     770:	4581                	li	a1,0
     772:	3efd                	jal	370 <printf_putch>
     774:	00092503          	lw	a0,0(s2)
     778:	1dfd                	addi	s11,s11,-1
     77a:	1971                	addi	s2,s2,-4
     77c:	ace9                	j	a56 <vprintfmt.constprop.0+0x5e0>
     77e:	00174683          	lbu	a3,1(a4)
     782:	8722                	mv	a4,s0
     784:	bbad                	j	4fe <vprintfmt.constprop.0+0x88>
     786:	4581                	li	a1,0
     788:	02500513          	li	a0,37
     78c:	36d5                	jal	370 <printf_putch>
     78e:	bb3d                	j	4cc <vprintfmt.constprop.0+0x56>
     790:	000c2d83          	lw	s11,0(s8)
     794:	00174683          	lbu	a3,1(a4)
     798:	0c11                	addi	s8,s8,4
     79a:	8722                	mv	a4,s0
     79c:	d609d1e3          	bgez	s3,4fe <vprintfmt.constprop.0+0x88>
     7a0:	89ee                	mv	s3,s11
     7a2:	5dfd                	li	s11,-1
     7a4:	bba9                	j	4fe <vprintfmt.constprop.0+0x88>
     7a6:	00174683          	lbu	a3,1(a4)
     7aa:	02d00a13          	li	s4,45
     7ae:	8722                	mv	a4,s0
     7b0:	b3b9                	j	4fe <vprintfmt.constprop.0+0x88>
     7b2:	fff9cf13          	not	t5,s3
     7b6:	41ff5d13          	srai	s10,t5,0x1f
     7ba:	00174683          	lbu	a3,1(a4)
     7be:	01a9f9b3          	and	s3,s3,s10
     7c2:	8722                	mv	a4,s0
     7c4:	bb2d                	j	4fe <vprintfmt.constprop.0+0x88>
     7c6:	00174683          	lbu	a3,1(a4)
     7ca:	03000a13          	li	s4,48
     7ce:	8722                	mv	a4,s0
     7d0:	b33d                	j	4fe <vprintfmt.constprop.0+0x88>
     7d2:	00174e03          	lbu	t3,1(a4)
     7d6:	fd068d93          	addi	s11,a3,-48
     7da:	8722                	mv	a4,s0
     7dc:	fd0e0b93          	addi	s7,t3,-48
     7e0:	86f2                	mv	a3,t3
     7e2:	fb786de3          	bltu	a6,s7,79c <vprintfmt.constprop.0+0x326>
     7e6:	002d9413          	slli	s0,s11,0x2
     7ea:	01b40cb3          	add	s9,s0,s11
     7ee:	0705                	addi	a4,a4,1
     7f0:	001c9093          	slli	ra,s9,0x1
     7f4:	01c086b3          	add	a3,ra,t3
     7f8:	00074e03          	lbu	t3,0(a4)
     7fc:	fd068d93          	addi	s11,a3,-48
     800:	fd0e0e93          	addi	t4,t3,-48
     804:	86f2                	mv	a3,t3
     806:	ffd870e3          	bleu	t4,a6,7e6 <vprintfmt.constprop.0+0x370>
     80a:	bf49                	j	79c <vprintfmt.constprop.0+0x326>
     80c:	04100e93          	li	t4,65
     810:	4941                	li	s2,16
     812:	4b01                	li	s6,0
     814:	c476                	sw	t4,8(sp)
     816:	b3a9                	j	560 <vprintfmt.constprop.0+0xea>
     818:	000c2503          	lw	a0,0(s8)
     81c:	4581                	li	a1,0
     81e:	0c11                	addi	s8,s8,4
     820:	3e81                	jal	370 <printf_putch>
     822:	b16d                	j	4cc <vprintfmt.constprop.0+0x56>
     824:	4585                	li	a1,1
     826:	32a5d463          	ble	a0,a1,b4e <vprintfmt.constprop.0+0x6d8>
     82a:	0c1d                	addi	s8,s8,7
     82c:	ff8c7b93          	andi	s7,s8,-8
     830:	008b8c13          	addi	s8,s7,8
     834:	000bad03          	lw	s10,0(s7)
     838:	004bab83          	lw	s7,4(s7)
     83c:	000bde63          	bgez	s7,858 <vprintfmt.constprop.0+0x3e2>
     840:	4581                	li	a1,0
     842:	02d00513          	li	a0,45
     846:	362d                	jal	370 <printf_putch>
     848:	41a00d33          	neg	s10,s10
     84c:	01a03833          	snez	a6,s10
     850:	41700e33          	neg	t3,s7
     854:	410e0bb3          	sub	s7,t3,a6
     858:	4929                	li	s2,10
     85a:	864a                	mv	a2,s2
     85c:	4681                	li	a3,0
     85e:	856a                	mv	a0,s10
     860:	85de                	mv	a1,s7
     862:	1ab040ef          	jal	ra,520c <__umoddi3>
     866:	4b01                	li	s6,0
     868:	c82a                	sw	a0,16(sp)
     86a:	d37b11e3          	bne	s6,s7,58c <vprintfmt.constprop.0+0x116>
     86e:	d12d7fe3          	bleu	s2,s10,58c <vprintfmt.constprop.0+0x116>
     872:	4c85                	li	s9,1
     874:	4481                	li	s1,0
     876:	4d85                	li	s11,1
     878:	d53cc6e3          	blt	s9,s3,5c4 <vprintfmt.constprop.0+0x14e>
     87c:	b531                	j	688 <vprintfmt.constprop.0+0x212>
     87e:	00174683          	lbu	a3,1(a4)
     882:	0505                	addi	a0,a0,1
     884:	8722                	mv	a4,s0
     886:	b9a5                	j	4fe <vprintfmt.constprop.0+0x88>
     888:	4921                	li	s2,8
     88a:	4b01                	li	s6,0
     88c:	b9d1                	j	560 <vprintfmt.constprop.0+0xea>
     88e:	4581                	li	a1,0
     890:	03000513          	li	a0,48
     894:	3cf1                	jal	370 <printf_putch>
     896:	4581                	li	a1,0
     898:	07800513          	li	a0,120
     89c:	3cd1                	jal	370 <printf_putch>
     89e:	06100493          	li	s1,97
     8a2:	4941                	li	s2,16
     8a4:	4b01                	li	s6,0
     8a6:	c426                	sw	s1,8(sp)
     8a8:	004c0f93          	addi	t6,s8,4
     8ac:	000c2d03          	lw	s10,0(s8)
     8b0:	4b81                	li	s7,0
     8b2:	8c7e                	mv	s8,t6
     8b4:	b1d9                	j	57a <vprintfmt.constprop.0+0x104>
     8b6:	000c2b83          	lw	s7,0(s8)
     8ba:	0c11                	addi	s8,s8,4
     8bc:	2a0b8363          	beqz	s7,b62 <vprintfmt.constprop.0+0x6ec>
     8c0:	27305d63          	blez	s3,b3a <vprintfmt.constprop.0+0x6c4>
     8c4:	02d00513          	li	a0,45
     8c8:	1aaa1f63          	bne	s4,a0,a86 <vprintfmt.constprop.0+0x610>
     8cc:	000bc503          	lbu	a0,0(s7)
     8d0:	cd09                	beqz	a0,8ea <vprintfmt.constprop.0+0x474>
     8d2:	5a7d                	li	s4,-1
     8d4:	260dd963          	bgez	s11,b46 <vprintfmt.constprop.0+0x6d0>
     8d8:	4581                	li	a1,0
     8da:	0b85                	addi	s7,s7,1
     8dc:	3c51                	jal	370 <printf_putch>
     8de:	000bc503          	lbu	a0,0(s7)
     8e2:	19fd                	addi	s3,s3,-1
     8e4:	f965                	bnez	a0,8d4 <vprintfmt.constprop.0+0x45e>
     8e6:	bf3053e3          	blez	s3,4cc <vprintfmt.constprop.0+0x56>
     8ea:	0079f293          	andi	t0,s3,7
     8ee:	fff98d13          	addi	s10,s3,-1
     8f2:	06028963          	beqz	t0,964 <vprintfmt.constprop.0+0x4ee>
     8f6:	4305                	li	t1,1
     8f8:	04628f63          	beq	t0,t1,956 <vprintfmt.constprop.0+0x4e0>
     8fc:	4389                	li	t2,2
     8fe:	04728763          	beq	t0,t2,94c <vprintfmt.constprop.0+0x4d6>
     902:	488d                	li	a7,3
     904:	03128f63          	beq	t0,a7,942 <vprintfmt.constprop.0+0x4cc>
     908:	4611                	li	a2,4
     90a:	02c28763          	beq	t0,a2,938 <vprintfmt.constprop.0+0x4c2>
     90e:	4915                	li	s2,5
     910:	01228f63          	beq	t0,s2,92e <vprintfmt.constprop.0+0x4b8>
     914:	4b19                	li	s6,6
     916:	01628763          	beq	t0,s6,924 <vprintfmt.constprop.0+0x4ae>
     91a:	4581                	li	a1,0
     91c:	02000513          	li	a0,32
     920:	3c81                	jal	370 <printf_putch>
     922:	89ea                	mv	s3,s10
     924:	4581                	li	a1,0
     926:	02000513          	li	a0,32
     92a:	3499                	jal	370 <printf_putch>
     92c:	19fd                	addi	s3,s3,-1
     92e:	4581                	li	a1,0
     930:	02000513          	li	a0,32
     934:	3c35                	jal	370 <printf_putch>
     936:	19fd                	addi	s3,s3,-1
     938:	4581                	li	a1,0
     93a:	02000513          	li	a0,32
     93e:	3c0d                	jal	370 <printf_putch>
     940:	19fd                	addi	s3,s3,-1
     942:	4581                	li	a1,0
     944:	02000513          	li	a0,32
     948:	3425                	jal	370 <printf_putch>
     94a:	19fd                	addi	s3,s3,-1
     94c:	4581                	li	a1,0
     94e:	02000513          	li	a0,32
     952:	3c39                	jal	370 <printf_putch>
     954:	19fd                	addi	s3,s3,-1
     956:	19fd                	addi	s3,s3,-1
     958:	4581                	li	a1,0
     95a:	02000513          	li	a0,32
     95e:	3c09                	jal	370 <printf_putch>
     960:	b60986e3          	beqz	s3,4cc <vprintfmt.constprop.0+0x56>
     964:	4581                	li	a1,0
     966:	02000513          	li	a0,32
     96a:	3419                	jal	370 <printf_putch>
     96c:	4581                	li	a1,0
     96e:	02000513          	li	a0,32
     972:	3afd                	jal	370 <printf_putch>
     974:	4581                	li	a1,0
     976:	02000513          	li	a0,32
     97a:	3add                	jal	370 <printf_putch>
     97c:	4581                	li	a1,0
     97e:	02000513          	li	a0,32
     982:	32fd                	jal	370 <printf_putch>
     984:	4581                	li	a1,0
     986:	02000513          	li	a0,32
     98a:	32dd                	jal	370 <printf_putch>
     98c:	4581                	li	a1,0
     98e:	02000513          	li	a0,32
     992:	3af9                	jal	370 <printf_putch>
     994:	4581                	li	a1,0
     996:	02000513          	li	a0,32
     99a:	3ad9                	jal	370 <printf_putch>
     99c:	19e1                	addi	s3,s3,-8
     99e:	4581                	li	a1,0
     9a0:	02000513          	li	a0,32
     9a4:	32f1                	jal	370 <printf_putch>
     9a6:	fa099fe3          	bnez	s3,964 <vprintfmt.constprop.0+0x4ee>
     9aa:	b60d                	j	4cc <vprintfmt.constprop.0+0x56>
     9ac:	4929                	li	s2,10
     9ae:	4b01                	li	s6,0
     9b0:	be45                	j	560 <vprintfmt.constprop.0+0xea>
     9b2:	00092e03          	lw	t3,0(s2)
     9b6:	1dfd                	addi	s11,s11,-1
     9b8:	1971                	addi	s2,s2,-4
     9ba:	03000513          	li	a0,48
     9be:	01cbf363          	bleu	t3,s7,9c4 <vprintfmt.constprop.0+0x54e>
     9c2:	8566                	mv	a0,s9
     9c4:	4581                	li	a1,0
     9c6:	9572                	add	a0,a0,t3
     9c8:	3265                	jal	370 <printf_putch>
     9ca:	00092e83          	lw	t4,0(s2)
     9ce:	03000f13          	li	t5,48
     9d2:	01dbf363          	bleu	t4,s7,9d8 <vprintfmt.constprop.0+0x562>
     9d6:	8f66                	mv	t5,s9
     9d8:	4581                	li	a1,0
     9da:	01df0533          	add	a0,t5,t4
     9de:	3a49                	jal	370 <printf_putch>
     9e0:	ffc92d03          	lw	s10,-4(s2)
     9e4:	03000f93          	li	t6,48
     9e8:	01abf363          	bleu	s10,s7,9ee <vprintfmt.constprop.0+0x578>
     9ec:	8fe6                	mv	t6,s9
     9ee:	4581                	li	a1,0
     9f0:	01af8533          	add	a0,t6,s10
     9f4:	3ab5                	jal	370 <printf_putch>
     9f6:	ff892783          	lw	a5,-8(s2)
     9fa:	03000a13          	li	s4,48
     9fe:	00fbf363          	bleu	a5,s7,a04 <vprintfmt.constprop.0+0x58e>
     a02:	8a66                	mv	s4,s9
     a04:	4581                	li	a1,0
     a06:	00fa0533          	add	a0,s4,a5
     a0a:	329d                	jal	370 <printf_putch>
     a0c:	ff492283          	lw	t0,-12(s2)
     a10:	03000313          	li	t1,48
     a14:	005bf363          	bleu	t0,s7,a1a <vprintfmt.constprop.0+0x5a4>
     a18:	8366                	mv	t1,s9
     a1a:	4581                	li	a1,0
     a1c:	00530533          	add	a0,t1,t0
     a20:	3a81                	jal	370 <printf_putch>
     a22:	ff092b03          	lw	s6,-16(s2)
     a26:	03000393          	li	t2,48
     a2a:	016bf363          	bleu	s6,s7,a30 <vprintfmt.constprop.0+0x5ba>
     a2e:	83e6                	mv	t2,s9
     a30:	4581                	li	a1,0
     a32:	01638533          	add	a0,t2,s6
     a36:	3a2d                	jal	370 <printf_putch>
     a38:	fec92883          	lw	a7,-20(s2)
     a3c:	03000613          	li	a2,48
     a40:	011bf363          	bleu	a7,s7,a46 <vprintfmt.constprop.0+0x5d0>
     a44:	8666                	mv	a2,s9
     a46:	01160533          	add	a0,a2,a7
     a4a:	4581                	li	a1,0
     a4c:	3215                	jal	370 <printf_putch>
     a4e:	fe892503          	lw	a0,-24(s2)
     a52:	1de5                	addi	s11,s11,-7
     a54:	1911                	addi	s2,s2,-28
     a56:	03000813          	li	a6,48
     a5a:	00abf363          	bleu	a0,s7,a60 <vprintfmt.constprop.0+0x5ea>
     a5e:	8866                	mv	a6,s9
     a60:	4581                	li	a1,0
     a62:	9542                	add	a0,a0,a6
     a64:	3231                	jal	370 <printf_putch>
     a66:	f5b046e3          	bgtz	s11,9b2 <vprintfmt.constprop.0+0x53c>
     a6a:	b48d                	j	4cc <vprintfmt.constprop.0+0x56>
     a6c:	4581                	li	a1,0
     a6e:	02500513          	li	a0,37
     a72:	38fd                	jal	370 <printf_putch>
     a74:	8426                	mv	s0,s1
     a76:	bc99                	j	4cc <vprintfmt.constprop.0+0x56>
     a78:	004c0f93          	addi	t6,s8,4
     a7c:	bd05                	j	8ac <vprintfmt.constprop.0+0x436>
     a7e:	00005737          	lui	a4,0x5
     a82:	63070b93          	addi	s7,a4,1584 # 5630 <__umoddi3+0x424>
     a86:	85ee                	mv	a1,s11
     a88:	855e                	mv	a0,s7
     a8a:	6c7030ef          	jal	ra,4950 <strnlen>
     a8e:	40a989b3          	sub	s3,s3,a0
     a92:	0b305463          	blez	s3,b3a <vprintfmt.constprop.0+0x6c4>
     a96:	0079f813          	andi	a6,s3,7
     a9a:	8cce                	mv	s9,s3
     a9c:	19fd                	addi	s3,s3,-1
     a9e:	06080263          	beqz	a6,b02 <vprintfmt.constprop.0+0x68c>
     aa2:	4e05                	li	t3,1
     aa4:	05c80963          	beq	a6,t3,af6 <vprintfmt.constprop.0+0x680>
     aa8:	4e89                	li	t4,2
     aaa:	05d80263          	beq	a6,t4,aee <vprintfmt.constprop.0+0x678>
     aae:	4f0d                	li	t5,3
     ab0:	03e80b63          	beq	a6,t5,ae6 <vprintfmt.constprop.0+0x670>
     ab4:	4f91                	li	t6,4
     ab6:	03f80463          	beq	a6,t6,ade <vprintfmt.constprop.0+0x668>
     aba:	4795                	li	a5,5
     abc:	00f80d63          	beq	a6,a5,ad6 <vprintfmt.constprop.0+0x660>
     ac0:	4099                	li	ra,6
     ac2:	00180663          	beq	a6,ra,ace <vprintfmt.constprop.0+0x658>
     ac6:	4581                	li	a1,0
     ac8:	8552                	mv	a0,s4
     aca:	305d                	jal	370 <printf_putch>
     acc:	8cce                	mv	s9,s3
     ace:	4581                	li	a1,0
     ad0:	8552                	mv	a0,s4
     ad2:	3879                	jal	370 <printf_putch>
     ad4:	1cfd                	addi	s9,s9,-1
     ad6:	4581                	li	a1,0
     ad8:	8552                	mv	a0,s4
     ada:	3859                	jal	370 <printf_putch>
     adc:	1cfd                	addi	s9,s9,-1
     ade:	4581                	li	a1,0
     ae0:	8552                	mv	a0,s4
     ae2:	3079                	jal	370 <printf_putch>
     ae4:	1cfd                	addi	s9,s9,-1
     ae6:	4581                	li	a1,0
     ae8:	8552                	mv	a0,s4
     aea:	3059                	jal	370 <printf_putch>
     aec:	1cfd                	addi	s9,s9,-1
     aee:	4581                	li	a1,0
     af0:	8552                	mv	a0,s4
     af2:	38bd                	jal	370 <printf_putch>
     af4:	1cfd                	addi	s9,s9,-1
     af6:	1cfd                	addi	s9,s9,-1
     af8:	4581                	li	a1,0
     afa:	8552                	mv	a0,s4
     afc:	3895                	jal	370 <printf_putch>
     afe:	020c8d63          	beqz	s9,b38 <vprintfmt.constprop.0+0x6c2>
     b02:	4581                	li	a1,0
     b04:	8552                	mv	a0,s4
     b06:	30ad                	jal	370 <printf_putch>
     b08:	4581                	li	a1,0
     b0a:	8552                	mv	a0,s4
     b0c:	3095                	jal	370 <printf_putch>
     b0e:	4581                	li	a1,0
     b10:	8552                	mv	a0,s4
     b12:	38b9                	jal	370 <printf_putch>
     b14:	4581                	li	a1,0
     b16:	8552                	mv	a0,s4
     b18:	38a1                	jal	370 <printf_putch>
     b1a:	4581                	li	a1,0
     b1c:	8552                	mv	a0,s4
     b1e:	3889                	jal	370 <printf_putch>
     b20:	4581                	li	a1,0
     b22:	8552                	mv	a0,s4
     b24:	30b1                	jal	370 <printf_putch>
     b26:	4581                	li	a1,0
     b28:	8552                	mv	a0,s4
     b2a:	3099                	jal	370 <printf_putch>
     b2c:	1ce1                	addi	s9,s9,-8
     b2e:	4581                	li	a1,0
     b30:	8552                	mv	a0,s4
     b32:	383d                	jal	370 <printf_putch>
     b34:	fc0c97e3          	bnez	s9,b02 <vprintfmt.constprop.0+0x68c>
     b38:	4981                	li	s3,0
     b3a:	000bc503          	lbu	a0,0(s7)
     b3e:	980507e3          	beqz	a0,4cc <vprintfmt.constprop.0+0x56>
     b42:	5a7d                	li	s4,-1
     b44:	bb41                	j	8d4 <vprintfmt.constprop.0+0x45e>
     b46:	1dfd                	addi	s11,s11,-1
     b48:	d94d98e3          	bne	s11,s4,8d8 <vprintfmt.constprop.0+0x462>
     b4c:	bb69                	j	8e6 <vprintfmt.constprop.0+0x470>
     b4e:	000c2d03          	lw	s10,0(s8)
     b52:	004c0d93          	addi	s11,s8,4
     b56:	8c6e                	mv	s8,s11
     b58:	41fd5b93          	srai	s7,s10,0x1f
     b5c:	b1c5                	j	83c <vprintfmt.constprop.0+0x3c6>
     b5e:	8666                	mv	a2,s9
     b60:	be59                	j	6f6 <vprintfmt.constprop.0+0x280>
     b62:	01305663          	blez	s3,b6e <vprintfmt.constprop.0+0x6f8>
     b66:	02d00593          	li	a1,45
     b6a:	f0ba1ae3          	bne	s4,a1,a7e <vprintfmt.constprop.0+0x608>
     b6e:	000056b7          	lui	a3,0x5
     b72:	63068b93          	addi	s7,a3,1584 # 5630 <__umoddi3+0x424>
     b76:	02800513          	li	a0,40
     b7a:	5a7d                	li	s4,-1
     b7c:	bba1                	j	8d4 <vprintfmt.constprop.0+0x45e>

00000b7e <putchar>:
     b7e:	04022803          	lw	a6,64(tp) # 40 <buflen.1776>
     b82:	00020293          	mv	t0,tp
     b86:	00180713          	addi	a4,a6,1
     b8a:	01028333          	add	t1,t0,a6
     b8e:	04e22023          	sw	a4,64(tp) # 40 <buflen.1776>
     b92:	00a30023          	sb	a0,0(t1)
     b96:	43a9                	li	t2,10
     b98:	00750863          	beq	a0,t2,ba8 <putchar+0x2a>
     b9c:	04000513          	li	a0,64
     ba0:	00a70663          	beq	a4,a0,bac <putchar+0x2e>
     ba4:	4501                	li	a0,0
     ba6:	8082                	ret
     ba8:	0ce05c63          	blez	a4,c80 <putchar+0x102>
     bac:	00777e13          	andi	t3,a4,7
     bb0:	00020793          	mv	a5,tp
     bb4:	f0000eb7          	lui	t4,0xf0000
     bb8:	fff70f13          	addi	t5,a4,-1
     bbc:	060e0f63          	beqz	t3,c3a <putchar+0xbc>
     bc0:	4f85                	li	t6,1
     bc2:	07fe0563          	beq	t3,t6,c2c <putchar+0xae>
     bc6:	4589                	li	a1,2
     bc8:	04be0c63          	beq	t3,a1,c20 <putchar+0xa2>
     bcc:	480d                	li	a6,3
     bce:	050e0363          	beq	t3,a6,c14 <putchar+0x96>
     bd2:	4691                	li	a3,4
     bd4:	02de0a63          	beq	t3,a3,c08 <putchar+0x8a>
     bd8:	4295                	li	t0,5
     bda:	025e0163          	beq	t3,t0,bfc <putchar+0x7e>
     bde:	4319                	li	t1,6
     be0:	006e0863          	beq	t3,t1,bf0 <putchar+0x72>
     be4:	0007c383          	lbu	t2,0(a5)
     be8:	877a                	mv	a4,t5
     bea:	0785                	addi	a5,a5,1
     bec:	007e8023          	sb	t2,0(t4) # f0000000 <__C_STACK_TOP__+0xefff0000>
     bf0:	0007c503          	lbu	a0,0(a5)
     bf4:	177d                	addi	a4,a4,-1
     bf6:	0785                	addi	a5,a5,1
     bf8:	00ae8023          	sb	a0,0(t4)
     bfc:	0007c883          	lbu	a7,0(a5)
     c00:	177d                	addi	a4,a4,-1
     c02:	0785                	addi	a5,a5,1
     c04:	011e8023          	sb	a7,0(t4)
     c08:	0007ce03          	lbu	t3,0(a5)
     c0c:	177d                	addi	a4,a4,-1
     c0e:	0785                	addi	a5,a5,1
     c10:	01ce8023          	sb	t3,0(t4)
     c14:	0007cf03          	lbu	t5,0(a5)
     c18:	177d                	addi	a4,a4,-1
     c1a:	0785                	addi	a5,a5,1
     c1c:	01ee8023          	sb	t5,0(t4)
     c20:	0007cf83          	lbu	t6,0(a5)
     c24:	177d                	addi	a4,a4,-1
     c26:	0785                	addi	a5,a5,1
     c28:	01fe8023          	sb	t6,0(t4)
     c2c:	0785                	addi	a5,a5,1
     c2e:	fff7c583          	lbu	a1,-1(a5)
     c32:	177d                	addi	a4,a4,-1
     c34:	00be8023          	sb	a1,0(t4)
     c38:	c721                	beqz	a4,c80 <putchar+0x102>
     c3a:	0007c803          	lbu	a6,0(a5)
     c3e:	07a1                	addi	a5,a5,8
     c40:	1761                	addi	a4,a4,-8
     c42:	010e8023          	sb	a6,0(t4)
     c46:	ff97c683          	lbu	a3,-7(a5)
     c4a:	00de8023          	sb	a3,0(t4)
     c4e:	ffa7c283          	lbu	t0,-6(a5)
     c52:	005e8023          	sb	t0,0(t4)
     c56:	ffb7c303          	lbu	t1,-5(a5)
     c5a:	006e8023          	sb	t1,0(t4)
     c5e:	ffc7c383          	lbu	t2,-4(a5)
     c62:	007e8023          	sb	t2,0(t4)
     c66:	ffd7c503          	lbu	a0,-3(a5)
     c6a:	00ae8023          	sb	a0,0(t4)
     c6e:	ffe7c883          	lbu	a7,-2(a5)
     c72:	011e8023          	sb	a7,0(t4)
     c76:	fff7ce03          	lbu	t3,-1(a5)
     c7a:	01ce8023          	sb	t3,0(t4)
     c7e:	ff55                	bnez	a4,c3a <putchar+0xbc>
     c80:	04022023          	sw	zero,64(tp) # 40 <buflen.1776>
     c84:	4501                	li	a0,0
     c86:	8082                	ret

00000c88 <sc_printf>:
     c88:	7139                	addi	sp,sp,-64
     c8a:	02410313          	addi	t1,sp,36
     c8e:	d22e                	sw	a1,36(sp)
     c90:	859a                	mv	a1,t1
     c92:	ce06                	sw	ra,28(sp)
     c94:	d432                	sw	a2,40(sp)
     c96:	d636                	sw	a3,44(sp)
     c98:	d83a                	sw	a4,48(sp)
     c9a:	da3e                	sw	a5,52(sp)
     c9c:	dc42                	sw	a6,56(sp)
     c9e:	de46                	sw	a7,60(sp)
     ca0:	c61a                	sw	t1,12(sp)
     ca2:	fd4ff0ef          	jal	ra,476 <vprintfmt.constprop.0>
     ca6:	40f2                	lw	ra,28(sp)
     ca8:	4501                	li	a0,0
     caa:	6121                	addi	sp,sp,64
     cac:	8082                	ret

00000cae <cmp_idx>:
     cae:	ee0d                	bnez	a2,ce8 <cmp_idx+0x3a>
     cb0:	00051783          	lh	a5,0(a0)
     cb4:	01079713          	slli	a4,a5,0x10
     cb8:	01075293          	srli	t0,a4,0x10
     cbc:	f007f313          	andi	t1,a5,-256
     cc0:	0082d393          	srli	t2,t0,0x8
     cc4:	00736633          	or	a2,t1,t2
     cc8:	00c51023          	sh	a2,0(a0)
     ccc:	00059683          	lh	a3,0(a1)
     cd0:	01069813          	slli	a6,a3,0x10
     cd4:	01085893          	srli	a7,a6,0x10
     cd8:	f006fe13          	andi	t3,a3,-256
     cdc:	0088de93          	srli	t4,a7,0x8
     ce0:	01de6f33          	or	t5,t3,t4
     ce4:	01e59023          	sh	t5,0(a1)
     ce8:	00251503          	lh	a0,2(a0)
     cec:	00259583          	lh	a1,2(a1)
     cf0:	8d0d                	sub	a0,a0,a1
     cf2:	8082                	ret

00000cf4 <calc_func>:
     cf4:	1101                	addi	sp,sp,-32
     cf6:	cc22                	sw	s0,24(sp)
     cf8:	00051403          	lh	s0,0(a0)
     cfc:	ce06                	sw	ra,28(sp)
     cfe:	ca26                	sw	s1,20(sp)
     d00:	40745793          	srai	a5,s0,0x7
     d04:	c84a                	sw	s2,16(sp)
     d06:	c64e                	sw	s3,12(sp)
     d08:	0017f093          	andi	ra,a5,1
     d0c:	07f47f93          	andi	t6,s0,127
     d10:	06009a63          	bnez	ra,d84 <calc_func+0x90>
     d14:	84ae                	mv	s1,a1
     d16:	40345593          	srai	a1,s0,0x3
     d1a:	00f5f293          	andi	t0,a1,15
     d1e:	00429313          	slli	t1,t0,0x4
     d22:	00747713          	andi	a4,s0,7
     d26:	89aa                	mv	s3,a0
     d28:	005365b3          	or	a1,t1,t0
     d2c:	0384d783          	lhu	a5,56(s1)
     d30:	c335                	beqz	a4,d94 <calc_func+0xa0>
     d32:	4685                	li	a3,1
     d34:	02d71463          	bne	a4,a3,d5c <calc_func+0x68>
     d38:	863e                	mv	a2,a5
     d3a:	02848513          	addi	a0,s1,40
     d3e:	677010ef          	jal	ra,2bb4 <core_bench_matrix>
     d42:	03c4d383          	lhu	t2,60(s1)
     d46:	01051613          	slli	a2,a0,0x10
     d4a:	41065913          	srai	s2,a2,0x10
     d4e:	00039463          	bnez	t2,d56 <calc_func+0x62>
     d52:	02a49e23          	sh	a0,60(s1)
     d56:	0384d783          	lhu	a5,56(s1)
     d5a:	a011                	j	d5e <calc_func+0x6a>
     d5c:	8922                	mv	s2,s0
     d5e:	01091e93          	slli	t4,s2,0x10
     d62:	85be                	mv	a1,a5
     d64:	010ed513          	srli	a0,t4,0x10
     d68:	3ae030ef          	jal	ra,4116 <crcu16>
     d6c:	f0047f13          	andi	t5,s0,-256
     d70:	07f97f93          	andi	t6,s2,127
     d74:	080f6413          	ori	s0,t5,128
     d78:	02a49c23          	sh	a0,56(s1)
     d7c:	008fe7b3          	or	a5,t6,s0
     d80:	00f99023          	sh	a5,0(s3)
     d84:	40f2                	lw	ra,28(sp)
     d86:	4462                	lw	s0,24(sp)
     d88:	44d2                	lw	s1,20(sp)
     d8a:	4942                	lw	s2,16(sp)
     d8c:	49b2                	lw	s3,12(sp)
     d8e:	857e                	mv	a0,t6
     d90:	6105                	addi	sp,sp,32
     d92:	8082                	ret
     d94:	02200513          	li	a0,34
     d98:	882e                	mv	a6,a1
     d9a:	00a5d463          	ble	a0,a1,da2 <calc_func+0xae>
     d9e:	02200813          	li	a6,34
     da2:	00249683          	lh	a3,2(s1)
     da6:	00049603          	lh	a2,0(s1)
     daa:	48cc                	lw	a1,20(s1)
     dac:	4c88                	lw	a0,24(s1)
     dae:	0ff87713          	andi	a4,a6,255
     db2:	24d030ef          	jal	ra,47fe <core_bench_state>
     db6:	03e4d883          	lhu	a7,62(s1)
     dba:	01051e13          	slli	t3,a0,0x10
     dbe:	410e5913          	srai	s2,t3,0x10
     dc2:	f8089ae3          	bnez	a7,d56 <calc_func+0x62>
     dc6:	02a49f23          	sh	a0,62(s1)
     dca:	0384d783          	lhu	a5,56(s1)
     dce:	bf41                	j	d5e <calc_func+0x6a>

00000dd0 <cmp_complex>:
     dd0:	1141                	addi	sp,sp,-16
     dd2:	c04a                	sw	s2,0(sp)
     dd4:	892e                	mv	s2,a1
     dd6:	85b2                	mv	a1,a2
     dd8:	c606                	sw	ra,12(sp)
     dda:	c422                	sw	s0,8(sp)
     ddc:	c226                	sw	s1,4(sp)
     dde:	8432                	mv	s0,a2
     de0:	3f11                	jal	cf4 <calc_func>
     de2:	84aa                	mv	s1,a0
     de4:	85a2                	mv	a1,s0
     de6:	854a                	mv	a0,s2
     de8:	3731                	jal	cf4 <calc_func>
     dea:	40b2                	lw	ra,12(sp)
     dec:	4422                	lw	s0,8(sp)
     dee:	40a48533          	sub	a0,s1,a0
     df2:	4902                	lw	s2,0(sp)
     df4:	4492                	lw	s1,4(sp)
     df6:	0141                	addi	sp,sp,16
     df8:	8082                	ret

00000dfa <copy_info>:
     dfa:	00059703          	lh	a4,0(a1)
     dfe:	00259783          	lh	a5,2(a1)
     e02:	00e51023          	sh	a4,0(a0)
     e06:	00f51123          	sh	a5,2(a0)
     e0a:	8082                	ret

00000e0c <core_list_insert_new>:
     e0c:	00062803          	lw	a6,0(a2)
     e10:	00880893          	addi	a7,a6,8
     e14:	04e8f163          	bleu	a4,a7,e56 <core_list_insert_new+0x4a>
     e18:	4298                	lw	a4,0(a3)
     e1a:	00470313          	addi	t1,a4,4
     e1e:	02f37c63          	bleu	a5,t1,e56 <core_list_insert_new+0x4a>
     e22:	01162023          	sw	a7,0(a2)
     e26:	411c                	lw	a5,0(a0)
     e28:	00059283          	lh	t0,0(a1)
     e2c:	00259603          	lh	a2,2(a1)
     e30:	00f82023          	sw	a5,0(a6)
     e34:	01052023          	sw	a6,0(a0)
     e38:	00e82223          	sw	a4,4(a6)
     e3c:	0006a383          	lw	t2,0(a3)
     e40:	00438513          	addi	a0,t2,4
     e44:	c288                	sw	a0,0(a3)
     e46:	00482583          	lw	a1,4(a6)
     e4a:	8542                	mv	a0,a6
     e4c:	00559023          	sh	t0,0(a1)
     e50:	00c59123          	sh	a2,2(a1)
     e54:	8082                	ret
     e56:	4801                	li	a6,0
     e58:	8542                	mv	a0,a6
     e5a:	8082                	ret

00000e5c <core_list_remove>:
     e5c:	411c                	lw	a5,0(a0)
     e5e:	4150                	lw	a2,4(a0)
     e60:	872a                	mv	a4,a0
     e62:	43cc                	lw	a1,4(a5)
     e64:	4394                	lw	a3,0(a5)
     e66:	853e                	mv	a0,a5
     e68:	c34c                	sw	a1,4(a4)
     e6a:	c3d0                	sw	a2,4(a5)
     e6c:	c314                	sw	a3,0(a4)
     e6e:	0007a023          	sw	zero,0(a5)
     e72:	8082                	ret

00000e74 <core_list_undo_remove>:
     e74:	41d0                	lw	a2,4(a1)
     e76:	4154                	lw	a3,4(a0)
     e78:	4198                	lw	a4,0(a1)
     e7a:	c150                	sw	a2,4(a0)
     e7c:	c1d4                	sw	a3,4(a1)
     e7e:	c118                	sw	a4,0(a0)
     e80:	c188                	sw	a0,0(a1)
     e82:	8082                	ret

00000e84 <core_list_find>:
     e84:	00259703          	lh	a4,2(a1)
     e88:	02074263          	bltz	a4,eac <core_list_find+0x28>
     e8c:	cd19                	beqz	a0,eaa <core_list_find+0x26>
     e8e:	4150                	lw	a2,4(a0)
     e90:	00261683          	lh	a3,2(a2)
     e94:	00e69963          	bne	a3,a4,ea6 <core_list_find+0x22>
     e98:	a82d                	j	ed2 <core_list_find+0x4e>
     e9a:	00452803          	lw	a6,4(a0)
     e9e:	00281883          	lh	a7,2(a6)
     ea2:	00e88463          	beq	a7,a4,eaa <core_list_find+0x26>
     ea6:	4108                	lw	a0,0(a0)
     ea8:	f96d                	bnez	a0,e9a <core_list_find+0x16>
     eaa:	8082                	ret
     eac:	dd7d                	beqz	a0,eaa <core_list_find+0x26>
     eae:	415c                	lw	a5,4(a0)
     eb0:	00059283          	lh	t0,0(a1)
     eb4:	0007c303          	lbu	t1,0(a5)
     eb8:	00531963          	bne	t1,t0,eca <core_list_find+0x46>
     ebc:	a821                	j	ed4 <core_list_find+0x50>
     ebe:	00452383          	lw	t2,4(a0)
     ec2:	0003c583          	lbu	a1,0(t2)
     ec6:	00558563          	beq	a1,t0,ed0 <core_list_find+0x4c>
     eca:	4108                	lw	a0,0(a0)
     ecc:	f96d                	bnez	a0,ebe <core_list_find+0x3a>
     ece:	bff1                	j	eaa <core_list_find+0x26>
     ed0:	8082                	ret
     ed2:	8082                	ret
     ed4:	8082                	ret

00000ed6 <core_list_reverse>:
     ed6:	c901                	beqz	a0,ee6 <core_list_reverse+0x10>
     ed8:	4701                	li	a4,0
     eda:	a011                	j	ede <core_list_reverse+0x8>
     edc:	853e                	mv	a0,a5
     ede:	411c                	lw	a5,0(a0)
     ee0:	c118                	sw	a4,0(a0)
     ee2:	872a                	mv	a4,a0
     ee4:	ffe5                	bnez	a5,edc <core_list_reverse+0x6>
     ee6:	8082                	ret

00000ee8 <core_list_mergesort>:
     ee8:	7179                	addi	sp,sp,-48
     eea:	cc52                	sw	s4,24(sp)
     eec:	c85a                	sw	s6,16(sp)
     eee:	c65e                	sw	s7,12(sp)
     ef0:	c462                	sw	s8,8(sp)
     ef2:	c06a                	sw	s10,0(sp)
     ef4:	d606                	sw	ra,44(sp)
     ef6:	d422                	sw	s0,40(sp)
     ef8:	d226                	sw	s1,36(sp)
     efa:	d04a                	sw	s2,32(sp)
     efc:	ce4e                	sw	s3,28(sp)
     efe:	ca56                	sw	s5,20(sp)
     f00:	c266                	sw	s9,4(sp)
     f02:	8a2a                	mv	s4,a0
     f04:	8bae                	mv	s7,a1
     f06:	8b32                	mv	s6,a2
     f08:	4c05                	li	s8,1
     f0a:	4d05                	li	s10,1
     f0c:	100a0163          	beqz	s4,100e <core_list_mergesort+0x126>
     f10:	4c81                	li	s9,0
     f12:	4481                	li	s1,0
     f14:	4a81                	li	s5,0
     f16:	007c7793          	andi	a5,s8,7
     f1a:	0c85                	addi	s9,s9,1
     f1c:	8452                	mv	s0,s4
     f1e:	4901                	li	s2,0
     f20:	cbb9                	beqz	a5,f76 <core_list_mergesort+0x8e>
     f22:	4705                	li	a4,1
     f24:	04e78463          	beq	a5,a4,f6c <core_list_mergesort+0x84>
     f28:	4089                	li	ra,2
     f2a:	02178e63          	beq	a5,ra,f66 <core_list_mergesort+0x7e>
     f2e:	428d                	li	t0,3
     f30:	02578863          	beq	a5,t0,f60 <core_list_mergesort+0x78>
     f34:	4311                	li	t1,4
     f36:	02678263          	beq	a5,t1,f5a <core_list_mergesort+0x72>
     f3a:	4395                	li	t2,5
     f3c:	00778c63          	beq	a5,t2,f54 <core_list_mergesort+0x6c>
     f40:	4519                	li	a0,6
     f42:	00a78663          	beq	a5,a0,f4e <core_list_mergesort+0x66>
     f46:	000a2403          	lw	s0,0(s4)
     f4a:	4905                	li	s2,1
     f4c:	c425                	beqz	s0,fb4 <core_list_mergesort+0xcc>
     f4e:	4000                	lw	s0,0(s0)
     f50:	0905                	addi	s2,s2,1
     f52:	c02d                	beqz	s0,fb4 <core_list_mergesort+0xcc>
     f54:	4000                	lw	s0,0(s0)
     f56:	0905                	addi	s2,s2,1
     f58:	cc31                	beqz	s0,fb4 <core_list_mergesort+0xcc>
     f5a:	4000                	lw	s0,0(s0)
     f5c:	0905                	addi	s2,s2,1
     f5e:	c839                	beqz	s0,fb4 <core_list_mergesort+0xcc>
     f60:	4000                	lw	s0,0(s0)
     f62:	0905                	addi	s2,s2,1
     f64:	c821                	beqz	s0,fb4 <core_list_mergesort+0xcc>
     f66:	4000                	lw	s0,0(s0)
     f68:	0905                	addi	s2,s2,1
     f6a:	c429                	beqz	s0,fb4 <core_list_mergesort+0xcc>
     f6c:	4000                	lw	s0,0(s0)
     f6e:	0905                	addi	s2,s2,1
     f70:	c031                	beqz	s0,fb4 <core_list_mergesort+0xcc>
     f72:	052c0163          	beq	s8,s2,fb4 <core_list_mergesort+0xcc>
     f76:	4000                	lw	s0,0(s0)
     f78:	0905                	addi	s2,s2,1
     f7a:	85ca                	mv	a1,s2
     f7c:	cc05                	beqz	s0,fb4 <core_list_mergesort+0xcc>
     f7e:	4000                	lw	s0,0(s0)
     f80:	0905                	addi	s2,s2,1
     f82:	c80d                	beqz	s0,fb4 <core_list_mergesort+0xcc>
     f84:	4000                	lw	s0,0(s0)
     f86:	00258913          	addi	s2,a1,2
     f8a:	c40d                	beqz	s0,fb4 <core_list_mergesort+0xcc>
     f8c:	4000                	lw	s0,0(s0)
     f8e:	00358913          	addi	s2,a1,3
     f92:	c00d                	beqz	s0,fb4 <core_list_mergesort+0xcc>
     f94:	4000                	lw	s0,0(s0)
     f96:	00458913          	addi	s2,a1,4
     f9a:	cc09                	beqz	s0,fb4 <core_list_mergesort+0xcc>
     f9c:	4000                	lw	s0,0(s0)
     f9e:	00558913          	addi	s2,a1,5
     fa2:	c809                	beqz	s0,fb4 <core_list_mergesort+0xcc>
     fa4:	4000                	lw	s0,0(s0)
     fa6:	00658913          	addi	s2,a1,6
     faa:	c409                	beqz	s0,fb4 <core_list_mergesort+0xcc>
     fac:	4000                	lw	s0,0(s0)
     fae:	00758913          	addi	s2,a1,7
     fb2:	f061                	bnez	s0,f72 <core_list_mergesort+0x8a>
     fb4:	89e2                	mv	s3,s8
     fb6:	02090463          	beqz	s2,fde <core_list_mergesort+0xf6>
     fba:	02098c63          	beqz	s3,ff2 <core_list_mergesort+0x10a>
     fbe:	c815                	beqz	s0,ff2 <core_list_mergesort+0x10a>
     fc0:	404c                	lw	a1,4(s0)
     fc2:	004a2503          	lw	a0,4(s4)
     fc6:	865a                	mv	a2,s6
     fc8:	9b82                	jalr	s7
     fca:	02a05463          	blez	a0,ff2 <core_list_mergesort+0x10a>
     fce:	8622                	mv	a2,s0
     fd0:	4000                	lw	s0,0(s0)
     fd2:	19fd                	addi	s3,s3,-1
     fd4:	cc81                	beqz	s1,fec <core_list_mergesort+0x104>
     fd6:	c090                	sw	a2,0(s1)
     fd8:	84b2                	mv	s1,a2
     fda:	fe0910e3          	bnez	s2,fba <core_list_mergesort+0xd2>
     fde:	00098f63          	beqz	s3,ffc <core_list_mergesort+0x114>
     fe2:	cc19                	beqz	s0,1000 <core_list_mergesort+0x118>
     fe4:	8622                	mv	a2,s0
     fe6:	19fd                	addi	s3,s3,-1
     fe8:	4000                	lw	s0,0(s0)
     fea:	f4f5                	bnez	s1,fd6 <core_list_mergesort+0xee>
     fec:	8ab2                	mv	s5,a2
     fee:	84b2                	mv	s1,a2
     ff0:	b7ed                	j	fda <core_list_mergesort+0xf2>
     ff2:	8652                	mv	a2,s4
     ff4:	197d                	addi	s2,s2,-1
     ff6:	000a2a03          	lw	s4,0(s4)
     ffa:	bfe9                	j	fd4 <core_list_mergesort+0xec>
     ffc:	8a22                	mv	s4,s0
     ffe:	fc01                	bnez	s0,f16 <core_list_mergesort+0x2e>
    1000:	0004a023          	sw	zero,0(s1)
    1004:	01ac8863          	beq	s9,s10,1014 <core_list_mergesort+0x12c>
    1008:	0c06                	slli	s8,s8,0x1
    100a:	8a56                	mv	s4,s5
    100c:	b701                	j	f0c <core_list_mergesort+0x24>
    100e:	00002023          	sw	zero,0(zero) # 0 <buf.1775>
    1012:	9002                	ebreak
    1014:	50b2                	lw	ra,44(sp)
    1016:	5422                	lw	s0,40(sp)
    1018:	8556                	mv	a0,s5
    101a:	5492                	lw	s1,36(sp)
    101c:	5902                	lw	s2,32(sp)
    101e:	49f2                	lw	s3,28(sp)
    1020:	4a62                	lw	s4,24(sp)
    1022:	4ad2                	lw	s5,20(sp)
    1024:	4b42                	lw	s6,16(sp)
    1026:	4bb2                	lw	s7,12(sp)
    1028:	4c22                	lw	s8,8(sp)
    102a:	4c92                	lw	s9,4(sp)
    102c:	4d02                	lw	s10,0(sp)
    102e:	6145                	addi	sp,sp,48
    1030:	8082                	ret

00001032 <core_bench_list>:
    1032:	7139                	addi	sp,sp,-64
    1034:	cc62                	sw	s8,24(sp)
    1036:	00451c03          	lh	s8,4(a0)
    103a:	dc22                	sw	s0,56(sp)
    103c:	d256                	sw	s5,36(sp)
    103e:	d05a                	sw	s6,32(sp)
    1040:	de06                	sw	ra,60(sp)
    1042:	da26                	sw	s1,52(sp)
    1044:	d84a                	sw	s2,48(sp)
    1046:	d64e                	sw	s3,44(sp)
    1048:	d452                	sw	s4,40(sp)
    104a:	ce5e                	sw	s7,28(sp)
    104c:	ca66                	sw	s9,20(sp)
    104e:	00b11723          	sh	a1,14(sp)
    1052:	8b2a                	mv	s6,a0
    1054:	8aae                	mv	s5,a1
    1056:	5140                	lw	s0,36(a0)
    1058:	1b805263          	blez	s8,11fc <core_bench_list+0x1ca>
    105c:	8cae                	mv	s9,a1
    105e:	4901                	li	s2,0
    1060:	4b81                	li	s7,0
    1062:	4981                	li	s3,0
    1064:	4481                	li	s1,0
    1066:	00c10a13          	addi	s4,sp,12
    106a:	0ff97793          	andi	a5,s2,255
    106e:	85d2                	mv	a1,s4
    1070:	8522                	mv	a0,s0
    1072:	00f11623          	sh	a5,12(sp)
    1076:	3539                	jal	e84 <core_list_find>
    1078:	c811                	beqz	s0,108c <core_bench_list+0x5a>
    107a:	4701                	li	a4,0
    107c:	a011                	j	1080 <core_bench_list+0x4e>
    107e:	8406                	mv	s0,ra
    1080:	00042083          	lw	ra,0(s0)
    1084:	c018                	sw	a4,0(s0)
    1086:	8722                	mv	a4,s0
    1088:	fe009be3          	bnez	ra,107e <core_bench_list+0x4c>
    108c:	c135                	beqz	a0,10f0 <core_bench_list+0xbe>
    108e:	00452283          	lw	t0,4(a0)
    1092:	0985                	addi	s3,s3,1
    1094:	01099313          	slli	t1,s3,0x10
    1098:	00029383          	lh	t2,0(t0)
    109c:	01035993          	srli	s3,t1,0x10
    10a0:	0013f593          	andi	a1,t2,1
    10a4:	c991                	beqz	a1,10b8 <core_bench_list+0x86>
    10a6:	4093d613          	srai	a2,t2,0x9
    10aa:	00167693          	andi	a3,a2,1
    10ae:	94b6                	add	s1,s1,a3
    10b0:	01049813          	slli	a6,s1,0x10
    10b4:	01085493          	srli	s1,a6,0x10
    10b8:	00052883          	lw	a7,0(a0)
    10bc:	00088b63          	beqz	a7,10d2 <core_bench_list+0xa0>
    10c0:	0008ae03          	lw	t3,0(a7)
    10c4:	01c52023          	sw	t3,0(a0)
    10c8:	4008                	lw	a0,0(s0)
    10ca:	00a8a023          	sw	a0,0(a7)
    10ce:	01142023          	sw	a7,0(s0)
    10d2:	000cc563          	bltz	s9,10dc <core_bench_list+0xaa>
    10d6:	0c85                	addi	s9,s9,1
    10d8:	01911723          	sh	s9,14(sp)
    10dc:	0905                	addi	s2,s2,1
    10de:	01091313          	slli	t1,s2,0x10
    10e2:	41035913          	srai	s2,t1,0x10
    10e6:	032c0963          	beq	s8,s2,1118 <core_bench_list+0xe6>
    10ea:	00e11c83          	lh	s9,14(sp)
    10ee:	bfb5                	j	106a <core_bench_list+0x38>
    10f0:	00042e83          	lw	t4,0(s0)
    10f4:	0b85                	addi	s7,s7,1
    10f6:	010b9f13          	slli	t5,s7,0x10
    10fa:	004eaf83          	lw	t6,4(t4)
    10fe:	010f5b93          	srli	s7,t5,0x10
    1102:	001f8783          	lb	a5,1(t6)
    1106:	0017f093          	andi	ra,a5,1
    110a:	00148733          	add	a4,s1,ra
    110e:	01071293          	slli	t0,a4,0x10
    1112:	0102d493          	srli	s1,t0,0x10
    1116:	bf75                	j	10d2 <core_bench_list+0xa0>
    1118:	00299c13          	slli	s8,s3,0x2
    111c:	417c09b3          	sub	s3,s8,s7
    1120:	013483b3          	add	t2,s1,s3
    1124:	01039593          	slli	a1,t2,0x10
    1128:	0105d493          	srli	s1,a1,0x10
    112c:	01505a63          	blez	s5,1140 <core_bench_list+0x10e>
    1130:	00001ab7          	lui	s5,0x1
    1134:	8522                	mv	a0,s0
    1136:	865a                	mv	a2,s6
    1138:	dd0a8593          	addi	a1,s5,-560 # dd0 <cmp_complex>
    113c:	3375                	jal	ee8 <core_list_mergesort>
    113e:	842a                	mv	s0,a0
    1140:	00042b03          	lw	s6,0(s0)
    1144:	85d2                	mv	a1,s4
    1146:	8522                	mv	a0,s0
    1148:	000b2b83          	lw	s7,0(s6)
    114c:	004b2903          	lw	s2,4(s6)
    1150:	004ba603          	lw	a2,4(s7)
    1154:	000ba683          	lw	a3,0(s7)
    1158:	00cb2223          	sw	a2,4(s6)
    115c:	012ba223          	sw	s2,4(s7)
    1160:	00db2023          	sw	a3,0(s6)
    1164:	000ba023          	sw	zero,0(s7)
    1168:	3b31                	jal	e84 <core_list_find>
    116a:	8caa                	mv	s9,a0
    116c:	c159                	beqz	a0,11f2 <core_bench_list+0x1c0>
    116e:	00442a03          	lw	s4,4(s0)
    1172:	85a6                	mv	a1,s1
    1174:	000a1503          	lh	a0,0(s4)
    1178:	20e030ef          	jal	ra,4386 <crc16>
    117c:	000cac83          	lw	s9,0(s9)
    1180:	84aa                	mv	s1,a0
    1182:	fe0c96e3          	bnez	s9,116e <core_bench_list+0x13c>
    1186:	00042c83          	lw	s9,0(s0)
    118a:	004ba903          	lw	s2,4(s7)
    118e:	004ca803          	lw	a6,4(s9)
    1192:	000ca883          	lw	a7,0(s9)
    1196:	00001e37          	lui	t3,0x1
    119a:	010ba223          	sw	a6,4(s7)
    119e:	012ca223          	sw	s2,4(s9)
    11a2:	011ba023          	sw	a7,0(s7)
    11a6:	017ca023          	sw	s7,0(s9)
    11aa:	4601                	li	a2,0
    11ac:	caee0593          	addi	a1,t3,-850 # cae <cmp_idx>
    11b0:	8522                	mv	a0,s0
    11b2:	3b1d                	jal	ee8 <core_list_mergesort>
    11b4:	00052983          	lw	s3,0(a0)
    11b8:	8c2a                	mv	s8,a0
    11ba:	00098e63          	beqz	s3,11d6 <core_bench_list+0x1a4>
    11be:	004c2503          	lw	a0,4(s8)
    11c2:	85a6                	mv	a1,s1
    11c4:	00051503          	lh	a0,0(a0)
    11c8:	1be030ef          	jal	ra,4386 <crc16>
    11cc:	0009a983          	lw	s3,0(s3)
    11d0:	84aa                	mv	s1,a0
    11d2:	fe0996e3          	bnez	s3,11be <core_bench_list+0x18c>
    11d6:	50f2                	lw	ra,60(sp)
    11d8:	5462                	lw	s0,56(sp)
    11da:	8526                	mv	a0,s1
    11dc:	5942                	lw	s2,48(sp)
    11de:	54d2                	lw	s1,52(sp)
    11e0:	59b2                	lw	s3,44(sp)
    11e2:	5a22                	lw	s4,40(sp)
    11e4:	5a92                	lw	s5,36(sp)
    11e6:	5b02                	lw	s6,32(sp)
    11e8:	4bf2                	lw	s7,28(sp)
    11ea:	4c62                	lw	s8,24(sp)
    11ec:	4cd2                	lw	s9,20(sp)
    11ee:	6121                	addi	sp,sp,64
    11f0:	8082                	ret
    11f2:	00042c83          	lw	s9,0(s0)
    11f6:	f80c8ce3          	beqz	s9,118e <core_bench_list+0x15c>
    11fa:	bf95                	j	116e <core_bench_list+0x13c>
    11fc:	4481                	li	s1,0
    11fe:	00c10a13          	addi	s4,sp,12
    1202:	b72d                	j	112c <core_bench_list+0xfa>

00001204 <core_list_init>:
    1204:	4e51                	li	t3,20
    1206:	03c552b3          	divu	t0,a0,t3
    120a:	852e                	mv	a0,a1
    120c:	0005a023          	sw	zero,0(a1)
    1210:	76e1                	lui	a3,0xffff8
    1212:	08068393          	addi	t2,a3,128 # ffff8080 <__C_STACK_TOP__+0xfffe8080>
    1216:	01058313          	addi	t1,a1,16
    121a:	00858793          	addi	a5,a1,8
    121e:	4581                	li	a1,0
    1220:	ffe28f13          	addi	t5,t0,-2
    1224:	003f1713          	slli	a4,t5,0x3
    1228:	972a                	add	a4,a4,a0
    122a:	c158                	sw	a4,4(a0)
    122c:	002f1893          	slli	a7,t5,0x2
    1230:	00771023          	sh	t2,0(a4)
    1234:	00071123          	sh	zero,2(a4)
    1238:	98ba                	add	a7,a7,a4
    123a:	00470813          	addi	a6,a4,4
    123e:	00e37663          	bleu	a4,t1,124a <core_list_init+0x46>
    1242:	00870e93          	addi	t4,a4,8
    1246:	491ee563          	bltu	t4,a7,16d0 <core_list_init+0x4cc>
    124a:	0e0f0d63          	beqz	t5,1344 <core_list_init+0x140>
    124e:	01061e13          	slli	t3,a2,0x10
    1252:	7361                	lui	t1,0xffff8
    1254:	007f7293          	andi	t0,t5,7
    1258:	010e5e13          	srli	t3,t3,0x10
    125c:	4681                	li	a3,0
    125e:	fff34e93          	not	t4,t1
    1262:	08028163          	beqz	t0,12e4 <core_list_init+0xe0>
    1266:	4385                	li	t2,1
    1268:	06728763          	beq	t0,t2,12d6 <core_list_init+0xd2>
    126c:	4f89                	li	t6,2
    126e:	05f28f63          	beq	t0,t6,12cc <core_list_init+0xc8>
    1272:	430d                	li	t1,3
    1274:	04628763          	beq	t0,t1,12c2 <core_list_init+0xbe>
    1278:	4391                	li	t2,4
    127a:	02728b63          	beq	t0,t2,12b0 <core_list_init+0xac>
    127e:	4f95                	li	t6,5
    1280:	03f28363          	beq	t0,t6,12a6 <core_list_init+0xa2>
    1284:	4319                	li	t1,6
    1286:	00628b63          	beq	t0,t1,129c <core_list_init+0x98>
    128a:	00878693          	addi	a3,a5,8
    128e:	00e6f663          	bleu	a4,a3,129a <core_list_init+0x96>
    1292:	00480293          	addi	t0,a6,4
    1296:	5112ee63          	bltu	t0,a7,17b2 <core_list_init+0x5ae>
    129a:	4685                	li	a3,1
    129c:	00878313          	addi	t1,a5,8
    12a0:	48e36a63          	bltu	t1,a4,1734 <core_list_init+0x530>
    12a4:	0685                	addi	a3,a3,1
    12a6:	00878313          	addi	t1,a5,8
    12aa:	44e36463          	bltu	t1,a4,16f2 <core_list_init+0x4ee>
    12ae:	0685                	addi	a3,a3,1
    12b0:	00878313          	addi	t1,a5,8
    12b4:	00e37663          	bleu	a4,t1,12c0 <core_list_init+0xbc>
    12b8:	00480293          	addi	t0,a6,4
    12bc:	4b12ed63          	bltu	t0,a7,1776 <core_list_init+0x572>
    12c0:	0685                	addi	a3,a3,1
    12c2:	00878313          	addi	t1,a5,8
    12c6:	3ce36463          	bltu	t1,a4,168e <core_list_init+0x48a>
    12ca:	0685                	addi	a3,a3,1
    12cc:	00878313          	addi	t1,a5,8
    12d0:	10e36a63          	bltu	t1,a4,13e4 <core_list_init+0x1e0>
    12d4:	0685                	addi	a3,a3,1
    12d6:	00878313          	addi	t1,a5,8
    12da:	0ce36163          	bltu	t1,a4,139c <core_list_init+0x198>
    12de:	0685                	addi	a3,a3,1
    12e0:	06df0263          	beq	t5,a3,1344 <core_list_init+0x140>
    12e4:	00878313          	addi	t1,a5,8
    12e8:	34e36d63          	bltu	t1,a4,1642 <core_list_init+0x43e>
    12ec:	00878313          	addi	t1,a5,8
    12f0:	0685                	addi	a3,a3,1
    12f2:	30e36163          	bltu	t1,a4,15f4 <core_list_init+0x3f0>
    12f6:	00878f93          	addi	t6,a5,8
    12fa:	00168313          	addi	t1,a3,1
    12fe:	2aefe463          	bltu	t6,a4,15a6 <core_list_init+0x3a2>
    1302:	00878f93          	addi	t6,a5,8
    1306:	00268293          	addi	t0,a3,2
    130a:	24efe763          	bltu	t6,a4,1558 <core_list_init+0x354>
    130e:	00878f93          	addi	t6,a5,8
    1312:	00368293          	addi	t0,a3,3
    1316:	1eefea63          	bltu	t6,a4,150a <core_list_init+0x306>
    131a:	00878f93          	addi	t6,a5,8
    131e:	00468293          	addi	t0,a3,4
    1322:	18efed63          	bltu	t6,a4,14bc <core_list_init+0x2b8>
    1326:	00878f93          	addi	t6,a5,8
    132a:	00568293          	addi	t0,a3,5
    132e:	14efe063          	bltu	t6,a4,146e <core_list_init+0x26a>
    1332:	00878f93          	addi	t6,a5,8
    1336:	00668293          	addi	t0,a3,6
    133a:	0eefe663          	bltu	t6,a4,1426 <core_list_init+0x222>
    133e:	069d                	addi	a3,a3,7
    1340:	fadf12e3          	bne	t5,a3,12e4 <core_list_init+0xe0>
    1344:	4715                	li	a4,5
    1346:	02ef5833          	divu	a6,t5,a4
    134a:	6f11                	lui	t5,0x4
    134c:	20000e13          	li	t3,512
    1350:	4685                	li	a3,1
    1352:	ffff0313          	addi	t1,t5,-1 # 3fff <crcu8+0x11>
    1356:	a819                	j	136c <core_list_init+0x168>
    1358:	00d59123          	sh	a3,2(a1)
    135c:	100e0793          	addi	a5,t3,256
    1360:	01079713          	slli	a4,a5,0x10
    1364:	0685                	addi	a3,a3,1
    1366:	01075e13          	srli	t3,a4,0x10
    136a:	85f6                	mv	a1,t4
    136c:	0005ae83          	lw	t4,0(a1)
    1370:	700e7f93          	andi	t6,t3,1792
    1374:	00c6c8b3          	xor	a7,a3,a2
    1378:	011fe3b3          	or	t2,t6,a7
    137c:	0063f2b3          	and	t0,t2,t1
    1380:	000e8863          	beqz	t4,1390 <core_list_init+0x18c>
    1384:	41cc                	lw	a1,4(a1)
    1386:	fd06e9e3          	bltu	a3,a6,1358 <core_list_init+0x154>
    138a:	00559123          	sh	t0,2(a1)
    138e:	b7f9                	j	135c <core_list_init+0x158>
    1390:	00001e37          	lui	t3,0x1
    1394:	4601                	li	a2,0
    1396:	caee0593          	addi	a1,t3,-850 # cae <cmp_idx>
    139a:	b6b9                	j	ee8 <core_list_mergesort>
    139c:	00480293          	addi	t0,a6,4
    13a0:	f312ffe3          	bleu	a7,t0,12de <core_list_init+0xda>
    13a4:	01069f93          	slli	t6,a3,0x10
    13a8:	010fd393          	srli	t2,t6,0x10
    13ac:	01c3cfb3          	xor	t6,t2,t3
    13b0:	0f8e                	slli	t6,t6,0x3
    13b2:	078fff93          	andi	t6,t6,120
    13b6:	0073f393          	andi	t2,t2,7
    13ba:	c38c                	sw	a1,0(a5)
    13bc:	007fe5b3          	or	a1,t6,t2
    13c0:	c11c                	sw	a5,0(a0)
    13c2:	00859f93          	slli	t6,a1,0x8
    13c6:	0107a223          	sw	a6,4(a5)
    13ca:	00bfe3b3          	or	t2,t6,a1
    13ce:	00781023          	sh	t2,0(a6)
    13d2:	01d81123          	sh	t4,2(a6)
    13d6:	0685                	addi	a3,a3,1
    13d8:	85be                	mv	a1,a5
    13da:	8816                	mv	a6,t0
    13dc:	879a                	mv	a5,t1
    13de:	f0df13e3          	bne	t5,a3,12e4 <core_list_init+0xe0>
    13e2:	b78d                	j	1344 <core_list_init+0x140>
    13e4:	00480293          	addi	t0,a6,4
    13e8:	ef12f6e3          	bleu	a7,t0,12d4 <core_list_init+0xd0>
    13ec:	01069f93          	slli	t6,a3,0x10
    13f0:	010fd393          	srli	t2,t6,0x10
    13f4:	01c3cfb3          	xor	t6,t2,t3
    13f8:	0f8e                	slli	t6,t6,0x3
    13fa:	078fff93          	andi	t6,t6,120
    13fe:	0073f393          	andi	t2,t2,7
    1402:	c38c                	sw	a1,0(a5)
    1404:	007fe5b3          	or	a1,t6,t2
    1408:	c11c                	sw	a5,0(a0)
    140a:	00859f93          	slli	t6,a1,0x8
    140e:	0107a223          	sw	a6,4(a5)
    1412:	00bfe3b3          	or	t2,t6,a1
    1416:	00781023          	sh	t2,0(a6)
    141a:	01d81123          	sh	t4,2(a6)
    141e:	85be                	mv	a1,a5
    1420:	8816                	mv	a6,t0
    1422:	879a                	mv	a5,t1
    1424:	bd45                	j	12d4 <core_list_init+0xd0>
    1426:	00480393          	addi	t2,a6,4
    142a:	f113fae3          	bleu	a7,t2,133e <core_list_init+0x13a>
    142e:	01029313          	slli	t1,t0,0x10
    1432:	01035313          	srli	t1,t1,0x10
    1436:	01c342b3          	xor	t0,t1,t3
    143a:	028e                	slli	t0,t0,0x3
    143c:	00737313          	andi	t1,t1,7
    1440:	0782f293          	andi	t0,t0,120
    1444:	c38c                	sw	a1,0(a5)
    1446:	0062e2b3          	or	t0,t0,t1
    144a:	c11c                	sw	a5,0(a0)
    144c:	00829593          	slli	a1,t0,0x8
    1450:	0107a223          	sw	a6,4(a5)
    1454:	0055e333          	or	t1,a1,t0
    1458:	00681023          	sh	t1,0(a6)
    145c:	01d81123          	sh	t4,2(a6)
    1460:	069d                	addi	a3,a3,7
    1462:	85be                	mv	a1,a5
    1464:	881e                	mv	a6,t2
    1466:	87fe                	mv	a5,t6
    1468:	e6df1ee3          	bne	t5,a3,12e4 <core_list_init+0xe0>
    146c:	bde1                	j	1344 <core_list_init+0x140>
    146e:	00480393          	addi	t2,a6,4
    1472:	ed13f0e3          	bleu	a7,t2,1332 <core_list_init+0x12e>
    1476:	01029313          	slli	t1,t0,0x10
    147a:	01035313          	srli	t1,t1,0x10
    147e:	01c342b3          	xor	t0,t1,t3
    1482:	028e                	slli	t0,t0,0x3
    1484:	00737313          	andi	t1,t1,7
    1488:	0782f293          	andi	t0,t0,120
    148c:	c38c                	sw	a1,0(a5)
    148e:	0062e2b3          	or	t0,t0,t1
    1492:	c11c                	sw	a5,0(a0)
    1494:	00829593          	slli	a1,t0,0x8
    1498:	0107a223          	sw	a6,4(a5)
    149c:	0055e333          	or	t1,a1,t0
    14a0:	85be                	mv	a1,a5
    14a2:	87fe                	mv	a5,t6
    14a4:	00681023          	sh	t1,0(a6)
    14a8:	01d81123          	sh	t4,2(a6)
    14ac:	00878f93          	addi	t6,a5,8
    14b0:	881e                	mv	a6,t2
    14b2:	00668293          	addi	t0,a3,6
    14b6:	e8eff4e3          	bleu	a4,t6,133e <core_list_init+0x13a>
    14ba:	b7b5                	j	1426 <core_list_init+0x222>
    14bc:	00480393          	addi	t2,a6,4
    14c0:	e713f3e3          	bleu	a7,t2,1326 <core_list_init+0x122>
    14c4:	01029313          	slli	t1,t0,0x10
    14c8:	01035313          	srli	t1,t1,0x10
    14cc:	01c342b3          	xor	t0,t1,t3
    14d0:	028e                	slli	t0,t0,0x3
    14d2:	00737313          	andi	t1,t1,7
    14d6:	0782f293          	andi	t0,t0,120
    14da:	c38c                	sw	a1,0(a5)
    14dc:	0062e2b3          	or	t0,t0,t1
    14e0:	c11c                	sw	a5,0(a0)
    14e2:	00829593          	slli	a1,t0,0x8
    14e6:	0107a223          	sw	a6,4(a5)
    14ea:	0055e333          	or	t1,a1,t0
    14ee:	85be                	mv	a1,a5
    14f0:	87fe                	mv	a5,t6
    14f2:	00681023          	sh	t1,0(a6)
    14f6:	01d81123          	sh	t4,2(a6)
    14fa:	00878f93          	addi	t6,a5,8
    14fe:	881e                	mv	a6,t2
    1500:	00568293          	addi	t0,a3,5
    1504:	e2eff7e3          	bleu	a4,t6,1332 <core_list_init+0x12e>
    1508:	b79d                	j	146e <core_list_init+0x26a>
    150a:	00480393          	addi	t2,a6,4
    150e:	e113f6e3          	bleu	a7,t2,131a <core_list_init+0x116>
    1512:	01029313          	slli	t1,t0,0x10
    1516:	01035313          	srli	t1,t1,0x10
    151a:	01c342b3          	xor	t0,t1,t3
    151e:	028e                	slli	t0,t0,0x3
    1520:	00737313          	andi	t1,t1,7
    1524:	0782f293          	andi	t0,t0,120
    1528:	c38c                	sw	a1,0(a5)
    152a:	0062e2b3          	or	t0,t0,t1
    152e:	c11c                	sw	a5,0(a0)
    1530:	00829593          	slli	a1,t0,0x8
    1534:	0107a223          	sw	a6,4(a5)
    1538:	0055e333          	or	t1,a1,t0
    153c:	85be                	mv	a1,a5
    153e:	87fe                	mv	a5,t6
    1540:	00681023          	sh	t1,0(a6)
    1544:	01d81123          	sh	t4,2(a6)
    1548:	00878f93          	addi	t6,a5,8
    154c:	881e                	mv	a6,t2
    154e:	00468293          	addi	t0,a3,4
    1552:	dceffae3          	bleu	a4,t6,1326 <core_list_init+0x122>
    1556:	b79d                	j	14bc <core_list_init+0x2b8>
    1558:	00480393          	addi	t2,a6,4
    155c:	db13f9e3          	bleu	a7,t2,130e <core_list_init+0x10a>
    1560:	01029313          	slli	t1,t0,0x10
    1564:	01035313          	srli	t1,t1,0x10
    1568:	01c342b3          	xor	t0,t1,t3
    156c:	028e                	slli	t0,t0,0x3
    156e:	00737313          	andi	t1,t1,7
    1572:	0782f293          	andi	t0,t0,120
    1576:	c38c                	sw	a1,0(a5)
    1578:	0062e2b3          	or	t0,t0,t1
    157c:	c11c                	sw	a5,0(a0)
    157e:	00829593          	slli	a1,t0,0x8
    1582:	0107a223          	sw	a6,4(a5)
    1586:	0055e333          	or	t1,a1,t0
    158a:	85be                	mv	a1,a5
    158c:	87fe                	mv	a5,t6
    158e:	00681023          	sh	t1,0(a6)
    1592:	01d81123          	sh	t4,2(a6)
    1596:	00878f93          	addi	t6,a5,8
    159a:	881e                	mv	a6,t2
    159c:	00368293          	addi	t0,a3,3
    15a0:	d6effde3          	bleu	a4,t6,131a <core_list_init+0x116>
    15a4:	b79d                	j	150a <core_list_init+0x306>
    15a6:	00480393          	addi	t2,a6,4
    15aa:	d513fce3          	bleu	a7,t2,1302 <core_list_init+0xfe>
    15ae:	01031293          	slli	t0,t1,0x10
    15b2:	0102d313          	srli	t1,t0,0x10
    15b6:	01c342b3          	xor	t0,t1,t3
    15ba:	028e                	slli	t0,t0,0x3
    15bc:	00737313          	andi	t1,t1,7
    15c0:	0782f293          	andi	t0,t0,120
    15c4:	c38c                	sw	a1,0(a5)
    15c6:	0062e2b3          	or	t0,t0,t1
    15ca:	c11c                	sw	a5,0(a0)
    15cc:	00829593          	slli	a1,t0,0x8
    15d0:	0107a223          	sw	a6,4(a5)
    15d4:	0055e333          	or	t1,a1,t0
    15d8:	85be                	mv	a1,a5
    15da:	87fe                	mv	a5,t6
    15dc:	00681023          	sh	t1,0(a6)
    15e0:	01d81123          	sh	t4,2(a6)
    15e4:	00878f93          	addi	t6,a5,8
    15e8:	881e                	mv	a6,t2
    15ea:	00268293          	addi	t0,a3,2
    15ee:	d2eff0e3          	bleu	a4,t6,130e <core_list_init+0x10a>
    15f2:	b79d                	j	1558 <core_list_init+0x354>
    15f4:	00480293          	addi	t0,a6,4
    15f8:	cf12ffe3          	bleu	a7,t0,12f6 <core_list_init+0xf2>
    15fc:	01069f93          	slli	t6,a3,0x10
    1600:	010fd393          	srli	t2,t6,0x10
    1604:	01c3cfb3          	xor	t6,t2,t3
    1608:	0f8e                	slli	t6,t6,0x3
    160a:	078fff93          	andi	t6,t6,120
    160e:	0073f393          	andi	t2,t2,7
    1612:	c38c                	sw	a1,0(a5)
    1614:	007fe5b3          	or	a1,t6,t2
    1618:	c11c                	sw	a5,0(a0)
    161a:	00859f93          	slli	t6,a1,0x8
    161e:	0107a223          	sw	a6,4(a5)
    1622:	00bfe3b3          	or	t2,t6,a1
    1626:	85be                	mv	a1,a5
    1628:	879a                	mv	a5,t1
    162a:	00781023          	sh	t2,0(a6)
    162e:	01d81123          	sh	t4,2(a6)
    1632:	00878f93          	addi	t6,a5,8
    1636:	8816                	mv	a6,t0
    1638:	00168313          	addi	t1,a3,1
    163c:	cceff3e3          	bleu	a4,t6,1302 <core_list_init+0xfe>
    1640:	b79d                	j	15a6 <core_list_init+0x3a2>
    1642:	00480293          	addi	t0,a6,4
    1646:	cb12f3e3          	bleu	a7,t0,12ec <core_list_init+0xe8>
    164a:	01069f93          	slli	t6,a3,0x10
    164e:	010fd393          	srli	t2,t6,0x10
    1652:	01c3cfb3          	xor	t6,t2,t3
    1656:	0f8e                	slli	t6,t6,0x3
    1658:	078fff93          	andi	t6,t6,120
    165c:	0073f393          	andi	t2,t2,7
    1660:	c38c                	sw	a1,0(a5)
    1662:	007fe5b3          	or	a1,t6,t2
    1666:	c11c                	sw	a5,0(a0)
    1668:	00859f93          	slli	t6,a1,0x8
    166c:	0107a223          	sw	a6,4(a5)
    1670:	00bfe3b3          	or	t2,t6,a1
    1674:	85be                	mv	a1,a5
    1676:	879a                	mv	a5,t1
    1678:	00781023          	sh	t2,0(a6)
    167c:	01d81123          	sh	t4,2(a6)
    1680:	00878313          	addi	t1,a5,8
    1684:	8816                	mv	a6,t0
    1686:	0685                	addi	a3,a3,1
    1688:	c6e377e3          	bleu	a4,t1,12f6 <core_list_init+0xf2>
    168c:	b7a5                	j	15f4 <core_list_init+0x3f0>
    168e:	00480293          	addi	t0,a6,4
    1692:	c312fce3          	bleu	a7,t0,12ca <core_list_init+0xc6>
    1696:	01069f93          	slli	t6,a3,0x10
    169a:	010fd393          	srli	t2,t6,0x10
    169e:	01c3cfb3          	xor	t6,t2,t3
    16a2:	0f8e                	slli	t6,t6,0x3
    16a4:	078fff93          	andi	t6,t6,120
    16a8:	0073f393          	andi	t2,t2,7
    16ac:	c38c                	sw	a1,0(a5)
    16ae:	007fe5b3          	or	a1,t6,t2
    16b2:	c11c                	sw	a5,0(a0)
    16b4:	00859f93          	slli	t6,a1,0x8
    16b8:	0107a223          	sw	a6,4(a5)
    16bc:	00bfe3b3          	or	t2,t6,a1
    16c0:	00781023          	sh	t2,0(a6)
    16c4:	01d81123          	sh	t4,2(a6)
    16c8:	85be                	mv	a1,a5
    16ca:	8816                	mv	a6,t0
    16cc:	879a                	mv	a5,t1
    16ce:	bef5                	j	12ca <core_list_init+0xc6>
    16d0:	01052623          	sw	a6,12(a0)
    16d4:	6821                	lui	a6,0x8
    16d6:	c11c                	sw	a5,0(a0)
    16d8:	00052423          	sw	zero,8(a0)
    16dc:	fff80f93          	addi	t6,a6,-1 # 7fff <__BSS_END__+0x19bf>
    16e0:	85be                	mv	a1,a5
    16e2:	57fd                	li	a5,-1
    16e4:	00f71223          	sh	a5,4(a4)
    16e8:	01f71323          	sh	t6,6(a4)
    16ec:	8876                	mv	a6,t4
    16ee:	879a                	mv	a5,t1
    16f0:	bea9                	j	124a <core_list_init+0x46>
    16f2:	00480293          	addi	t0,a6,4
    16f6:	bb12fce3          	bleu	a7,t0,12ae <core_list_init+0xaa>
    16fa:	01069f93          	slli	t6,a3,0x10
    16fe:	010fd393          	srli	t2,t6,0x10
    1702:	01c3cfb3          	xor	t6,t2,t3
    1706:	0f8e                	slli	t6,t6,0x3
    1708:	078fff93          	andi	t6,t6,120
    170c:	0073f393          	andi	t2,t2,7
    1710:	c38c                	sw	a1,0(a5)
    1712:	007fe5b3          	or	a1,t6,t2
    1716:	c11c                	sw	a5,0(a0)
    1718:	00859f93          	slli	t6,a1,0x8
    171c:	0107a223          	sw	a6,4(a5)
    1720:	00bfe3b3          	or	t2,t6,a1
    1724:	00781023          	sh	t2,0(a6)
    1728:	01d81123          	sh	t4,2(a6)
    172c:	85be                	mv	a1,a5
    172e:	8816                	mv	a6,t0
    1730:	879a                	mv	a5,t1
    1732:	beb5                	j	12ae <core_list_init+0xaa>
    1734:	00480293          	addi	t0,a6,4
    1738:	b712f6e3          	bleu	a7,t0,12a4 <core_list_init+0xa0>
    173c:	01069f93          	slli	t6,a3,0x10
    1740:	010fd393          	srli	t2,t6,0x10
    1744:	01c3cfb3          	xor	t6,t2,t3
    1748:	0f8e                	slli	t6,t6,0x3
    174a:	078fff93          	andi	t6,t6,120
    174e:	0073f393          	andi	t2,t2,7
    1752:	c38c                	sw	a1,0(a5)
    1754:	007fe5b3          	or	a1,t6,t2
    1758:	c11c                	sw	a5,0(a0)
    175a:	00859f93          	slli	t6,a1,0x8
    175e:	0107a223          	sw	a6,4(a5)
    1762:	00bfe3b3          	or	t2,t6,a1
    1766:	00781023          	sh	t2,0(a6)
    176a:	01d81123          	sh	t4,2(a6)
    176e:	85be                	mv	a1,a5
    1770:	8816                	mv	a6,t0
    1772:	879a                	mv	a5,t1
    1774:	be05                	j	12a4 <core_list_init+0xa0>
    1776:	01069f93          	slli	t6,a3,0x10
    177a:	010fd393          	srli	t2,t6,0x10
    177e:	01c3cfb3          	xor	t6,t2,t3
    1782:	0f8e                	slli	t6,t6,0x3
    1784:	078fff93          	andi	t6,t6,120
    1788:	0073f393          	andi	t2,t2,7
    178c:	c38c                	sw	a1,0(a5)
    178e:	007fe5b3          	or	a1,t6,t2
    1792:	c11c                	sw	a5,0(a0)
    1794:	00859f93          	slli	t6,a1,0x8
    1798:	0107a223          	sw	a6,4(a5)
    179c:	00bfe3b3          	or	t2,t6,a1
    17a0:	00781023          	sh	t2,0(a6)
    17a4:	01d81123          	sh	t4,2(a6)
    17a8:	85be                	mv	a1,a5
    17aa:	8816                	mv	a6,t0
    17ac:	879a                	mv	a5,t1
    17ae:	0685                	addi	a3,a3,1
    17b0:	be09                	j	12c2 <core_list_init+0xbe>
    17b2:	003e1393          	slli	t2,t3,0x3
    17b6:	c38c                	sw	a1,0(a5)
    17b8:	0783ff93          	andi	t6,t2,120
    17bc:	c11c                	sw	a5,0(a0)
    17be:	008f9313          	slli	t1,t6,0x8
    17c2:	0107a223          	sw	a6,4(a5)
    17c6:	01f363b3          	or	t2,t1,t6
    17ca:	00781023          	sh	t2,0(a6)
    17ce:	01d81123          	sh	t4,2(a6)
    17d2:	85be                	mv	a1,a5
    17d4:	8816                	mv	a6,t0
    17d6:	87b6                	mv	a5,a3
    17d8:	4685                	li	a3,1
    17da:	b4c9                	j	129c <core_list_init+0x98>

000017dc <core_init_matrix>:
    17dc:	7179                	addi	sp,sp,-48
    17de:	d04e                	sw	s3,32(sp)
    17e0:	d622                	sw	s0,44(sp)
    17e2:	d426                	sw	s1,40(sp)
    17e4:	d24a                	sw	s2,36(sp)
    17e6:	ce52                	sw	s4,28(sp)
    17e8:	cc56                	sw	s5,24(sp)
    17ea:	ca5a                	sw	s6,20(sp)
    17ec:	c85e                	sw	s7,16(sp)
    17ee:	c662                	sw	s8,12(sp)
    17f0:	c466                	sw	s9,8(sp)
    17f2:	89aa                	mv	s3,a0
    17f4:	e211                	bnez	a2,17f8 <core_init_matrix+0x1c>
    17f6:	4605                	li	a2,1
    17f8:	fff58293          	addi	t0,a1,-1
    17fc:	ffc2f313          	andi	t1,t0,-4
    1800:	00430913          	addi	s2,t1,4 # ffff8004 <__C_STACK_TOP__+0xfffe8004>
    1804:	2c098763          	beqz	s3,1ad2 <core_init_matrix+0x2f6>
    1808:	4501                	li	a0,0
    180a:	a011                	j	180e <core_init_matrix+0x32>
    180c:	853a                	mv	a0,a4
    180e:	00150713          	addi	a4,a0,1
    1812:	02e707b3          	mul	a5,a4,a4
    1816:	00379413          	slli	s0,a5,0x3
    181a:	ff3469e3          	bltu	s0,s3,180c <core_init_matrix+0x30>
    181e:	02a504b3          	mul	s1,a0,a0
    1822:	89aa                	mv	s3,a0
    1824:	00149393          	slli	t2,s1,0x1
    1828:	007902b3          	add	t0,s2,t2
    182c:	26050763          	beqz	a0,1a9a <core_init_matrix+0x2be>
    1830:	6ec1                	lui	t4,0x10
    1832:	4f81                	li	t6,0
    1834:	4885                	li	a7,1
    1836:	40590f33          	sub	t5,s2,t0
    183a:	00151493          	slli	s1,a0,0x1
    183e:	1efd                	addi	t4,t4,-1
    1840:	03160633          	mul	a2,a2,a7
    1844:	01089593          	slli	a1,a7,0x10
    1848:	0105da13          	srli	s4,a1,0x10
    184c:	fff8c813          	not	a6,a7
    1850:	01180ab3          	add	s5,a6,a7
    1854:	00aa8b33          	add	s6,s5,a0
    1858:	00188593          	addi	a1,a7,1
    185c:	003b7b93          	andi	s7,s6,3
    1860:	41158e33          	sub	t3,a1,a7
    1864:	03f48c33          	mul	s8,s1,t6
    1868:	41f65c93          	srai	s9,a2,0x1f
    186c:	010cd313          	srli	t1,s9,0x10
    1870:	00660733          	add	a4,a2,t1
    1874:	01d777b3          	and	a5,a4,t4
    1878:	40678633          	sub	a2,a5,t1
    187c:	00ca0433          	add	s0,s4,a2
    1880:	01041813          	slli	a6,s0,0x10
    1884:	01085a93          	srli	s5,a6,0x10
    1888:	9a56                	add	s4,s4,s5
    188a:	9c16                	add	s8,s8,t0
    188c:	0ffa7b13          	andi	s6,s4,255
    1890:	015c1023          	sh	s5,0(s8)
    1894:	018f0cb3          	add	s9,t5,s8
    1898:	016c9023          	sh	s6,0(s9)
    189c:	002c0813          	addi	a6,s8,2
    18a0:	1eae7863          	bleu	a0,t3,1a90 <core_init_matrix+0x2b4>
    18a4:	0e0b8363          	beqz	s7,198a <core_init_matrix+0x1ae>
    18a8:	4e05                	li	t3,1
    18aa:	09cb8a63          	beq	s7,t3,193e <core_init_matrix+0x162>
    18ae:	4309                	li	t1,2
    18b0:	046b8563          	beq	s7,t1,18fa <core_init_matrix+0x11e>
    18b4:	02b60633          	mul	a2,a2,a1
    18b8:	05c2                	slli	a1,a1,0x10
    18ba:	0105db93          	srli	s7,a1,0x10
    18be:	010f0433          	add	s0,t5,a6
    18c2:	004c0813          	addi	a6,s8,4
    18c6:	00288593          	addi	a1,a7,2
    18ca:	41f65713          	srai	a4,a2,0x1f
    18ce:	01075793          	srli	a5,a4,0x10
    18d2:	00f60ab3          	add	s5,a2,a5
    18d6:	01dafa33          	and	s4,s5,t4
    18da:	40fa0633          	sub	a2,s4,a5
    18de:	00cb8b33          	add	s6,s7,a2
    18e2:	010b1c93          	slli	s9,s6,0x10
    18e6:	010cde13          	srli	t3,s9,0x10
    18ea:	01cb8333          	add	t1,s7,t3
    18ee:	01cc1123          	sh	t3,2(s8)
    18f2:	0ff37c13          	andi	s8,t1,255
    18f6:	01841023          	sh	s8,0(s0)
    18fa:	02b60633          	mul	a2,a2,a1
    18fe:	01059b93          	slli	s7,a1,0x10
    1902:	010bd413          	srli	s0,s7,0x10
    1906:	010f0ab3          	add	s5,t5,a6
    190a:	0585                	addi	a1,a1,1
    190c:	0809                	addi	a6,a6,2
    190e:	41f65713          	srai	a4,a2,0x1f
    1912:	01075793          	srli	a5,a4,0x10
    1916:	00f60a33          	add	s4,a2,a5
    191a:	01da7b33          	and	s6,s4,t4
    191e:	40fb0633          	sub	a2,s6,a5
    1922:	00c40cb3          	add	s9,s0,a2
    1926:	010c9e13          	slli	t3,s9,0x10
    192a:	010e5313          	srli	t1,t3,0x10
    192e:	00640c33          	add	s8,s0,t1
    1932:	fe681f23          	sh	t1,-2(a6)
    1936:	0ffc7b93          	andi	s7,s8,255
    193a:	017a9023          	sh	s7,0(s5)
    193e:	02b60633          	mul	a2,a2,a1
    1942:	01059413          	slli	s0,a1,0x10
    1946:	01045a93          	srli	s5,s0,0x10
    194a:	010f0a33          	add	s4,t5,a6
    194e:	0809                	addi	a6,a6,2
    1950:	0585                	addi	a1,a1,1
    1952:	41158b33          	sub	s6,a1,a7
    1956:	41f65713          	srai	a4,a2,0x1f
    195a:	01075793          	srli	a5,a4,0x10
    195e:	00f60cb3          	add	s9,a2,a5
    1962:	01dcfe33          	and	t3,s9,t4
    1966:	40fe0633          	sub	a2,t3,a5
    196a:	00ca8333          	add	t1,s5,a2
    196e:	01031c13          	slli	s8,t1,0x10
    1972:	010c5b93          	srli	s7,s8,0x10
    1976:	017a8433          	add	s0,s5,s7
    197a:	ff781f23          	sh	s7,-2(a6)
    197e:	0ff47a93          	andi	s5,s0,255
    1982:	015a1023          	sh	s5,0(s4)
    1986:	10ab7563          	bleu	a0,s6,1a90 <core_init_matrix+0x2b4>
    198a:	02b60633          	mul	a2,a2,a1
    198e:	00158c93          	addi	s9,a1,1
    1992:	010c9b13          	slli	s6,s9,0x10
    1996:	01059a13          	slli	s4,a1,0x10
    199a:	010a5a13          	srli	s4,s4,0x10
    199e:	010f07b3          	add	a5,t5,a6
    19a2:	8bbe                	mv	s7,a5
    19a4:	00258713          	addi	a4,a1,2
    19a8:	01071e13          	slli	t3,a4,0x10
    19ac:	010b5b13          	srli	s6,s6,0x10
    19b0:	41f65c13          	srai	s8,a2,0x1f
    19b4:	010c5c13          	srli	s8,s8,0x10
    19b8:	01860433          	add	s0,a2,s8
    19bc:	01d47633          	and	a2,s0,t4
    19c0:	41860c33          	sub	s8,a2,s8
    19c4:	039c0cb3          	mul	s9,s8,s9
    19c8:	018a0433          	add	s0,s4,s8
    19cc:	01041613          	slli	a2,s0,0x10
    19d0:	01065c13          	srli	s8,a2,0x10
    19d4:	9a62                	add	s4,s4,s8
    19d6:	01881023          	sh	s8,0(a6)
    19da:	0ffa7413          	andi	s0,s4,255
    19de:	00879023          	sh	s0,0(a5)
    19e2:	8a3e                	mv	s4,a5
    19e4:	843e                	mv	s0,a5
    19e6:	41fcd793          	srai	a5,s9,0x1f
    19ea:	0107d613          	srli	a2,a5,0x10
    19ee:	9cb2                	add	s9,s9,a2
    19f0:	01dcfc33          	and	s8,s9,t4
    19f4:	40cc07b3          	sub	a5,s8,a2
    19f8:	02e78733          	mul	a4,a5,a4
    19fc:	00fb0633          	add	a2,s6,a5
    1a00:	01061c93          	slli	s9,a2,0x10
    1a04:	010cdc13          	srli	s8,s9,0x10
    1a08:	01881123          	sh	s8,2(a6)
    1a0c:	9b62                	add	s6,s6,s8
    1a0e:	00358a93          	addi	s5,a1,3
    1a12:	0ffb7793          	andi	a5,s6,255
    1a16:	010a9313          	slli	t1,s5,0x10
    1a1a:	010e5e13          	srli	t3,t3,0x10
    1a1e:	41f75613          	srai	a2,a4,0x1f
    1a22:	01065c93          	srli	s9,a2,0x10
    1a26:	9766                	add	a4,a4,s9
    1a28:	01d77c33          	and	s8,a4,t4
    1a2c:	419c0b33          	sub	s6,s8,s9
    1a30:	035b0ab3          	mul	s5,s6,s5
    1a34:	00fb9123          	sh	a5,2(s7)
    1a38:	016e07b3          	add	a5,t3,s6
    1a3c:	01079613          	slli	a2,a5,0x10
    1a40:	01065c93          	srli	s9,a2,0x10
    1a44:	9e66                	add	t3,t3,s9
    1a46:	0821                	addi	a6,a6,8
    1a48:	ff981e23          	sh	s9,-4(a6)
    1a4c:	0ffe7713          	andi	a4,t3,255
    1a50:	00ea1223          	sh	a4,4(s4)
    1a54:	41fada13          	srai	s4,s5,0x1f
    1a58:	010a5c13          	srli	s8,s4,0x10
    1a5c:	018a8b33          	add	s6,s5,s8
    1a60:	01db7ab3          	and	s5,s6,t4
    1a64:	01035313          	srli	t1,t1,0x10
    1a68:	418a8633          	sub	a2,s5,s8
    1a6c:	00c307b3          	add	a5,t1,a2
    1a70:	01079c93          	slli	s9,a5,0x10
    1a74:	010cde13          	srli	t3,s9,0x10
    1a78:	9372                	add	t1,t1,t3
    1a7a:	0591                	addi	a1,a1,4
    1a7c:	ffc81f23          	sh	t3,-2(a6)
    1a80:	0ff37713          	andi	a4,t1,255
    1a84:	41158bb3          	sub	s7,a1,a7
    1a88:	00e41323          	sh	a4,6(s0)
    1a8c:	eeabefe3          	bltu	s7,a0,198a <core_init_matrix+0x1ae>
    1a90:	0f85                	addi	t6,t6,1
    1a92:	00aff463          	bleu	a0,t6,1a9a <core_init_matrix+0x2be>
    1a96:	88ae                	mv	a7,a1
    1a98:	b365                	j	1840 <core_init_matrix+0x64>
    1a9a:	007288b3          	add	a7,t0,t2
    1a9e:	fff88393          	addi	t2,a7,-1
    1aa2:	5432                	lw	s0,44(sp)
    1aa4:	ffc3f593          	andi	a1,t2,-4
    1aa8:	00458813          	addi	a6,a1,4
    1aac:	0126a223          	sw	s2,4(a3)
    1ab0:	0136a023          	sw	s3,0(a3)
    1ab4:	0056a423          	sw	t0,8(a3)
    1ab8:	0106a623          	sw	a6,12(a3)
    1abc:	54a2                	lw	s1,40(sp)
    1abe:	5912                	lw	s2,36(sp)
    1ac0:	5982                	lw	s3,32(sp)
    1ac2:	4a72                	lw	s4,28(sp)
    1ac4:	4ae2                	lw	s5,24(sp)
    1ac6:	4b52                	lw	s6,20(sp)
    1ac8:	4bc2                	lw	s7,16(sp)
    1aca:	4c32                	lw	s8,12(sp)
    1acc:	4ca2                	lw	s9,8(sp)
    1ace:	6145                	addi	sp,sp,48
    1ad0:	8082                	ret
    1ad2:	00630293          	addi	t0,t1,6
    1ad6:	59fd                	li	s3,-1
    1ad8:	557d                	li	a0,-1
    1ada:	4389                	li	t2,2
    1adc:	bb91                	j	1830 <core_init_matrix+0x54>

00001ade <matrix_test>:
    1ade:	715d                	addi	sp,sp,-80
    1ae0:	c4a2                	sw	s0,72(sp)
    1ae2:	d85a                	sw	s6,48(sp)
    1ae4:	d65e                	sw	s7,44(sp)
    1ae6:	d462                	sw	s8,40(sp)
    1ae8:	747d                	lui	s0,0xfffff
    1aea:	c686                	sw	ra,76(sp)
    1aec:	c2a6                	sw	s1,68(sp)
    1aee:	c0ca                	sw	s2,64(sp)
    1af0:	de4e                	sw	s3,60(sp)
    1af2:	dc52                	sw	s4,56(sp)
    1af4:	da56                	sw	s5,52(sp)
    1af6:	d266                	sw	s9,36(sp)
    1af8:	d06a                	sw	s10,32(sp)
    1afa:	ce6e                	sw	s11,28(sp)
    1afc:	8b2e                	mv	s6,a1
    1afe:	8bb2                	mv	s7,a2
    1b00:	8c36                	mv	s8,a3
    1b02:	8c59                	or	s0,s0,a4
    1b04:	e119                	bnez	a0,1b0a <matrix_test+0x2c>
    1b06:	0660106f          	j	2b6c <matrix_test+0x108e>
    1b0a:	01071093          	slli	ra,a4,0x10
    1b0e:	882a                	mv	a6,a0
    1b10:	0100d913          	srli	s2,ra,0x10
    1b14:	00151a13          	slli	s4,a0,0x1
    1b18:	89b2                	mv	s3,a2
    1b1a:	86b2                	mv	a3,a2
    1b1c:	4481                	li	s1,0
    1b1e:	ffea0793          	addi	a5,s4,-2
    1b22:	0017d293          	srli	t0,a5,0x1
    1b26:	00128313          	addi	t1,t0,1
    1b2a:	00737393          	andi	t2,t1,7
    1b2e:	00da0633          	add	a2,s4,a3
    1b32:	08038763          	beqz	t2,1bc0 <matrix_test+0xe2>
    1b36:	4585                	li	a1,1
    1b38:	06b38b63          	beq	t2,a1,1bae <matrix_test+0xd0>
    1b3c:	4509                	li	a0,2
    1b3e:	06a38163          	beq	t2,a0,1ba0 <matrix_test+0xc2>
    1b42:	488d                	li	a7,3
    1b44:	05138763          	beq	t2,a7,1b92 <matrix_test+0xb4>
    1b48:	4a91                	li	s5,4
    1b4a:	03538d63          	beq	t2,s5,1b84 <matrix_test+0xa6>
    1b4e:	4c95                	li	s9,5
    1b50:	03938363          	beq	t2,s9,1b76 <matrix_test+0x98>
    1b54:	4d19                	li	s10,6
    1b56:	01a38963          	beq	t2,s10,1b68 <matrix_test+0x8a>
    1b5a:	0006dd83          	lhu	s11,0(a3)
    1b5e:	0689                	addi	a3,a3,2
    1b60:	01b90e33          	add	t3,s2,s11
    1b64:	ffc69f23          	sh	t3,-2(a3)
    1b68:	0006de83          	lhu	t4,0(a3)
    1b6c:	0689                	addi	a3,a3,2
    1b6e:	01d90f33          	add	t5,s2,t4
    1b72:	ffe69f23          	sh	t5,-2(a3)
    1b76:	0006df83          	lhu	t6,0(a3)
    1b7a:	0689                	addi	a3,a3,2
    1b7c:	01f900b3          	add	ra,s2,t6
    1b80:	fe169f23          	sh	ra,-2(a3)
    1b84:	0006d783          	lhu	a5,0(a3)
    1b88:	0689                	addi	a3,a3,2
    1b8a:	00f902b3          	add	t0,s2,a5
    1b8e:	fe569f23          	sh	t0,-2(a3)
    1b92:	0006d303          	lhu	t1,0(a3)
    1b96:	0689                	addi	a3,a3,2
    1b98:	006903b3          	add	t2,s2,t1
    1b9c:	fe769f23          	sh	t2,-2(a3)
    1ba0:	0006d583          	lhu	a1,0(a3)
    1ba4:	0689                	addi	a3,a3,2
    1ba6:	00b90533          	add	a0,s2,a1
    1baa:	fea69f23          	sh	a0,-2(a3)
    1bae:	0006d883          	lhu	a7,0(a3)
    1bb2:	0689                	addi	a3,a3,2
    1bb4:	01190ab3          	add	s5,s2,a7
    1bb8:	ff569f23          	sh	s5,-2(a3)
    1bbc:	06d60563          	beq	a2,a3,1c26 <matrix_test+0x148>
    1bc0:	0006dc83          	lhu	s9,0(a3)
    1bc4:	0026dd03          	lhu	s10,2(a3)
    1bc8:	0046dd83          	lhu	s11,4(a3)
    1bcc:	0066df83          	lhu	t6,6(a3)
    1bd0:	0086d083          	lhu	ra,8(a3)
    1bd4:	00a6d283          	lhu	t0,10(a3)
    1bd8:	00c6d383          	lhu	t2,12(a3)
    1bdc:	00e6d783          	lhu	a5,14(a3)
    1be0:	01990f33          	add	t5,s2,s9
    1be4:	01a90eb3          	add	t4,s2,s10
    1be8:	01b90e33          	add	t3,s2,s11
    1bec:	01f90333          	add	t1,s2,t6
    1bf0:	001908b3          	add	a7,s2,ra
    1bf4:	00590533          	add	a0,s2,t0
    1bf8:	007905b3          	add	a1,s2,t2
    1bfc:	00f90ab3          	add	s5,s2,a5
    1c00:	01e69023          	sh	t5,0(a3)
    1c04:	01d69123          	sh	t4,2(a3)
    1c08:	01c69223          	sh	t3,4(a3)
    1c0c:	00669323          	sh	t1,6(a3)
    1c10:	01169423          	sh	a7,8(a3)
    1c14:	00a69523          	sh	a0,10(a3)
    1c18:	00b69623          	sh	a1,12(a3)
    1c1c:	01569723          	sh	s5,14(a3)
    1c20:	06c1                	addi	a3,a3,16
    1c22:	f8d61fe3          	bne	a2,a3,1bc0 <matrix_test+0xe2>
    1c26:	0485                	addi	s1,s1,1
    1c28:	86b2                	mv	a3,a2
    1c2a:	ee981ae3          	bne	a6,s1,1b1e <matrix_test+0x40>
    1c2e:	00249c93          	slli	s9,s1,0x2
    1c32:	8ada                	mv	s5,s6
    1c34:	85da                	mv	a1,s6
    1c36:	86de                	mv	a3,s7
    1c38:	4501                	li	a0,0
    1c3a:	ffea0813          	addi	a6,s4,-2
    1c3e:	00185613          	srli	a2,a6,0x1
    1c42:	00160d13          	addi	s10,a2,1
    1c46:	007d7d93          	andi	s11,s10,7
    1c4a:	862e                	mv	a2,a1
    1c4c:	014680b3          	add	ra,a3,s4
    1c50:	080d8f63          	beqz	s11,1cee <matrix_test+0x210>
    1c54:	4f85                	li	t6,1
    1c56:	09fd8263          	beq	s11,t6,1cda <matrix_test+0x1fc>
    1c5a:	4289                	li	t0,2
    1c5c:	065d8763          	beq	s11,t0,1cca <matrix_test+0x1ec>
    1c60:	438d                	li	t2,3
    1c62:	047d8c63          	beq	s11,t2,1cba <matrix_test+0x1dc>
    1c66:	4791                	li	a5,4
    1c68:	04fd8163          	beq	s11,a5,1caa <matrix_test+0x1cc>
    1c6c:	4f15                	li	t5,5
    1c6e:	03ed8663          	beq	s11,t5,1c9a <matrix_test+0x1bc>
    1c72:	4e99                	li	t4,6
    1c74:	01dd8b63          	beq	s11,t4,1c8a <matrix_test+0x1ac>
    1c78:	00069e03          	lh	t3,0(a3)
    1c7c:	00458613          	addi	a2,a1,4
    1c80:	0689                	addi	a3,a3,2
    1c82:	02ee0333          	mul	t1,t3,a4
    1c86:	0065a023          	sw	t1,0(a1)
    1c8a:	00069883          	lh	a7,0(a3)
    1c8e:	0611                	addi	a2,a2,4
    1c90:	0689                	addi	a3,a3,2
    1c92:	02e88833          	mul	a6,a7,a4
    1c96:	ff062e23          	sw	a6,-4(a2)
    1c9a:	00069d03          	lh	s10,0(a3)
    1c9e:	0611                	addi	a2,a2,4
    1ca0:	0689                	addi	a3,a3,2
    1ca2:	02ed0db3          	mul	s11,s10,a4
    1ca6:	ffb62e23          	sw	s11,-4(a2)
    1caa:	00069f83          	lh	t6,0(a3)
    1cae:	0611                	addi	a2,a2,4
    1cb0:	0689                	addi	a3,a3,2
    1cb2:	02ef82b3          	mul	t0,t6,a4
    1cb6:	fe562e23          	sw	t0,-4(a2)
    1cba:	00069383          	lh	t2,0(a3)
    1cbe:	0611                	addi	a2,a2,4
    1cc0:	0689                	addi	a3,a3,2
    1cc2:	02e387b3          	mul	a5,t2,a4
    1cc6:	fef62e23          	sw	a5,-4(a2)
    1cca:	00069f03          	lh	t5,0(a3)
    1cce:	0611                	addi	a2,a2,4
    1cd0:	0689                	addi	a3,a3,2
    1cd2:	02ef0eb3          	mul	t4,t5,a4
    1cd6:	ffd62e23          	sw	t4,-4(a2)
    1cda:	00069e03          	lh	t3,0(a3)
    1cde:	0611                	addi	a2,a2,4
    1ce0:	0689                	addi	a3,a3,2
    1ce2:	02ee0333          	mul	t1,t3,a4
    1ce6:	fe662e23          	sw	t1,-4(a2)
    1cea:	06168763          	beq	a3,ra,1d58 <matrix_test+0x27a>
    1cee:	00069803          	lh	a6,0(a3)
    1cf2:	00269d03          	lh	s10,2(a3)
    1cf6:	00469d83          	lh	s11,4(a3)
    1cfa:	00669383          	lh	t2,6(a3)
    1cfe:	00869e03          	lh	t3,8(a3)
    1d02:	00a69303          	lh	t1,10(a3)
    1d06:	00c69883          	lh	a7,12(a3)
    1d0a:	00e69783          	lh	a5,14(a3)
    1d0e:	02e802b3          	mul	t0,a6,a4
    1d12:	02060613          	addi	a2,a2,32
    1d16:	06c1                	addi	a3,a3,16
    1d18:	02ed0fb3          	mul	t6,s10,a4
    1d1c:	fe562023          	sw	t0,-32(a2)
    1d20:	02ed8f33          	mul	t5,s11,a4
    1d24:	fff62223          	sw	t6,-28(a2)
    1d28:	02e38eb3          	mul	t4,t2,a4
    1d2c:	ffe62423          	sw	t5,-24(a2)
    1d30:	02ee0833          	mul	a6,t3,a4
    1d34:	ffd62623          	sw	t4,-20(a2)
    1d38:	02e30d33          	mul	s10,t1,a4
    1d3c:	ff062823          	sw	a6,-16(a2)
    1d40:	02e88db3          	mul	s11,a7,a4
    1d44:	ffa62a23          	sw	s10,-12(a2)
    1d48:	02e783b3          	mul	t2,a5,a4
    1d4c:	ffb62c23          	sw	s11,-8(a2)
    1d50:	fe762e23          	sw	t2,-4(a2)
    1d54:	f8169de3          	bne	a3,ra,1cee <matrix_test+0x210>
    1d58:	0505                	addi	a0,a0,1
    1d5a:	95e6                	add	a1,a1,s9
    1d5c:	ec951fe3          	bne	a0,s1,1c3a <matrix_test+0x15c>
    1d60:	40900733          	neg	a4,s1
    1d64:	019b0d33          	add	s10,s6,s9
    1d68:	00271793          	slli	a5,a4,0x2
    1d6c:	86ea                	mv	a3,s10
    1d6e:	4501                	li	a0,0
    1d70:	4e01                	li	t3,0
    1d72:	4801                	li	a6,0
    1d74:	4581                	li	a1,0
    1d76:	00371d93          	slli	s11,a4,0x3
    1d7a:	00d780b3          	add	ra,a5,a3
    1d7e:	40168633          	sub	a2,a3,ra
    1d82:	ffc60313          	addi	t1,a2,-4
    1d86:	00235893          	srli	a7,t1,0x2
    1d8a:	00188293          	addi	t0,a7,1
    1d8e:	0072ff93          	andi	t6,t0,7
    1d92:	8706                	mv	a4,ra
    1d94:	100f8ae3          	beqz	t6,26a8 <matrix_test+0xbca>
    1d98:	4f05                	li	t5,1
    1d9a:	11ef8163          	beq	t6,t5,1e9c <matrix_test+0x3be>
    1d9e:	4e89                	li	t4,2
    1da0:	0ddf8b63          	beq	t6,t4,1e76 <matrix_test+0x398>
    1da4:	438d                	li	t2,3
    1da6:	0a7f8563          	beq	t6,t2,1e50 <matrix_test+0x372>
    1daa:	4611                	li	a2,4
    1dac:	08cf8063          	beq	t6,a2,1e2c <matrix_test+0x34e>
    1db0:	4315                	li	t1,5
    1db2:	046f8a63          	beq	t6,t1,1e06 <matrix_test+0x328>
    1db6:	4899                	li	a7,6
    1db8:	031f8563          	beq	t6,a7,1de2 <matrix_test+0x304>
    1dbc:	0000a283          	lw	t0,0(ra)
    1dc0:	0542                	slli	a0,a0,0x10
    1dc2:	01055713          	srli	a4,a0,0x10
    1dc6:	9816                	add	a6,a6,t0
    1dc8:	590449e3          	blt	s0,a6,2b5a <matrix_test+0x107c>
    1dcc:	005e2e33          	slt	t3,t3,t0
    1dd0:	01c70fb3          	add	t6,a4,t3
    1dd4:	010f9f13          	slli	t5,t6,0x10
    1dd8:	410f5513          	srai	a0,t5,0x10
    1ddc:	00408713          	addi	a4,ra,4
    1de0:	8e16                	mv	t3,t0
    1de2:	00072383          	lw	t2,0(a4)
    1de6:	01051613          	slli	a2,a0,0x10
    1dea:	01065313          	srli	t1,a2,0x10
    1dee:	981e                	add	a6,a6,t2
    1df0:	530441e3          	blt	s0,a6,2b12 <matrix_test+0x1034>
    1df4:	007e28b3          	slt	a7,t3,t2
    1df8:	011302b3          	add	t0,t1,a7
    1dfc:	01029513          	slli	a0,t0,0x10
    1e00:	8541                	srai	a0,a0,0x10
    1e02:	0711                	addi	a4,a4,4
    1e04:	8e1e                	mv	t3,t2
    1e06:	00072f03          	lw	t5,0(a4)
    1e0a:	01051e93          	slli	t4,a0,0x10
    1e0e:	010ed393          	srli	t2,t4,0x10
    1e12:	987a                	add	a6,a6,t5
    1e14:	4d0444e3          	blt	s0,a6,2adc <matrix_test+0xffe>
    1e18:	01ee2633          	slt	a2,t3,t5
    1e1c:	00c38333          	add	t1,t2,a2
    1e20:	01031893          	slli	a7,t1,0x10
    1e24:	4108d513          	srai	a0,a7,0x10
    1e28:	0711                	addi	a4,a4,4
    1e2a:	8e7a                	mv	t3,t5
    1e2c:	00072f83          	lw	t6,0(a4)
    1e30:	0542                	slli	a0,a0,0x10
    1e32:	01055f13          	srli	t5,a0,0x10
    1e36:	987e                	add	a6,a6,t6
    1e38:	470448e3          	blt	s0,a6,2aa8 <matrix_test+0xfca>
    1e3c:	01fe2e33          	slt	t3,t3,t6
    1e40:	01cf0eb3          	add	t4,t5,t3
    1e44:	010e9393          	slli	t2,t4,0x10
    1e48:	4103d513          	srai	a0,t2,0x10
    1e4c:	0711                	addi	a4,a4,4
    1e4e:	8e7e                	mv	t3,t6
    1e50:	00072883          	lw	a7,0(a4)
    1e54:	01051293          	slli	t0,a0,0x10
    1e58:	0102df93          	srli	t6,t0,0x10
    1e5c:	9846                	add	a6,a6,a7
    1e5e:	3f0449e3          	blt	s0,a6,2a50 <matrix_test+0xf72>
    1e62:	011e2533          	slt	a0,t3,a7
    1e66:	00af8f33          	add	t5,t6,a0
    1e6a:	010f1e13          	slli	t3,t5,0x10
    1e6e:	410e5513          	srai	a0,t3,0x10
    1e72:	0711                	addi	a4,a4,4
    1e74:	8e46                	mv	t3,a7
    1e76:	00072383          	lw	t2,0(a4)
    1e7a:	01051613          	slli	a2,a0,0x10
    1e7e:	01065313          	srli	t1,a2,0x10
    1e82:	981e                	add	a6,a6,t2
    1e84:	3b0444e3          	blt	s0,a6,2a2c <matrix_test+0xf4e>
    1e88:	007e28b3          	slt	a7,t3,t2
    1e8c:	011302b3          	add	t0,t1,a7
    1e90:	01029f93          	slli	t6,t0,0x10
    1e94:	410fd513          	srai	a0,t6,0x10
    1e98:	0711                	addi	a4,a4,4
    1e9a:	8e1e                	mv	t3,t2
    1e9c:	00072883          	lw	a7,0(a4)
    1ea0:	01051e93          	slli	t4,a0,0x10
    1ea4:	010ed393          	srli	t2,t4,0x10
    1ea8:	9846                	add	a6,a6,a7
    1eaa:	370448e3          	blt	s0,a6,2a1a <matrix_test+0xf3c>
    1eae:	011e2e33          	slt	t3,t3,a7
    1eb2:	01c38633          	add	a2,t2,t3
    1eb6:	01061313          	slli	t1,a2,0x10
    1eba:	41035513          	srai	a0,t1,0x10
    1ebe:	0711                	addi	a4,a4,4
    1ec0:	8e46                	mv	t3,a7
    1ec2:	7ee69363          	bne	a3,a4,26a8 <matrix_test+0xbca>
    1ec6:	0585                	addi	a1,a1,1
    1ec8:	41b086b3          	sub	a3,ra,s11
    1ecc:	8e46                	mv	t3,a7
    1ece:	ea9596e3          	bne	a1,s1,1d7a <matrix_test+0x29c>
    1ed2:	4581                	li	a1,0
    1ed4:	c63e                	sw	a5,12(sp)
    1ed6:	4b0020ef          	jal	ra,4386 <crc16>
    1eda:	c42a                	sw	a0,8(sp)
    1edc:	86e2                	mv	a3,s8
    1ede:	8526                	mv	a0,s1
    1ee0:	865e                	mv	a2,s7
    1ee2:	85da                	mv	a1,s6
    1ee4:	3f8010ef          	jal	ra,32dc <matrix_mul_vect>
    1ee8:	4f22                	lw	t5,8(sp)
    1eea:	4eb2                	lw	t4,12(sp)
    1eec:	4501                	li	a0,0
    1eee:	4e01                	li	t3,0
    1ef0:	4801                	li	a6,0
    1ef2:	4f81                	li	t6,0
    1ef4:	01ae80b3          	add	ra,t4,s10
    1ef8:	401d08b3          	sub	a7,s10,ra
    1efc:	ffc88393          	addi	t2,a7,-4
    1f00:	0023d613          	srli	a2,t2,0x2
    1f04:	00160313          	addi	t1,a2,1
    1f08:	00737713          	andi	a4,t1,7
    1f0c:	8686                	mv	a3,ra
    1f0e:	1c0700e3          	beqz	a4,28ce <matrix_test+0xdf0>
    1f12:	4785                	li	a5,1
    1f14:	0ef70e63          	beq	a4,a5,2010 <matrix_test+0x532>
    1f18:	4589                	li	a1,2
    1f1a:	0cb70863          	beq	a4,a1,1fea <matrix_test+0x50c>
    1f1e:	428d                	li	t0,3
    1f20:	0a570363          	beq	a4,t0,1fc6 <matrix_test+0x4e8>
    1f24:	4891                	li	a7,4
    1f26:	07170f63          	beq	a4,a7,1fa4 <matrix_test+0x4c6>
    1f2a:	4395                	li	t2,5
    1f2c:	04770a63          	beq	a4,t2,1f80 <matrix_test+0x4a2>
    1f30:	4619                	li	a2,6
    1f32:	02c70563          	beq	a4,a2,1f5c <matrix_test+0x47e>
    1f36:	0000a303          	lw	t1,0(ra)
    1f3a:	0542                	slli	a0,a0,0x10
    1f3c:	01055693          	srli	a3,a0,0x10
    1f40:	981a                	add	a6,a6,t1
    1f42:	410443e3          	blt	s0,a6,2b48 <matrix_test+0x106a>
    1f46:	006e2e33          	slt	t3,t3,t1
    1f4a:	01c68733          	add	a4,a3,t3
    1f4e:	01071793          	slli	a5,a4,0x10
    1f52:	4107d513          	srai	a0,a5,0x10
    1f56:	00408693          	addi	a3,ra,4
    1f5a:	8e1a                	mv	t3,t1
    1f5c:	0006a283          	lw	t0,0(a3)
    1f60:	01051893          	slli	a7,a0,0x10
    1f64:	0108d393          	srli	t2,a7,0x10
    1f68:	9816                	add	a6,a6,t0
    1f6a:	39044be3          	blt	s0,a6,2b00 <matrix_test+0x1022>
    1f6e:	005e2633          	slt	a2,t3,t0
    1f72:	00c38333          	add	t1,t2,a2
    1f76:	01031513          	slli	a0,t1,0x10
    1f7a:	8541                	srai	a0,a0,0x10
    1f7c:	0691                	addi	a3,a3,4
    1f7e:	8e16                	mv	t3,t0
    1f80:	429c                	lw	a5,0(a3)
    1f82:	01051593          	slli	a1,a0,0x10
    1f86:	0105d293          	srli	t0,a1,0x10
    1f8a:	983e                	add	a6,a6,a5
    1f8c:	370441e3          	blt	s0,a6,2aee <matrix_test+0x1010>
    1f90:	00fe28b3          	slt	a7,t3,a5
    1f94:	011283b3          	add	t2,t0,a7
    1f98:	01039613          	slli	a2,t2,0x10
    1f9c:	41065513          	srai	a0,a2,0x10
    1fa0:	0691                	addi	a3,a3,4
    1fa2:	8e3e                	mv	t3,a5
    1fa4:	4298                	lw	a4,0(a3)
    1fa6:	0542                	slli	a0,a0,0x10
    1fa8:	01055793          	srli	a5,a0,0x10
    1fac:	983a                	add	a6,a6,a4
    1fae:	2f0444e3          	blt	s0,a6,2a96 <matrix_test+0xfb8>
    1fb2:	00ee2e33          	slt	t3,t3,a4
    1fb6:	01c785b3          	add	a1,a5,t3
    1fba:	01059293          	slli	t0,a1,0x10
    1fbe:	4102d513          	srai	a0,t0,0x10
    1fc2:	0691                	addi	a3,a3,4
    1fc4:	8e3a                	mv	t3,a4
    1fc6:	4290                	lw	a2,0(a3)
    1fc8:	01051313          	slli	t1,a0,0x10
    1fcc:	01035713          	srli	a4,t1,0x10
    1fd0:	9832                	add	a6,a6,a2
    1fd2:	290448e3          	blt	s0,a6,2a62 <matrix_test+0xf84>
    1fd6:	00ce2533          	slt	a0,t3,a2
    1fda:	00a707b3          	add	a5,a4,a0
    1fde:	01079e13          	slli	t3,a5,0x10
    1fe2:	410e5513          	srai	a0,t3,0x10
    1fe6:	0691                	addi	a3,a3,4
    1fe8:	8e32                	mv	t3,a2
    1fea:	0006a283          	lw	t0,0(a3)
    1fee:	01051893          	slli	a7,a0,0x10
    1ff2:	0108d393          	srli	t2,a7,0x10
    1ff6:	9816                	add	a6,a6,t0
    1ff8:	250443e3          	blt	s0,a6,2a3e <matrix_test+0xf60>
    1ffc:	005e2633          	slt	a2,t3,t0
    2000:	00c38333          	add	t1,t2,a2
    2004:	01031713          	slli	a4,t1,0x10
    2008:	41075513          	srai	a0,a4,0x10
    200c:	0691                	addi	a3,a3,4
    200e:	8e16                	mv	t3,t0
    2010:	0006a883          	lw	a7,0(a3)
    2014:	01051593          	slli	a1,a0,0x10
    2018:	0105d293          	srli	t0,a1,0x10
    201c:	9846                	add	a6,a6,a7
    201e:	1f0445e3          	blt	s0,a6,2a08 <matrix_test+0xf2a>
    2022:	011e2e33          	slt	t3,t3,a7
    2026:	01c283b3          	add	t2,t0,t3
    202a:	01039613          	slli	a2,t2,0x10
    202e:	41065513          	srai	a0,a2,0x10
    2032:	0691                	addi	a3,a3,4
    2034:	8e46                	mv	t3,a7
    2036:	08dd1ce3          	bne	s10,a3,28ce <matrix_test+0xdf0>
    203a:	0f85                	addi	t6,t6,1
    203c:	41b08d33          	sub	s10,ra,s11
    2040:	8e46                	mv	t3,a7
    2042:	ea9f99e3          	bne	t6,s1,1ef4 <matrix_test+0x416>
    2046:	85fa                	mv	a1,t5
    2048:	33e020ef          	jal	ra,4386 <crc16>
    204c:	85da                	mv	a1,s6
    204e:	8d2a                	mv	s10,a0
    2050:	86e2                	mv	a3,s8
    2052:	8526                	mv	a0,s1
    2054:	865e                	mv	a2,s7
    2056:	41c010ef          	jal	ra,3472 <matrix_mul_matrix>
    205a:	8dda                	mv	s11,s6
    205c:	4501                	li	a0,0
    205e:	4f81                	li	t6,0
    2060:	4581                	li	a1,0
    2062:	4f01                	li	t5,0
    2064:	000da883          	lw	a7,0(s11)
    2068:	fff48e93          	addi	t4,s1,-1
    206c:	01051313          	slli	t1,a0,0x10
    2070:	95c6                	add	a1,a1,a7
    2072:	003ef093          	andi	ra,t4,3
    2076:	01035713          	srli	a4,t1,0x10
    207a:	16b45de3          	ble	a1,s0,29f4 <matrix_test+0xf16>
    207e:	00a70593          	addi	a1,a4,10
    2082:	01059393          	slli	t2,a1,0x10
    2086:	4103d513          	srai	a0,t2,0x10
    208a:	4581                	li	a1,0
    208c:	4605                	li	a2,1
    208e:	004d8693          	addi	a3,s11,4
    2092:	8346                	mv	t1,a7
    2094:	18967f63          	bleu	s1,a2,2232 <matrix_test+0x754>
    2098:	10008463          	beqz	ra,21a0 <matrix_test+0x6c2>
    209c:	04c08b63          	beq	ra,a2,20f2 <matrix_test+0x614>
    20a0:	4809                	li	a6,2
    20a2:	03008563          	beq	ra,a6,20cc <matrix_test+0x5ee>
    20a6:	0006a303          	lw	t1,0(a3)
    20aa:	01051e13          	slli	t3,a0,0x10
    20ae:	010e5f93          	srli	t6,t3,0x10
    20b2:	959a                	add	a1,a1,t1
    20b4:	26b448e3          	blt	s0,a1,2b24 <matrix_test+0x1046>
    20b8:	0068a8b3          	slt	a7,a7,t1
    20bc:	011f8eb3          	add	t4,t6,a7
    20c0:	010e9093          	slli	ra,t4,0x10
    20c4:	4100d513          	srai	a0,ra,0x10
    20c8:	0605                	addi	a2,a2,1
    20ca:	0691                	addi	a3,a3,4
    20cc:	0006a283          	lw	t0,0(a3)
    20d0:	0542                	slli	a0,a0,0x10
    20d2:	01055393          	srli	t2,a0,0x10
    20d6:	9596                	add	a1,a1,t0
    20d8:	1eb449e3          	blt	s0,a1,2aca <matrix_test+0xfec>
    20dc:	00532333          	slt	t1,t1,t0
    20e0:	00638833          	add	a6,t2,t1
    20e4:	01081e13          	slli	t3,a6,0x10
    20e8:	410e5513          	srai	a0,t3,0x10
    20ec:	0605                	addi	a2,a2,1
    20ee:	0691                	addi	a3,a3,4
    20f0:	8316                	mv	t1,t0
    20f2:	0006a883          	lw	a7,0(a3)
    20f6:	01051e93          	slli	t4,a0,0x10
    20fa:	010ed093          	srli	ra,t4,0x10
    20fe:	95c6                	add	a1,a1,a7
    2100:	16b44ae3          	blt	s0,a1,2a74 <matrix_test+0xf96>
    2104:	01132733          	slt	a4,t1,a7
    2108:	00e087b3          	add	a5,ra,a4
    210c:	01079293          	slli	t0,a5,0x10
    2110:	4102d513          	srai	a0,t0,0x10
    2114:	0605                	addi	a2,a2,1
    2116:	0691                	addi	a3,a3,4
    2118:	08966463          	bltu	a2,s1,21a0 <matrix_test+0x6c2>
    211c:	aa19                	j	2232 <matrix_test+0x754>
    211e:	0046a283          	lw	t0,4(a3)
    2122:	00af8713          	addi	a4,t6,10
    2126:	01071793          	slli	a5,a4,0x10
    212a:	4107d093          	srai	ra,a5,0x10
    212e:	4581                	li	a1,0
    2130:	01009513          	slli	a0,ra,0x10
    2134:	00558eb3          	add	t4,a1,t0
    2138:	0605                	addi	a2,a2,1
    213a:	0691                	addi	a3,a3,4
    213c:	01055393          	srli	t2,a0,0x10
    2140:	09d45d63          	ble	t4,s0,21da <matrix_test+0x6fc>
    2144:	00a38593          	addi	a1,t2,10
    2148:	0046a083          	lw	ra,4(a3)
    214c:	01059893          	slli	a7,a1,0x10
    2150:	4108d313          	srai	t1,a7,0x10
    2154:	4e81                	li	t4,0
    2156:	01031713          	slli	a4,t1,0x10
    215a:	001e85b3          	add	a1,t4,ra
    215e:	01075793          	srli	a5,a4,0x10
    2162:	08b44e63          	blt	s0,a1,21fe <matrix_test+0x720>
    2166:	0012a2b3          	slt	t0,t0,ra
    216a:	00578533          	add	a0,a5,t0
    216e:	0086a883          	lw	a7,8(a3)
    2172:	01051393          	slli	t2,a0,0x10
    2176:	4103df93          	srai	t6,t2,0x10
    217a:	010f9313          	slli	t1,t6,0x10
    217e:	95c6                	add	a1,a1,a7
    2180:	01035e93          	srli	t4,t1,0x10
    2184:	08b44d63          	blt	s0,a1,221e <matrix_test+0x740>
    2188:	0110a0b3          	slt	ra,ra,a7
    218c:	001e8733          	add	a4,t4,ra
    2190:	01071793          	slli	a5,a4,0x10
    2194:	060d                	addi	a2,a2,3
    2196:	4107d513          	srai	a0,a5,0x10
    219a:	06b1                	addi	a3,a3,12
    219c:	08967b63          	bleu	s1,a2,2232 <matrix_test+0x754>
    21a0:	0006a803          	lw	a6,0(a3)
    21a4:	01051e13          	slli	t3,a0,0x10
    21a8:	010e5f93          	srli	t6,t3,0x10
    21ac:	95c2                	add	a1,a1,a6
    21ae:	f6b448e3          	blt	s0,a1,211e <matrix_test+0x640>
    21b2:	0108a8b3          	slt	a7,a7,a6
    21b6:	0046a283          	lw	t0,4(a3)
    21ba:	011f8333          	add	t1,t6,a7
    21be:	01031e93          	slli	t4,t1,0x10
    21c2:	410ed093          	srai	ra,t4,0x10
    21c6:	01009513          	slli	a0,ra,0x10
    21ca:	00558eb3          	add	t4,a1,t0
    21ce:	0605                	addi	a2,a2,1
    21d0:	0691                	addi	a3,a3,4
    21d2:	01055393          	srli	t2,a0,0x10
    21d6:	f7d447e3          	blt	s0,t4,2144 <matrix_test+0x666>
    21da:	00582833          	slt	a6,a6,t0
    21de:	01038e33          	add	t3,t2,a6
    21e2:	0046a083          	lw	ra,4(a3)
    21e6:	010e1f93          	slli	t6,t3,0x10
    21ea:	410fd313          	srai	t1,t6,0x10
    21ee:	01031713          	slli	a4,t1,0x10
    21f2:	001e85b3          	add	a1,t4,ra
    21f6:	01075793          	srli	a5,a4,0x10
    21fa:	f6b456e3          	ble	a1,s0,2166 <matrix_test+0x688>
    21fe:	00a78813          	addi	a6,a5,10
    2202:	0086a883          	lw	a7,8(a3)
    2206:	01081e13          	slli	t3,a6,0x10
    220a:	410e5f93          	srai	t6,t3,0x10
    220e:	4581                	li	a1,0
    2210:	010f9313          	slli	t1,t6,0x10
    2214:	95c6                	add	a1,a1,a7
    2216:	01035e93          	srli	t4,t1,0x10
    221a:	f6b457e3          	ble	a1,s0,2188 <matrix_test+0x6aa>
    221e:	00ae8293          	addi	t0,t4,10 # 1000a <__C_STACK_TOP__+0xa>
    2222:	01029513          	slli	a0,t0,0x10
    2226:	060d                	addi	a2,a2,3
    2228:	8541                	srai	a0,a0,0x10
    222a:	4581                	li	a1,0
    222c:	06b1                	addi	a3,a3,12
    222e:	f69669e3          	bltu	a2,s1,21a0 <matrix_test+0x6c2>
    2232:	0f05                	addi	t5,t5,1
    2234:	9de6                	add	s11,s11,s9
    2236:	8fc6                	mv	t6,a7
    2238:	e29f66e3          	bltu	t5,s1,2064 <matrix_test+0x586>
    223c:	85ea                	mv	a1,s10
    223e:	148020ef          	jal	ra,4386 <crc16>
    2242:	865e                	mv	a2,s7
    2244:	85da                	mv	a1,s6
    2246:	8d2a                	mv	s10,a0
    2248:	86e2                	mv	a3,s8
    224a:	8526                	mv	a0,s1
    224c:	3fe010ef          	jal	ra,364a <matrix_mul_matrix_bitextract>
    2250:	4501                	li	a0,0
    2252:	4b01                	li	s6,0
    2254:	4881                	li	a7,0
    2256:	4b81                	li	s7,0
    2258:	000aa603          	lw	a2,0(s5)
    225c:	fff48c13          	addi	s8,s1,-1
    2260:	01051f13          	slli	t5,a0,0x10
    2264:	98b2                	add	a7,a7,a2
    2266:	003c7d93          	andi	s11,s8,3
    226a:	010f5393          	srli	t2,t5,0x10
    226e:	77145a63          	ble	a7,s0,29e2 <matrix_test+0xf04>
    2272:	00a38893          	addi	a7,t2,10
    2276:	01089313          	slli	t1,a7,0x10
    227a:	41035513          	srai	a0,t1,0x10
    227e:	4881                	li	a7,0
    2280:	4585                	li	a1,1
    2282:	004a8813          	addi	a6,s5,4
    2286:	8332                	mv	t1,a2
    2288:	1a95f763          	bleu	s1,a1,2436 <matrix_test+0x958>
    228c:	100d8763          	beqz	s11,239a <matrix_test+0x8bc>
    2290:	04bd8b63          	beq	s11,a1,22e6 <matrix_test+0x808>
    2294:	4e89                	li	t4,2
    2296:	03dd8463          	beq	s11,t4,22be <matrix_test+0x7e0>
    229a:	00082303          	lw	t1,0(a6)
    229e:	01051093          	slli	ra,a0,0x10
    22a2:	0100d713          	srli	a4,ra,0x10
    22a6:	989a                	add	a7,a7,t1
    22a8:	091447e3          	blt	s0,a7,2b36 <matrix_test+0x1058>
    22ac:	006627b3          	slt	a5,a2,t1
    22b0:	00f702b3          	add	t0,a4,a5
    22b4:	01029513          	slli	a0,t0,0x10
    22b8:	8541                	srai	a0,a0,0x10
    22ba:	0585                	addi	a1,a1,1
    22bc:	0811                	addi	a6,a6,4
    22be:	00082b03          	lw	s6,0(a6)
    22c2:	01051c13          	slli	s8,a0,0x10
    22c6:	010c5d93          	srli	s11,s8,0x10
    22ca:	98da                	add	a7,a7,s6
    22cc:	7f144763          	blt	s0,a7,2aba <matrix_test+0xfdc>
    22d0:	01632f33          	slt	t5,t1,s6
    22d4:	01ed83b3          	add	t2,s11,t5
    22d8:	01039e13          	slli	t3,t2,0x10
    22dc:	410e5513          	srai	a0,t3,0x10
    22e0:	0585                	addi	a1,a1,1
    22e2:	0811                	addi	a6,a6,4
    22e4:	835a                	mv	t1,s6
    22e6:	00082603          	lw	a2,0(a6)
    22ea:	01051e93          	slli	t4,a0,0x10
    22ee:	010ed093          	srli	ra,t4,0x10
    22f2:	98b2                	add	a7,a7,a2
    22f4:	79144963          	blt	s0,a7,2a86 <matrix_test+0xfa8>
    22f8:	00c32733          	slt	a4,t1,a2
    22fc:	00e087b3          	add	a5,ra,a4
    2300:	01079293          	slli	t0,a5,0x10
    2304:	4102d513          	srai	a0,t0,0x10
    2308:	0585                	addi	a1,a1,1
    230a:	0811                	addi	a6,a6,4
    230c:	0895e763          	bltu	a1,s1,239a <matrix_test+0x8bc>
    2310:	a21d                	j	2436 <matrix_test+0x958>
    2312:	00ad8893          	addi	a7,s11,10
    2316:	00482e83          	lw	t4,4(a6)
    231a:	01089313          	slli	t1,a7,0x10
    231e:	41035f93          	srai	t6,t1,0x10
    2322:	4f01                	li	t5,0
    2324:	00480093          	addi	ra,a6,4
    2328:	01df0db3          	add	s11,t5,t4
    232c:	010f9813          	slli	a6,t6,0x10
    2330:	0585                	addi	a1,a1,1
    2332:	01085713          	srli	a4,a6,0x10
    2336:	0bb45163          	ble	s11,s0,23d8 <matrix_test+0x8fa>
    233a:	00a70693          	addi	a3,a4,10
    233e:	0040af03          	lw	t5,4(ra)
    2342:	01069b13          	slli	s6,a3,0x10
    2346:	410b5c13          	srai	s8,s6,0x10
    234a:	4d81                	li	s11,0
    234c:	010c1613          	slli	a2,s8,0x10
    2350:	01ed8733          	add	a4,s11,t5
    2354:	01065393          	srli	t2,a2,0x10
    2358:	0ae44263          	blt	s0,a4,23fc <matrix_test+0x91e>
    235c:	01eeae33          	slt	t3,t4,t5
    2360:	01c38fb3          	add	t6,t2,t3
    2364:	0080a603          	lw	a2,8(ra)
    2368:	010f9893          	slli	a7,t6,0x10
    236c:	4108d813          	srai	a6,a7,0x10
    2370:	01081793          	slli	a5,a6,0x10
    2374:	00c708b3          	add	a7,a4,a2
    2378:	0107d293          	srli	t0,a5,0x10
    237c:	0b144163          	blt	s0,a7,241e <matrix_test+0x940>
    2380:	00cf2533          	slt	a0,t5,a2
    2384:	00a28b33          	add	s6,t0,a0
    2388:	010b1c13          	slli	s8,s6,0x10
    238c:	058d                	addi	a1,a1,3
    238e:	410c5513          	srai	a0,s8,0x10
    2392:	00c08813          	addi	a6,ra,12
    2396:	0a95f063          	bleu	s1,a1,2436 <matrix_test+0x958>
    239a:	00082b03          	lw	s6,0(a6)
    239e:	01051c13          	slli	s8,a0,0x10
    23a2:	010c5d93          	srli	s11,s8,0x10
    23a6:	01688f33          	add	t5,a7,s6
    23aa:	f7e444e3          	blt	s0,t5,2312 <matrix_test+0x834>
    23ae:	01662633          	slt	a2,a2,s6
    23b2:	00cd83b3          	add	t2,s11,a2
    23b6:	00482e83          	lw	t4,4(a6)
    23ba:	01039e13          	slli	t3,t2,0x10
    23be:	410e5f93          	srai	t6,t3,0x10
    23c2:	00480093          	addi	ra,a6,4
    23c6:	01df0db3          	add	s11,t5,t4
    23ca:	010f9813          	slli	a6,t6,0x10
    23ce:	0585                	addi	a1,a1,1
    23d0:	01085713          	srli	a4,a6,0x10
    23d4:	f7b443e3          	blt	s0,s11,233a <matrix_test+0x85c>
    23d8:	01db27b3          	slt	a5,s6,t4
    23dc:	00f702b3          	add	t0,a4,a5
    23e0:	0040af03          	lw	t5,4(ra)
    23e4:	01029513          	slli	a0,t0,0x10
    23e8:	41055c13          	srai	s8,a0,0x10
    23ec:	010c1613          	slli	a2,s8,0x10
    23f0:	01ed8733          	add	a4,s11,t5
    23f4:	01065393          	srli	t2,a2,0x10
    23f8:	f6e452e3          	ble	a4,s0,235c <matrix_test+0x87e>
    23fc:	00a38313          	addi	t1,t2,10
    2400:	0080a603          	lw	a2,8(ra)
    2404:	01031e93          	slli	t4,t1,0x10
    2408:	410ed813          	srai	a6,t4,0x10
    240c:	4701                	li	a4,0
    240e:	01081793          	slli	a5,a6,0x10
    2412:	00c708b3          	add	a7,a4,a2
    2416:	0107d293          	srli	t0,a5,0x10
    241a:	f71453e3          	ble	a7,s0,2380 <matrix_test+0x8a2>
    241e:	00a28693          	addi	a3,t0,10
    2422:	01069d93          	slli	s11,a3,0x10
    2426:	058d                	addi	a1,a1,3
    2428:	410dd513          	srai	a0,s11,0x10
    242c:	4881                	li	a7,0
    242e:	00c08813          	addi	a6,ra,12
    2432:	f695e4e3          	bltu	a1,s1,239a <matrix_test+0x8bc>
    2436:	0b85                	addi	s7,s7,1
    2438:	9ae6                	add	s5,s5,s9
    243a:	8b32                	mv	s6,a2
    243c:	e09beee3          	bltu	s7,s1,2258 <matrix_test+0x77a>
    2440:	85ea                	mv	a1,s10
    2442:	745010ef          	jal	ra,4386 <crc16>
    2446:	4401                	li	s0,0
    2448:	0009da83          	lhu	s5,0(s3)
    244c:	fff48c93          	addi	s9,s1,-1
    2450:	4685                	li	a3,1
    2452:	412a8d33          	sub	s10,s5,s2
    2456:	01a99023          	sh	s10,0(s3)
    245a:	007cfb93          	andi	s7,s9,7
    245e:	00298713          	addi	a4,s3,2
    2462:	1096f463          	bleu	s1,a3,256a <matrix_test+0xa8c>
    2466:	080b8e63          	beqz	s7,2502 <matrix_test+0xa24>
    246a:	08db8263          	beq	s7,a3,24ee <matrix_test+0xa10>
    246e:	4089                	li	ra,2
    2470:	061b8763          	beq	s7,ra,24de <matrix_test+0xa00>
    2474:	4f0d                	li	t5,3
    2476:	05eb8c63          	beq	s7,t5,24ce <matrix_test+0x9f0>
    247a:	4391                	li	t2,4
    247c:	047b8163          	beq	s7,t2,24be <matrix_test+0x9e0>
    2480:	4e15                	li	t3,5
    2482:	03cb8663          	beq	s7,t3,24ae <matrix_test+0x9d0>
    2486:	4f99                	li	t6,6
    2488:	01fb8b63          	beq	s7,t6,249e <matrix_test+0x9c0>
    248c:	00075303          	lhu	t1,0(a4)
    2490:	4689                	li	a3,2
    2492:	41230eb3          	sub	t4,t1,s2
    2496:	01d71023          	sh	t4,0(a4)
    249a:	00498713          	addi	a4,s3,4
    249e:	00075603          	lhu	a2,0(a4)
    24a2:	0685                	addi	a3,a3,1
    24a4:	0709                	addi	a4,a4,2
    24a6:	412607b3          	sub	a5,a2,s2
    24aa:	fef71f23          	sh	a5,-2(a4)
    24ae:	00075283          	lhu	t0,0(a4)
    24b2:	0685                	addi	a3,a3,1
    24b4:	0709                	addi	a4,a4,2
    24b6:	41228b33          	sub	s6,t0,s2
    24ba:	ff671f23          	sh	s6,-2(a4)
    24be:	00075c03          	lhu	s8,0(a4)
    24c2:	0685                	addi	a3,a3,1
    24c4:	0709                	addi	a4,a4,2
    24c6:	412c0db3          	sub	s11,s8,s2
    24ca:	ffb71f23          	sh	s11,-2(a4)
    24ce:	00075883          	lhu	a7,0(a4)
    24d2:	0685                	addi	a3,a3,1
    24d4:	0709                	addi	a4,a4,2
    24d6:	412885b3          	sub	a1,a7,s2
    24da:	feb71f23          	sh	a1,-2(a4)
    24de:	00075803          	lhu	a6,0(a4)
    24e2:	0685                	addi	a3,a3,1
    24e4:	0709                	addi	a4,a4,2
    24e6:	41280ab3          	sub	s5,a6,s2
    24ea:	ff571f23          	sh	s5,-2(a4)
    24ee:	00075c83          	lhu	s9,0(a4)
    24f2:	0709                	addi	a4,a4,2
    24f4:	0685                	addi	a3,a3,1
    24f6:	412c8d33          	sub	s10,s9,s2
    24fa:	ffa71f23          	sh	s10,-2(a4)
    24fe:	0696f663          	bleu	s1,a3,256a <matrix_test+0xa8c>
    2502:	00075b83          	lhu	s7,0(a4)
    2506:	00275083          	lhu	ra,2(a4)
    250a:	00475383          	lhu	t2,4(a4)
    250e:	00675f83          	lhu	t6,6(a4)
    2512:	00875603          	lhu	a2,8(a4)
    2516:	00a75283          	lhu	t0,10(a4)
    251a:	00c75b03          	lhu	s6,12(a4)
    251e:	00e75783          	lhu	a5,14(a4)
    2522:	412b8f33          	sub	t5,s7,s2
    2526:	41208eb3          	sub	t4,ra,s2
    252a:	41238e33          	sub	t3,t2,s2
    252e:	412f8333          	sub	t1,t6,s2
    2532:	41260c33          	sub	s8,a2,s2
    2536:	41228db3          	sub	s11,t0,s2
    253a:	412b08b3          	sub	a7,s6,s2
    253e:	412785b3          	sub	a1,a5,s2
    2542:	01e71023          	sh	t5,0(a4)
    2546:	01d71123          	sh	t4,2(a4)
    254a:	01c71223          	sh	t3,4(a4)
    254e:	00671323          	sh	t1,6(a4)
    2552:	01871423          	sh	s8,8(a4)
    2556:	01b71523          	sh	s11,10(a4)
    255a:	01171623          	sh	a7,12(a4)
    255e:	00b71723          	sh	a1,14(a4)
    2562:	06a1                	addi	a3,a3,8
    2564:	0741                	addi	a4,a4,16
    2566:	f896eee3          	bltu	a3,s1,2502 <matrix_test+0xa24>
    256a:	0405                	addi	s0,s0,1
    256c:	99d2                	add	s3,s3,s4
    256e:	ec946de3          	bltu	s0,s1,2448 <matrix_test+0x96a>
    2572:	40b6                	lw	ra,76(sp)
    2574:	4426                	lw	s0,72(sp)
    2576:	01051493          	slli	s1,a0,0x10
    257a:	4104d513          	srai	a0,s1,0x10
    257e:	4906                	lw	s2,64(sp)
    2580:	4496                	lw	s1,68(sp)
    2582:	59f2                	lw	s3,60(sp)
    2584:	5a62                	lw	s4,56(sp)
    2586:	5ad2                	lw	s5,52(sp)
    2588:	5b42                	lw	s6,48(sp)
    258a:	5bb2                	lw	s7,44(sp)
    258c:	5c22                	lw	s8,40(sp)
    258e:	5c92                	lw	s9,36(sp)
    2590:	5d02                	lw	s10,32(sp)
    2592:	4df2                	lw	s11,28(sp)
    2594:	6161                	addi	sp,sp,80
    2596:	8082                	ret
    2598:	00a50313          	addi	t1,a0,10
    259c:	00472283          	lw	t0,4(a4)
    25a0:	01031813          	slli	a6,t1,0x10
    25a4:	41085613          	srai	a2,a6,0x10
    25a8:	4f01                	li	t5,0
    25aa:	01061893          	slli	a7,a2,0x10
    25ae:	005f0833          	add	a6,t5,t0
    25b2:	0711                	addi	a4,a4,4
    25b4:	0108d513          	srli	a0,a7,0x10
    25b8:	13045563          	ble	a6,s0,26e2 <matrix_test+0xc04>
    25bc:	00a50393          	addi	t2,a0,10
    25c0:	00472303          	lw	t1,4(a4)
    25c4:	01039e13          	slli	t3,t2,0x10
    25c8:	410e5613          	srai	a2,t3,0x10
    25cc:	4801                	li	a6,0
    25ce:	01061893          	slli	a7,a2,0x10
    25d2:	00680633          	add	a2,a6,t1
    25d6:	0108d513          	srli	a0,a7,0x10
    25da:	12c44663          	blt	s0,a2,2706 <matrix_test+0xc28>
    25de:	0062a2b3          	slt	t0,t0,t1
    25e2:	00550fb3          	add	t6,a0,t0
    25e6:	00872883          	lw	a7,8(a4)
    25ea:	010f9f13          	slli	t5,t6,0x10
    25ee:	410f5e13          	srai	t3,t5,0x10
    25f2:	010e1813          	slli	a6,t3,0x10
    25f6:	01160e33          	add	t3,a2,a7
    25fa:	01085513          	srli	a0,a6,0x10
    25fe:	13c44563          	blt	s0,t3,2728 <matrix_test+0xc4a>
    2602:	01132333          	slt	t1,t1,a7
    2606:	006502b3          	add	t0,a0,t1
    260a:	4750                	lw	a2,12(a4)
    260c:	01029f93          	slli	t6,t0,0x10
    2610:	410fd393          	srai	t2,t6,0x10
    2614:	01039813          	slli	a6,t2,0x10
    2618:	00ce03b3          	add	t2,t3,a2
    261c:	01085513          	srli	a0,a6,0x10
    2620:	12744463          	blt	s0,t2,2748 <matrix_test+0xc6a>
    2624:	00c8a8b3          	slt	a7,a7,a2
    2628:	01150333          	add	t1,a0,a7
    262c:	01072e03          	lw	t3,16(a4)
    2630:	01031293          	slli	t0,t1,0x10
    2634:	4102de93          	srai	t4,t0,0x10
    2638:	010e9813          	slli	a6,t4,0x10
    263c:	01c38eb3          	add	t4,t2,t3
    2640:	01085513          	srli	a0,a6,0x10
    2644:	13d44363          	blt	s0,t4,276a <matrix_test+0xc8c>
    2648:	01c62633          	slt	a2,a2,t3
    264c:	00c508b3          	add	a7,a0,a2
    2650:	01472383          	lw	t2,20(a4)
    2654:	01089313          	slli	t1,a7,0x10
    2658:	41035f13          	srai	t5,t1,0x10
    265c:	010f1813          	slli	a6,t5,0x10
    2660:	007e8f33          	add	t5,t4,t2
    2664:	01085513          	srli	a0,a6,0x10
    2668:	13e44263          	blt	s0,t5,278c <matrix_test+0xcae>
    266c:	007e2e33          	slt	t3,t3,t2
    2670:	01c50633          	add	a2,a0,t3
    2674:	01061893          	slli	a7,a2,0x10
    2678:	4108df93          	srai	t6,a7,0x10
    267c:	01872883          	lw	a7,24(a4)
    2680:	010f9e93          	slli	t4,t6,0x10
    2684:	010ed513          	srli	a0,t4,0x10
    2688:	011f0833          	add	a6,t5,a7
    268c:	13044163          	blt	s0,a6,27ae <matrix_test+0xcd0>
    2690:	0113a3b3          	slt	t2,t2,a7
    2694:	00750e33          	add	t3,a0,t2
    2698:	010e1613          	slli	a2,t3,0x10
    269c:	41065513          	srai	a0,a2,0x10
    26a0:	0771                	addi	a4,a4,28
    26a2:	8e46                	mv	t3,a7
    26a4:	82e681e3          	beq	a3,a4,1ec6 <matrix_test+0x3e8>
    26a8:	00072f83          	lw	t6,0(a4)
    26ac:	01051893          	slli	a7,a0,0x10
    26b0:	0108d513          	srli	a0,a7,0x10
    26b4:	01f80f33          	add	t5,a6,t6
    26b8:	efe440e3          	blt	s0,t5,2598 <matrix_test+0xaba>
    26bc:	01fe2eb3          	slt	t4,t3,t6
    26c0:	01d503b3          	add	t2,a0,t4
    26c4:	00472283          	lw	t0,4(a4)
    26c8:	01039e13          	slli	t3,t2,0x10
    26cc:	410e5613          	srai	a2,t3,0x10
    26d0:	01061893          	slli	a7,a2,0x10
    26d4:	005f0833          	add	a6,t5,t0
    26d8:	0711                	addi	a4,a4,4
    26da:	0108d513          	srli	a0,a7,0x10
    26de:	ed044fe3          	blt	s0,a6,25bc <matrix_test+0xade>
    26e2:	005fafb3          	slt	t6,t6,t0
    26e6:	01f50f33          	add	t5,a0,t6
    26ea:	00472303          	lw	t1,4(a4)
    26ee:	010f1e93          	slli	t4,t5,0x10
    26f2:	410ed613          	srai	a2,t4,0x10
    26f6:	01061893          	slli	a7,a2,0x10
    26fa:	00680633          	add	a2,a6,t1
    26fe:	0108d513          	srli	a0,a7,0x10
    2702:	ecc45ee3          	ble	a2,s0,25de <matrix_test+0xb00>
    2706:	00a50e93          	addi	t4,a0,10
    270a:	00872883          	lw	a7,8(a4)
    270e:	010e9393          	slli	t2,t4,0x10
    2712:	4103de13          	srai	t3,t2,0x10
    2716:	4601                	li	a2,0
    2718:	010e1813          	slli	a6,t3,0x10
    271c:	01160e33          	add	t3,a2,a7
    2720:	01085513          	srli	a0,a6,0x10
    2724:	edc45fe3          	ble	t3,s0,2602 <matrix_test+0xb24>
    2728:	00a50f13          	addi	t5,a0,10
    272c:	4750                	lw	a2,12(a4)
    272e:	010f1e93          	slli	t4,t5,0x10
    2732:	410ed393          	srai	t2,t4,0x10
    2736:	4e01                	li	t3,0
    2738:	01039813          	slli	a6,t2,0x10
    273c:	00ce03b3          	add	t2,t3,a2
    2740:	01085513          	srli	a0,a6,0x10
    2744:	ee7450e3          	ble	t2,s0,2624 <matrix_test+0xb46>
    2748:	00a50f93          	addi	t6,a0,10
    274c:	01072e03          	lw	t3,16(a4)
    2750:	010f9f13          	slli	t5,t6,0x10
    2754:	410f5e93          	srai	t4,t5,0x10
    2758:	4381                	li	t2,0
    275a:	010e9813          	slli	a6,t4,0x10
    275e:	01c38eb3          	add	t4,t2,t3
    2762:	01085513          	srli	a0,a6,0x10
    2766:	efd451e3          	ble	t4,s0,2648 <matrix_test+0xb6a>
    276a:	00a50293          	addi	t0,a0,10
    276e:	01472383          	lw	t2,20(a4)
    2772:	01029f93          	slli	t6,t0,0x10
    2776:	410fdf13          	srai	t5,t6,0x10
    277a:	4e81                	li	t4,0
    277c:	010f1813          	slli	a6,t5,0x10
    2780:	007e8f33          	add	t5,t4,t2
    2784:	01085513          	srli	a0,a6,0x10
    2788:	efe452e3          	ble	t5,s0,266c <matrix_test+0xb8e>
    278c:	00a50313          	addi	t1,a0,10
    2790:	01872883          	lw	a7,24(a4)
    2794:	01031293          	slli	t0,t1,0x10
    2798:	4102df93          	srai	t6,t0,0x10
    279c:	4f01                	li	t5,0
    279e:	010f9e93          	slli	t4,t6,0x10
    27a2:	011f0833          	add	a6,t5,a7
    27a6:	010ed513          	srli	a0,t4,0x10
    27aa:	ef0453e3          	ble	a6,s0,2690 <matrix_test+0xbb2>
    27ae:	00a50813          	addi	a6,a0,10
    27b2:	01081313          	slli	t1,a6,0x10
    27b6:	41035513          	srai	a0,t1,0x10
    27ba:	4801                	li	a6,0
    27bc:	b5d5                	j	26a0 <matrix_test+0xbc2>
    27be:	00a50613          	addi	a2,a0,10
    27c2:	0046a883          	lw	a7,4(a3)
    27c6:	01061813          	slli	a6,a2,0x10
    27ca:	41085393          	srai	t2,a6,0x10
    27ce:	4781                	li	a5,0
    27d0:	01039313          	slli	t1,t2,0x10
    27d4:	01178633          	add	a2,a5,a7
    27d8:	0691                	addi	a3,a3,4
    27da:	01035513          	srli	a0,t1,0x10
    27de:	12c45463          	ble	a2,s0,2906 <matrix_test+0xe28>
    27e2:	00a50293          	addi	t0,a0,10
    27e6:	0046a303          	lw	t1,4(a3)
    27ea:	01029e13          	slli	t3,t0,0x10
    27ee:	410e5393          	srai	t2,t3,0x10
    27f2:	4601                	li	a2,0
    27f4:	01039813          	slli	a6,t2,0x10
    27f8:	006603b3          	add	t2,a2,t1
    27fc:	01085513          	srli	a0,a6,0x10
    2800:	12744563          	blt	s0,t2,292a <matrix_test+0xe4c>
    2804:	0068a8b3          	slt	a7,a7,t1
    2808:	01150733          	add	a4,a0,a7
    280c:	4690                	lw	a2,8(a3)
    280e:	01071793          	slli	a5,a4,0x10
    2812:	4107de13          	srai	t3,a5,0x10
    2816:	010e1813          	slli	a6,t3,0x10
    281a:	00c38e33          	add	t3,t2,a2
    281e:	01085513          	srli	a0,a6,0x10
    2822:	13c44463          	blt	s0,t3,294a <matrix_test+0xe6c>
    2826:	00c32333          	slt	t1,t1,a2
    282a:	006508b3          	add	a7,a0,t1
    282e:	00c6a383          	lw	t2,12(a3)
    2832:	01089713          	slli	a4,a7,0x10
    2836:	41075293          	srai	t0,a4,0x10
    283a:	01029813          	slli	a6,t0,0x10
    283e:	007e02b3          	add	t0,t3,t2
    2842:	01085513          	srli	a0,a6,0x10
    2846:	12544363          	blt	s0,t0,296c <matrix_test+0xe8e>
    284a:	00762633          	slt	a2,a2,t2
    284e:	00c50333          	add	t1,a0,a2
    2852:	0106ae03          	lw	t3,16(a3)
    2856:	01031893          	slli	a7,t1,0x10
    285a:	4108d593          	srai	a1,a7,0x10
    285e:	01059813          	slli	a6,a1,0x10
    2862:	01c285b3          	add	a1,t0,t3
    2866:	01085513          	srli	a0,a6,0x10
    286a:	12b44263          	blt	s0,a1,298e <matrix_test+0xeb0>
    286e:	01c3a3b3          	slt	t2,t2,t3
    2872:	00750633          	add	a2,a0,t2
    2876:	0146a283          	lw	t0,20(a3)
    287a:	01061313          	slli	t1,a2,0x10
    287e:	41035793          	srai	a5,t1,0x10
    2882:	01079813          	slli	a6,a5,0x10
    2886:	005587b3          	add	a5,a1,t0
    288a:	01085513          	srli	a0,a6,0x10
    288e:	12f44163          	blt	s0,a5,29b0 <matrix_test+0xed2>
    2892:	005e2e33          	slt	t3,t3,t0
    2896:	01c503b3          	add	t2,a0,t3
    289a:	0186a883          	lw	a7,24(a3)
    289e:	01039613          	slli	a2,t2,0x10
    28a2:	41065713          	srai	a4,a2,0x10
    28a6:	01071593          	slli	a1,a4,0x10
    28aa:	01178833          	add	a6,a5,a7
    28ae:	0105d513          	srli	a0,a1,0x10
    28b2:	13044063          	blt	s0,a6,29d2 <matrix_test+0xef4>
    28b6:	0112a2b3          	slt	t0,t0,a7
    28ba:	00550e33          	add	t3,a0,t0
    28be:	010e1393          	slli	t2,t3,0x10
    28c2:	4103d513          	srai	a0,t2,0x10
    28c6:	06f1                	addi	a3,a3,28
    28c8:	8e46                	mv	t3,a7
    28ca:	f6dd0863          	beq	s10,a3,203a <matrix_test+0x55c>
    28ce:	4298                	lw	a4,0(a3)
    28d0:	01051893          	slli	a7,a0,0x10
    28d4:	0108d513          	srli	a0,a7,0x10
    28d8:	00e807b3          	add	a5,a6,a4
    28dc:	eef441e3          	blt	s0,a5,27be <matrix_test+0xce0>
    28e0:	00ee25b3          	slt	a1,t3,a4
    28e4:	00b502b3          	add	t0,a0,a1
    28e8:	0046a883          	lw	a7,4(a3)
    28ec:	01029e13          	slli	t3,t0,0x10
    28f0:	410e5393          	srai	t2,t3,0x10
    28f4:	01039313          	slli	t1,t2,0x10
    28f8:	01178633          	add	a2,a5,a7
    28fc:	0691                	addi	a3,a3,4
    28fe:	01035513          	srli	a0,t1,0x10
    2902:	eec440e3          	blt	s0,a2,27e2 <matrix_test+0xd04>
    2906:	01172733          	slt	a4,a4,a7
    290a:	00e507b3          	add	a5,a0,a4
    290e:	0046a303          	lw	t1,4(a3)
    2912:	01079593          	slli	a1,a5,0x10
    2916:	4105d393          	srai	t2,a1,0x10
    291a:	01039813          	slli	a6,t2,0x10
    291e:	006603b3          	add	t2,a2,t1
    2922:	01085513          	srli	a0,a6,0x10
    2926:	ec745fe3          	ble	t2,s0,2804 <matrix_test+0xd26>
    292a:	00a50593          	addi	a1,a0,10
    292e:	4690                	lw	a2,8(a3)
    2930:	01059293          	slli	t0,a1,0x10
    2934:	4102de13          	srai	t3,t0,0x10
    2938:	4381                	li	t2,0
    293a:	010e1813          	slli	a6,t3,0x10
    293e:	00c38e33          	add	t3,t2,a2
    2942:	01085513          	srli	a0,a6,0x10
    2946:	efc450e3          	ble	t3,s0,2826 <matrix_test+0xd48>
    294a:	00a50793          	addi	a5,a0,10
    294e:	00c6a383          	lw	t2,12(a3)
    2952:	01079593          	slli	a1,a5,0x10
    2956:	4105d293          	srai	t0,a1,0x10
    295a:	4e01                	li	t3,0
    295c:	01029813          	slli	a6,t0,0x10
    2960:	007e02b3          	add	t0,t3,t2
    2964:	01085513          	srli	a0,a6,0x10
    2968:	ee5451e3          	ble	t0,s0,284a <matrix_test+0xd6c>
    296c:	00a50713          	addi	a4,a0,10
    2970:	0106ae03          	lw	t3,16(a3)
    2974:	01071793          	slli	a5,a4,0x10
    2978:	4107d593          	srai	a1,a5,0x10
    297c:	4281                	li	t0,0
    297e:	01059813          	slli	a6,a1,0x10
    2982:	01c285b3          	add	a1,t0,t3
    2986:	01085513          	srli	a0,a6,0x10
    298a:	eeb452e3          	ble	a1,s0,286e <matrix_test+0xd90>
    298e:	00a50893          	addi	a7,a0,10
    2992:	0146a283          	lw	t0,20(a3)
    2996:	01089713          	slli	a4,a7,0x10
    299a:	41075793          	srai	a5,a4,0x10
    299e:	4581                	li	a1,0
    29a0:	01079813          	slli	a6,a5,0x10
    29a4:	005587b3          	add	a5,a1,t0
    29a8:	01085513          	srli	a0,a6,0x10
    29ac:	eef453e3          	ble	a5,s0,2892 <matrix_test+0xdb4>
    29b0:	00a50313          	addi	t1,a0,10
    29b4:	01031893          	slli	a7,t1,0x10
    29b8:	4108d713          	srai	a4,a7,0x10
    29bc:	0186a883          	lw	a7,24(a3)
    29c0:	4781                	li	a5,0
    29c2:	01071593          	slli	a1,a4,0x10
    29c6:	01178833          	add	a6,a5,a7
    29ca:	0105d513          	srli	a0,a1,0x10
    29ce:	ef0454e3          	ble	a6,s0,28b6 <matrix_test+0xdd8>
    29d2:	00a50813          	addi	a6,a0,10
    29d6:	01081613          	slli	a2,a6,0x10
    29da:	41065513          	srai	a0,a2,0x10
    29de:	4801                	li	a6,0
    29e0:	b5dd                	j	28c6 <matrix_test+0xde8>
    29e2:	00cb2833          	slt	a6,s6,a2
    29e6:	01038e33          	add	t3,t2,a6
    29ea:	010e1f93          	slli	t6,t3,0x10
    29ee:	410fd513          	srai	a0,t6,0x10
    29f2:	b079                	j	2280 <matrix_test+0x7a2>
    29f4:	011fa7b3          	slt	a5,t6,a7
    29f8:	00f70533          	add	a0,a4,a5
    29fc:	01051293          	slli	t0,a0,0x10
    2a00:	4102d513          	srai	a0,t0,0x10
    2a04:	e88ff06f          	j	208c <matrix_test+0x5ae>
    2a08:	00a28813          	addi	a6,t0,10
    2a0c:	01081313          	slli	t1,a6,0x10
    2a10:	41035513          	srai	a0,t1,0x10
    2a14:	4801                	li	a6,0
    2a16:	e1cff06f          	j	2032 <matrix_test+0x554>
    2a1a:	00a38813          	addi	a6,t2,10
    2a1e:	01081293          	slli	t0,a6,0x10
    2a22:	4102d513          	srai	a0,t0,0x10
    2a26:	4801                	li	a6,0
    2a28:	c96ff06f          	j	1ebe <matrix_test+0x3e0>
    2a2c:	00a30513          	addi	a0,t1,10
    2a30:	01051f13          	slli	t5,a0,0x10
    2a34:	410f5513          	srai	a0,t5,0x10
    2a38:	4801                	li	a6,0
    2a3a:	c5eff06f          	j	1e98 <matrix_test+0x3ba>
    2a3e:	00a38513          	addi	a0,t2,10
    2a42:	01051793          	slli	a5,a0,0x10
    2a46:	4107d513          	srai	a0,a5,0x10
    2a4a:	4801                	li	a6,0
    2a4c:	dc0ff06f          	j	200c <matrix_test+0x52e>
    2a50:	00af8813          	addi	a6,t6,10
    2a54:	01081e93          	slli	t4,a6,0x10
    2a58:	410ed513          	srai	a0,t4,0x10
    2a5c:	4801                	li	a6,0
    2a5e:	c14ff06f          	j	1e72 <matrix_test+0x394>
    2a62:	00a70813          	addi	a6,a4,10
    2a66:	01081593          	slli	a1,a6,0x10
    2a6a:	4105d513          	srai	a0,a1,0x10
    2a6e:	4801                	li	a6,0
    2a70:	d76ff06f          	j	1fe6 <matrix_test+0x508>
    2a74:	00a08513          	addi	a0,ra,10
    2a78:	01051393          	slli	t2,a0,0x10
    2a7c:	4103d513          	srai	a0,t2,0x10
    2a80:	4581                	li	a1,0
    2a82:	e92ff06f          	j	2114 <matrix_test+0x636>
    2a86:	00a08513          	addi	a0,ra,10
    2a8a:	01051693          	slli	a3,a0,0x10
    2a8e:	4106d513          	srai	a0,a3,0x10
    2a92:	4881                	li	a7,0
    2a94:	b895                	j	2308 <matrix_test+0x82a>
    2a96:	00a78893          	addi	a7,a5,10
    2a9a:	01089393          	slli	t2,a7,0x10
    2a9e:	4103d513          	srai	a0,t2,0x10
    2aa2:	4801                	li	a6,0
    2aa4:	d1eff06f          	j	1fc2 <matrix_test+0x4e4>
    2aa8:	00af0613          	addi	a2,t5,10
    2aac:	01061313          	slli	t1,a2,0x10
    2ab0:	41035513          	srai	a0,t1,0x10
    2ab4:	4801                	li	a6,0
    2ab6:	b96ff06f          	j	1e4c <matrix_test+0x36e>
    2aba:	00ad8f93          	addi	t6,s11,10
    2abe:	010f9893          	slli	a7,t6,0x10
    2ac2:	4108d513          	srai	a0,a7,0x10
    2ac6:	4881                	li	a7,0
    2ac8:	b821                	j	22e0 <matrix_test+0x802>
    2aca:	00a38593          	addi	a1,t2,10
    2ace:	01059f93          	slli	t6,a1,0x10
    2ad2:	410fd513          	srai	a0,t6,0x10
    2ad6:	4581                	li	a1,0
    2ad8:	e14ff06f          	j	20ec <matrix_test+0x60e>
    2adc:	00a38813          	addi	a6,t2,10
    2ae0:	01081293          	slli	t0,a6,0x10
    2ae4:	4102d513          	srai	a0,t0,0x10
    2ae8:	4801                	li	a6,0
    2aea:	b3eff06f          	j	1e28 <matrix_test+0x34a>
    2aee:	00a28813          	addi	a6,t0,10
    2af2:	01081313          	slli	t1,a6,0x10
    2af6:	41035513          	srai	a0,t1,0x10
    2afa:	4801                	li	a6,0
    2afc:	ca4ff06f          	j	1fa0 <matrix_test+0x4c2>
    2b00:	00a38e13          	addi	t3,t2,10
    2b04:	010e1713          	slli	a4,t3,0x10
    2b08:	41075513          	srai	a0,a4,0x10
    2b0c:	4801                	li	a6,0
    2b0e:	c6eff06f          	j	1f7c <matrix_test+0x49e>
    2b12:	00a30e13          	addi	t3,t1,10
    2b16:	010e1f93          	slli	t6,t3,0x10
    2b1a:	410fd513          	srai	a0,t6,0x10
    2b1e:	4801                	li	a6,0
    2b20:	ae2ff06f          	j	1e02 <matrix_test+0x324>
    2b24:	00af8713          	addi	a4,t6,10
    2b28:	01071793          	slli	a5,a4,0x10
    2b2c:	4107d513          	srai	a0,a5,0x10
    2b30:	4581                	li	a1,0
    2b32:	d96ff06f          	j	20c8 <matrix_test+0x5ea>
    2b36:	00a70613          	addi	a2,a4,10
    2b3a:	01061693          	slli	a3,a2,0x10
    2b3e:	4106d513          	srai	a0,a3,0x10
    2b42:	4881                	li	a7,0
    2b44:	f76ff06f          	j	22ba <matrix_test+0x7dc>
    2b48:	00a68813          	addi	a6,a3,10
    2b4c:	01081593          	slli	a1,a6,0x10
    2b50:	4105d513          	srai	a0,a1,0x10
    2b54:	4801                	li	a6,0
    2b56:	c00ff06f          	j	1f56 <matrix_test+0x478>
    2b5a:	00a70813          	addi	a6,a4,10
    2b5e:	01081e93          	slli	t4,a6,0x10
    2b62:	410ed513          	srai	a0,t4,0x10
    2b66:	4801                	li	a6,0
    2b68:	a74ff06f          	j	1ddc <matrix_test+0x2fe>
    2b6c:	4581                	li	a1,0
    2b6e:	019010ef          	jal	ra,4386 <crc16>
    2b72:	86e2                	mv	a3,s8
    2b74:	865e                	mv	a2,s7
    2b76:	84aa                	mv	s1,a0
    2b78:	85da                	mv	a1,s6
    2b7a:	4501                	li	a0,0
    2b7c:	2785                	jal	32dc <matrix_mul_vect>
    2b7e:	85a6                	mv	a1,s1
    2b80:	4501                	li	a0,0
    2b82:	005010ef          	jal	ra,4386 <crc16>
    2b86:	86e2                	mv	a3,s8
    2b88:	865e                	mv	a2,s7
    2b8a:	892a                	mv	s2,a0
    2b8c:	85da                	mv	a1,s6
    2b8e:	4501                	li	a0,0
    2b90:	0e3000ef          	jal	ra,3472 <matrix_mul_matrix>
    2b94:	85ca                	mv	a1,s2
    2b96:	4501                	li	a0,0
    2b98:	7ee010ef          	jal	ra,4386 <crc16>
    2b9c:	89aa                	mv	s3,a0
    2b9e:	85da                	mv	a1,s6
    2ba0:	86e2                	mv	a3,s8
    2ba2:	865e                	mv	a2,s7
    2ba4:	4501                	li	a0,0
    2ba6:	2a5000ef          	jal	ra,364a <matrix_mul_matrix_bitextract>
    2baa:	85ce                	mv	a1,s3
    2bac:	4501                	li	a0,0
    2bae:	7d8010ef          	jal	ra,4386 <crc16>
    2bb2:	b2c1                	j	2572 <matrix_test+0xa94>

00002bb4 <core_bench_matrix>:
    2bb4:	1141                	addi	sp,sp,-16
    2bb6:	c422                	sw	s0,8(sp)
    2bb8:	872e                	mv	a4,a1
    2bba:	8432                	mv	s0,a2
    2bbc:	454c                	lw	a1,12(a0)
    2bbe:	4514                	lw	a3,8(a0)
    2bc0:	4150                	lw	a2,4(a0)
    2bc2:	4108                	lw	a0,0(a0)
    2bc4:	c606                	sw	ra,12(sp)
    2bc6:	f19fe0ef          	jal	ra,1ade <matrix_test>
    2bca:	85a2                	mv	a1,s0
    2bcc:	4422                	lw	s0,8(sp)
    2bce:	40b2                	lw	ra,12(sp)
    2bd0:	0141                	addi	sp,sp,16
    2bd2:	7b40106f          	j	4386 <crc16>

00002bd6 <matrix_sum>:
    2bd6:	3e050263          	beqz	a0,2fba <matrix_sum+0x3e4>
    2bda:	40a00833          	neg	a6,a0
    2bde:	00251793          	slli	a5,a0,0x2
    2be2:	95be                	add	a1,a1,a5
    2be4:	00281893          	slli	a7,a6,0x2
    2be8:	4681                	li	a3,0
    2bea:	4781                	li	a5,0
    2bec:	4f01                	li	t5,0
    2bee:	4e01                	li	t3,0
    2bf0:	080e                	slli	a6,a6,0x3
    2bf2:	00b88733          	add	a4,a7,a1
    2bf6:	40e58eb3          	sub	t4,a1,a4
    2bfa:	ffce8293          	addi	t0,t4,-4
    2bfe:	0022d313          	srli	t1,t0,0x2
    2c02:	00130393          	addi	t2,t1,1
    2c06:	0073fe93          	andi	t4,t2,7
    2c0a:	833a                	mv	t1,a4
    2c0c:	220e8e63          	beqz	t4,2e48 <matrix_sum+0x272>
    2c10:	4f85                	li	t6,1
    2c12:	11fe8063          	beq	t4,t6,2d12 <matrix_sum+0x13c>
    2c16:	4289                	li	t0,2
    2c18:	0c5e8b63          	beq	t4,t0,2cee <matrix_sum+0x118>
    2c1c:	438d                	li	t2,3
    2c1e:	0a7e8563          	beq	t4,t2,2cc8 <matrix_sum+0xf2>
    2c22:	4f91                	li	t6,4
    2c24:	07fe8f63          	beq	t4,t6,2ca2 <matrix_sum+0xcc>
    2c28:	4295                	li	t0,5
    2c2a:	045e8a63          	beq	t4,t0,2c7e <matrix_sum+0xa8>
    2c2e:	4399                	li	t2,6
    2c30:	027e8563          	beq	t4,t2,2c5a <matrix_sum+0x84>
    2c34:	00072e83          	lw	t4,0(a4)
    2c38:	07c2                	slli	a5,a5,0x10
    2c3a:	0107d313          	srli	t1,a5,0x10
    2c3e:	9e76                	add	t3,t3,t4
    2c40:	37c64563          	blt	a2,t3,2faa <matrix_sum+0x3d4>
    2c44:	01df2f33          	slt	t5,t5,t4
    2c48:	01e30fb3          	add	t6,t1,t5
    2c4c:	010f9293          	slli	t0,t6,0x10
    2c50:	4102d793          	srai	a5,t0,0x10
    2c54:	00470313          	addi	t1,a4,4
    2c58:	8f76                	mv	t5,t4
    2c5a:	00032e83          	lw	t4,0(t1)
    2c5e:	07c2                	slli	a5,a5,0x10
    2c60:	0107df93          	srli	t6,a5,0x10
    2c64:	9e76                	add	t3,t3,t4
    2c66:	33c64b63          	blt	a2,t3,2f9c <matrix_sum+0x3c6>
    2c6a:	01df2f33          	slt	t5,t5,t4
    2c6e:	01ef82b3          	add	t0,t6,t5
    2c72:	01029393          	slli	t2,t0,0x10
    2c76:	4103d793          	srai	a5,t2,0x10
    2c7a:	0311                	addi	t1,t1,4
    2c7c:	8f76                	mv	t5,t4
    2c7e:	00032e83          	lw	t4,0(t1)
    2c82:	01079f93          	slli	t6,a5,0x10
    2c86:	010fd293          	srli	t0,t6,0x10
    2c8a:	9e76                	add	t3,t3,t4
    2c8c:	31c64063          	blt	a2,t3,2f8c <matrix_sum+0x3b6>
    2c90:	01df2f33          	slt	t5,t5,t4
    2c94:	01e283b3          	add	t2,t0,t5
    2c98:	01039793          	slli	a5,t2,0x10
    2c9c:	87c1                	srai	a5,a5,0x10
    2c9e:	0311                	addi	t1,t1,4
    2ca0:	8f76                	mv	t5,t4
    2ca2:	00032283          	lw	t0,0(t1)
    2ca6:	01079e93          	slli	t4,a5,0x10
    2caa:	010ed393          	srli	t2,t4,0x10
    2cae:	9e16                	add	t3,t3,t0
    2cb0:	2dc64663          	blt	a2,t3,2f7c <matrix_sum+0x3a6>
    2cb4:	005f2f33          	slt	t5,t5,t0
    2cb8:	01e387b3          	add	a5,t2,t5
    2cbc:	01079f93          	slli	t6,a5,0x10
    2cc0:	410fd793          	srai	a5,t6,0x10
    2cc4:	0311                	addi	t1,t1,4
    2cc6:	8f16                	mv	t5,t0
    2cc8:	00032283          	lw	t0,0(t1)
    2ccc:	01079393          	slli	t2,a5,0x10
    2cd0:	0103d793          	srli	a5,t2,0x10
    2cd4:	9e16                	add	t3,t3,t0
    2cd6:	29c64b63          	blt	a2,t3,2f6c <matrix_sum+0x396>
    2cda:	005f2f33          	slt	t5,t5,t0
    2cde:	01e78fb3          	add	t6,a5,t5
    2ce2:	010f9e93          	slli	t4,t6,0x10
    2ce6:	410ed793          	srai	a5,t4,0x10
    2cea:	0311                	addi	t1,t1,4
    2cec:	8f16                	mv	t5,t0
    2cee:	00032283          	lw	t0,0(t1)
    2cf2:	07c2                	slli	a5,a5,0x10
    2cf4:	0107df93          	srli	t6,a5,0x10
    2cf8:	9e16                	add	t3,t3,t0
    2cfa:	27c64263          	blt	a2,t3,2f5e <matrix_sum+0x388>
    2cfe:	005f2f33          	slt	t5,t5,t0
    2d02:	01ef8eb3          	add	t4,t6,t5
    2d06:	010e9393          	slli	t2,t4,0x10
    2d0a:	4103d793          	srai	a5,t2,0x10
    2d0e:	0311                	addi	t1,t1,4
    2d10:	8f16                	mv	t5,t0
    2d12:	00032283          	lw	t0,0(t1)
    2d16:	01079f93          	slli	t6,a5,0x10
    2d1a:	010fde93          	srli	t4,t6,0x10
    2d1e:	9e16                	add	t3,t3,t0
    2d20:	23c64763          	blt	a2,t3,2f4e <matrix_sum+0x378>
    2d24:	005f2f33          	slt	t5,t5,t0
    2d28:	01ee83b3          	add	t2,t4,t5
    2d2c:	01039793          	slli	a5,t2,0x10
    2d30:	87c1                	srai	a5,a5,0x10
    2d32:	0311                	addi	t1,t1,4
    2d34:	8f16                	mv	t5,t0
    2d36:	10659963          	bne	a1,t1,2e48 <matrix_sum+0x272>
    2d3a:	0685                	addi	a3,a3,1
    2d3c:	410705b3          	sub	a1,a4,a6
    2d40:	ead519e3          	bne	a0,a3,2bf2 <matrix_sum+0x1c>
    2d44:	853e                	mv	a0,a5
    2d46:	8082                	ret
    2d48:	00432f03          	lw	t5,4(t1)
    2d4c:	03a9                	addi	t2,t2,10
    2d4e:	01039e13          	slli	t3,t2,0x10
    2d52:	410e5e93          	srai	t4,t3,0x10
    2d56:	4e01                	li	t3,0
    2d58:	010e9793          	slli	a5,t4,0x10
    2d5c:	9e7a                	add	t3,t3,t5
    2d5e:	0311                	addi	t1,t1,4
    2d60:	0107df93          	srli	t6,a5,0x10
    2d64:	11c65d63          	ble	t3,a2,2e7e <matrix_sum+0x2a8>
    2d68:	00af8e13          	addi	t3,t6,10
    2d6c:	00432283          	lw	t0,4(t1)
    2d70:	010e1793          	slli	a5,t3,0x10
    2d74:	4107df93          	srai	t6,a5,0x10
    2d78:	4e01                	li	t3,0
    2d7a:	010f9e93          	slli	t4,t6,0x10
    2d7e:	9e16                	add	t3,t3,t0
    2d80:	010ed393          	srli	t2,t4,0x10
    2d84:	11c64e63          	blt	a2,t3,2ea0 <matrix_sum+0x2ca>
    2d88:	005f2f33          	slt	t5,t5,t0
    2d8c:	01e387b3          	add	a5,t2,t5
    2d90:	00832f03          	lw	t5,8(t1)
    2d94:	01079f93          	slli	t6,a5,0x10
    2d98:	410fd393          	srai	t2,t6,0x10
    2d9c:	01039793          	slli	a5,t2,0x10
    2da0:	9e7a                	add	t3,t3,t5
    2da2:	0107df93          	srli	t6,a5,0x10
    2da6:	11c64d63          	blt	a2,t3,2ec0 <matrix_sum+0x2ea>
    2daa:	01e2a2b3          	slt	t0,t0,t5
    2dae:	005f8eb3          	add	t4,t6,t0
    2db2:	00c32283          	lw	t0,12(t1)
    2db6:	010e9393          	slli	t2,t4,0x10
    2dba:	4103df93          	srai	t6,t2,0x10
    2dbe:	010f9e93          	slli	t4,t6,0x10
    2dc2:	9e16                	add	t3,t3,t0
    2dc4:	010ed393          	srli	t2,t4,0x10
    2dc8:	11c64c63          	blt	a2,t3,2ee0 <matrix_sum+0x30a>
    2dcc:	005f2f33          	slt	t5,t5,t0
    2dd0:	01e387b3          	add	a5,t2,t5
    2dd4:	01032f03          	lw	t5,16(t1)
    2dd8:	01079f93          	slli	t6,a5,0x10
    2ddc:	410fd393          	srai	t2,t6,0x10
    2de0:	01039793          	slli	a5,t2,0x10
    2de4:	9e7a                	add	t3,t3,t5
    2de6:	0107df93          	srli	t6,a5,0x10
    2dea:	11c64b63          	blt	a2,t3,2f00 <matrix_sum+0x32a>
    2dee:	01e2a2b3          	slt	t0,t0,t5
    2df2:	005f8eb3          	add	t4,t6,t0
    2df6:	01432283          	lw	t0,20(t1)
    2dfa:	010e9393          	slli	t2,t4,0x10
    2dfe:	4103df93          	srai	t6,t2,0x10
    2e02:	010f9e93          	slli	t4,t6,0x10
    2e06:	9e16                	add	t3,t3,t0
    2e08:	010ed393          	srli	t2,t4,0x10
    2e0c:	11c64a63          	blt	a2,t3,2f20 <matrix_sum+0x34a>
    2e10:	005f2f33          	slt	t5,t5,t0
    2e14:	01e387b3          	add	a5,t2,t5
    2e18:	01832f03          	lw	t5,24(t1)
    2e1c:	01079f93          	slli	t6,a5,0x10
    2e20:	410fd393          	srai	t2,t6,0x10
    2e24:	01039793          	slli	a5,t2,0x10
    2e28:	9e7a                	add	t3,t3,t5
    2e2a:	0107df93          	srli	t6,a5,0x10
    2e2e:	11c64963          	blt	a2,t3,2f40 <matrix_sum+0x36a>
    2e32:	01e2a2b3          	slt	t0,t0,t5
    2e36:	005f8eb3          	add	t4,t6,t0
    2e3a:	010e9393          	slli	t2,t4,0x10
    2e3e:	4103d793          	srai	a5,t2,0x10
    2e42:	0371                	addi	t1,t1,28
    2e44:	ee658be3          	beq	a1,t1,2d3a <matrix_sum+0x164>
    2e48:	00032283          	lw	t0,0(t1)
    2e4c:	01079e93          	slli	t4,a5,0x10
    2e50:	010ed393          	srli	t2,t4,0x10
    2e54:	9e16                	add	t3,t3,t0
    2e56:	efc649e3          	blt	a2,t3,2d48 <matrix_sum+0x172>
    2e5a:	005f2f33          	slt	t5,t5,t0
    2e5e:	01e387b3          	add	a5,t2,t5
    2e62:	00432f03          	lw	t5,4(t1)
    2e66:	01079f93          	slli	t6,a5,0x10
    2e6a:	410fde93          	srai	t4,t6,0x10
    2e6e:	010e9793          	slli	a5,t4,0x10
    2e72:	9e7a                	add	t3,t3,t5
    2e74:	0311                	addi	t1,t1,4
    2e76:	0107df93          	srli	t6,a5,0x10
    2e7a:	efc647e3          	blt	a2,t3,2d68 <matrix_sum+0x192>
    2e7e:	01e2a2b3          	slt	t0,t0,t5
    2e82:	005f8eb3          	add	t4,t6,t0
    2e86:	00432283          	lw	t0,4(t1)
    2e8a:	010e9393          	slli	t2,t4,0x10
    2e8e:	4103df93          	srai	t6,t2,0x10
    2e92:	010f9e93          	slli	t4,t6,0x10
    2e96:	9e16                	add	t3,t3,t0
    2e98:	010ed393          	srli	t2,t4,0x10
    2e9c:	efc656e3          	ble	t3,a2,2d88 <matrix_sum+0x1b2>
    2ea0:	00a38e13          	addi	t3,t2,10
    2ea4:	00832f03          	lw	t5,8(t1)
    2ea8:	010e1e93          	slli	t4,t3,0x10
    2eac:	410ed393          	srai	t2,t4,0x10
    2eb0:	4e01                	li	t3,0
    2eb2:	01039793          	slli	a5,t2,0x10
    2eb6:	9e7a                	add	t3,t3,t5
    2eb8:	0107df93          	srli	t6,a5,0x10
    2ebc:	efc657e3          	ble	t3,a2,2daa <matrix_sum+0x1d4>
    2ec0:	00af8e13          	addi	t3,t6,10
    2ec4:	00c32283          	lw	t0,12(t1)
    2ec8:	010e1793          	slli	a5,t3,0x10
    2ecc:	4107df93          	srai	t6,a5,0x10
    2ed0:	4e01                	li	t3,0
    2ed2:	010f9e93          	slli	t4,t6,0x10
    2ed6:	9e16                	add	t3,t3,t0
    2ed8:	010ed393          	srli	t2,t4,0x10
    2edc:	efc658e3          	ble	t3,a2,2dcc <matrix_sum+0x1f6>
    2ee0:	00a38e13          	addi	t3,t2,10
    2ee4:	01032f03          	lw	t5,16(t1)
    2ee8:	010e1e93          	slli	t4,t3,0x10
    2eec:	410ed393          	srai	t2,t4,0x10
    2ef0:	4e01                	li	t3,0
    2ef2:	01039793          	slli	a5,t2,0x10
    2ef6:	9e7a                	add	t3,t3,t5
    2ef8:	0107df93          	srli	t6,a5,0x10
    2efc:	efc659e3          	ble	t3,a2,2dee <matrix_sum+0x218>
    2f00:	00af8e13          	addi	t3,t6,10
    2f04:	01432283          	lw	t0,20(t1)
    2f08:	010e1793          	slli	a5,t3,0x10
    2f0c:	4107df93          	srai	t6,a5,0x10
    2f10:	4e01                	li	t3,0
    2f12:	010f9e93          	slli	t4,t6,0x10
    2f16:	9e16                	add	t3,t3,t0
    2f18:	010ed393          	srli	t2,t4,0x10
    2f1c:	efc65ae3          	ble	t3,a2,2e10 <matrix_sum+0x23a>
    2f20:	00a38e13          	addi	t3,t2,10
    2f24:	01832f03          	lw	t5,24(t1)
    2f28:	010e1e93          	slli	t4,t3,0x10
    2f2c:	410ed393          	srai	t2,t4,0x10
    2f30:	4e01                	li	t3,0
    2f32:	01039793          	slli	a5,t2,0x10
    2f36:	9e7a                	add	t3,t3,t5
    2f38:	0107df93          	srli	t6,a5,0x10
    2f3c:	efc65be3          	ble	t3,a2,2e32 <matrix_sum+0x25c>
    2f40:	00af8e13          	addi	t3,t6,10
    2f44:	010e1793          	slli	a5,t3,0x10
    2f48:	87c1                	srai	a5,a5,0x10
    2f4a:	4e01                	li	t3,0
    2f4c:	bddd                	j	2e42 <matrix_sum+0x26c>
    2f4e:	00ae8e13          	addi	t3,t4,10
    2f52:	010e1f93          	slli	t6,t3,0x10
    2f56:	410fd793          	srai	a5,t6,0x10
    2f5a:	4e01                	li	t3,0
    2f5c:	bbd9                	j	2d32 <matrix_sum+0x15c>
    2f5e:	00af8e13          	addi	t3,t6,10
    2f62:	010e1793          	slli	a5,t3,0x10
    2f66:	87c1                	srai	a5,a5,0x10
    2f68:	4e01                	li	t3,0
    2f6a:	b355                	j	2d0e <matrix_sum+0x138>
    2f6c:	00a78e13          	addi	t3,a5,10
    2f70:	010e1393          	slli	t2,t3,0x10
    2f74:	4103d793          	srai	a5,t2,0x10
    2f78:	4e01                	li	t3,0
    2f7a:	bb85                	j	2cea <matrix_sum+0x114>
    2f7c:	00a38e13          	addi	t3,t2,10
    2f80:	010e1e93          	slli	t4,t3,0x10
    2f84:	410ed793          	srai	a5,t4,0x10
    2f88:	4e01                	li	t3,0
    2f8a:	bb2d                	j	2cc4 <matrix_sum+0xee>
    2f8c:	00a28e13          	addi	t3,t0,10
    2f90:	010e1f93          	slli	t6,t3,0x10
    2f94:	410fd793          	srai	a5,t6,0x10
    2f98:	4e01                	li	t3,0
    2f9a:	b311                	j	2c9e <matrix_sum+0xc8>
    2f9c:	00af8e13          	addi	t3,t6,10
    2fa0:	010e1793          	slli	a5,t3,0x10
    2fa4:	87c1                	srai	a5,a5,0x10
    2fa6:	4e01                	li	t3,0
    2fa8:	b9c9                	j	2c7a <matrix_sum+0xa4>
    2faa:	00a30e13          	addi	t3,t1,10
    2fae:	010e1393          	slli	t2,t3,0x10
    2fb2:	4103d793          	srai	a5,t2,0x10
    2fb6:	4e01                	li	t3,0
    2fb8:	b971                	j	2c54 <matrix_sum+0x7e>
    2fba:	4781                	li	a5,0
    2fbc:	853e                	mv	a0,a5
    2fbe:	8082                	ret

00002fc0 <matrix_mul_const>:
    2fc0:	1e050063          	beqz	a0,31a0 <matrix_mul_const+0x1e0>
    2fc4:	00151f13          	slli	t5,a0,0x1
    2fc8:	00251f93          	slli	t6,a0,0x2
    2fcc:	4801                	li	a6,0
    2fce:	ffef0713          	addi	a4,t5,-2
    2fd2:	00175293          	srli	t0,a4,0x1
    2fd6:	00128313          	addi	t1,t0,1
    2fda:	00737393          	andi	t2,t1,7
    2fde:	87ae                	mv	a5,a1
    2fe0:	00cf08b3          	add	a7,t5,a2
    2fe4:	08038663          	beqz	t2,3070 <matrix_mul_const+0xb0>
    2fe8:	4e05                	li	t3,1
    2fea:	07c38963          	beq	t2,t3,305c <matrix_mul_const+0x9c>
    2fee:	4e89                	li	t4,2
    2ff0:	05d38e63          	beq	t2,t4,304c <matrix_mul_const+0x8c>
    2ff4:	470d                	li	a4,3
    2ff6:	04e38363          	beq	t2,a4,303c <matrix_mul_const+0x7c>
    2ffa:	4291                	li	t0,4
    2ffc:	02538863          	beq	t2,t0,302c <matrix_mul_const+0x6c>
    3000:	4315                	li	t1,5
    3002:	00638d63          	beq	t2,t1,301c <matrix_mul_const+0x5c>
    3006:	4e19                	li	t3,6
    3008:	19c39d63          	bne	t2,t3,31a2 <matrix_mul_const+0x1e2>
    300c:	00061703          	lh	a4,0(a2)
    3010:	0791                	addi	a5,a5,4
    3012:	0609                	addi	a2,a2,2
    3014:	02d702b3          	mul	t0,a4,a3
    3018:	fe57ae23          	sw	t0,-4(a5)
    301c:	00061303          	lh	t1,0(a2)
    3020:	0791                	addi	a5,a5,4
    3022:	0609                	addi	a2,a2,2
    3024:	02d30e33          	mul	t3,t1,a3
    3028:	ffc7ae23          	sw	t3,-4(a5)
    302c:	00061383          	lh	t2,0(a2)
    3030:	0791                	addi	a5,a5,4
    3032:	0609                	addi	a2,a2,2
    3034:	02d38eb3          	mul	t4,t2,a3
    3038:	ffd7ae23          	sw	t4,-4(a5)
    303c:	00061703          	lh	a4,0(a2)
    3040:	0791                	addi	a5,a5,4
    3042:	0609                	addi	a2,a2,2
    3044:	02d702b3          	mul	t0,a4,a3
    3048:	fe57ae23          	sw	t0,-4(a5)
    304c:	00061303          	lh	t1,0(a2)
    3050:	0791                	addi	a5,a5,4
    3052:	0609                	addi	a2,a2,2
    3054:	02d30e33          	mul	t3,t1,a3
    3058:	ffc7ae23          	sw	t3,-4(a5)
    305c:	00061383          	lh	t2,0(a2)
    3060:	0791                	addi	a5,a5,4
    3062:	0609                	addi	a2,a2,2
    3064:	02d38eb3          	mul	t4,t2,a3
    3068:	ffd7ae23          	sw	t4,-4(a5)
    306c:	13160663          	beq	a2,a7,3198 <matrix_mul_const+0x1d8>
    3070:	1141                	addi	sp,sp,-16
    3072:	c622                	sw	s0,12(sp)
    3074:	c426                	sw	s1,8(sp)
    3076:	00061483          	lh	s1,0(a2)
    307a:	00261403          	lh	s0,2(a2)
    307e:	00461383          	lh	t2,4(a2)
    3082:	00661283          	lh	t0,6(a2)
    3086:	00861e83          	lh	t4,8(a2)
    308a:	00a61e03          	lh	t3,10(a2)
    308e:	00c61303          	lh	t1,12(a2)
    3092:	00e61703          	lh	a4,14(a2)
    3096:	02d484b3          	mul	s1,s1,a3
    309a:	02078793          	addi	a5,a5,32
    309e:	0641                	addi	a2,a2,16
    30a0:	02d40433          	mul	s0,s0,a3
    30a4:	fe97a023          	sw	s1,-32(a5)
    30a8:	02d383b3          	mul	t2,t2,a3
    30ac:	fe87a223          	sw	s0,-28(a5)
    30b0:	02d282b3          	mul	t0,t0,a3
    30b4:	fe77a423          	sw	t2,-24(a5)
    30b8:	02de8eb3          	mul	t4,t4,a3
    30bc:	fe57a623          	sw	t0,-20(a5)
    30c0:	02de0e33          	mul	t3,t3,a3
    30c4:	ffd7a823          	sw	t4,-16(a5)
    30c8:	02d30333          	mul	t1,t1,a3
    30cc:	ffc7aa23          	sw	t3,-12(a5)
    30d0:	02d70733          	mul	a4,a4,a3
    30d4:	fe67ac23          	sw	t1,-8(a5)
    30d8:	fee7ae23          	sw	a4,-4(a5)
    30dc:	f9161de3          	bne	a2,a7,3076 <matrix_mul_const+0xb6>
    30e0:	0805                	addi	a6,a6,1
    30e2:	95fe                	add	a1,a1,t6
    30e4:	0b050663          	beq	a0,a6,3190 <matrix_mul_const+0x1d0>
    30e8:	ffef0893          	addi	a7,t5,-2
    30ec:	0018d793          	srli	a5,a7,0x1
    30f0:	00178493          	addi	s1,a5,1
    30f4:	0074f413          	andi	s0,s1,7
    30f8:	87ae                	mv	a5,a1
    30fa:	00cf08b3          	add	a7,t5,a2
    30fe:	dc25                	beqz	s0,3076 <matrix_mul_const+0xb6>
    3100:	4385                	li	t2,1
    3102:	06740963          	beq	s0,t2,3174 <matrix_mul_const+0x1b4>
    3106:	4289                	li	t0,2
    3108:	04540e63          	beq	s0,t0,3164 <matrix_mul_const+0x1a4>
    310c:	4e8d                	li	t4,3
    310e:	05d40363          	beq	s0,t4,3154 <matrix_mul_const+0x194>
    3112:	4e11                	li	t3,4
    3114:	03c40863          	beq	s0,t3,3144 <matrix_mul_const+0x184>
    3118:	4315                	li	t1,5
    311a:	00640d63          	beq	s0,t1,3134 <matrix_mul_const+0x174>
    311e:	4719                	li	a4,6
    3120:	08e41b63          	bne	s0,a4,31b6 <matrix_mul_const+0x1f6>
    3124:	00061383          	lh	t2,0(a2)
    3128:	0791                	addi	a5,a5,4
    312a:	0609                	addi	a2,a2,2
    312c:	02d382b3          	mul	t0,t2,a3
    3130:	fe57ae23          	sw	t0,-4(a5)
    3134:	00061e83          	lh	t4,0(a2)
    3138:	0791                	addi	a5,a5,4
    313a:	0609                	addi	a2,a2,2
    313c:	02de8e33          	mul	t3,t4,a3
    3140:	ffc7ae23          	sw	t3,-4(a5)
    3144:	00061303          	lh	t1,0(a2)
    3148:	0791                	addi	a5,a5,4
    314a:	0609                	addi	a2,a2,2
    314c:	02d30733          	mul	a4,t1,a3
    3150:	fee7ae23          	sw	a4,-4(a5)
    3154:	00061483          	lh	s1,0(a2)
    3158:	0791                	addi	a5,a5,4
    315a:	0609                	addi	a2,a2,2
    315c:	02d48433          	mul	s0,s1,a3
    3160:	fe87ae23          	sw	s0,-4(a5)
    3164:	00061383          	lh	t2,0(a2)
    3168:	0791                	addi	a5,a5,4
    316a:	0609                	addi	a2,a2,2
    316c:	02d382b3          	mul	t0,t2,a3
    3170:	fe57ae23          	sw	t0,-4(a5)
    3174:	00061e83          	lh	t4,0(a2)
    3178:	0791                	addi	a5,a5,4
    317a:	0609                	addi	a2,a2,2
    317c:	02de8e33          	mul	t3,t4,a3
    3180:	ffc7ae23          	sw	t3,-4(a5)
    3184:	ef1619e3          	bne	a2,a7,3076 <matrix_mul_const+0xb6>
    3188:	0805                	addi	a6,a6,1
    318a:	95fe                	add	a1,a1,t6
    318c:	f5051ee3          	bne	a0,a6,30e8 <matrix_mul_const+0x128>
    3190:	4432                	lw	s0,12(sp)
    3192:	44a2                	lw	s1,8(sp)
    3194:	0141                	addi	sp,sp,16
    3196:	8082                	ret
    3198:	0805                	addi	a6,a6,1
    319a:	95fe                	add	a1,a1,t6
    319c:	e30519e3          	bne	a0,a6,2fce <matrix_mul_const+0xe>
    31a0:	8082                	ret
    31a2:	00061383          	lh	t2,0(a2)
    31a6:	00458793          	addi	a5,a1,4
    31aa:	0609                	addi	a2,a2,2
    31ac:	02d38eb3          	mul	t4,t2,a3
    31b0:	01d5a023          	sw	t4,0(a1)
    31b4:	bda1                	j	300c <matrix_mul_const+0x4c>
    31b6:	00061483          	lh	s1,0(a2)
    31ba:	00458793          	addi	a5,a1,4
    31be:	0609                	addi	a2,a2,2
    31c0:	02d48433          	mul	s0,s1,a3
    31c4:	c180                	sw	s0,0(a1)
    31c6:	bfb9                	j	3124 <matrix_mul_const+0x164>

000031c8 <matrix_add_const>:
    31c8:	10050963          	beqz	a0,32da <matrix_add_const+0x112>
    31cc:	0642                	slli	a2,a2,0x10
    31ce:	8241                	srli	a2,a2,0x10
    31d0:	00151f13          	slli	t5,a0,0x1
    31d4:	4701                	li	a4,0
    31d6:	ffef0793          	addi	a5,t5,-2
    31da:	0017d293          	srli	t0,a5,0x1
    31de:	00128313          	addi	t1,t0,1
    31e2:	00737393          	andi	t2,t1,7
    31e6:	00bf06b3          	add	a3,t5,a1
    31ea:	08038763          	beqz	t2,3278 <matrix_add_const+0xb0>
    31ee:	4805                	li	a6,1
    31f0:	07038b63          	beq	t2,a6,3266 <matrix_add_const+0x9e>
    31f4:	4889                	li	a7,2
    31f6:	07138163          	beq	t2,a7,3258 <matrix_add_const+0x90>
    31fa:	4e0d                	li	t3,3
    31fc:	05c38763          	beq	t2,t3,324a <matrix_add_const+0x82>
    3200:	4e91                	li	t4,4
    3202:	03d38d63          	beq	t2,t4,323c <matrix_add_const+0x74>
    3206:	4f95                	li	t6,5
    3208:	03f38363          	beq	t2,t6,322e <matrix_add_const+0x66>
    320c:	4799                	li	a5,6
    320e:	00f38963          	beq	t2,a5,3220 <matrix_add_const+0x58>
    3212:	0005d283          	lhu	t0,0(a1)
    3216:	0589                	addi	a1,a1,2
    3218:	00560333          	add	t1,a2,t0
    321c:	fe659f23          	sh	t1,-2(a1)
    3220:	0005d383          	lhu	t2,0(a1)
    3224:	0589                	addi	a1,a1,2
    3226:	00760833          	add	a6,a2,t2
    322a:	ff059f23          	sh	a6,-2(a1)
    322e:	0005d883          	lhu	a7,0(a1)
    3232:	0589                	addi	a1,a1,2
    3234:	01160e33          	add	t3,a2,a7
    3238:	ffc59f23          	sh	t3,-2(a1)
    323c:	0005de83          	lhu	t4,0(a1)
    3240:	0589                	addi	a1,a1,2
    3242:	01d60fb3          	add	t6,a2,t4
    3246:	fff59f23          	sh	t6,-2(a1)
    324a:	0005d783          	lhu	a5,0(a1)
    324e:	0589                	addi	a1,a1,2
    3250:	00f602b3          	add	t0,a2,a5
    3254:	fe559f23          	sh	t0,-2(a1)
    3258:	0005d303          	lhu	t1,0(a1)
    325c:	0589                	addi	a1,a1,2
    325e:	006603b3          	add	t2,a2,t1
    3262:	fe759f23          	sh	t2,-2(a1)
    3266:	0005d803          	lhu	a6,0(a1)
    326a:	0589                	addi	a1,a1,2
    326c:	010608b3          	add	a7,a2,a6
    3270:	ff159f23          	sh	a7,-2(a1)
    3274:	06b68063          	beq	a3,a1,32d4 <matrix_add_const+0x10c>
    3278:	00a5d383          	lhu	t2,10(a1)
    327c:	00c5d803          	lhu	a6,12(a1)
    3280:	0005d283          	lhu	t0,0(a1)
    3284:	0025df83          	lhu	t6,2(a1)
    3288:	0045de83          	lhu	t4,4(a1)
    328c:	0065de03          	lhu	t3,6(a1)
    3290:	0085d303          	lhu	t1,8(a1)
    3294:	00e5d783          	lhu	a5,14(a1)
    3298:	007608b3          	add	a7,a2,t2
    329c:	92b2                	add	t0,t0,a2
    329e:	010603b3          	add	t2,a2,a6
    32a2:	9fb2                	add	t6,t6,a2
    32a4:	9eb2                	add	t4,t4,a2
    32a6:	9e32                	add	t3,t3,a2
    32a8:	9332                	add	t1,t1,a2
    32aa:	00f60833          	add	a6,a2,a5
    32ae:	00559023          	sh	t0,0(a1)
    32b2:	01f59123          	sh	t6,2(a1)
    32b6:	01d59223          	sh	t4,4(a1)
    32ba:	01c59323          	sh	t3,6(a1)
    32be:	00659423          	sh	t1,8(a1)
    32c2:	01159523          	sh	a7,10(a1)
    32c6:	00759623          	sh	t2,12(a1)
    32ca:	01059723          	sh	a6,14(a1)
    32ce:	05c1                	addi	a1,a1,16
    32d0:	fab694e3          	bne	a3,a1,3278 <matrix_add_const+0xb0>
    32d4:	0705                	addi	a4,a4,1
    32d6:	f0e510e3          	bne	a0,a4,31d6 <matrix_add_const+0xe>
    32da:	8082                	ret

000032dc <matrix_mul_vect>:
    32dc:	18050a63          	beqz	a0,3470 <matrix_mul_vect+0x194>
    32e0:	7179                	addi	sp,sp,-48
    32e2:	00151e93          	slli	t4,a0,0x1
    32e6:	050a                	slli	a0,a0,0x2
    32e8:	d622                	sw	s0,44(sp)
    32ea:	d426                	sw	s1,40(sp)
    32ec:	d24a                	sw	s2,36(sp)
    32ee:	d04e                	sw	s3,32(sp)
    32f0:	ce52                	sw	s4,28(sp)
    32f2:	cc56                	sw	s5,24(sp)
    32f4:	ca5a                	sw	s6,20(sp)
    32f6:	c85e                	sw	s7,16(sp)
    32f8:	c662                	sw	s8,12(sp)
    32fa:	00a58e33          	add	t3,a1,a0
    32fe:	01d68333          	add	t1,a3,t4
    3302:	40d302b3          	sub	t0,t1,a3
    3306:	ffe28393          	addi	t2,t0,-2
    330a:	0013d413          	srli	s0,t2,0x1
    330e:	00140493          	addi	s1,s0,1 # fffff001 <__C_STACK_TOP__+0xfffef001>
    3312:	0074f913          	andi	s2,s1,7
    3316:	87b6                	mv	a5,a3
    3318:	8732                	mv	a4,a2
    331a:	4881                	li	a7,0
    331c:	0a090663          	beqz	s2,33c8 <matrix_mul_vect+0xec>
    3320:	4805                	li	a6,1
    3322:	09090863          	beq	s2,a6,33b2 <matrix_mul_vect+0xd6>
    3326:	4989                	li	s3,2
    3328:	07390c63          	beq	s2,s3,33a0 <matrix_mul_vect+0xc4>
    332c:	4a0d                	li	s4,3
    332e:	07490063          	beq	s2,s4,338e <matrix_mul_vect+0xb2>
    3332:	4a91                	li	s5,4
    3334:	05590463          	beq	s2,s5,337c <matrix_mul_vect+0xa0>
    3338:	4b15                	li	s6,5
    333a:	03690863          	beq	s2,s6,336a <matrix_mul_vect+0x8e>
    333e:	4b99                	li	s7,6
    3340:	01790c63          	beq	s2,s7,3358 <matrix_mul_vect+0x7c>
    3344:	00061883          	lh	a7,0(a2)
    3348:	00069c03          	lh	s8,0(a3)
    334c:	00260713          	addi	a4,a2,2
    3350:	00268793          	addi	a5,a3,2
    3354:	038888b3          	mul	a7,a7,s8
    3358:	00071f03          	lh	t5,0(a4)
    335c:	00079f83          	lh	t6,0(a5)
    3360:	0709                	addi	a4,a4,2
    3362:	0789                	addi	a5,a5,2
    3364:	03ff0533          	mul	a0,t5,t6
    3368:	98aa                	add	a7,a7,a0
    336a:	00071283          	lh	t0,0(a4)
    336e:	00079383          	lh	t2,0(a5)
    3372:	0709                	addi	a4,a4,2
    3374:	0789                	addi	a5,a5,2
    3376:	02728433          	mul	s0,t0,t2
    337a:	98a2                	add	a7,a7,s0
    337c:	00071483          	lh	s1,0(a4)
    3380:	00079903          	lh	s2,0(a5)
    3384:	0709                	addi	a4,a4,2
    3386:	0789                	addi	a5,a5,2
    3388:	03248833          	mul	a6,s1,s2
    338c:	98c2                	add	a7,a7,a6
    338e:	00071983          	lh	s3,0(a4)
    3392:	00079a03          	lh	s4,0(a5)
    3396:	0709                	addi	a4,a4,2
    3398:	0789                	addi	a5,a5,2
    339a:	03498ab3          	mul	s5,s3,s4
    339e:	98d6                	add	a7,a7,s5
    33a0:	00071b03          	lh	s6,0(a4)
    33a4:	00079b83          	lh	s7,0(a5)
    33a8:	0709                	addi	a4,a4,2
    33aa:	0789                	addi	a5,a5,2
    33ac:	037b0c33          	mul	s8,s6,s7
    33b0:	98e2                	add	a7,a7,s8
    33b2:	00071f03          	lh	t5,0(a4)
    33b6:	00079f83          	lh	t6,0(a5)
    33ba:	0789                	addi	a5,a5,2
    33bc:	0709                	addi	a4,a4,2
    33be:	03ff0533          	mul	a0,t5,t6
    33c2:	98aa                	add	a7,a7,a0
    33c4:	08f30563          	beq	t1,a5,344e <matrix_mul_vect+0x172>
    33c8:	00071283          	lh	t0,0(a4)
    33cc:	00079383          	lh	t2,0(a5)
    33d0:	00279c03          	lh	s8,2(a5)
    33d4:	00271983          	lh	s3,2(a4)
    33d8:	00471503          	lh	a0,4(a4)
    33dc:	00479b83          	lh	s7,4(a5)
    33e0:	02728833          	mul	a6,t0,t2
    33e4:	00671403          	lh	s0,6(a4)
    33e8:	00679b03          	lh	s6,6(a5)
    33ec:	00871383          	lh	t2,8(a4)
    33f0:	00879a83          	lh	s5,8(a5)
    33f4:	00a71283          	lh	t0,10(a4)
    33f8:	00a79a03          	lh	s4,10(a5)
    33fc:	00c71f83          	lh	t6,12(a4)
    3400:	00c79903          	lh	s2,12(a5)
    3404:	00e71f03          	lh	t5,14(a4)
    3408:	038989b3          	mul	s3,s3,s8
    340c:	00e79483          	lh	s1,14(a5)
    3410:	98c2                	add	a7,a7,a6
    3412:	07c1                	addi	a5,a5,16
    3414:	0741                	addi	a4,a4,16
    3416:	03750c33          	mul	s8,a0,s7
    341a:	01388533          	add	a0,a7,s3
    341e:	03640bb3          	mul	s7,s0,s6
    3422:	01850433          	add	s0,a0,s8
    3426:	03538b33          	mul	s6,t2,s5
    342a:	01740833          	add	a6,s0,s7
    342e:	034283b3          	mul	t2,t0,s4
    3432:	01680ab3          	add	s5,a6,s6
    3436:	032f82b3          	mul	t0,t6,s2
    343a:	007a8a33          	add	s4,s5,t2
    343e:	029f0fb3          	mul	t6,t5,s1
    3442:	005a0933          	add	s2,s4,t0
    3446:	01f908b3          	add	a7,s2,t6
    344a:	f6f31fe3          	bne	t1,a5,33c8 <matrix_mul_vect+0xec>
    344e:	0115a023          	sw	a7,0(a1)
    3452:	0591                	addi	a1,a1,4
    3454:	9676                	add	a2,a2,t4
    3456:	eabe16e3          	bne	t3,a1,3302 <matrix_mul_vect+0x26>
    345a:	5432                	lw	s0,44(sp)
    345c:	54a2                	lw	s1,40(sp)
    345e:	5912                	lw	s2,36(sp)
    3460:	5982                	lw	s3,32(sp)
    3462:	4a72                	lw	s4,28(sp)
    3464:	4ae2                	lw	s5,24(sp)
    3466:	4b52                	lw	s6,20(sp)
    3468:	4bc2                	lw	s7,16(sp)
    346a:	4c32                	lw	s8,12(sp)
    346c:	6145                	addi	sp,sp,48
    346e:	8082                	ret
    3470:	8082                	ret

00003472 <matrix_mul_matrix>:
    3472:	1c050b63          	beqz	a0,3648 <matrix_mul_matrix+0x1d6>
    3476:	7139                	addi	sp,sp,-64
    3478:	d84e                	sw	s3,48(sp)
    347a:	00251793          	slli	a5,a0,0x2
    347e:	00151993          	slli	s3,a0,0x1
    3482:	d456                	sw	s5,40(sp)
    3484:	d05e                	sw	s7,32(sp)
    3486:	ce62                	sw	s8,28(sp)
    3488:	cc66                	sw	s9,24(sp)
    348a:	ca6a                	sw	s10,20(sp)
    348c:	de22                	sw	s0,60(sp)
    348e:	dc26                	sw	s1,56(sp)
    3490:	da4a                	sw	s2,52(sp)
    3492:	d652                	sw	s4,44(sp)
    3494:	d25a                	sw	s6,36(sp)
    3496:	c86e                	sw	s11,16(sp)
    3498:	8bb2                	mv	s7,a2
    349a:	01360ab3          	add	s5,a2,s3
    349e:	c63e                	sw	a5,12(sp)
    34a0:	8cae                	mv	s9,a1
    34a2:	01368c33          	add	s8,a3,s3
    34a6:	4d01                	li	s10,0
    34a8:	8a36                	mv	s4,a3
    34aa:	8b66                	mv	s6,s9
    34ac:	417a8733          	sub	a4,s5,s7
    34b0:	ffe70293          	addi	t0,a4,-2
    34b4:	0012d313          	srli	t1,t0,0x1
    34b8:	00130393          	addi	t2,t1,1
    34bc:	0073f413          	andi	s0,t2,7
    34c0:	8fd2                	mv	t6,s4
    34c2:	8f5e                	mv	t5,s7
    34c4:	4781                	li	a5,0
    34c6:	c44d                	beqz	s0,3570 <matrix_mul_matrix+0xfe>
    34c8:	4605                	li	a2,1
    34ca:	08c40863          	beq	s0,a2,355a <matrix_mul_matrix+0xe8>
    34ce:	4489                	li	s1,2
    34d0:	06940c63          	beq	s0,s1,3548 <matrix_mul_matrix+0xd6>
    34d4:	458d                	li	a1,3
    34d6:	06b40063          	beq	s0,a1,3536 <matrix_mul_matrix+0xc4>
    34da:	4811                	li	a6,4
    34dc:	05040463          	beq	s0,a6,3524 <matrix_mul_matrix+0xb2>
    34e0:	4895                	li	a7,5
    34e2:	03140863          	beq	s0,a7,3512 <matrix_mul_matrix+0xa0>
    34e6:	4919                	li	s2,6
    34e8:	01240c63          	beq	s0,s2,3500 <matrix_mul_matrix+0x8e>
    34ec:	000b9d83          	lh	s11,0(s7)
    34f0:	000a1e03          	lh	t3,0(s4)
    34f4:	002b8f13          	addi	t5,s7,2
    34f8:	013a0fb3          	add	t6,s4,s3
    34fc:	03cd87b3          	mul	a5,s11,t3
    3500:	000f1e83          	lh	t4,0(t5)
    3504:	000f9703          	lh	a4,0(t6)
    3508:	0f09                	addi	t5,t5,2
    350a:	9fce                	add	t6,t6,s3
    350c:	02ee82b3          	mul	t0,t4,a4
    3510:	9796                	add	a5,a5,t0
    3512:	000f1303          	lh	t1,0(t5)
    3516:	000f9383          	lh	t2,0(t6)
    351a:	0f09                	addi	t5,t5,2
    351c:	9fce                	add	t6,t6,s3
    351e:	02730433          	mul	s0,t1,t2
    3522:	97a2                	add	a5,a5,s0
    3524:	000f1483          	lh	s1,0(t5)
    3528:	000f9603          	lh	a2,0(t6)
    352c:	0f09                	addi	t5,t5,2
    352e:	9fce                	add	t6,t6,s3
    3530:	02c485b3          	mul	a1,s1,a2
    3534:	97ae                	add	a5,a5,a1
    3536:	000f1803          	lh	a6,0(t5)
    353a:	000f9883          	lh	a7,0(t6)
    353e:	0f09                	addi	t5,t5,2
    3540:	9fce                	add	t6,t6,s3
    3542:	03180933          	mul	s2,a6,a7
    3546:	97ca                	add	a5,a5,s2
    3548:	000f1d83          	lh	s11,0(t5)
    354c:	000f9e03          	lh	t3,0(t6)
    3550:	0f09                	addi	t5,t5,2
    3552:	9fce                	add	t6,t6,s3
    3554:	03cd8eb3          	mul	t4,s11,t3
    3558:	97f6                	add	a5,a5,t4
    355a:	000f1703          	lh	a4,0(t5)
    355e:	000f9283          	lh	t0,0(t6)
    3562:	0f09                	addi	t5,t5,2
    3564:	9fce                	add	t6,t6,s3
    3566:	02570333          	mul	t1,a4,t0
    356a:	979a                	add	a5,a5,t1
    356c:	0bea8363          	beq	s5,t5,3612 <matrix_mul_matrix+0x1a0>
    3570:	013f83b3          	add	t2,t6,s3
    3574:	000f1403          	lh	s0,0(t5)
    3578:	000f9483          	lh	s1,0(t6)
    357c:	00039e03          	lh	t3,0(t2)
    3580:	002f1903          	lh	s2,2(t5)
    3584:	02940733          	mul	a4,s0,s1
    3588:	01338633          	add	a2,t2,s3
    358c:	013605b3          	add	a1,a2,s3
    3590:	00061d83          	lh	s11,0(a2)
    3594:	004f1383          	lh	t2,4(t5)
    3598:	01358833          	add	a6,a1,s3
    359c:	00059483          	lh	s1,0(a1)
    35a0:	006f1e83          	lh	t4,6(t5)
    35a4:	008f1883          	lh	a7,8(t5)
    35a8:	013802b3          	add	t0,a6,s3
    35ac:	03c90933          	mul	s2,s2,t3
    35b0:	00081403          	lh	s0,0(a6)
    35b4:	01328333          	add	t1,t0,s3
    35b8:	00af1803          	lh	a6,10(t5)
    35bc:	00029283          	lh	t0,0(t0)
    35c0:	00cf1583          	lh	a1,12(t5)
    35c4:	00031e03          	lh	t3,0(t1)
    35c8:	01330fb3          	add	t6,t1,s3
    35cc:	00ef1603          	lh	a2,14(t5)
    35d0:	000f9303          	lh	t1,0(t6)
    35d4:	03b383b3          	mul	t2,t2,s11
    35d8:	97ba                	add	a5,a5,a4
    35da:	01278db3          	add	s11,a5,s2
    35de:	0f41                	addi	t5,t5,16
    35e0:	9fce                	add	t6,t6,s3
    35e2:	029e8eb3          	mul	t4,t4,s1
    35e6:	007d8733          	add	a4,s11,t2
    35ea:	028884b3          	mul	s1,a7,s0
    35ee:	01d708b3          	add	a7,a4,t4
    35f2:	02580433          	mul	s0,a6,t0
    35f6:	00988833          	add	a6,a7,s1
    35fa:	03c582b3          	mul	t0,a1,t3
    35fe:	008805b3          	add	a1,a6,s0
    3602:	02660933          	mul	s2,a2,t1
    3606:	00558e33          	add	t3,a1,t0
    360a:	012e07b3          	add	a5,t3,s2
    360e:	f7ea91e3          	bne	s5,t5,3570 <matrix_mul_matrix+0xfe>
    3612:	00fb2023          	sw	a5,0(s6)
    3616:	0a09                	addi	s4,s4,2
    3618:	0b11                	addi	s6,s6,4
    361a:	e94c19e3          	bne	s8,s4,34ac <matrix_mul_matrix+0x3a>
    361e:	4a32                	lw	s4,12(sp)
    3620:	0d05                	addi	s10,s10,1
    3622:	9bce                	add	s7,s7,s3
    3624:	9ace                	add	s5,s5,s3
    3626:	9cd2                	add	s9,s9,s4
    3628:	e9a510e3          	bne	a0,s10,34a8 <matrix_mul_matrix+0x36>
    362c:	5472                	lw	s0,60(sp)
    362e:	54e2                	lw	s1,56(sp)
    3630:	5952                	lw	s2,52(sp)
    3632:	59c2                	lw	s3,48(sp)
    3634:	5a32                	lw	s4,44(sp)
    3636:	5aa2                	lw	s5,40(sp)
    3638:	5b12                	lw	s6,36(sp)
    363a:	5b82                	lw	s7,32(sp)
    363c:	4c72                	lw	s8,28(sp)
    363e:	4ce2                	lw	s9,24(sp)
    3640:	4d52                	lw	s10,20(sp)
    3642:	4dc2                	lw	s11,16(sp)
    3644:	6121                	addi	sp,sp,64
    3646:	8082                	ret
    3648:	8082                	ret

0000364a <matrix_mul_matrix_bitextract>:
    364a:	18050a63          	beqz	a0,37de <matrix_mul_matrix_bitextract+0x194>
    364e:	1101                	addi	sp,sp,-32
    3650:	00151e13          	slli	t3,a0,0x1
    3654:	ce22                	sw	s0,28(sp)
    3656:	cc26                	sw	s1,24(sp)
    3658:	ca4a                	sw	s2,20(sp)
    365a:	c84e                	sw	s3,16(sp)
    365c:	c652                	sw	s4,12(sp)
    365e:	c456                	sw	s5,8(sp)
    3660:	c25a                	sw	s6,4(sp)
    3662:	01c60f33          	add	t5,a2,t3
    3666:	00251413          	slli	s0,a0,0x2
    366a:	01c682b3          	add	t0,a3,t3
    366e:	4381                	li	t2,0
    3670:	8eb6                	mv	t4,a3
    3672:	8fae                	mv	t6,a1
    3674:	40cf0733          	sub	a4,t5,a2
    3678:	ffe70313          	addi	t1,a4,-2
    367c:	00135493          	srli	s1,t1,0x1
    3680:	00148793          	addi	a5,s1,1
    3684:	0037f913          	andi	s2,a5,3
    3688:	88f6                	mv	a7,t4
    368a:	8832                	mv	a6,a2
    368c:	4981                	li	s3,0
    368e:	08090463          	beqz	s2,3716 <matrix_mul_matrix_bitextract+0xcc>
    3692:	4a05                	li	s4,1
    3694:	05490c63          	beq	s2,s4,36ec <matrix_mul_matrix_bitextract+0xa2>
    3698:	4a89                	li	s5,2
    369a:	03590663          	beq	s2,s5,36c6 <matrix_mul_matrix_bitextract+0x7c>
    369e:	00061983          	lh	s3,0(a2)
    36a2:	000e9b03          	lh	s6,0(t4)
    36a6:	00260813          	addi	a6,a2,2
    36aa:	01ce88b3          	add	a7,t4,t3
    36ae:	03698733          	mul	a4,s3,s6
    36b2:	40275313          	srai	t1,a4,0x2
    36b6:	40575493          	srai	s1,a4,0x5
    36ba:	00f37913          	andi	s2,t1,15
    36be:	07f4f793          	andi	a5,s1,127
    36c2:	02f909b3          	mul	s3,s2,a5
    36c6:	00081a03          	lh	s4,0(a6)
    36ca:	00089a83          	lh	s5,0(a7)
    36ce:	0809                	addi	a6,a6,2
    36d0:	98f2                	add	a7,a7,t3
    36d2:	035a0b33          	mul	s6,s4,s5
    36d6:	402b5713          	srai	a4,s6,0x2
    36da:	405b5313          	srai	t1,s6,0x5
    36de:	00f77493          	andi	s1,a4,15
    36e2:	07f37913          	andi	s2,t1,127
    36e6:	032487b3          	mul	a5,s1,s2
    36ea:	99be                	add	s3,s3,a5
    36ec:	00081a03          	lh	s4,0(a6)
    36f0:	00089a83          	lh	s5,0(a7)
    36f4:	0809                	addi	a6,a6,2
    36f6:	98f2                	add	a7,a7,t3
    36f8:	035a0b33          	mul	s6,s4,s5
    36fc:	402b5713          	srai	a4,s6,0x2
    3700:	405b5313          	srai	t1,s6,0x5
    3704:	00f77493          	andi	s1,a4,15
    3708:	07f37913          	andi	s2,t1,127
    370c:	032487b3          	mul	a5,s1,s2
    3710:	99be                	add	s3,s3,a5
    3712:	0b0f0163          	beq	t5,a6,37b4 <matrix_mul_matrix_bitextract+0x16a>
    3716:	01c88ab3          	add	s5,a7,t3
    371a:	00089303          	lh	t1,0(a7)
    371e:	00081a03          	lh	s4,0(a6)
    3722:	01ca8b33          	add	s6,s5,t3
    3726:	000a9703          	lh	a4,0(s5)
    372a:	00281903          	lh	s2,2(a6)
    372e:	01cb08b3          	add	a7,s6,t3
    3732:	00481483          	lh	s1,4(a6)
    3736:	000b1b03          	lh	s6,0(s6)
    373a:	026a0a33          	mul	s4,s4,t1
    373e:	00089a83          	lh	s5,0(a7)
    3742:	00681303          	lh	t1,6(a6)
    3746:	0821                	addi	a6,a6,8
    3748:	98f2                	add	a7,a7,t3
    374a:	02e90933          	mul	s2,s2,a4
    374e:	402a5793          	srai	a5,s4,0x2
    3752:	405a5a13          	srai	s4,s4,0x5
    3756:	00f7f713          	andi	a4,a5,15
    375a:	07fa7793          	andi	a5,s4,127
    375e:	036484b3          	mul	s1,s1,s6
    3762:	40295b13          	srai	s6,s2,0x2
    3766:	40595913          	srai	s2,s2,0x5
    376a:	00fb7a13          	andi	s4,s6,15
    376e:	07f97b13          	andi	s6,s2,127
    3772:	03530333          	mul	t1,t1,s5
    3776:	4024da93          	srai	s5,s1,0x2
    377a:	8495                	srai	s1,s1,0x5
    377c:	00fafa93          	andi	s5,s5,15
    3780:	07f4f493          	andi	s1,s1,127
    3784:	02f707b3          	mul	a5,a4,a5
    3788:	40535913          	srai	s2,t1,0x5
    378c:	40235713          	srai	a4,t1,0x2
    3790:	8b3d                	andi	a4,a4,15
    3792:	07f97313          	andi	t1,s2,127
    3796:	036a0a33          	mul	s4,s4,s6
    379a:	99be                	add	s3,s3,a5
    379c:	029a8b33          	mul	s6,s5,s1
    37a0:	01498ab3          	add	s5,s3,s4
    37a4:	026704b3          	mul	s1,a4,t1
    37a8:	016a87b3          	add	a5,s5,s6
    37ac:	009789b3          	add	s3,a5,s1
    37b0:	f70f13e3          	bne	t5,a6,3716 <matrix_mul_matrix_bitextract+0xcc>
    37b4:	013fa023          	sw	s3,0(t6)
    37b8:	0e89                	addi	t4,t4,2
    37ba:	0f91                	addi	t6,t6,4
    37bc:	ebd29ce3          	bne	t0,t4,3674 <matrix_mul_matrix_bitextract+0x2a>
    37c0:	0385                	addi	t2,t2,1
    37c2:	9672                	add	a2,a2,t3
    37c4:	9f72                	add	t5,t5,t3
    37c6:	95a2                	add	a1,a1,s0
    37c8:	ea7514e3          	bne	a0,t2,3670 <matrix_mul_matrix_bitextract+0x26>
    37cc:	4472                	lw	s0,28(sp)
    37ce:	44e2                	lw	s1,24(sp)
    37d0:	4952                	lw	s2,20(sp)
    37d2:	49c2                	lw	s3,16(sp)
    37d4:	4a32                	lw	s4,12(sp)
    37d6:	4aa2                	lw	s5,8(sp)
    37d8:	4b12                	lw	s6,4(sp)
    37da:	6105                	addi	sp,sp,32
    37dc:	8082                	ret
    37de:	8082                	ret

000037e0 <iterate>:
    37e0:	1101                	addi	sp,sp,-32
    37e2:	c64e                	sw	s3,12(sp)
    37e4:	01c52983          	lw	s3,28(a0)
    37e8:	ce06                	sw	ra,28(sp)
    37ea:	cc22                	sw	s0,24(sp)
    37ec:	ca26                	sw	s1,20(sp)
    37ee:	c84a                	sw	s2,16(sp)
    37f0:	c452                	sw	s4,8(sp)
    37f2:	c256                	sw	s5,4(sp)
    37f4:	02052c23          	sw	zero,56(a0)
    37f8:	02052e23          	sw	zero,60(a0)
    37fc:	16098663          	beqz	s3,3968 <iterate+0x188>
    3800:	0039f793          	andi	a5,s3,3
    3804:	842a                	mv	s0,a0
    3806:	4481                	li	s1,0
    3808:	cfc9                	beqz	a5,38a2 <iterate+0xc2>
    380a:	4705                	li	a4,1
    380c:	06e78263          	beq	a5,a4,3870 <iterate+0x90>
    3810:	4089                	li	ra,2
    3812:	02178863          	beq	a5,ra,3842 <iterate+0x62>
    3816:	4585                	li	a1,1
    3818:	81bfd0ef          	jal	ra,1032 <core_bench_list>
    381c:	03845583          	lhu	a1,56(s0)
    3820:	4485                	li	s1,1
    3822:	0f5000ef          	jal	ra,4116 <crcu16>
    3826:	02a41c23          	sh	a0,56(s0)
    382a:	55fd                	li	a1,-1
    382c:	8522                	mv	a0,s0
    382e:	805fd0ef          	jal	ra,1032 <core_bench_list>
    3832:	03845583          	lhu	a1,56(s0)
    3836:	0e1000ef          	jal	ra,4116 <crcu16>
    383a:	02a41c23          	sh	a0,56(s0)
    383e:	02a41d23          	sh	a0,58(s0)
    3842:	4585                	li	a1,1
    3844:	8522                	mv	a0,s0
    3846:	fecfd0ef          	jal	ra,1032 <core_bench_list>
    384a:	03845583          	lhu	a1,56(s0)
    384e:	0c9000ef          	jal	ra,4116 <crcu16>
    3852:	02a41c23          	sh	a0,56(s0)
    3856:	55fd                	li	a1,-1
    3858:	8522                	mv	a0,s0
    385a:	fd8fd0ef          	jal	ra,1032 <core_bench_list>
    385e:	03845583          	lhu	a1,56(s0)
    3862:	0b5000ef          	jal	ra,4116 <crcu16>
    3866:	02a41c23          	sh	a0,56(s0)
    386a:	10048e63          	beqz	s1,3986 <iterate+0x1a6>
    386e:	0485                	addi	s1,s1,1
    3870:	4585                	li	a1,1
    3872:	8522                	mv	a0,s0
    3874:	fbefd0ef          	jal	ra,1032 <core_bench_list>
    3878:	03845583          	lhu	a1,56(s0)
    387c:	09b000ef          	jal	ra,4116 <crcu16>
    3880:	02a41c23          	sh	a0,56(s0)
    3884:	55fd                	li	a1,-1
    3886:	8522                	mv	a0,s0
    3888:	faafd0ef          	jal	ra,1032 <core_bench_list>
    388c:	03845583          	lhu	a1,56(s0)
    3890:	087000ef          	jal	ra,4116 <crcu16>
    3894:	02a41c23          	sh	a0,56(s0)
    3898:	10048463          	beqz	s1,39a0 <iterate+0x1c0>
    389c:	0485                	addi	s1,s1,1
    389e:	0c998563          	beq	s3,s1,3968 <iterate+0x188>
    38a2:	4585                	li	a1,1
    38a4:	8522                	mv	a0,s0
    38a6:	f8cfd0ef          	jal	ra,1032 <core_bench_list>
    38aa:	03845583          	lhu	a1,56(s0)
    38ae:	00148913          	addi	s2,s1,1
    38b2:	065000ef          	jal	ra,4116 <crcu16>
    38b6:	02a41c23          	sh	a0,56(s0)
    38ba:	55fd                	li	a1,-1
    38bc:	8522                	mv	a0,s0
    38be:	f74fd0ef          	jal	ra,1032 <core_bench_list>
    38c2:	03845583          	lhu	a1,56(s0)
    38c6:	051000ef          	jal	ra,4116 <crcu16>
    38ca:	82aa                	mv	t0,a0
    38cc:	02541c23          	sh	t0,56(s0)
    38d0:	4585                	li	a1,1
    38d2:	8522                	mv	a0,s0
    38d4:	cccd                	beqz	s1,398e <iterate+0x1ae>
    38d6:	f5cfd0ef          	jal	ra,1032 <core_bench_list>
    38da:	03845583          	lhu	a1,56(s0)
    38de:	039000ef          	jal	ra,4116 <crcu16>
    38e2:	02a41c23          	sh	a0,56(s0)
    38e6:	55fd                	li	a1,-1
    38e8:	8522                	mv	a0,s0
    38ea:	f48fd0ef          	jal	ra,1032 <core_bench_list>
    38ee:	03845583          	lhu	a1,56(s0)
    38f2:	025000ef          	jal	ra,4116 <crcu16>
    38f6:	02a41c23          	sh	a0,56(s0)
    38fa:	0a090063          	beqz	s2,399a <iterate+0x1ba>
    38fe:	4585                	li	a1,1
    3900:	8522                	mv	a0,s0
    3902:	f30fd0ef          	jal	ra,1032 <core_bench_list>
    3906:	03845583          	lhu	a1,56(s0)
    390a:	00190a93          	addi	s5,s2,1
    390e:	00290a13          	addi	s4,s2,2
    3912:	005000ef          	jal	ra,4116 <crcu16>
    3916:	02a41c23          	sh	a0,56(s0)
    391a:	55fd                	li	a1,-1
    391c:	8522                	mv	a0,s0
    391e:	f14fd0ef          	jal	ra,1032 <core_bench_list>
    3922:	03845583          	lhu	a1,56(s0)
    3926:	00390493          	addi	s1,s2,3
    392a:	7ec000ef          	jal	ra,4116 <crcu16>
    392e:	832a                	mv	t1,a0
    3930:	02641c23          	sh	t1,56(s0)
    3934:	4585                	li	a1,1
    3936:	8522                	mv	a0,s0
    3938:	040a8e63          	beqz	s5,3994 <iterate+0x1b4>
    393c:	ef6fd0ef          	jal	ra,1032 <core_bench_list>
    3940:	03845583          	lhu	a1,56(s0)
    3944:	7d2000ef          	jal	ra,4116 <crcu16>
    3948:	02a41c23          	sh	a0,56(s0)
    394c:	55fd                	li	a1,-1
    394e:	8522                	mv	a0,s0
    3950:	ee2fd0ef          	jal	ra,1032 <core_bench_list>
    3954:	03845583          	lhu	a1,56(s0)
    3958:	7be000ef          	jal	ra,4116 <crcu16>
    395c:	02a41c23          	sh	a0,56(s0)
    3960:	000a0e63          	beqz	s4,397c <iterate+0x19c>
    3964:	f2999fe3          	bne	s3,s1,38a2 <iterate+0xc2>
    3968:	40f2                	lw	ra,28(sp)
    396a:	4462                	lw	s0,24(sp)
    396c:	44d2                	lw	s1,20(sp)
    396e:	4942                	lw	s2,16(sp)
    3970:	49b2                	lw	s3,12(sp)
    3972:	4a22                	lw	s4,8(sp)
    3974:	4a92                	lw	s5,4(sp)
    3976:	4501                	li	a0,0
    3978:	6105                	addi	sp,sp,32
    397a:	8082                	ret
    397c:	02a41d23          	sh	a0,58(s0)
    3980:	f29991e3          	bne	s3,s1,38a2 <iterate+0xc2>
    3984:	b7d5                	j	3968 <iterate+0x188>
    3986:	02a41d23          	sh	a0,58(s0)
    398a:	0485                	addi	s1,s1,1
    398c:	b5d5                	j	3870 <iterate+0x90>
    398e:	02541d23          	sh	t0,58(s0)
    3992:	b791                	j	38d6 <iterate+0xf6>
    3994:	02641d23          	sh	t1,58(s0)
    3998:	b755                	j	393c <iterate+0x15c>
    399a:	02a41d23          	sh	a0,58(s0)
    399e:	b785                	j	38fe <iterate+0x11e>
    39a0:	02a41d23          	sh	a0,58(s0)
    39a4:	bde5                	j	389c <iterate+0xbc>

000039a6 <main>:
    39a6:	7119                	addi	sp,sp,-128
    39a8:	0030                	addi	a2,sp,8
    39aa:	004c                	addi	a1,sp,4
    39ac:	04e10513          	addi	a0,sp,78
    39b0:	de86                	sw	ra,124(sp)
    39b2:	dca2                	sw	s0,120(sp)
    39b4:	daa6                	sw	s1,116(sp)
    39b6:	d8ca                	sw	s2,112(sp)
    39b8:	d6ce                	sw	s3,108(sp)
    39ba:	d4d2                	sw	s4,104(sp)
    39bc:	d2d6                	sw	s5,100(sp)
    39be:	d0da                	sw	s6,96(sp)
    39c0:	cede                	sw	s7,92(sp)
    39c2:	cce2                	sw	s8,88(sp)
    39c4:	cae6                	sw	s9,84(sp)
    39c6:	c8ea                	sw	s10,80(sp)
    39c8:	c202                	sw	zero,4(sp)
    39ca:	971fc0ef          	jal	ra,33a <portable_init>
    39ce:	4505                	li	a0,1
    39d0:	2bf9                	jal	3fae <get_seed_32>
    39d2:	00a11623          	sh	a0,12(sp)
    39d6:	4509                	li	a0,2
    39d8:	2bd9                	jal	3fae <get_seed_32>
    39da:	00a11723          	sh	a0,14(sp)
    39de:	450d                	li	a0,3
    39e0:	23f9                	jal	3fae <get_seed_32>
    39e2:	00a11823          	sh	a0,16(sp)
    39e6:	4511                	li	a0,4
    39e8:	23d9                	jal	3fae <get_seed_32>
    39ea:	d42a                	sw	a0,40(sp)
    39ec:	4515                	li	a0,5
    39ee:	23c1                	jal	3fae <get_seed_32>
    39f0:	16050163          	beqz	a0,3b52 <main+0x1ac>
    39f4:	87aa                	mv	a5,a0
    39f6:	d62a                	sw	a0,44(sp)
    39f8:	4732                	lw	a4,12(sp)
    39fa:	28071463          	bnez	a4,3c82 <main+0x2dc>
    39fe:	01011383          	lh	t2,16(sp)
    3a02:	28038c63          	beqz	t2,3c9a <main+0x2f4>
    3a06:	0017f913          	andi	s2,a5,1
    3a0a:	83418493          	addi	s1,gp,-1996 # 5e54 <static_memblk>
    3a0e:	0027f993          	andi	s3,a5,2
    3a12:	01091613          	slli	a2,s2,0x10
    3a16:	01065893          	srli	a7,a2,0x10
    3a1a:	01303533          	snez	a0,s3
    3a1e:	ca26                	sw	s1,20(sp)
    3a20:	04011623          	sh	zero,76(sp)
    3a24:	0047f813          	andi	a6,a5,4
    3a28:	00a88b33          	add	s6,a7,a0
    3a2c:	00080863          	beqz	a6,3a3c <main+0x96>
    3a30:	001b0a13          	addi	s4,s6,1
    3a34:	010a1a93          	slli	s5,s4,0x10
    3a38:	010adb13          	srli	s6,s5,0x10
    3a3c:	7d000b93          	li	s7,2000
    3a40:	036bd533          	divu	a0,s7,s6
    3a44:	4e01                	li	t3,0
    3a46:	d22a                	sw	a0,36(sp)
    3a48:	28091463          	bnez	s2,3cd0 <main+0x32a>
    3a4c:	26099463          	bnez	s3,3cb4 <main+0x30e>
    3a50:	24081a63          	bnez	a6,3ca4 <main+0x2fe>
    3a54:	0c091563          	bnez	s2,3b1e <main+0x178>
    3a58:	0c099e63          	bnez	s3,3b34 <main+0x18e>
    3a5c:	0047f693          	andi	a3,a5,4
    3a60:	c699                	beqz	a3,3a6e <main+0xc8>
    3a62:	5602                	lw	a2,32(sp)
    3a64:	00c11583          	lh	a1,12(sp)
    3a68:	5512                	lw	a0,36(sp)
    3a6a:	123000ef          	jal	ra,438c <core_init_state>
    3a6e:	52a2                	lw	t0,40(sp)
    3a70:	04029063          	bnez	t0,3ab0 <main+0x10a>
    3a74:	4685                	li	a3,1
    3a76:	a011                	j	3a7a <main+0xd4>
    3a78:	56a2                	lw	a3,40(sp)
    3a7a:	00269313          	slli	t1,a3,0x2
    3a7e:	00d303b3          	add	t2,t1,a3
    3a82:	00139413          	slli	s0,t2,0x1
    3a86:	d422                	sw	s0,40(sp)
    3a88:	87ffc0ef          	jal	ra,306 <start_time>
    3a8c:	0068                	addi	a0,sp,12
    3a8e:	3b89                	jal	37e0 <iterate>
    3a90:	881fc0ef          	jal	ra,310 <stop_time>
    3a94:	889fc0ef          	jal	ra,31c <get_time>
    3a98:	895fc0ef          	jal	ra,32c <time_in_secs>
    3a9c:	dd71                	beqz	a0,3a78 <main+0xd2>
    3a9e:	45a9                	li	a1,10
    3aa0:	02a5d4b3          	divu	s1,a1,a0
    3aa4:	59a2                	lw	s3,40(sp)
    3aa6:	00148913          	addi	s2,s1,1
    3aaa:	03298633          	mul	a2,s3,s2
    3aae:	d432                	sw	a2,40(sp)
    3ab0:	857fc0ef          	jal	ra,306 <start_time>
    3ab4:	0068                	addi	a0,sp,12
    3ab6:	332d                	jal	37e0 <iterate>
    3ab8:	859fc0ef          	jal	ra,310 <stop_time>
    3abc:	861fc0ef          	jal	ra,31c <get_time>
    3ac0:	89aa                	mv	s3,a0
    3ac2:	00c11503          	lh	a0,12(sp)
    3ac6:	4581                	li	a1,0
    3ac8:	0bf000ef          	jal	ra,4386 <crc16>
    3acc:	85aa                	mv	a1,a0
    3ace:	00e11503          	lh	a0,14(sp)
    3ad2:	0b5000ef          	jal	ra,4386 <crc16>
    3ad6:	85aa                	mv	a1,a0
    3ad8:	01011503          	lh	a0,16(sp)
    3adc:	0ab000ef          	jal	ra,4386 <crc16>
    3ae0:	85aa                	mv	a1,a0
    3ae2:	02411503          	lh	a0,36(sp)
    3ae6:	0a1000ef          	jal	ra,4386 <crc16>
    3aea:	68a1                	lui	a7,0x8
    3aec:	892a                	mv	s2,a0
    3aee:	b0588513          	addi	a0,a7,-1275 # 7b05 <__BSS_END__+0x14c5>
    3af2:	48a90f63          	beq	s2,a0,3f90 <main+0x5ea>
    3af6:	07256163          	bltu	a0,s2,3b58 <main+0x1b2>
    3afa:	6809                	lui	a6,0x2
    3afc:	8f280a13          	addi	s4,a6,-1806 # 18f2 <core_init_matrix+0x116>
    3b00:	49490063          	beq	s2,s4,3f80 <main+0x5da>
    3b04:	6a95                	lui	s5,0x5
    3b06:	eafa8b13          	addi	s6,s5,-337 # 4eaf <__udivdi3+0xdb>
    3b0a:	1d691863          	bne	s2,s6,3cda <main+0x334>
    3b0e:	00005bb7          	lui	s7,0x5
    3b12:	694b8513          	addi	a0,s7,1684 # 5694 <__umoddi3+0x488>
    3b16:	972fd0ef          	jal	ra,c88 <sc_printf>
    3b1a:	4e09                	li	t3,2
    3b1c:	a8b9                	j	3b7a <main+0x1d4>
    3b1e:	00c11603          	lh	a2,12(sp)
    3b22:	45e2                	lw	a1,24(sp)
    3b24:	ee0fd0ef          	jal	ra,1204 <core_list_init>
    3b28:	57b2                	lw	a5,44(sp)
    3b2a:	d82a                	sw	a0,48(sp)
    3b2c:	0027f993          	andi	s3,a5,2
    3b30:	f20986e3          	beqz	s3,3a5c <main+0xb6>
    3b34:	00e11783          	lh	a5,14(sp)
    3b38:	00c11703          	lh	a4,12(sp)
    3b3c:	45f2                	lw	a1,28(sp)
    3b3e:	5512                	lw	a0,36(sp)
    3b40:	01079093          	slli	ra,a5,0x10
    3b44:	1854                	addi	a3,sp,52
    3b46:	00e0e633          	or	a2,ra,a4
    3b4a:	c93fd0ef          	jal	ra,17dc <core_init_matrix>
    3b4e:	57b2                	lw	a5,44(sp)
    3b50:	b731                	j	3a5c <main+0xb6>
    3b52:	479d                	li	a5,7
    3b54:	d63e                	sw	a5,44(sp)
    3b56:	b54d                	j	39f8 <main+0x52>
    3b58:	6ca5                	lui	s9,0x9
    3b5a:	a02c8d13          	addi	s10,s9,-1534 # 8a02 <__BSS_END__+0x23c2>
    3b5e:	41a90963          	beq	s2,s10,3f70 <main+0x5ca>
    3b62:	6ebd                	lui	t4,0xf
    3b64:	9f5e8f13          	addi	t5,t4,-1547 # e9f5 <__BSS_END__+0x83b5>
    3b68:	17e91963          	bne	s2,t5,3cda <main+0x334>
    3b6c:	000057b7          	lui	a5,0x5
    3b70:	6c878513          	addi	a0,a5,1736 # 56c8 <__umoddi3+0x4bc>
    3b74:	914fd0ef          	jal	ra,c88 <sc_printf>
    3b78:	4e0d                	li	t3,3
    3b7a:	6b99                	lui	s7,0x6
    3b7c:	e20ba683          	lw	a3,-480(s7) # 5e20 <default_num_contexts>
    3b80:	4d01                	li	s10,0
    3b82:	4c01                	li	s8,0
    3b84:	40068e63          	beqz	a3,3fa0 <main+0x5fa>
    3b88:	6299                	lui	t0,0x6
    3b8a:	001e1313          	slli	t1,t3,0x1
    3b8e:	c7c28393          	addi	t2,t0,-900 # 5c7c <list_known_crc>
    3b92:	00638cb3          	add	s9,t2,t1
    3b96:	00005b37          	lui	s6,0x5
    3b9a:	00005ab7          	lui	s5,0x5
    3b9e:	00005a37          	lui	s4,0x5
    3ba2:	a825                	j	3bda <main+0x234>
    3ba4:	01840333          	add	t1,s0,s8
    3ba8:	00231393          	slli	t2,t1,0x2
    3bac:	0880                	addi	s0,sp,80
    3bae:	007405b3          	add	a1,s0,t2
    3bb2:	ffc59f03          	lh	t5,-4(a1)
    3bb6:	9d7a                	add	s10,s10,t5
    3bb8:	0c05                	addi	s8,s8,1
    3bba:	010d1713          	slli	a4,s10,0x10
    3bbe:	e20baf83          	lw	t6,-480(s7)
    3bc2:	01075413          	srli	s0,a4,0x10
    3bc6:	010c1693          	slli	a3,s8,0x10
    3bca:	01041793          	slli	a5,s0,0x10
    3bce:	0106dc13          	srli	s8,a3,0x10
    3bd2:	4107dd13          	srai	s10,a5,0x10
    3bd6:	11fc7663          	bleu	t6,s8,3ce2 <main+0x33c>
    3bda:	004c1413          	slli	s0,s8,0x4
    3bde:	018405b3          	add	a1,s0,s8
    3be2:	00259493          	slli	s1,a1,0x2
    3be6:	0890                	addi	a2,sp,80
    3be8:	94b2                	add	s1,s1,a2
    3bea:	fdc4a883          	lw	a7,-36(s1)
    3bee:	fe049e23          	sh	zero,-4(s1)
    3bf2:	0018f513          	andi	a0,a7,1
    3bf6:	c115                	beqz	a0,3c1a <main+0x274>
    3bf8:	ff64d603          	lhu	a2,-10(s1)
    3bfc:	000cd683          	lhu	a3,0(s9)
    3c00:	00d60d63          	beq	a2,a3,3c1a <main+0x274>
    3c04:	85e2                	mv	a1,s8
    3c06:	724b0513          	addi	a0,s6,1828 # 5724 <__umoddi3+0x518>
    3c0a:	87efd0ef          	jal	ra,c88 <sc_printf>
    3c0e:	ffc4d803          	lhu	a6,-4(s1)
    3c12:	00180e13          	addi	t3,a6,1
    3c16:	ffc49e23          	sh	t3,-4(s1)
    3c1a:	01840eb3          	add	t4,s0,s8
    3c1e:	002e9f13          	slli	t5,t4,0x2
    3c22:	05010f93          	addi	t6,sp,80
    3c26:	01ef84b3          	add	s1,t6,t5
    3c2a:	fdc4a783          	lw	a5,-36(s1)
    3c2e:	0027f713          	andi	a4,a5,2
    3c32:	c705                	beqz	a4,3c5a <main+0x2b4>
    3c34:	ff84d603          	lhu	a2,-8(s1)
    3c38:	00ccd683          	lhu	a3,12(s9)
    3c3c:	00d60f63          	beq	a2,a3,3c5a <main+0x2b4>
    3c40:	85e2                	mv	a1,s8
    3c42:	754a8513          	addi	a0,s5,1876 # 5754 <__umoddi3+0x548>
    3c46:	842fd0ef          	jal	ra,c88 <sc_printf>
    3c4a:	ffc4d683          	lhu	a3,-4(s1)
    3c4e:	fdc4a783          	lw	a5,-36(s1)
    3c52:	00168293          	addi	t0,a3,1
    3c56:	fe549e23          	sh	t0,-4(s1)
    3c5a:	0047f093          	andi	ra,a5,4
    3c5e:	f40083e3          	beqz	ra,3ba4 <main+0x1fe>
    3c62:	01840633          	add	a2,s0,s8
    3c66:	00261893          	slli	a7,a2,0x2
    3c6a:	0888                	addi	a0,sp,80
    3c6c:	011504b3          	add	s1,a0,a7
    3c70:	ffa4d603          	lhu	a2,-6(s1)
    3c74:	018cd683          	lhu	a3,24(s9)
    3c78:	28d61563          	bne	a2,a3,3f02 <main+0x55c>
    3c7c:	ffc49f03          	lh	t5,-4(s1)
    3c80:	bf1d                	j	3bb6 <main+0x210>
    3c82:	4685                	li	a3,1
    3c84:	d8d711e3          	bne	a4,a3,3a06 <main+0x60>
    3c88:	01011083          	lh	ra,16(sp)
    3c8c:	d6009de3          	bnez	ra,3a06 <main+0x60>
    3c90:	341532b7          	lui	t0,0x34153
    3c94:	41528313          	addi	t1,t0,1045 # 34153415 <__C_STACK_TOP__+0x34143415>
    3c98:	c61a                	sw	t1,12(sp)
    3c9a:	06600413          	li	s0,102
    3c9e:	00811823          	sh	s0,16(sp)
    3ca2:	b395                	j	3a06 <main+0x60>
    3ca4:	02ae0f33          	mul	t5,t3,a0
    3ca8:	01e48fb3          	add	t6,s1,t5
    3cac:	d07e                	sw	t6,32(sp)
    3cae:	da0905e3          	beqz	s2,3a58 <main+0xb2>
    3cb2:	b5b5                	j	3b1e <main+0x178>
    3cb4:	02ae0c33          	mul	s8,t3,a0
    3cb8:	001e0c93          	addi	s9,t3,1
    3cbc:	010c9d13          	slli	s10,s9,0x10
    3cc0:	010d5e13          	srli	t3,s10,0x10
    3cc4:	01848eb3          	add	t4,s1,s8
    3cc8:	ce76                	sw	t4,28(sp)
    3cca:	d80805e3          	beqz	a6,3a54 <main+0xae>
    3cce:	bfd9                	j	3ca4 <main+0x2fe>
    3cd0:	cc26                	sw	s1,24(sp)
    3cd2:	4e05                	li	t3,1
    3cd4:	d6098ee3          	beqz	s3,3a50 <main+0xaa>
    3cd8:	bff1                	j	3cb4 <main+0x30e>
    3cda:	6fc1                	lui	t6,0x10
    3cdc:	ffff8413          	addi	s0,t6,-1 # ffff <__BSS_END__+0x99bf>
    3ce0:	6b99                	lui	s7,0x6
    3ce2:	2621                	jal	3fea <check_data_types>
    3ce4:	5592                	lw	a1,36(sp)
    3ce6:	00005b37          	lui	s6,0x5
    3cea:	00a40cb3          	add	s9,s0,a0
    3cee:	7b8b0513          	addi	a0,s6,1976 # 57b8 <__umoddi3+0x5ac>
    3cf2:	f97fc0ef          	jal	ra,c88 <sc_printf>
    3cf6:	00005a37          	lui	s4,0x5
    3cfa:	85ce                	mv	a1,s3
    3cfc:	7d0a0513          	addi	a0,s4,2000 # 57d0 <__umoddi3+0x5c4>
    3d00:	f89fc0ef          	jal	ra,c88 <sc_printf>
    3d04:	854e                	mv	a0,s3
    3d06:	e26fc0ef          	jal	ra,32c <time_in_secs>
    3d0a:	000052b7          	lui	t0,0x5
    3d0e:	85aa                	mv	a1,a0
    3d10:	7e828513          	addi	a0,t0,2024 # 57e8 <__umoddi3+0x5dc>
    3d14:	f75fc0ef          	jal	ra,c88 <sc_printf>
    3d18:	010c9a93          	slli	s5,s9,0x10
    3d1c:	854e                	mv	a0,s3
    3d1e:	010ad413          	srli	s0,s5,0x10
    3d22:	e0afc0ef          	jal	ra,32c <time_in_secs>
    3d26:	20051663          	bnez	a0,3f32 <main+0x58c>
    3d2a:	854e                	mv	a0,s3
    3d2c:	e00fc0ef          	jal	ra,32c <time_in_secs>
    3d30:	49a5                	li	s3,9
    3d32:	1ea9f863          	bleu	a0,s3,3f22 <main+0x57c>
    3d36:	e20ba883          	lw	a7,-480(s7) # 5e20 <default_num_contexts>
    3d3a:	5822                	lw	a6,40(sp)
    3d3c:	00006537          	lui	a0,0x6
    3d40:	01041613          	slli	a2,s0,0x10
    3d44:	031805b3          	mul	a1,a6,a7
    3d48:	85850513          	addi	a0,a0,-1960 # 5858 <__umoddi3+0x64c>
    3d4c:	41065c13          	srai	s8,a2,0x10
    3d50:	f39fc0ef          	jal	ra,c88 <sc_printf>
    3d54:	00006e37          	lui	t3,0x6
    3d58:	00006eb7          	lui	t4,0x6
    3d5c:	870e0593          	addi	a1,t3,-1936 # 5870 <__umoddi3+0x664>
    3d60:	884e8513          	addi	a0,t4,-1916 # 5884 <__umoddi3+0x678>
    3d64:	f25fc0ef          	jal	ra,c88 <sc_printf>
    3d68:	00006f37          	lui	t5,0x6
    3d6c:	00006fb7          	lui	t6,0x6
    3d70:	89cf0593          	addi	a1,t5,-1892 # 589c <__umoddi3+0x690>
    3d74:	8d4f8513          	addi	a0,t6,-1836 # 58d4 <__umoddi3+0x6c8>
    3d78:	f11fc0ef          	jal	ra,c88 <sc_printf>
    3d7c:	000066b7          	lui	a3,0x6
    3d80:	00006737          	lui	a4,0x6
    3d84:	8ec70593          	addi	a1,a4,-1812 # 58ec <__umoddi3+0x6e0>
    3d88:	8f468513          	addi	a0,a3,-1804 # 58f4 <__umoddi3+0x6e8>
    3d8c:	efdfc0ef          	jal	ra,c88 <sc_printf>
    3d90:	85ca                	mv	a1,s2
    3d92:	00006937          	lui	s2,0x6
    3d96:	90c90513          	addi	a0,s2,-1780 # 590c <__umoddi3+0x700>
    3d9a:	eeffc0ef          	jal	ra,c88 <sc_printf>
    3d9e:	56b2                	lw	a3,44(sp)
    3da0:	0016fd13          	andi	s10,a3,1
    3da4:	040d0563          	beqz	s10,3dee <main+0x448>
    3da8:	e20bac83          	lw	s9,-480(s7)
    3dac:	040c8163          	beqz	s9,3dee <main+0x448>
    3db0:	4981                	li	s3,0
    3db2:	00006b37          	lui	s6,0x6
    3db6:	00499793          	slli	a5,s3,0x4
    3dba:	01378ab3          	add	s5,a5,s3
    3dbe:	05010293          	addi	t0,sp,80
    3dc2:	002a9a13          	slli	s4,s5,0x2
    3dc6:	014280b3          	add	ra,t0,s4
    3dca:	ff60d603          	lhu	a2,-10(ra)
    3dce:	85ce                	mv	a1,s3
    3dd0:	928b0513          	addi	a0,s6,-1752 # 5928 <__umoddi3+0x71c>
    3dd4:	eb5fc0ef          	jal	ra,c88 <sc_printf>
    3dd8:	00198493          	addi	s1,s3,1
    3ddc:	e20ba303          	lw	t1,-480(s7)
    3de0:	01049393          	slli	t2,s1,0x10
    3de4:	0103d993          	srli	s3,t2,0x10
    3de8:	fc69e7e3          	bltu	s3,t1,3db6 <main+0x410>
    3dec:	56b2                	lw	a3,44(sp)
    3dee:	0026f593          	andi	a1,a3,2
    3df2:	c5a1                	beqz	a1,3e3a <main+0x494>
    3df4:	e20ba403          	lw	s0,-480(s7)
    3df8:	1a040663          	beqz	s0,3fa4 <main+0x5fe>
    3dfc:	4d01                	li	s10,0
    3dfe:	00006937          	lui	s2,0x6
    3e02:	004d1893          	slli	a7,s10,0x4
    3e06:	01a88533          	add	a0,a7,s10
    3e0a:	00251813          	slli	a6,a0,0x2
    3e0e:	05010e13          	addi	t3,sp,80
    3e12:	010e0eb3          	add	t4,t3,a6
    3e16:	ff8ed603          	lhu	a2,-8(t4)
    3e1a:	85ea                	mv	a1,s10
    3e1c:	94490513          	addi	a0,s2,-1724 # 5944 <__umoddi3+0x738>
    3e20:	e69fc0ef          	jal	ra,c88 <sc_printf>
    3e24:	001d0f93          	addi	t6,s10,1
    3e28:	e20baf03          	lw	t5,-480(s7)
    3e2c:	010f9713          	slli	a4,t6,0x10
    3e30:	01075d13          	srli	s10,a4,0x10
    3e34:	fded67e3          	bltu	s10,t5,3e02 <main+0x45c>
    3e38:	56b2                	lw	a3,44(sp)
    3e3a:	0046fc93          	andi	s9,a3,4
    3e3e:	040c8463          	beqz	s9,3e86 <main+0x4e0>
    3e42:	e20bab03          	lw	s6,-480(s7)
    3e46:	080b0163          	beqz	s6,3ec8 <main+0x522>
    3e4a:	4401                	li	s0,0
    3e4c:	00006ab7          	lui	s5,0x6
    3e50:	00441793          	slli	a5,s0,0x4
    3e54:	00878a33          	add	s4,a5,s0
    3e58:	002a1293          	slli	t0,s4,0x2
    3e5c:	05010093          	addi	ra,sp,80
    3e60:	00508333          	add	t1,ra,t0
    3e64:	ffa35603          	lhu	a2,-6(t1)
    3e68:	85a2                	mv	a1,s0
    3e6a:	960a8513          	addi	a0,s5,-1696 # 5960 <__umoddi3+0x754>
    3e6e:	e1bfc0ef          	jal	ra,c88 <sc_printf>
    3e72:	00140393          	addi	t2,s0,1
    3e76:	e20ba483          	lw	s1,-480(s7)
    3e7a:	01039993          	slli	s3,t2,0x10
    3e7e:	0109d413          	srli	s0,s3,0x10
    3e82:	fc9467e3          	bltu	s0,s1,3e50 <main+0x4aa>
    3e86:	e20ba583          	lw	a1,-480(s7)
    3e8a:	cd9d                	beqz	a1,3ec8 <main+0x522>
    3e8c:	4d01                	li	s10,0
    3e8e:	00006937          	lui	s2,0x6
    3e92:	004d1613          	slli	a2,s10,0x4
    3e96:	01a608b3          	add	a7,a2,s10
    3e9a:	00289513          	slli	a0,a7,0x2
    3e9e:	05010813          	addi	a6,sp,80
    3ea2:	00a80e33          	add	t3,a6,a0
    3ea6:	ff4e5603          	lhu	a2,-12(t3)
    3eaa:	85ea                	mv	a1,s10
    3eac:	97c90513          	addi	a0,s2,-1668 # 597c <__umoddi3+0x770>
    3eb0:	dd9fc0ef          	jal	ra,c88 <sc_printf>
    3eb4:	001d0f13          	addi	t5,s10,1
    3eb8:	e20bae83          	lw	t4,-480(s7)
    3ebc:	010f1f93          	slli	t6,t5,0x10
    3ec0:	010fdd13          	srli	s10,t6,0x10
    3ec4:	fddd67e3          	bltu	s10,t4,3e92 <main+0x4ec>
    3ec8:	080c0663          	beqz	s8,3f54 <main+0x5ae>
    3ecc:	09805b63          	blez	s8,3f62 <main+0x5bc>
    3ed0:	00006c37          	lui	s8,0x6
    3ed4:	9e4c0513          	addi	a0,s8,-1564 # 59e4 <__umoddi3+0x7d8>
    3ed8:	db1fc0ef          	jal	ra,c88 <sc_printf>
    3edc:	04e10513          	addi	a0,sp,78
    3ee0:	c7cfc0ef          	jal	ra,35c <portable_fini>
    3ee4:	50f6                	lw	ra,124(sp)
    3ee6:	5466                	lw	s0,120(sp)
    3ee8:	54d6                	lw	s1,116(sp)
    3eea:	5946                	lw	s2,112(sp)
    3eec:	59b6                	lw	s3,108(sp)
    3eee:	5a26                	lw	s4,104(sp)
    3ef0:	5a96                	lw	s5,100(sp)
    3ef2:	5b06                	lw	s6,96(sp)
    3ef4:	4bf6                	lw	s7,92(sp)
    3ef6:	4c66                	lw	s8,88(sp)
    3ef8:	4cd6                	lw	s9,84(sp)
    3efa:	4d46                	lw	s10,80(sp)
    3efc:	4501                	li	a0,0
    3efe:	6109                	addi	sp,sp,128
    3f00:	8082                	ret
    3f02:	85e2                	mv	a1,s8
    3f04:	788a0513          	addi	a0,s4,1928
    3f08:	d81fc0ef          	jal	ra,c88 <sc_printf>
    3f0c:	ffc4d803          	lhu	a6,-4(s1)
    3f10:	00180e13          	addi	t3,a6,1
    3f14:	010e1e93          	slli	t4,t3,0x10
    3f18:	410edf13          	srai	t5,t4,0x10
    3f1c:	ffe49e23          	sh	t5,-4(s1)
    3f20:	b959                	j	3bb6 <main+0x210>
    3f22:	000065b7          	lui	a1,0x6
    3f26:	81858513          	addi	a0,a1,-2024 # 5818 <__umoddi3+0x60c>
    3f2a:	d5ffc0ef          	jal	ra,c88 <sc_printf>
    3f2e:	0405                	addi	s0,s0,1
    3f30:	b519                	j	3d36 <main+0x390>
    3f32:	e20ba083          	lw	ra,-480(s7)
    3f36:	5322                	lw	t1,40(sp)
    3f38:	854e                	mv	a0,s3
    3f3a:	021304b3          	mul	s1,t1,ra
    3f3e:	beefc0ef          	jal	ra,32c <time_in_secs>
    3f42:	000063b7          	lui	t2,0x6
    3f46:	02a4d5b3          	divu	a1,s1,a0
    3f4a:	80038513          	addi	a0,t2,-2048 # 5800 <__umoddi3+0x5f4>
    3f4e:	d3bfc0ef          	jal	ra,c88 <sc_printf>
    3f52:	bbe1                	j	3d2a <main+0x384>
    3f54:	00006737          	lui	a4,0x6
    3f58:	99870513          	addi	a0,a4,-1640 # 5998 <__umoddi3+0x78c>
    3f5c:	d2dfc0ef          	jal	ra,c88 <sc_printf>
    3f60:	bfb5                	j	3edc <main+0x536>
    3f62:	00006bb7          	lui	s7,0x6
    3f66:	9f8b8513          	addi	a0,s7,-1544 # 59f8 <__umoddi3+0x7ec>
    3f6a:	d1ffc0ef          	jal	ra,c88 <sc_printf>
    3f6e:	b7bd                	j	3edc <main+0x536>
    3f70:	00005737          	lui	a4,0x5
    3f74:	63870513          	addi	a0,a4,1592 # 5638 <__umoddi3+0x42c>
    3f78:	d11fc0ef          	jal	ra,c88 <sc_printf>
    3f7c:	4e01                	li	t3,0
    3f7e:	bef5                	j	3b7a <main+0x1d4>
    3f80:	00005c37          	lui	s8,0x5
    3f84:	6f8c0513          	addi	a0,s8,1784 # 56f8 <__umoddi3+0x4ec>
    3f88:	d01fc0ef          	jal	ra,c88 <sc_printf>
    3f8c:	4e11                	li	t3,4
    3f8e:	b6f5                	j	3b7a <main+0x1d4>
    3f90:	000050b7          	lui	ra,0x5
    3f94:	66808513          	addi	a0,ra,1640 # 5668 <__umoddi3+0x45c>
    3f98:	cf1fc0ef          	jal	ra,c88 <sc_printf>
    3f9c:	4e05                	li	t3,1
    3f9e:	bef1                	j	3b7a <main+0x1d4>
    3fa0:	4401                	li	s0,0
    3fa2:	b381                	j	3ce2 <main+0x33c>
    3fa4:	0046f613          	andi	a2,a3,4
    3fa8:	f20610e3          	bnez	a2,3ec8 <main+0x522>
    3fac:	bde9                	j	3e86 <main+0x4e0>

00003fae <get_seed_32>:
    3fae:	4795                	li	a5,5
    3fb0:	02a7eb63          	bltu	a5,a0,3fe6 <get_seed_32+0x38>
    3fb4:	6299                	lui	t0,0x6
    3fb6:	050a                	slli	a0,a0,0x2
    3fb8:	ca028313          	addi	t1,t0,-864 # 5ca0 <state_known_crc+0xc>
    3fbc:	006503b3          	add	t2,a0,t1
    3fc0:	0003a583          	lw	a1,0(t2)
    3fc4:	8582                	jr	a1
    3fc6:	8281a503          	lw	a0,-2008(gp) # 5e48 <seed5_volatile>
    3fca:	8082                	ret
    3fcc:	8301a503          	lw	a0,-2000(gp) # 5e50 <seed1_volatile>
    3fd0:	8082                	ret
    3fd2:	82c1a503          	lw	a0,-2004(gp) # 5e4c <seed2_volatile>
    3fd6:	8082                	ret
    3fd8:	8081a503          	lw	a0,-2040(gp) # 5e28 <seed3_volatile>
    3fdc:	8082                	ret
    3fde:	6699                	lui	a3,0x6
    3fe0:	e246a503          	lw	a0,-476(a3) # 5e24 <seed4_volatile>
    3fe4:	8082                	ret
    3fe6:	4501                	li	a0,0
    3fe8:	8082                	ret

00003fea <check_data_types>:
    3fea:	4501                	li	a0,0
    3fec:	8082                	ret

00003fee <crcu8>:
    3fee:	00b546b3          	xor	a3,a0,a1
    3ff2:	0016f293          	andi	t0,a3,1
    3ff6:	00155713          	srli	a4,a0,0x1
    3ffa:	0015d613          	srli	a2,a1,0x1
    3ffe:	00028b63          	beqz	t0,4014 <crcu8+0x26>
    4002:	7369                	lui	t1,0xffffa
    4004:	00130393          	addi	t2,t1,1 # ffffa001 <__C_STACK_TOP__+0xfffea001>
    4008:	007647b3          	xor	a5,a2,t2
    400c:	01079593          	slli	a1,a5,0x10
    4010:	0105d613          	srli	a2,a1,0x10
    4014:	00e64833          	xor	a6,a2,a4
    4018:	00187893          	andi	a7,a6,1
    401c:	00255e13          	srli	t3,a0,0x2
    4020:	00165293          	srli	t0,a2,0x1
    4024:	00088b63          	beqz	a7,403a <crcu8+0x4c>
    4028:	7ee9                	lui	t4,0xffffa
    402a:	001e8f13          	addi	t5,t4,1 # ffffa001 <__C_STACK_TOP__+0xfffea001>
    402e:	01e2cfb3          	xor	t6,t0,t5
    4032:	010f9693          	slli	a3,t6,0x10
    4036:	0106d293          	srli	t0,a3,0x10
    403a:	01c2c733          	xor	a4,t0,t3
    403e:	00177313          	andi	t1,a4,1
    4042:	00355393          	srli	t2,a0,0x3
    4046:	0012d893          	srli	a7,t0,0x1
    404a:	00030b63          	beqz	t1,4060 <crcu8+0x72>
    404e:	75e9                	lui	a1,0xffffa
    4050:	00158613          	addi	a2,a1,1 # ffffa001 <__C_STACK_TOP__+0xfffea001>
    4054:	00c8c7b3          	xor	a5,a7,a2
    4058:	01079813          	slli	a6,a5,0x10
    405c:	01085893          	srli	a7,a6,0x10
    4060:	0078ce33          	xor	t3,a7,t2
    4064:	001e7e93          	andi	t4,t3,1
    4068:	00455f13          	srli	t5,a0,0x4
    406c:	0018d313          	srli	t1,a7,0x1
    4070:	000e8b63          	beqz	t4,4086 <crcu8+0x98>
    4074:	7fe9                	lui	t6,0xffffa
    4076:	001f8693          	addi	a3,t6,1 # ffffa001 <__C_STACK_TOP__+0xfffea001>
    407a:	00d342b3          	xor	t0,t1,a3
    407e:	01029713          	slli	a4,t0,0x10
    4082:	01075313          	srli	t1,a4,0x10
    4086:	01e343b3          	xor	t2,t1,t5
    408a:	0013f593          	andi	a1,t2,1
    408e:	00555613          	srli	a2,a0,0x5
    4092:	00135e93          	srli	t4,t1,0x1
    4096:	c991                	beqz	a1,40aa <crcu8+0xbc>
    4098:	7869                	lui	a6,0xffffa
    409a:	00180893          	addi	a7,a6,1 # ffffa001 <__C_STACK_TOP__+0xfffea001>
    409e:	011ec7b3          	xor	a5,t4,a7
    40a2:	01079e13          	slli	t3,a5,0x10
    40a6:	010e5e93          	srli	t4,t3,0x10
    40aa:	00cecf33          	xor	t5,t4,a2
    40ae:	001f7f93          	andi	t6,t5,1
    40b2:	00655693          	srli	a3,a0,0x6
    40b6:	001ed593          	srli	a1,t4,0x1
    40ba:	000f8b63          	beqz	t6,40d0 <crcu8+0xe2>
    40be:	72e9                	lui	t0,0xffffa
    40c0:	00128713          	addi	a4,t0,1 # ffffa001 <__C_STACK_TOP__+0xfffea001>
    40c4:	00e5c333          	xor	t1,a1,a4
    40c8:	01031393          	slli	t2,t1,0x10
    40cc:	0103d593          	srli	a1,t2,0x10
    40d0:	00d5c633          	xor	a2,a1,a3
    40d4:	00167813          	andi	a6,a2,1
    40d8:	00755893          	srli	a7,a0,0x7
    40dc:	0015df13          	srli	t5,a1,0x1
    40e0:	00080b63          	beqz	a6,40f6 <crcu8+0x108>
    40e4:	77e9                	lui	a5,0xffffa
    40e6:	00178e13          	addi	t3,a5,1 # ffffa001 <__C_STACK_TOP__+0xfffea001>
    40ea:	01cf4533          	xor	a0,t5,t3
    40ee:	01051e93          	slli	t4,a0,0x10
    40f2:	010edf13          	srli	t5,t4,0x10
    40f6:	001f7f93          	andi	t6,t5,1
    40fa:	001f5513          	srli	a0,t5,0x1
    40fe:	011f8b63          	beq	t6,a7,4114 <crcu8+0x126>
    4102:	76e9                	lui	a3,0xffffa
    4104:	00168293          	addi	t0,a3,1 # ffffa001 <__C_STACK_TOP__+0xfffea001>
    4108:	00554733          	xor	a4,a0,t0
    410c:	01071313          	slli	t1,a4,0x10
    4110:	01035513          	srli	a0,t1,0x10
    4114:	8082                	ret

00004116 <crcu16>:
    4116:	00a5c733          	xor	a4,a1,a0
    411a:	0ff57693          	andi	a3,a0,255
    411e:	00177293          	andi	t0,a4,1
    4122:	0016d613          	srli	a2,a3,0x1
    4126:	0015d813          	srli	a6,a1,0x1
    412a:	00028b63          	beqz	t0,4140 <crcu16+0x2a>
    412e:	7369                	lui	t1,0xffffa
    4130:	00130393          	addi	t2,t1,1 # ffffa001 <__C_STACK_TOP__+0xfffea001>
    4134:	007847b3          	xor	a5,a6,t2
    4138:	01079593          	slli	a1,a5,0x10
    413c:	0105d813          	srli	a6,a1,0x10
    4140:	00c848b3          	xor	a7,a6,a2
    4144:	0018fe13          	andi	t3,a7,1
    4148:	0026de93          	srli	t4,a3,0x2
    414c:	00185313          	srli	t1,a6,0x1
    4150:	000e0b63          	beqz	t3,4166 <crcu16+0x50>
    4154:	7f69                	lui	t5,0xffffa
    4156:	001f0f93          	addi	t6,t5,1 # ffffa001 <__C_STACK_TOP__+0xfffea001>
    415a:	01f34733          	xor	a4,t1,t6
    415e:	01071293          	slli	t0,a4,0x10
    4162:	0102d313          	srli	t1,t0,0x10
    4166:	01d34633          	xor	a2,t1,t4
    416a:	00167393          	andi	t2,a2,1
    416e:	0036d593          	srli	a1,a3,0x3
    4172:	00135e93          	srli	t4,t1,0x1
    4176:	00038b63          	beqz	t2,418c <crcu16+0x76>
    417a:	7869                	lui	a6,0xffffa
    417c:	00180893          	addi	a7,a6,1 # ffffa001 <__C_STACK_TOP__+0xfffea001>
    4180:	011ec7b3          	xor	a5,t4,a7
    4184:	01079e13          	slli	t3,a5,0x10
    4188:	010e5e93          	srli	t4,t3,0x10
    418c:	00becf33          	xor	t5,t4,a1
    4190:	001f7f93          	andi	t6,t5,1
    4194:	0046d713          	srli	a4,a3,0x4
    4198:	001ed593          	srli	a1,t4,0x1
    419c:	000f8b63          	beqz	t6,41b2 <crcu16+0x9c>
    41a0:	72e9                	lui	t0,0xffffa
    41a2:	00128313          	addi	t1,t0,1 # ffffa001 <__C_STACK_TOP__+0xfffea001>
    41a6:	0065c633          	xor	a2,a1,t1
    41aa:	01061393          	slli	t2,a2,0x10
    41ae:	0103d593          	srli	a1,t2,0x10
    41b2:	00e5c833          	xor	a6,a1,a4
    41b6:	00187893          	andi	a7,a6,1
    41ba:	0056de13          	srli	t3,a3,0x5
    41be:	0015d293          	srli	t0,a1,0x1
    41c2:	00088b63          	beqz	a7,41d8 <crcu16+0xc2>
    41c6:	7ee9                	lui	t4,0xffffa
    41c8:	001e8f13          	addi	t5,t4,1 # ffffa001 <__C_STACK_TOP__+0xfffea001>
    41cc:	01e2c7b3          	xor	a5,t0,t5
    41d0:	01079f93          	slli	t6,a5,0x10
    41d4:	010fd293          	srli	t0,t6,0x10
    41d8:	01c2c733          	xor	a4,t0,t3
    41dc:	00177313          	andi	t1,a4,1
    41e0:	0066d393          	srli	t2,a3,0x6
    41e4:	0012de13          	srli	t3,t0,0x1
    41e8:	00030b63          	beqz	t1,41fe <crcu16+0xe8>
    41ec:	7669                	lui	a2,0xffffa
    41ee:	00160593          	addi	a1,a2,1 # ffffa001 <__C_STACK_TOP__+0xfffea001>
    41f2:	00be4833          	xor	a6,t3,a1
    41f6:	01081893          	slli	a7,a6,0x10
    41fa:	0108de13          	srli	t3,a7,0x10
    41fe:	007e4eb3          	xor	t4,t3,t2
    4202:	001eff13          	andi	t5,t4,1
    4206:	829d                	srli	a3,a3,0x7
    4208:	001e5313          	srli	t1,t3,0x1
    420c:	000f0b63          	beqz	t5,4222 <crcu16+0x10c>
    4210:	7fe9                	lui	t6,0xffffa
    4212:	001f8293          	addi	t0,t6,1 # ffffa001 <__C_STACK_TOP__+0xfffea001>
    4216:	005347b3          	xor	a5,t1,t0
    421a:	01079713          	slli	a4,a5,0x10
    421e:	01075313          	srli	t1,a4,0x10
    4222:	00137393          	andi	t2,t1,1
    4226:	00135e13          	srli	t3,t1,0x1
    422a:	00d38b63          	beq	t2,a3,4240 <crcu16+0x12a>
    422e:	7669                	lui	a2,0xffffa
    4230:	00160593          	addi	a1,a2,1 # ffffa001 <__C_STACK_TOP__+0xfffea001>
    4234:	00be4833          	xor	a6,t3,a1
    4238:	01081893          	slli	a7,a6,0x10
    423c:	0108de13          	srli	t3,a7,0x10
    4240:	8121                	srli	a0,a0,0x8
    4242:	01c54eb3          	xor	t4,a0,t3
    4246:	0ff57f13          	andi	t5,a0,255
    424a:	001eff93          	andi	t6,t4,1
    424e:	001f5693          	srli	a3,t5,0x1
    4252:	001e5393          	srli	t2,t3,0x1
    4256:	000f8b63          	beqz	t6,426c <crcu16+0x156>
    425a:	72e9                	lui	t0,0xffffa
    425c:	00128793          	addi	a5,t0,1 # ffffa001 <__C_STACK_TOP__+0xfffea001>
    4260:	00f3c733          	xor	a4,t2,a5
    4264:	01071313          	slli	t1,a4,0x10
    4268:	01035393          	srli	t2,t1,0x10
    426c:	0076c633          	xor	a2,a3,t2
    4270:	00167593          	andi	a1,a2,1
    4274:	002f5813          	srli	a6,t5,0x2
    4278:	0013df93          	srli	t6,t2,0x1
    427c:	c991                	beqz	a1,4290 <crcu16+0x17a>
    427e:	78e9                	lui	a7,0xffffa
    4280:	00188e13          	addi	t3,a7,1 # ffffa001 <__C_STACK_TOP__+0xfffea001>
    4284:	01cfc533          	xor	a0,t6,t3
    4288:	01051e93          	slli	t4,a0,0x10
    428c:	010edf93          	srli	t6,t4,0x10
    4290:	010fc6b3          	xor	a3,t6,a6
    4294:	0016f293          	andi	t0,a3,1
    4298:	003f5713          	srli	a4,t5,0x3
    429c:	001fd593          	srli	a1,t6,0x1
    42a0:	00028b63          	beqz	t0,42b6 <crcu16+0x1a0>
    42a4:	77e9                	lui	a5,0xffffa
    42a6:	00178313          	addi	t1,a5,1 # ffffa001 <__C_STACK_TOP__+0xfffea001>
    42aa:	0065c3b3          	xor	t2,a1,t1
    42ae:	01039613          	slli	a2,t2,0x10
    42b2:	01065593          	srli	a1,a2,0x10
    42b6:	00e5c833          	xor	a6,a1,a4
    42ba:	00187893          	andi	a7,a6,1
    42be:	004f5e13          	srli	t3,t5,0x4
    42c2:	0015d293          	srli	t0,a1,0x1
    42c6:	00088b63          	beqz	a7,42dc <crcu16+0x1c6>
    42ca:	7ee9                	lui	t4,0xffffa
    42cc:	001e8f93          	addi	t6,t4,1 # ffffa001 <__C_STACK_TOP__+0xfffea001>
    42d0:	01f2c533          	xor	a0,t0,t6
    42d4:	01051693          	slli	a3,a0,0x10
    42d8:	0106d293          	srli	t0,a3,0x10
    42dc:	01c2c733          	xor	a4,t0,t3
    42e0:	00177793          	andi	a5,a4,1
    42e4:	005f5313          	srli	t1,t5,0x5
    42e8:	0012d893          	srli	a7,t0,0x1
    42ec:	cb91                	beqz	a5,4300 <crcu16+0x1ea>
    42ee:	73e9                	lui	t2,0xffffa
    42f0:	00138613          	addi	a2,t2,1 # ffffa001 <__C_STACK_TOP__+0xfffea001>
    42f4:	00c8c5b3          	xor	a1,a7,a2
    42f8:	01059813          	slli	a6,a1,0x10
    42fc:	01085893          	srli	a7,a6,0x10
    4300:	0068ce33          	xor	t3,a7,t1
    4304:	001e7e93          	andi	t4,t3,1
    4308:	006f5f93          	srli	t6,t5,0x6
    430c:	0018d313          	srli	t1,a7,0x1
    4310:	000e8b63          	beqz	t4,4326 <crcu16+0x210>
    4314:	76e9                	lui	a3,0xffffa
    4316:	00168293          	addi	t0,a3,1 # ffffa001 <__C_STACK_TOP__+0xfffea001>
    431a:	00534533          	xor	a0,t1,t0
    431e:	01051713          	slli	a4,a0,0x10
    4322:	01075313          	srli	t1,a4,0x10
    4326:	01f347b3          	xor	a5,t1,t6
    432a:	0017f393          	andi	t2,a5,1
    432e:	007f5f13          	srli	t5,t5,0x7
    4332:	00135e13          	srli	t3,t1,0x1
    4336:	00038b63          	beqz	t2,434c <crcu16+0x236>
    433a:	7669                	lui	a2,0xffffa
    433c:	00160593          	addi	a1,a2,1 # ffffa001 <__C_STACK_TOP__+0xfffea001>
    4340:	00be4833          	xor	a6,t3,a1
    4344:	01081893          	slli	a7,a6,0x10
    4348:	0108de13          	srli	t3,a7,0x10
    434c:	001e7e93          	andi	t4,t3,1
    4350:	001e5513          	srli	a0,t3,0x1
    4354:	01ee8a63          	beq	t4,t5,4368 <crcu16+0x252>
    4358:	7fe9                	lui	t6,0xffffa
    435a:	001f8693          	addi	a3,t6,1 # ffffa001 <__C_STACK_TOP__+0xfffea001>
    435e:	00d542b3          	xor	t0,a0,a3
    4362:	01029513          	slli	a0,t0,0x10
    4366:	8141                	srli	a0,a0,0x10
    4368:	8082                	ret

0000436a <crcu32>:
    436a:	1141                	addi	sp,sp,-16
    436c:	c422                	sw	s0,8(sp)
    436e:	842a                	mv	s0,a0
    4370:	0542                	slli	a0,a0,0x10
    4372:	8141                	srli	a0,a0,0x10
    4374:	c606                	sw	ra,12(sp)
    4376:	3345                	jal	4116 <crcu16>
    4378:	85aa                	mv	a1,a0
    437a:	01045513          	srli	a0,s0,0x10
    437e:	4422                	lw	s0,8(sp)
    4380:	40b2                	lw	ra,12(sp)
    4382:	0141                	addi	sp,sp,16
    4384:	bb49                	j	4116 <crcu16>

00004386 <crc16>:
    4386:	0542                	slli	a0,a0,0x10
    4388:	8141                	srli	a0,a0,0x10
    438a:	b371                	j	4116 <crcu16>

0000438c <core_init_state>:
    438c:	4781                	li	a5,0
    438e:	4681                	li	a3,0
    4390:	1101                	addi	sp,sp,-32
    4392:	0585                	addi	a1,a1,1
    4394:	00f68733          	add	a4,a3,a5
    4398:	01059293          	slli	t0,a1,0x10
    439c:	ce22                	sw	s0,28(sp)
    439e:	cc26                	sw	s1,24(sp)
    43a0:	ca4a                	sw	s2,20(sp)
    43a2:	c84e                	sw	s3,16(sp)
    43a4:	6319                	lui	t1,0x6
    43a6:	6e19                	lui	t3,0x6
    43a8:	c652                	sw	s4,12(sp)
    43aa:	fff50893          	addi	a7,a0,-1
    43ae:	00170913          	addi	s2,a4,1
    43b2:	0102d593          	srli	a1,t0,0x10
    43b6:	4981                	li	s3,0
    43b8:	4f05                	li	t5,1
    43ba:	02c00e93          	li	t4,44
    43be:	4f89                	li	t6,2
    43c0:	428d                	li	t0,3
    43c2:	4811                	li	a6,4
    43c4:	4395                	li	t2,5
    43c6:	4419                	li	s0,6
    43c8:	44a1                	li	s1,8
    43ca:	ccc30313          	addi	t1,t1,-820 # 5ccc <intpat>
    43ce:	cb8e0e13          	addi	t3,t3,-840 # 5cb8 <state_known_crc+0x24>
    43d2:	05197a63          	bleu	a7,s2,4426 <core_init_state+0x9a>
    43d6:	e7f5                	bnez	a5,44c2 <core_init_state+0x136>
    43d8:	0075f913          	andi	s2,a1,7
    43dc:	ffd90993          	addi	s3,s2,-3
    43e0:	01099793          	slli	a5,s3,0x10
    43e4:	0035da13          	srli	s4,a1,0x3
    43e8:	0107d913          	srli	s2,a5,0x10
    43ec:	003a7713          	andi	a4,s4,3
    43f0:	15286a63          	bltu	a6,s2,4544 <core_init_state+0x1b8>
    43f4:	00291993          	slli	s3,s2,0x2
    43f8:	01c98a33          	add	s4,s3,t3
    43fc:	000a2783          	lw	a5,0(s4)
    4400:	00271913          	slli	s2,a4,0x2
    4404:	01230733          	add	a4,t1,s2
    4408:	8782                	jr	a5
    440a:	01072983          	lw	s3,16(a4)
    440e:	47a1                	li	a5,8
    4410:	0585                	addi	a1,a1,1
    4412:	01059713          	slli	a4,a1,0x10
    4416:	01075593          	srli	a1,a4,0x10
    441a:	00f68733          	add	a4,a3,a5
    441e:	00170913          	addi	s2,a4,1
    4422:	fb196ae3          	bltu	s2,a7,43d6 <core_init_state+0x4a>
    4426:	08a6f363          	bleu	a0,a3,44ac <core_init_state+0x120>
    442a:	96b2                	add	a3,a3,a2
    442c:	962a                	add	a2,a2,a0
    442e:	40d607b3          	sub	a5,a2,a3
    4432:	0077f393          	andi	t2,a5,7
    4436:	04038863          	beqz	t2,4486 <core_init_state+0xfa>
    443a:	4405                	li	s0,1
    443c:	04838063          	beq	t2,s0,447c <core_init_state+0xf0>
    4440:	4489                	li	s1,2
    4442:	02938a63          	beq	t2,s1,4476 <core_init_state+0xea>
    4446:	450d                	li	a0,3
    4448:	02a38463          	beq	t2,a0,4470 <core_init_state+0xe4>
    444c:	4811                	li	a6,4
    444e:	01038e63          	beq	t2,a6,446a <core_init_state+0xde>
    4452:	4895                	li	a7,5
    4454:	01138863          	beq	t2,a7,4464 <core_init_state+0xd8>
    4458:	4999                	li	s3,6
    445a:	11339163          	bne	t2,s3,455c <core_init_state+0x1d0>
    445e:	00068023          	sb	zero,0(a3)
    4462:	0685                	addi	a3,a3,1
    4464:	00068023          	sb	zero,0(a3)
    4468:	0685                	addi	a3,a3,1
    446a:	00068023          	sb	zero,0(a3)
    446e:	0685                	addi	a3,a3,1
    4470:	00068023          	sb	zero,0(a3)
    4474:	0685                	addi	a3,a3,1
    4476:	00068023          	sb	zero,0(a3)
    447a:	0685                	addi	a3,a3,1
    447c:	00068023          	sb	zero,0(a3)
    4480:	0685                	addi	a3,a3,1
    4482:	02c68563          	beq	a3,a2,44ac <core_init_state+0x120>
    4486:	00068023          	sb	zero,0(a3)
    448a:	000680a3          	sb	zero,1(a3)
    448e:	00068123          	sb	zero,2(a3)
    4492:	000681a3          	sb	zero,3(a3)
    4496:	00068223          	sb	zero,4(a3)
    449a:	000682a3          	sb	zero,5(a3)
    449e:	00068323          	sb	zero,6(a3)
    44a2:	000683a3          	sb	zero,7(a3)
    44a6:	06a1                	addi	a3,a3,8
    44a8:	fcc69fe3          	bne	a3,a2,4486 <core_init_state+0xfa>
    44ac:	4472                	lw	s0,28(sp)
    44ae:	44e2                	lw	s1,24(sp)
    44b0:	4952                	lw	s2,20(sp)
    44b2:	49c2                	lw	s3,16(sp)
    44b4:	4a32                	lw	s4,12(sp)
    44b6:	6105                	addi	sp,sp,32
    44b8:	8082                	ret
    44ba:	02072983          	lw	s3,32(a4)
    44be:	47a1                	li	a5,8
    44c0:	bf81                	j	4410 <core_init_state+0x84>
    44c2:	0009ca03          	lbu	s4,0(s3)
    44c6:	96b2                	add	a3,a3,a2
    44c8:	01468023          	sb	s4,0(a3)
    44cc:	05e78a63          	beq	a5,t5,4520 <core_init_state+0x194>
    44d0:	0019ca03          	lbu	s4,1(s3)
    44d4:	014680a3          	sb	s4,1(a3)
    44d8:	05f78463          	beq	a5,t6,4520 <core_init_state+0x194>
    44dc:	0029ca03          	lbu	s4,2(s3)
    44e0:	01468123          	sb	s4,2(a3)
    44e4:	02578e63          	beq	a5,t0,4520 <core_init_state+0x194>
    44e8:	0039ca03          	lbu	s4,3(s3)
    44ec:	014681a3          	sb	s4,3(a3)
    44f0:	03078863          	beq	a5,a6,4520 <core_init_state+0x194>
    44f4:	0049ca03          	lbu	s4,4(s3)
    44f8:	01468223          	sb	s4,4(a3)
    44fc:	02778263          	beq	a5,t2,4520 <core_init_state+0x194>
    4500:	0059ca03          	lbu	s4,5(s3)
    4504:	014682a3          	sb	s4,5(a3)
    4508:	00878c63          	beq	a5,s0,4520 <core_init_state+0x194>
    450c:	0069ca03          	lbu	s4,6(s3)
    4510:	01468323          	sb	s4,6(a3)
    4514:	00979663          	bne	a5,s1,4520 <core_init_state+0x194>
    4518:	0079c783          	lbu	a5,7(s3)
    451c:	00f683a3          	sb	a5,7(a3)
    4520:	86ca                	mv	a3,s2
    4522:	0075f913          	andi	s2,a1,7
    4526:	ffd90993          	addi	s3,s2,-3
    452a:	9732                	add	a4,a4,a2
    452c:	01099793          	slli	a5,s3,0x10
    4530:	01d70023          	sb	t4,0(a4)
    4534:	0035da13          	srli	s4,a1,0x3
    4538:	0107d913          	srli	s2,a5,0x10
    453c:	003a7713          	andi	a4,s4,3
    4540:	eb287ae3          	bleu	s2,a6,43f4 <core_init_state+0x68>
    4544:	00271a13          	slli	s4,a4,0x2
    4548:	01430933          	add	s2,t1,s4
    454c:	00092983          	lw	s3,0(s2)
    4550:	4791                	li	a5,4
    4552:	bd7d                	j	4410 <core_init_state+0x84>
    4554:	03072983          	lw	s3,48(a4)
    4558:	47a1                	li	a5,8
