
/home/oleg/scr1/build/verilator_wf_AHB_IMC/dhrystone21.elf:     формат файла elf32-littleriscv


Дизассемблирование раздела .text.init:

00000000 <SIM_EXIT-0xf4>:
	...

000000f4 <SIM_EXIT>:
  f4:	00000013          	nop

000000f8 <SIM_STOP>:
  f8:	0000006f          	j	f8 <SIM_STOP>
  fc:	ffff                	0xffff
  fe:	ffff                	0xffff

Дизассемблирование раздела .text:

00000100 <machine_trap_entry-0xc0>:
	...

000001c0 <machine_trap_entry>:
     1c0:	0a40006f          	j	264 <trap_entry>
     1c4:	00000013          	nop
     1c8:	00000013          	nop
     1cc:	00000013          	nop
     1d0:	00000013          	nop
     1d4:	00000013          	nop
     1d8:	00000013          	nop
     1dc:	00000013          	nop
     1e0:	00000013          	nop
     1e4:	00000013          	nop
     1e8:	00000013          	nop
     1ec:	00000013          	nop
     1f0:	00000013          	nop
     1f4:	00000013          	nop
     1f8:	00000013          	nop
     1fc:	00000013          	nop

00000200 <_start>:
     200:	00004197          	auipc	gp,0x4
     204:	9c018193          	addi	gp,gp,-1600 # 3bc0 <__global_pointer$>
     208:	00003597          	auipc	a1,0x3
     20c:	1f858593          	addi	a1,a1,504 # 3400 <__BSS_START__>
     210:	00006617          	auipc	a2,0x6
     214:	a7060613          	addi	a2,a2,-1424 # 5c80 <__BSS_END__>
     218:	a021                	j	220 <_start+0x20>
     21a:	0005a023          	sw	zero,0(a1)
     21e:	0591                	addi	a1,a1,4
     220:	fec59de3          	bne	a1,a2,21a <_start+0x1a>
     224:	00010117          	auipc	sp,0x10
     228:	ddc10113          	addi	sp,sp,-548 # 10000 <__C_STACK_TOP__>
     22c:	004902b7          	lui	t0,0x490
     230:	4305                	li	t1,1
     232:	0062a023          	sw	t1,0(t0) # 490000 <__C_STACK_TOP__+0x480000>
     236:	004902b7          	lui	t0,0x490
     23a:	00428293          	addi	t0,t0,4 # 490004 <__C_STACK_TOP__+0x480004>
     23e:	06300313          	li	t1,99
     242:	0062a023          	sw	t1,0(t0)
     246:	004902b7          	lui	t0,0x490
     24a:	01028293          	addi	t0,t0,16 # 490010 <__C_STACK_TOP__+0x480010>
     24e:	537d                	li	t1,-1
     250:	0062a023          	sw	t1,0(t0)
     254:	0062a223          	sw	t1,4(t0)
     258:	4501                	li	a0,0
     25a:	4581                	li	a1,0
     25c:	069000ef          	jal	ra,ac4 <main>
     260:	0960006f          	j	2f6 <handle_trap>

00000264 <trap_entry>:
     264:	716d                	addi	sp,sp,-272
     266:	c206                	sw	ra,4(sp)
     268:	c40a                	sw	sp,8(sp)
     26a:	c60e                	sw	gp,12(sp)
     26c:	c812                	sw	tp,16(sp)
     26e:	ca16                	sw	t0,20(sp)
     270:	cc1a                	sw	t1,24(sp)
     272:	ce1e                	sw	t2,28(sp)
     274:	d022                	sw	s0,32(sp)
     276:	d226                	sw	s1,36(sp)
     278:	d42a                	sw	a0,40(sp)
     27a:	d62e                	sw	a1,44(sp)
     27c:	d832                	sw	a2,48(sp)
     27e:	da36                	sw	a3,52(sp)
     280:	dc3a                	sw	a4,56(sp)
     282:	de3e                	sw	a5,60(sp)
     284:	c0c2                	sw	a6,64(sp)
     286:	c2c6                	sw	a7,68(sp)
     288:	c4ca                	sw	s2,72(sp)
     28a:	c6ce                	sw	s3,76(sp)
     28c:	c8d2                	sw	s4,80(sp)
     28e:	cad6                	sw	s5,84(sp)
     290:	ccda                	sw	s6,88(sp)
     292:	cede                	sw	s7,92(sp)
     294:	d0e2                	sw	s8,96(sp)
     296:	d2e6                	sw	s9,100(sp)
     298:	d4ea                	sw	s10,104(sp)
     29a:	d6ee                	sw	s11,108(sp)
     29c:	d8f2                	sw	t3,112(sp)
     29e:	daf6                	sw	t4,116(sp)
     2a0:	dcfa                	sw	t5,120(sp)
     2a2:	defe                	sw	t6,124(sp)
     2a4:	34202573          	csrr	a0,mcause
     2a8:	341025f3          	csrr	a1,mepc
     2ac:	860a                	mv	a2,sp
     2ae:	048000ef          	jal	ra,2f6 <handle_trap>
     2b2:	4092                	lw	ra,4(sp)
     2b4:	4122                	lw	sp,8(sp)
     2b6:	41b2                	lw	gp,12(sp)
     2b8:	4242                	lw	tp,16(sp)
     2ba:	42d2                	lw	t0,20(sp)
     2bc:	4362                	lw	t1,24(sp)
     2be:	43f2                	lw	t2,28(sp)
     2c0:	5402                	lw	s0,32(sp)
     2c2:	5492                	lw	s1,36(sp)
     2c4:	5522                	lw	a0,40(sp)
     2c6:	55b2                	lw	a1,44(sp)
     2c8:	5642                	lw	a2,48(sp)
     2ca:	56d2                	lw	a3,52(sp)
     2cc:	5762                	lw	a4,56(sp)
     2ce:	57f2                	lw	a5,60(sp)
     2d0:	4806                	lw	a6,64(sp)
     2d2:	4896                	lw	a7,68(sp)
     2d4:	4926                	lw	s2,72(sp)
     2d6:	49b6                	lw	s3,76(sp)
     2d8:	4a46                	lw	s4,80(sp)
     2da:	4ad6                	lw	s5,84(sp)
     2dc:	4b66                	lw	s6,88(sp)
     2de:	4bf6                	lw	s7,92(sp)
     2e0:	5c06                	lw	s8,96(sp)
     2e2:	5c96                	lw	s9,100(sp)
     2e4:	5d26                	lw	s10,104(sp)
     2e6:	5db6                	lw	s11,108(sp)
     2e8:	5e46                	lw	t3,112(sp)
     2ea:	5ed6                	lw	t4,116(sp)
     2ec:	5f66                	lw	t5,120(sp)
     2ee:	5ff6                	lw	t6,124(sp)
     2f0:	6151                	addi	sp,sp,272
     2f2:	30200073          	mret

000002f6 <handle_trap>:
     2f6:	dffff06f          	j	f4 <SIM_EXIT>
     2fa:	0000                	unimp
     2fc:	0000                	unimp
	...

00000300 <Func_1.constprop.1>:
     300:	04300793          	li	a5,67
     304:	00f50463          	beq	a0,a5,30c <Func_1.constprop.1+0xc>
     308:	4501                	li	a0,0
     30a:	8082                	ret
     30c:	86a18623          	sb	a0,-1940(gp) # 342c <Ch_1_Glob>
     310:	4505                	li	a0,1
     312:	8082                	ret

00000314 <printf_putch>:
     314:	04022803          	lw	a6,64(tp) # 40 <buflen.1776>
     318:	00020293          	mv	t0,tp
     31c:	00180713          	addi	a4,a6,1
     320:	01028333          	add	t1,t0,a6
     324:	04e22023          	sw	a4,64(tp) # 40 <buflen.1776>
     328:	00a30023          	sb	a0,0(t1)
     32c:	43a9                	li	t2,10
     32e:	00750763          	beq	a0,t2,33c <printf_putch+0x28>
     332:	04000513          	li	a0,64
     336:	00a70563          	beq	a4,a0,340 <printf_putch+0x2c>
     33a:	8082                	ret
     33c:	0ce05c63          	blez	a4,414 <STACK_SIZE+0x14>
     340:	00777e13          	andi	t3,a4,7
     344:	00020793          	mv	a5,tp
     348:	f0000eb7          	lui	t4,0xf0000
     34c:	fff70f13          	addi	t5,a4,-1
     350:	060e0f63          	beqz	t3,3ce <printf_putch+0xba>
     354:	4f85                	li	t6,1
     356:	07fe0563          	beq	t3,t6,3c0 <printf_putch+0xac>
     35a:	4589                	li	a1,2
     35c:	04be0c63          	beq	t3,a1,3b4 <printf_putch+0xa0>
     360:	480d                	li	a6,3
     362:	050e0363          	beq	t3,a6,3a8 <printf_putch+0x94>
     366:	4691                	li	a3,4
     368:	02de0a63          	beq	t3,a3,39c <printf_putch+0x88>
     36c:	4295                	li	t0,5
     36e:	025e0163          	beq	t3,t0,390 <printf_putch+0x7c>
     372:	4319                	li	t1,6
     374:	006e0863          	beq	t3,t1,384 <printf_putch+0x70>
     378:	0007c383          	lbu	t2,0(a5)
     37c:	877a                	mv	a4,t5
     37e:	0785                	addi	a5,a5,1
     380:	007e8023          	sb	t2,0(t4) # f0000000 <__C_STACK_TOP__+0xefff0000>
     384:	0007c503          	lbu	a0,0(a5)
     388:	177d                	addi	a4,a4,-1
     38a:	0785                	addi	a5,a5,1
     38c:	00ae8023          	sb	a0,0(t4)
     390:	0007c883          	lbu	a7,0(a5)
     394:	177d                	addi	a4,a4,-1
     396:	0785                	addi	a5,a5,1
     398:	011e8023          	sb	a7,0(t4)
     39c:	0007ce03          	lbu	t3,0(a5)
     3a0:	177d                	addi	a4,a4,-1
     3a2:	0785                	addi	a5,a5,1
     3a4:	01ce8023          	sb	t3,0(t4)
     3a8:	0007cf03          	lbu	t5,0(a5)
     3ac:	177d                	addi	a4,a4,-1
     3ae:	0785                	addi	a5,a5,1
     3b0:	01ee8023          	sb	t5,0(t4)
     3b4:	0007cf83          	lbu	t6,0(a5)
     3b8:	177d                	addi	a4,a4,-1
     3ba:	0785                	addi	a5,a5,1
     3bc:	01fe8023          	sb	t6,0(t4)
     3c0:	0785                	addi	a5,a5,1
     3c2:	fff7c583          	lbu	a1,-1(a5)
     3c6:	177d                	addi	a4,a4,-1
     3c8:	00be8023          	sb	a1,0(t4)
     3cc:	c721                	beqz	a4,414 <STACK_SIZE+0x14>
     3ce:	0007c803          	lbu	a6,0(a5)
     3d2:	07a1                	addi	a5,a5,8
     3d4:	1761                	addi	a4,a4,-8
     3d6:	010e8023          	sb	a6,0(t4)
     3da:	ff97c683          	lbu	a3,-7(a5)
     3de:	00de8023          	sb	a3,0(t4)
     3e2:	ffa7c283          	lbu	t0,-6(a5)
     3e6:	005e8023          	sb	t0,0(t4)
     3ea:	ffb7c303          	lbu	t1,-5(a5)
     3ee:	006e8023          	sb	t1,0(t4)
     3f2:	ffc7c383          	lbu	t2,-4(a5)
     3f6:	007e8023          	sb	t2,0(t4)
     3fa:	ffd7c503          	lbu	a0,-3(a5)
     3fe:	00ae8023          	sb	a0,0(t4)
     402:	ffe7c883          	lbu	a7,-2(a5)
     406:	011e8023          	sb	a7,0(t4)
     40a:	fff7ce03          	lbu	t3,-1(a5)
     40e:	01ce8023          	sb	t3,0(t4)
     412:	ff55                	bnez	a4,3ce <printf_putch+0xba>
     414:	04022023          	sw	zero,64(tp) # 40 <buflen.1776>
     418:	8082                	ret

0000041a <vprintfmt.constprop.2>:
     41a:	714d                	addi	sp,sp,-336
     41c:	13512a23          	sw	s5,308(sp)
     420:	06100793          	li	a5,97
     424:	6a89                	lui	s5,0x2
     426:	14912223          	sw	s1,324(sp)
     42a:	13412c23          	sw	s4,312(sp)
     42e:	13612823          	sw	s6,304(sp)
     432:	14112623          	sw	ra,332(sp)
     436:	14812423          	sw	s0,328(sp)
     43a:	15212023          	sw	s2,320(sp)
     43e:	13312e23          	sw	s3,316(sp)
     442:	13712623          	sw	s7,300(sp)
     446:	13812423          	sw	s8,296(sp)
     44a:	13912223          	sw	s9,292(sp)
     44e:	13a12023          	sw	s10,288(sp)
     452:	11b12e23          	sw	s11,284(sp)
     456:	84aa                	mv	s1,a0
     458:	8b2e                	mv	s6,a1
     45a:	c63e                	sw	a5,12(sp)
     45c:	02500a13          	li	s4,37
     460:	4c0a8a93          	addi	s5,s5,1216 # 24c0 <__umoddi3+0x424>
     464:	0004c503          	lbu	a0,0(s1)
     468:	01450a63          	beq	a0,s4,47c <vprintfmt.constprop.2+0x62>
     46c:	c521                	beqz	a0,4b4 <vprintfmt.constprop.2+0x9a>
     46e:	4581                	li	a1,0
     470:	0485                	addi	s1,s1,1
     472:	354d                	jal	314 <printf_putch>
     474:	0004c503          	lbu	a0,0(s1)
     478:	ff451ae3          	bne	a0,s4,46c <vprintfmt.constprop.2+0x52>
     47c:	00148b93          	addi	s7,s1,1
     480:	875e                	mv	a4,s7
     482:	02000993          	li	s3,32
     486:	547d                	li	s0,-1
     488:	597d                	li	s2,-1
     48a:	4581                	li	a1,0
     48c:	05500613          	li	a2,85
     490:	4825                	li	a6,9
     492:	00074683          	lbu	a3,0(a4)
     496:	00170493          	addi	s1,a4,1
     49a:	fdd68093          	addi	ra,a3,-35
     49e:	0ff0f293          	andi	t0,ra,255
     4a2:	46566163          	bltu	a2,t0,904 <vprintfmt.constprop.2+0x4ea>
     4a6:	00229313          	slli	t1,t0,0x2
     4aa:	015303b3          	add	t2,t1,s5
     4ae:	0003a503          	lw	a0,0(t2)
     4b2:	8502                	jr	a0
     4b4:	14c12083          	lw	ra,332(sp)
     4b8:	14812403          	lw	s0,328(sp)
     4bc:	14412483          	lw	s1,324(sp)
     4c0:	14012903          	lw	s2,320(sp)
     4c4:	13c12983          	lw	s3,316(sp)
     4c8:	13812a03          	lw	s4,312(sp)
     4cc:	13412a83          	lw	s5,308(sp)
     4d0:	13012b03          	lw	s6,304(sp)
     4d4:	12c12b83          	lw	s7,300(sp)
     4d8:	12812c03          	lw	s8,296(sp)
     4dc:	12412c83          	lw	s9,292(sp)
     4e0:	12012d03          	lw	s10,288(sp)
     4e4:	11c12d83          	lw	s11,284(sp)
     4e8:	6171                	addi	sp,sp,336
     4ea:	8082                	ret
     4ec:	00095363          	bgez	s2,4f2 <vprintfmt.constprop.2+0xd8>
     4f0:	4901                	li	s2,0
     4f2:	8726                	mv	a4,s1
     4f4:	bf79                	j	492 <vprintfmt.constprop.2+0x78>
     4f6:	4d29                	li	s10,10
     4f8:	4605                	li	a2,1
     4fa:	42b65363          	ble	a1,a2,920 <vprintfmt.constprop.2+0x506>
     4fe:	007b0813          	addi	a6,s6,7
     502:	ff887893          	andi	a7,a6,-8
     506:	0008ad83          	lw	s11,0(a7)
     50a:	0048a403          	lw	s0,4(a7)
     50e:	00888b13          	addi	s6,a7,8
     512:	41fd5b93          	srai	s7,s10,0x1f
     516:	866a                	mv	a2,s10
     518:	86de                	mv	a3,s7
     51a:	856e                	mv	a0,s11
     51c:	85a2                	mv	a1,s0
     51e:	37f010ef          	jal	ra,209c <__umoddi3>
     522:	c82a                	sw	a0,16(sp)
     524:	3f746863          	bltu	s0,s7,914 <vprintfmt.constprop.2+0x4fa>
     528:	3e8b8463          	beq	s7,s0,910 <vprintfmt.constprop.2+0x4f6>
     52c:	01410c13          	addi	s8,sp,20
     530:	4c85                	li	s9,1
     532:	866a                	mv	a2,s10
     534:	86de                	mv	a3,s7
     536:	856e                	mv	a0,s11
     538:	85a2                	mv	a1,s0
     53a:	72a010ef          	jal	ra,1c64 <__udivdi3>
     53e:	866a                	mv	a2,s10
     540:	86de                	mv	a3,s7
     542:	8daa                	mv	s11,a0
     544:	842e                	mv	s0,a1
     546:	357010ef          	jal	ra,209c <__umoddi3>
     54a:	00ac2023          	sw	a0,0(s8)
     54e:	0c85                	addi	s9,s9,1
     550:	0c11                	addi	s8,s8,4
     552:	01746663          	bltu	s0,s7,55e <vprintfmt.constprop.2+0x144>
     556:	fc8b9ee3          	bne	s7,s0,532 <vprintfmt.constprop.2+0x118>
     55a:	fdadfce3          	bleu	s10,s11,532 <vprintfmt.constprop.2+0x118>
     55e:	0b2cdd63          	ble	s2,s9,618 <vprintfmt.constprop.2+0x1fe>
     562:	fffcce93          	not	t4,s9
     566:	012e8f33          	add	t5,t4,s2
     56a:	fff90b93          	addi	s7,s2,-1
     56e:	4581                	li	a1,0
     570:	854e                	mv	a0,s3
     572:	007f7d13          	andi	s10,t5,7
     576:	3b79                	jal	314 <printf_putch>
     578:	0b7cd063          	ble	s7,s9,618 <vprintfmt.constprop.2+0x1fe>
     57c:	060d0363          	beqz	s10,5e2 <vprintfmt.constprop.2+0x1c8>
     580:	4f85                	li	t6,1
     582:	05fd0a63          	beq	s10,t6,5d6 <vprintfmt.constprop.2+0x1bc>
     586:	4789                	li	a5,2
     588:	04fd0363          	beq	s10,a5,5ce <vprintfmt.constprop.2+0x1b4>
     58c:	458d                	li	a1,3
     58e:	02bd0c63          	beq	s10,a1,5c6 <vprintfmt.constprop.2+0x1ac>
     592:	4691                	li	a3,4
     594:	02dd0563          	beq	s10,a3,5be <vprintfmt.constprop.2+0x1a4>
     598:	4095                	li	ra,5
     59a:	001d0e63          	beq	s10,ra,5b6 <vprintfmt.constprop.2+0x19c>
     59e:	4299                	li	t0,6
     5a0:	005d0763          	beq	s10,t0,5ae <vprintfmt.constprop.2+0x194>
     5a4:	4581                	li	a1,0
     5a6:	854e                	mv	a0,s3
     5a8:	33b5                	jal	314 <printf_putch>
     5aa:	ffe90b93          	addi	s7,s2,-2
     5ae:	4581                	li	a1,0
     5b0:	854e                	mv	a0,s3
     5b2:	338d                	jal	314 <printf_putch>
     5b4:	1bfd                	addi	s7,s7,-1
     5b6:	4581                	li	a1,0
     5b8:	854e                	mv	a0,s3
     5ba:	3ba9                	jal	314 <printf_putch>
     5bc:	1bfd                	addi	s7,s7,-1
     5be:	4581                	li	a1,0
     5c0:	854e                	mv	a0,s3
     5c2:	3b89                	jal	314 <printf_putch>
     5c4:	1bfd                	addi	s7,s7,-1
     5c6:	4581                	li	a1,0
     5c8:	854e                	mv	a0,s3
     5ca:	33a9                	jal	314 <printf_putch>
     5cc:	1bfd                	addi	s7,s7,-1
     5ce:	4581                	li	a1,0
     5d0:	854e                	mv	a0,s3
     5d2:	3389                	jal	314 <printf_putch>
     5d4:	1bfd                	addi	s7,s7,-1
     5d6:	1bfd                	addi	s7,s7,-1
     5d8:	4581                	li	a1,0
     5da:	854e                	mv	a0,s3
     5dc:	3b25                	jal	314 <printf_putch>
     5de:	037cdd63          	ble	s7,s9,618 <vprintfmt.constprop.2+0x1fe>
     5e2:	4581                	li	a1,0
     5e4:	854e                	mv	a0,s3
     5e6:	333d                	jal	314 <printf_putch>
     5e8:	4581                	li	a1,0
     5ea:	854e                	mv	a0,s3
     5ec:	3325                	jal	314 <printf_putch>
     5ee:	4581                	li	a1,0
     5f0:	854e                	mv	a0,s3
     5f2:	330d                	jal	314 <printf_putch>
     5f4:	4581                	li	a1,0
     5f6:	854e                	mv	a0,s3
     5f8:	3b31                	jal	314 <printf_putch>
     5fa:	4581                	li	a1,0
     5fc:	854e                	mv	a0,s3
     5fe:	3b19                	jal	314 <printf_putch>
     600:	4581                	li	a1,0
     602:	854e                	mv	a0,s3
     604:	3b01                	jal	314 <printf_putch>
     606:	4581                	li	a1,0
     608:	854e                	mv	a0,s3
     60a:	3329                	jal	314 <printf_putch>
     60c:	1be1                	addi	s7,s7,-8
     60e:	4581                	li	a1,0
     610:	854e                	mv	a0,s3
     612:	3309                	jal	314 <printf_putch>
     614:	fd7cc7e3          	blt	s9,s7,5e2 <vprintfmt.constprop.2+0x1c8>
     618:	fffc8b93          	addi	s7,s9,-1
     61c:	002b9913          	slli	s2,s7,0x2
     620:	01010313          	addi	t1,sp,16
     624:	01230db3          	add	s11,t1,s2
     628:	4532                	lw	a0,12(sp)
     62a:	000da383          	lw	t2,0(s11)
     62e:	49a5                	li	s3,9
     630:	ff650d13          	addi	s10,a0,-10
     634:	003bfc13          	andi	s8,s7,3
     638:	03000613          	li	a2,48
     63c:	0079f363          	bleu	t2,s3,642 <vprintfmt.constprop.2+0x228>
     640:	866a                	mv	a2,s10
     642:	4581                	li	a1,0
     644:	00c38533          	add	a0,t2,a2
     648:	31f1                	jal	314 <printf_putch>
     64a:	fffb8c93          	addi	s9,s7,-1
     64e:	ffcd8413          	addi	s0,s11,-4
     652:	e17059e3          	blez	s7,464 <vprintfmt.constprop.2+0x4a>
     656:	060c0363          	beqz	s8,6bc <vprintfmt.constprop.2+0x2a2>
     65a:	4705                	li	a4,1
     65c:	02ec0f63          	beq	s8,a4,69a <vprintfmt.constprop.2+0x280>
     660:	4809                	li	a6,2
     662:	010c0f63          	beq	s8,a6,680 <vprintfmt.constprop.2+0x266>
     666:	ffcda883          	lw	a7,-4(s11)
     66a:	03000e13          	li	t3,48
     66e:	0119f363          	bleu	a7,s3,674 <vprintfmt.constprop.2+0x25a>
     672:	8e6a                	mv	t3,s10
     674:	4581                	li	a1,0
     676:	01c88533          	add	a0,a7,t3
     67a:	3969                	jal	314 <printf_putch>
     67c:	1cfd                	addi	s9,s9,-1
     67e:	1471                	addi	s0,s0,-4
     680:	00042e83          	lw	t4,0(s0)
     684:	03000f13          	li	t5,48
     688:	01d9f363          	bleu	t4,s3,68e <vprintfmt.constprop.2+0x274>
     68c:	8f6a                	mv	t5,s10
     68e:	4581                	li	a1,0
     690:	01ee8533          	add	a0,t4,t5
     694:	3141                	jal	314 <printf_putch>
     696:	1cfd                	addi	s9,s9,-1
     698:	1471                	addi	s0,s0,-4
     69a:	00042f83          	lw	t6,0(s0)
     69e:	03000793          	li	a5,48
     6a2:	01f9f363          	bleu	t6,s3,6a8 <vprintfmt.constprop.2+0x28e>
     6a6:	87ea                	mv	a5,s10
     6a8:	4581                	li	a1,0
     6aa:	00ff8533          	add	a0,t6,a5
     6ae:	1cfd                	addi	s9,s9,-1
     6b0:	3195                	jal	314 <printf_putch>
     6b2:	001c8593          	addi	a1,s9,1
     6b6:	1471                	addi	s0,s0,-4
     6b8:	dab056e3          	blez	a1,464 <vprintfmt.constprop.2+0x4a>
     6bc:	4014                	lw	a3,0(s0)
     6be:	03000093          	li	ra,48
     6c2:	00d9f363          	bleu	a3,s3,6c8 <vprintfmt.constprop.2+0x2ae>
     6c6:	80ea                	mv	ra,s10
     6c8:	4581                	li	a1,0
     6ca:	00168533          	add	a0,a3,ra
     6ce:	3199                	jal	314 <printf_putch>
     6d0:	ffc42283          	lw	t0,-4(s0)
     6d4:	1cfd                	addi	s9,s9,-1
     6d6:	1471                	addi	s0,s0,-4
     6d8:	03000b93          	li	s7,48
     6dc:	0059f363          	bleu	t0,s3,6e2 <vprintfmt.constprop.2+0x2c8>
     6e0:	8bea                	mv	s7,s10
     6e2:	4581                	li	a1,0
     6e4:	01728533          	add	a0,t0,s7
     6e8:	3135                	jal	314 <printf_putch>
     6ea:	ffc42903          	lw	s2,-4(s0)
     6ee:	03000313          	li	t1,48
     6f2:	0129f363          	bleu	s2,s3,6f8 <vprintfmt.constprop.2+0x2de>
     6f6:	836a                	mv	t1,s10
     6f8:	4581                	li	a1,0
     6fa:	00690533          	add	a0,s2,t1
     6fe:	3919                	jal	314 <printf_putch>
     700:	ff842d83          	lw	s11,-8(s0)
     704:	03000393          	li	t2,48
     708:	01b9f363          	bleu	s11,s3,70e <vprintfmt.constprop.2+0x2f4>
     70c:	83ea                	mv	t2,s10
     70e:	007d8533          	add	a0,s11,t2
     712:	4581                	li	a1,0
     714:	3101                	jal	314 <printf_putch>
     716:	ffec8513          	addi	a0,s9,-2
     71a:	1451                	addi	s0,s0,-12
     71c:	1cf5                	addi	s9,s9,-3
     71e:	f8a04fe3          	bgtz	a0,6bc <vprintfmt.constprop.2+0x2a2>
     722:	b389                	j	464 <vprintfmt.constprop.2+0x4a>
     724:	8726                	mv	a4,s1
     726:	03000993          	li	s3,48
     72a:	b3a5                	j	492 <vprintfmt.constprop.2+0x78>
     72c:	06100413          	li	s0,97
     730:	c622                	sw	s0,12(sp)
     732:	4d41                	li	s10,16
     734:	b3d1                	j	4f8 <vprintfmt.constprop.2+0xde>
     736:	4d21                	li	s10,8
     738:	b3c1                	j	4f8 <vprintfmt.constprop.2+0xde>
     73a:	4581                	li	a1,0
     73c:	03000513          	li	a0,48
     740:	3ed1                	jal	314 <printf_putch>
     742:	4581                	li	a1,0
     744:	07800513          	li	a0,120
     748:	36f1                	jal	314 <printf_putch>
     74a:	06100793          	li	a5,97
     74e:	c63e                	sw	a5,12(sp)
     750:	4d41                	li	s10,16
     752:	004b0713          	addi	a4,s6,4
     756:	000b2d83          	lw	s11,0(s6)
     75a:	4401                	li	s0,0
     75c:	8b3a                	mv	s6,a4
     75e:	bb55                	j	512 <vprintfmt.constprop.2+0xf8>
     760:	00174e83          	lbu	t4,1(a4)
     764:	fd068413          	addi	s0,a3,-48
     768:	8726                	mv	a4,s1
     76a:	fd0e8d13          	addi	s10,t4,-48
     76e:	03a86363          	bltu	a6,s10,794 <vprintfmt.constprop.2+0x37a>
     772:	00241493          	slli	s1,s0,0x2
     776:	00848c33          	add	s8,s1,s0
     77a:	0705                	addi	a4,a4,1
     77c:	001c1893          	slli	a7,s8,0x1
     780:	01d88e33          	add	t3,a7,t4
     784:	00074e83          	lbu	t4,0(a4)
     788:	fd0e0413          	addi	s0,t3,-48
     78c:	fd0e8f13          	addi	t5,t4,-48
     790:	ffe871e3          	bleu	t5,a6,772 <vprintfmt.constprop.2+0x358>
     794:	ce095fe3          	bgez	s2,492 <vprintfmt.constprop.2+0x78>
     798:	8922                	mv	s2,s0
     79a:	547d                	li	s0,-1
     79c:	b9dd                	j	492 <vprintfmt.constprop.2+0x78>
     79e:	000b2c03          	lw	s8,0(s6)
     7a2:	0b11                	addi	s6,s6,4
     7a4:	1c0c0b63          	beqz	s8,97a <vprintfmt.constprop.2+0x560>
     7a8:	19205563          	blez	s2,932 <vprintfmt.constprop.2+0x518>
     7ac:	02d00593          	li	a1,45
     7b0:	1ab99763          	bne	s3,a1,95e <vprintfmt.constprop.2+0x544>
     7b4:	000c4503          	lbu	a0,0(s8)
     7b8:	cd09                	beqz	a0,7d2 <vprintfmt.constprop.2+0x3b8>
     7ba:	59fd                	li	s3,-1
     7bc:	18045163          	bgez	s0,93e <vprintfmt.constprop.2+0x524>
     7c0:	4581                	li	a1,0
     7c2:	0c05                	addi	s8,s8,1
     7c4:	3e81                	jal	314 <printf_putch>
     7c6:	000c4503          	lbu	a0,0(s8)
     7ca:	197d                	addi	s2,s2,-1
     7cc:	f965                	bnez	a0,7bc <vprintfmt.constprop.2+0x3a2>
     7ce:	c9205be3          	blez	s2,464 <vprintfmt.constprop.2+0x4a>
     7d2:	00797b93          	andi	s7,s2,7
     7d6:	fff90c13          	addi	s8,s2,-1
     7da:	060b8963          	beqz	s7,84c <vprintfmt.constprop.2+0x432>
     7de:	4c85                	li	s9,1
     7e0:	059b8f63          	beq	s7,s9,83e <vprintfmt.constprop.2+0x424>
     7e4:	4d89                	li	s11,2
     7e6:	05bb8763          	beq	s7,s11,834 <vprintfmt.constprop.2+0x41a>
     7ea:	4e0d                	li	t3,3
     7ec:	03cb8f63          	beq	s7,t3,82a <vprintfmt.constprop.2+0x410>
     7f0:	4e91                	li	t4,4
     7f2:	03db8763          	beq	s7,t4,820 <vprintfmt.constprop.2+0x406>
     7f6:	4f15                	li	t5,5
     7f8:	01eb8f63          	beq	s7,t5,816 <vprintfmt.constprop.2+0x3fc>
     7fc:	4f99                	li	t6,6
     7fe:	01fb8763          	beq	s7,t6,80c <vprintfmt.constprop.2+0x3f2>
     802:	4581                	li	a1,0
     804:	02000513          	li	a0,32
     808:	3631                	jal	314 <printf_putch>
     80a:	8962                	mv	s2,s8
     80c:	4581                	li	a1,0
     80e:	02000513          	li	a0,32
     812:	3609                	jal	314 <printf_putch>
     814:	197d                	addi	s2,s2,-1
     816:	4581                	li	a1,0
     818:	02000513          	li	a0,32
     81c:	3ce5                	jal	314 <printf_putch>
     81e:	197d                	addi	s2,s2,-1
     820:	4581                	li	a1,0
     822:	02000513          	li	a0,32
     826:	34fd                	jal	314 <printf_putch>
     828:	197d                	addi	s2,s2,-1
     82a:	4581                	li	a1,0
     82c:	02000513          	li	a0,32
     830:	34d5                	jal	314 <printf_putch>
     832:	197d                	addi	s2,s2,-1
     834:	4581                	li	a1,0
     836:	02000513          	li	a0,32
     83a:	3ce9                	jal	314 <printf_putch>
     83c:	197d                	addi	s2,s2,-1
     83e:	197d                	addi	s2,s2,-1
     840:	4581                	li	a1,0
     842:	02000513          	li	a0,32
     846:	34f9                	jal	314 <printf_putch>
     848:	c0090ee3          	beqz	s2,464 <vprintfmt.constprop.2+0x4a>
     84c:	4581                	li	a1,0
     84e:	02000513          	li	a0,32
     852:	34c9                	jal	314 <printf_putch>
     854:	4581                	li	a1,0
     856:	02000513          	li	a0,32
     85a:	3c6d                	jal	314 <printf_putch>
     85c:	4581                	li	a1,0
     85e:	02000513          	li	a0,32
     862:	3c4d                	jal	314 <printf_putch>
     864:	4581                	li	a1,0
     866:	02000513          	li	a0,32
     86a:	346d                	jal	314 <printf_putch>
     86c:	4581                	li	a1,0
     86e:	02000513          	li	a0,32
     872:	344d                	jal	314 <printf_putch>
     874:	4581                	li	a1,0
     876:	02000513          	li	a0,32
     87a:	3c69                	jal	314 <printf_putch>
     87c:	4581                	li	a1,0
     87e:	02000513          	li	a0,32
     882:	3c49                	jal	314 <printf_putch>
     884:	1961                	addi	s2,s2,-8
     886:	4581                	li	a1,0
     888:	02000513          	li	a0,32
     88c:	3461                	jal	314 <printf_putch>
     88e:	fa091fe3          	bnez	s2,84c <vprintfmt.constprop.2+0x432>
     892:	bec9                	j	464 <vprintfmt.constprop.2+0x4a>
     894:	4685                	li	a3,1
     896:	0ab6d863          	ble	a1,a3,946 <vprintfmt.constprop.2+0x52c>
     89a:	0b1d                	addi	s6,s6,7
     89c:	ff8b7293          	andi	t0,s6,-8
     8a0:	0002ad83          	lw	s11,0(t0)
     8a4:	0042a403          	lw	s0,4(t0)
     8a8:	00828b13          	addi	s6,t0,8
     8ac:	00045e63          	bgez	s0,8c8 <vprintfmt.constprop.2+0x4ae>
     8b0:	4581                	li	a1,0
     8b2:	02d00513          	li	a0,45
     8b6:	3cb9                	jal	314 <printf_putch>
     8b8:	41b00db3          	neg	s11,s11
     8bc:	01b03333          	snez	t1,s11
     8c0:	408003b3          	neg	t2,s0
     8c4:	40638433          	sub	s0,t2,t1
     8c8:	4d29                	li	s10,10
     8ca:	b1a1                	j	512 <vprintfmt.constprop.2+0xf8>
     8cc:	0585                	addi	a1,a1,1
     8ce:	8726                	mv	a4,s1
     8d0:	b6c9                	j	492 <vprintfmt.constprop.2+0x78>
     8d2:	4581                	li	a1,0
     8d4:	02500513          	li	a0,37
     8d8:	3c35                	jal	314 <printf_putch>
     8da:	b669                	j	464 <vprintfmt.constprop.2+0x4a>
     8dc:	000b2403          	lw	s0,0(s6)
     8e0:	8726                	mv	a4,s1
     8e2:	0b11                	addi	s6,s6,4
     8e4:	bd45                	j	794 <vprintfmt.constprop.2+0x37a>
     8e6:	8726                	mv	a4,s1
     8e8:	02d00993          	li	s3,45
     8ec:	b65d                	j	492 <vprintfmt.constprop.2+0x78>
     8ee:	04100513          	li	a0,65
     8f2:	c62a                	sw	a0,12(sp)
     8f4:	4d41                	li	s10,16
     8f6:	b109                	j	4f8 <vprintfmt.constprop.2+0xde>
     8f8:	000b2503          	lw	a0,0(s6)
     8fc:	4581                	li	a1,0
     8fe:	0b11                	addi	s6,s6,4
     900:	3c11                	jal	314 <printf_putch>
     902:	b68d                	j	464 <vprintfmt.constprop.2+0x4a>
     904:	4581                	li	a1,0
     906:	02500513          	li	a0,37
     90a:	3429                	jal	314 <printf_putch>
     90c:	84de                	mv	s1,s7
     90e:	be99                	j	464 <vprintfmt.constprop.2+0x4a>
     910:	c1adfee3          	bleu	s10,s11,52c <vprintfmt.constprop.2+0x112>
     914:	4e05                	li	t3,1
     916:	4c85                	li	s9,1
     918:	c52e45e3          	blt	t3,s2,562 <vprintfmt.constprop.2+0x148>
     91c:	4b81                	li	s7,0
     91e:	b9fd                	j	61c <vprintfmt.constprop.2+0x202>
     920:	004b0713          	addi	a4,s6,4
     924:	bd0d                	j	756 <vprintfmt.constprop.2+0x33c>
     926:	88de                	mv	a7,s7
     928:	000bd363          	bgez	s7,92e <vprintfmt.constprop.2+0x514>
     92c:	4881                	li	a7,0
     92e:	411b8933          	sub	s2,s7,a7
     932:	000c4503          	lbu	a0,0(s8)
     936:	b20507e3          	beqz	a0,464 <vprintfmt.constprop.2+0x4a>
     93a:	59fd                	li	s3,-1
     93c:	b541                	j	7bc <vprintfmt.constprop.2+0x3a2>
     93e:	147d                	addi	s0,s0,-1
     940:	e93410e3          	bne	s0,s3,7c0 <vprintfmt.constprop.2+0x3a6>
     944:	b569                	j	7ce <vprintfmt.constprop.2+0x3b4>
     946:	000b2d83          	lw	s11,0(s6)
     94a:	004b0093          	addi	ra,s6,4
     94e:	8b06                	mv	s6,ra
     950:	41fdd413          	srai	s0,s11,0x1f
     954:	bfa1                	j	8ac <vprintfmt.constprop.2+0x492>
     956:	00003837          	lui	a6,0x3
     95a:	81c80c13          	addi	s8,a6,-2020 # 281c <__clz_tab+0x100>
     95e:	85a2                	mv	a1,s0
     960:	8562                	mv	a0,s8
     962:	13f000ef          	jal	ra,12a0 <strnlen>
     966:	40a90bb3          	sub	s7,s2,a0
     96a:	8d5e                	mv	s10,s7
     96c:	fba05de3          	blez	s10,926 <vprintfmt.constprop.2+0x50c>
     970:	4581                	li	a1,0
     972:	854e                	mv	a0,s3
     974:	3245                	jal	314 <printf_putch>
     976:	1d7d                	addi	s10,s10,-1
     978:	bfd5                	j	96c <vprintfmt.constprop.2+0x552>
     97a:	01205663          	blez	s2,986 <vprintfmt.constprop.2+0x56c>
     97e:	02d00613          	li	a2,45
     982:	fcc99ae3          	bne	s3,a2,956 <vprintfmt.constprop.2+0x53c>
     986:	00003737          	lui	a4,0x3
     98a:	81c70c13          	addi	s8,a4,-2020 # 281c <__clz_tab+0x100>
     98e:	02800513          	li	a0,40
     992:	59fd                	li	s3,-1
     994:	b525                	j	7bc <vprintfmt.constprop.2+0x3a2>

00000996 <sc_printf>:
     996:	7139                	addi	sp,sp,-64
     998:	02410313          	addi	t1,sp,36
     99c:	d22e                	sw	a1,36(sp)
     99e:	859a                	mv	a1,t1
     9a0:	ce06                	sw	ra,28(sp)
     9a2:	d432                	sw	a2,40(sp)
     9a4:	d636                	sw	a3,44(sp)
     9a6:	d83a                	sw	a4,48(sp)
     9a8:	da3e                	sw	a5,52(sp)
     9aa:	dc42                	sw	a6,56(sp)
     9ac:	de46                	sw	a7,60(sp)
     9ae:	c61a                	sw	t1,12(sp)
     9b0:	34ad                	jal	41a <vprintfmt.constprop.2>
     9b2:	40f2                	lw	ra,28(sp)
     9b4:	4501                	li	a0,0
     9b6:	6121                	addi	sp,sp,64
     9b8:	8082                	ret

000009ba <putchar>:
     9ba:	04022803          	lw	a6,64(tp) # 40 <buflen.1776>
     9be:	00020293          	mv	t0,tp
     9c2:	00180713          	addi	a4,a6,1
     9c6:	01028333          	add	t1,t0,a6
     9ca:	04e22023          	sw	a4,64(tp) # 40 <buflen.1776>
     9ce:	00a30023          	sb	a0,0(t1)
     9d2:	43a9                	li	t2,10
     9d4:	00750863          	beq	a0,t2,9e4 <putchar+0x2a>
     9d8:	04000513          	li	a0,64
     9dc:	00a70663          	beq	a4,a0,9e8 <putchar+0x2e>
     9e0:	4501                	li	a0,0
     9e2:	8082                	ret
     9e4:	0ce05c63          	blez	a4,abc <putchar+0x102>
     9e8:	00777e13          	andi	t3,a4,7
     9ec:	00020793          	mv	a5,tp
     9f0:	f0000eb7          	lui	t4,0xf0000
     9f4:	fff70f13          	addi	t5,a4,-1
     9f8:	060e0f63          	beqz	t3,a76 <putchar+0xbc>
     9fc:	4f85                	li	t6,1
     9fe:	07fe0563          	beq	t3,t6,a68 <putchar+0xae>
     a02:	4589                	li	a1,2
     a04:	04be0c63          	beq	t3,a1,a5c <putchar+0xa2>
     a08:	480d                	li	a6,3
     a0a:	050e0363          	beq	t3,a6,a50 <putchar+0x96>
     a0e:	4691                	li	a3,4
     a10:	02de0a63          	beq	t3,a3,a44 <putchar+0x8a>
     a14:	4295                	li	t0,5
     a16:	025e0163          	beq	t3,t0,a38 <putchar+0x7e>
     a1a:	4319                	li	t1,6
     a1c:	006e0863          	beq	t3,t1,a2c <putchar+0x72>
     a20:	0007c383          	lbu	t2,0(a5)
     a24:	877a                	mv	a4,t5
     a26:	0785                	addi	a5,a5,1
     a28:	007e8023          	sb	t2,0(t4) # f0000000 <__C_STACK_TOP__+0xefff0000>
     a2c:	0007c503          	lbu	a0,0(a5)
     a30:	177d                	addi	a4,a4,-1
     a32:	0785                	addi	a5,a5,1
     a34:	00ae8023          	sb	a0,0(t4)
     a38:	0007c883          	lbu	a7,0(a5)
     a3c:	177d                	addi	a4,a4,-1
     a3e:	0785                	addi	a5,a5,1
     a40:	011e8023          	sb	a7,0(t4)
     a44:	0007ce03          	lbu	t3,0(a5)
     a48:	177d                	addi	a4,a4,-1
     a4a:	0785                	addi	a5,a5,1
     a4c:	01ce8023          	sb	t3,0(t4)
     a50:	0007cf03          	lbu	t5,0(a5)
     a54:	177d                	addi	a4,a4,-1
     a56:	0785                	addi	a5,a5,1
     a58:	01ee8023          	sb	t5,0(t4)
     a5c:	0007cf83          	lbu	t6,0(a5)
     a60:	177d                	addi	a4,a4,-1
     a62:	0785                	addi	a5,a5,1
     a64:	01fe8023          	sb	t6,0(t4)
     a68:	0785                	addi	a5,a5,1
     a6a:	fff7c583          	lbu	a1,-1(a5)
     a6e:	177d                	addi	a4,a4,-1
     a70:	00be8023          	sb	a1,0(t4)
     a74:	c721                	beqz	a4,abc <putchar+0x102>
     a76:	0007c803          	lbu	a6,0(a5)
     a7a:	07a1                	addi	a5,a5,8
     a7c:	1761                	addi	a4,a4,-8
     a7e:	010e8023          	sb	a6,0(t4)
     a82:	ff97c683          	lbu	a3,-7(a5)
     a86:	00de8023          	sb	a3,0(t4)
     a8a:	ffa7c283          	lbu	t0,-6(a5)
     a8e:	005e8023          	sb	t0,0(t4)
     a92:	ffb7c303          	lbu	t1,-5(a5)
     a96:	006e8023          	sb	t1,0(t4)
     a9a:	ffc7c383          	lbu	t2,-4(a5)
     a9e:	007e8023          	sb	t2,0(t4)
     aa2:	ffd7c503          	lbu	a0,-3(a5)
     aa6:	00ae8023          	sb	a0,0(t4)
     aaa:	ffe7c883          	lbu	a7,-2(a5)
     aae:	011e8023          	sb	a7,0(t4)
     ab2:	fff7ce03          	lbu	t3,-1(a5)
     ab6:	01ce8023          	sb	t3,0(t4)
     aba:	ff55                	bnez	a4,a76 <putchar+0xbc>
     abc:	04022023          	sw	zero,64(tp) # 40 <buflen.1776>
     ac0:	4501                	li	a0,0
     ac2:	8082                	ret

00000ac4 <main>:
     ac4:	00003337          	lui	t1,0x3
     ac8:	7131                	addi	sp,sp,-192
     aca:	82430693          	addi	a3,t1,-2012 # 2824 <__clz_tab+0x108>
     ace:	df06                	sw	ra,188(sp)
     ad0:	d94a                	sw	s2,176(sp)
     ad2:	d552                	sw	s4,168(sp)
     ad4:	0046a903          	lw	s2,4(a3)
     ad8:	82432a03          	lw	s4,-2012(t1)
     adc:	dd22                	sw	s0,184(sp)
     ade:	db26                	sw	s1,180(sp)
     ae0:	cd62                	sw	s8,152(sp)
     ae2:	46c0                	lw	s0,12(a3)
     ae4:	87418c13          	addi	s8,gp,-1932 # 3434 <glob1.3071>
     ae8:	4684                	lw	s1,8(a3)
     aea:	d74e                	sw	s3,172(sp)
     aec:	d356                	sw	s5,164(sp)
     aee:	d15a                	sw	s6,160(sp)
     af0:	cf5e                	sw	s7,156(sp)
     af2:	cb66                	sw	s9,148(sp)
     af4:	c96a                	sw	s10,144(sp)
     af6:	c76e                	sw	s11,140(sp)
     af8:	00003837          	lui	a6,0x3
     afc:	030c0a93          	addi	s5,s8,48
     b00:	4b89                	li	s7,2
     b02:	02800c93          	li	s9,40
     b06:	da080713          	addi	a4,a6,-608 # 2da0 <__clz_tab+0x684>
     b0a:	0146a283          	lw	t0,20(a3)
     b0e:	054c2023          	sw	s4,64(s8)
     b12:	052c2223          	sw	s2,68(s8)
     b16:	8781a423          	sw	s8,-1944(gp) # 3428 <Next_Ptr_Glob>
     b1a:	8751a223          	sw	s5,-1948(gp) # 3424 <Ptr_Glob>
     b1e:	038c2823          	sw	s8,48(s8)
     b22:	020c2a23          	sw	zero,52(s8)
     b26:	037c2c23          	sw	s7,56(s8)
     b2a:	039c2e23          	sw	s9,60(s8)
     b2e:	0106a383          	lw	t2,16(a3)
     b32:	0186af83          	lw	t6,24(a3)
     b36:	01c6df03          	lhu	t5,28(a3)
     b3a:	01e6ce83          	lbu	t4,30(a3)
     b3e:	da082e03          	lw	t3,-608(a6)
     b42:	00472883          	lw	a7,4(a4)
     b46:	049c2423          	sw	s1,72(s8)
     b4a:	00872803          	lw	a6,8(a4)
     b4e:	00c72a03          	lw	s4,12(a4)
     b52:	01072903          	lw	s2,16(a4)
     b56:	4b44                	lw	s1,20(a4)
     b58:	01c75303          	lhu	t1,28(a4)
     b5c:	048c2623          	sw	s0,76(s8)
     b60:	4f00                	lw	s0,24(a4)
     b62:	01e74703          	lbu	a4,30(a4)
     b66:	6d0d                	lui	s10,0x3
     b68:	045c2a23          	sw	t0,84(s8)
     b6c:	55cd0d13          	addi	s10,s10,1372 # 355c <Arr_2_Glob>
     b70:	46a9                	li	a3,10
     b72:	1f400293          	li	t0,500
     b76:	047c2823          	sw	t2,80(s8)
     b7a:	05fc2c23          	sw	t6,88(s8)
     b7e:	05ec1e23          	sh	t5,92(s8)
     b82:	05dc0f23          	sb	t4,94(s8)
     b86:	d0f2                	sw	t3,96(sp)
     b88:	d2c6                	sw	a7,100(sp)
     b8a:	d4c2                	sw	a6,104(sp)
     b8c:	d6d2                	sw	s4,108(sp)
     b8e:	d8ca                	sw	s2,112(sp)
     b90:	daa6                	sw	s1,116(sp)
     b92:	dca2                	sw	s0,120(sp)
     b94:	06611e23          	sh	t1,124(sp)
     b98:	06e10f23          	sb	a4,126(sp)
     b9c:	64dd2e23          	sw	a3,1628(s10)
     ba0:	4385                	li	t2,1
     ba2:	c816                	sw	t0,16(sp)
     ba4:	00a3da63          	ble	a0,t2,bb8 <main+0xf4>
     ba8:	41c8                	lw	a0,4(a1)
     baa:	ca3e                	sw	a5,20(sp)
     bac:	c632                	sw	a2,12(sp)
     bae:	6da000ef          	jal	ra,1288 <atoi>
     bb2:	47d2                	lw	a5,20(sp)
     bb4:	4632                	lw	a2,12(sp)
     bb6:	c82a                	sw	a0,16(sp)
     bb8:	00003ab7          	lui	s5,0x3
     bbc:	a24a8513          	addi	a0,s5,-1500 # 2a24 <__clz_tab+0x308>
     bc0:	ca3e                	sw	a5,20(sp)
     bc2:	c632                	sw	a2,12(sp)
     bc4:	3bc9                	jal	996 <sc_printf>
     bc6:	00003537          	lui	a0,0x3
     bca:	84450513          	addi	a0,a0,-1980 # 2844 <__clz_tab+0x128>
     bce:	33e1                	jal	996 <sc_printf>
     bd0:	a24a8513          	addi	a0,s5,-1500
     bd4:	33c9                	jal	996 <sc_printf>
     bd6:	000035b7          	lui	a1,0x3
     bda:	87458513          	addi	a0,a1,-1932 # 2874 <__clz_tab+0x158>
     bde:	3b65                	jal	996 <sc_printf>
     be0:	a24a8513          	addi	a0,s5,-1500
     be4:	3b4d                	jal	996 <sc_printf>
     be6:	4b42                	lw	s6,16(sp)
     be8:	00003637          	lui	a2,0x3
     bec:	8a460513          	addi	a0,a2,-1884 # 28a4 <__clz_tab+0x188>
     bf0:	85da                	mv	a1,s6
     bf2:	3355                	jal	996 <sc_printf>
     bf4:	c0002ff3          	rdcycle	t6
     bf8:	678d                	lui	a5,0x3
     bfa:	4f05                	li	t5,1
     bfc:	6e8d                	lui	t4,0x3
     bfe:	43f7a023          	sw	t6,1056(a5) # 3420 <Begin_Time>
     c02:	41eeae23          	sw	t5,1052(t4) # 341c <Run_Index>
     c06:	4532                	lw	a0,12(sp)
     c08:	48d2                	lw	a7,20(sp)
     c0a:	660b0363          	beqz	s6,1270 <main+0x7ac>
     c0e:	00003db7          	lui	s11,0x3
     c12:	dc0d8c93          	addi	s9,s11,-576 # 2dc0 <__clz_tab+0x6a4>
     c16:	000030b7          	lui	ra,0x3
     c1a:	de00a883          	lw	a7,-544(ra) # 2de0 <__clz_tab+0x6c4>
     c1e:	dc0dab83          	lw	s7,-576(s11)
     c22:	008caa03          	lw	s4,8(s9)
     c26:	00cca903          	lw	s2,12(s9)
     c2a:	010ca483          	lw	s1,16(s9)
     c2e:	004ca803          	lw	a6,4(s9)
     c32:	014ca403          	lw	s0,20(s9)
     c36:	018ca303          	lw	t1,24(s9)
     c3a:	01ccd703          	lhu	a4,28(s9)
     c3e:	668d                	lui	a3,0x3
     c40:	6391                	lui	t2,0x4
     c42:	cc5e                	sw	s7,24(sp)
     c44:	d052                	sw	s4,32(sp)
     c46:	d24a                	sw	s2,36(sp)
     c48:	d426                	sw	s1,40(sp)
     c4a:	dc46                	sw	a7,56(sp)
     c4c:	ce42                	sw	a6,28(sp)
     c4e:	d622                	sw	s0,44(sp)
     c50:	d81a                	sw	t1,48(sp)
     c52:	02e11b23          	sh	a4,54(sp)
     c56:	690d                	lui	s2,0x3
     c58:	ca36                	sw	a3,20(sp)
     c5a:	04010b13          	addi	s6,sp,64
     c5e:	06010b93          	addi	s7,sp,96
     c62:	55c38a93          	addi	s5,t2,1372 # 455c <__global_pointer$+0x99c>
     c66:	6a0d                	lui	s4,0x3
     c68:	de46                	sw	a7,60(sp)
     c6a:	01ecc283          	lbu	t0,30(s9)
     c6e:	4652                	lw	a2,20(sp)
     c70:	4fe2                	lw	t6,24(sp)
     c72:	47f2                	lw	a5,28(sp)
     c74:	5f02                	lw	t5,32(sp)
     c76:	5e92                	lw	t4,36(sp)
     c78:	5e22                	lw	t3,40(sp)
     c7a:	5db2                	lw	s11,44(sp)
     c7c:	50c2                	lw	ra,48(sp)
     c7e:	03615883          	lhu	a7,54(sp)
     c82:	06214803          	lbu	a6,98(sp)
     c86:	4505                	li	a0,1
     c88:	04200593          	li	a1,66
     c8c:	40a92c23          	sw	a0,1048(s2) # 3418 <Bool_Glob>
     c90:	40b60a23          	sb	a1,1044(a2)
     c94:	c0fe                	sw	t6,64(sp)
     c96:	c2be                	sw	a5,68(sp)
     c98:	c4fa                	sw	t5,72(sp)
     c9a:	c6f6                	sw	t4,76(sp)
     c9c:	c8f2                	sw	t3,80(sp)
     c9e:	caee                	sw	s11,84(sp)
     ca0:	cc86                	sw	ra,88(sp)
     ca2:	05111e23          	sh	a7,92(sp)
     ca6:	04510f23          	sb	t0,94(sp)
     caa:	4301                	li	t1,0
     cac:	04100713          	li	a4,65
     cb0:	05900413          	li	s0,89
     cb4:	48880d63          	beq	a6,s0,114e <main+0x68a>
     cb8:	5c031563          	bnez	t1,1282 <main+0x7be>
     cbc:	04100693          	li	a3,65
     cc0:	86d18623          	sb	a3,-1940(gp) # 342c <Ch_1_Glob>
     cc4:	85da                	mv	a1,s6
     cc6:	855e                	mv	a0,s7
     cc8:	175000ef          	jal	ra,163c <strcmp>
     ccc:	65cd2383          	lw	t2,1628(s10)
     cd0:	8641a783          	lw	a5,-1948(gp) # 3424 <Ptr_Glob>
     cd4:	429d                	li	t0,7
     cd6:	45a1                	li	a1,8
     cd8:	00138613          	addi	a2,t2,1
     cdc:	0ebc2c23          	sw	a1,248(s8)
     ce0:	66bd2023          	sw	a1,1632(s10)
     ce4:	66bd2223          	sw	a1,1636(s10)
     ce8:	64cd2e23          	sw	a2,1628(s10)
     cec:	605aa023          	sw	t0,1536(s5)
     cf0:	085c2223          	sw	t0,132(s8)
     cf4:	085c2023          	sw	t0,128(s8)
     cf8:	0007ad83          	lw	s11,0(a5)
     cfc:	43c0                	lw	s0,4(a5)
     cfe:	0087af83          	lw	t6,8(a5)
     d02:	0107af03          	lw	t5,16(a5)
     d06:	0147ae83          	lw	t4,20(a5)
     d0a:	0187ae03          	lw	t3,24(a5)
     d0e:	01c7a303          	lw	t1,28(a5)
     d12:	0207a883          	lw	a7,32(a5)
     d16:	0247a803          	lw	a6,36(a5)
     d1a:	5798                	lw	a4,40(a5)
     d1c:	4695                	li	a3,5
     d1e:	00152513          	slti	a0,a0,1
     d22:	02c7a383          	lw	t2,44(a5)
     d26:	40a92c23          	sw	a0,1048(s2)
     d2a:	008da223          	sw	s0,4(s11)
     d2e:	40da2823          	sw	a3,1040(s4) # 3410 <Int_Glob>
     d32:	01bda023          	sw	s11,0(s11)
     d36:	01fda423          	sw	t6,8(s11)
     d3a:	01eda823          	sw	t5,16(s11)
     d3e:	01ddaa23          	sw	t4,20(s11)
     d42:	01cdac23          	sw	t3,24(s11)
     d46:	006dae23          	sw	t1,28(s11)
     d4a:	031da023          	sw	a7,32(s11)
     d4e:	030da223          	sw	a6,36(s11)
     d52:	02eda423          	sw	a4,40(s11)
     d56:	0007a283          	lw	t0,0(a5)
     d5a:	4645                	li	a2,17
     d5c:	027da623          	sw	t2,44(s11)
     d60:	005da023          	sw	t0,0(s11)
     d64:	438c                	lw	a1,0(a5)
     d66:	00dda623          	sw	a3,12(s11)
     d6a:	00bda023          	sw	a1,0(s11)
     d6e:	c7d0                	sw	a2,12(a5)
     d70:	004da403          	lw	s0,4(s11)
     d74:	3e040163          	beqz	s0,1156 <main+0x692>
     d78:	0007a083          	lw	ra,0(a5)
     d7c:	6d8d                	lui	s11,0x3
     d7e:	41cda403          	lw	s0,1052(s11) # 341c <Run_Index>
     d82:	01c0a503          	lw	a0,28(ra)
     d86:	0000af83          	lw	t6,0(ra)
     d8a:	0040af03          	lw	t5,4(ra)
     d8e:	0080ae83          	lw	t4,8(ra)
     d92:	00c0ae03          	lw	t3,12(ra)
     d96:	0100a303          	lw	t1,16(ra)
     d9a:	0140a883          	lw	a7,20(ra)
     d9e:	0180a803          	lw	a6,24(ra)
     da2:	0200a383          	lw	t2,32(ra)
     da6:	0240a283          	lw	t0,36(ra)
     daa:	0280a683          	lw	a3,40(ra)
     dae:	02c0a703          	lw	a4,44(ra)
     db2:	cfc8                	sw	a0,28(a5)
     db4:	01f7a023          	sw	t6,0(a5)
     db8:	01e7a223          	sw	t5,4(a5)
     dbc:	01d7a423          	sw	t4,8(a5)
     dc0:	01c7a623          	sw	t3,12(a5)
     dc4:	0067a823          	sw	t1,16(a5)
     dc8:	0117aa23          	sw	a7,20(a5)
     dcc:	0107ac23          	sw	a6,24(a5)
     dd0:	0277a023          	sw	t2,32(a5)
     dd4:	0257a223          	sw	t0,36(a5)
     dd8:	d794                	sw	a3,40(a5)
     dda:	d7d8                	sw	a4,44(a5)
     ddc:	04100513          	li	a0,65
     de0:	d20ff0ef          	jal	ra,300 <Func_1.constprop.1>
     de4:	4d85                	li	s11,1
     de6:	460d                	li	a2,3
     de8:	3bb50863          	beq	a0,s11,1198 <main+0x6d4>
     dec:	04200513          	li	a0,66
     df0:	c632                	sw	a2,12(sp)
     df2:	d0eff0ef          	jal	ra,300 <Func_1.constprop.1>
     df6:	42b2                	lw	t0,12(sp)
     df8:	3fb50c63          	beq	a0,s11,11f0 <main+0x72c>
     dfc:	00129693          	slli	a3,t0,0x1
     e00:	00568733          	add	a4,a3,t0
     e04:	409d                	li	ra,7
     e06:	02174533          	div	a0,a4,ra
     e0a:	ff970f93          	addi	t6,a4,-7
     e0e:	86c1c583          	lbu	a1,-1940(gp) # 342c <Ch_1_Glob>
     e12:	003f9f13          	slli	t5,t6,0x3
     e16:	41ff0eb3          	sub	t4,t5,t6
     e1a:	04100e13          	li	t3,65
     e1e:	40ae88b3          	sub	a7,t4,a0
     e22:	01c59863          	bne	a1,t3,e32 <main+0x36e>
     e26:	410a2803          	lw	a6,1040(s4)
     e2a:	00950613          	addi	a2,a0,9
     e2e:	41060533          	sub	a0,a2,a6
     e32:	47c2                	lw	a5,16(sp)
     e34:	0405                	addi	s0,s0,1
     e36:	638d                	lui	t2,0x3
     e38:	4083ae23          	sw	s0,1052(t2) # 341c <Run_Index>
     e3c:	e287f7e3          	bleu	s0,a5,c6a <main+0x1a6>
     e40:	ce46                	sw	a7,28(sp)
     e42:	cc2a                	sw	a0,24(sp)
     e44:	c0002af3          	rdcycle	s5
     e48:	00003337          	lui	t1,0x3
     e4c:	8d430513          	addi	a0,t1,-1836 # 28d4 <__clz_tab+0x1b8>
     e50:	6c8d                	lui	s9,0x3
     e52:	00003437          	lui	s0,0x3
     e56:	415ca623          	sw	s5,1036(s9) # 340c <End_Time>
     e5a:	3e35                	jal	996 <sc_printf>
     e5c:	a2440513          	addi	a0,s0,-1500 # 2a24 <__clz_tab+0x308>
     e60:	3e1d                	jal	996 <sc_printf>
     e62:	000032b7          	lui	t0,0x3
     e66:	8e428513          	addi	a0,t0,-1820 # 28e4 <__clz_tab+0x1c8>
     e6a:	3635                	jal	996 <sc_printf>
     e6c:	a2440513          	addi	a0,s0,-1500
     e70:	361d                	jal	996 <sc_printf>
     e72:	410a2583          	lw	a1,1040(s4)
     e76:	00003a37          	lui	s4,0x3
     e7a:	91ca0513          	addi	a0,s4,-1764 # 291c <__clz_tab+0x200>
     e7e:	3e21                	jal	996 <sc_printf>
     e80:	00003437          	lui	s0,0x3
     e84:	4595                	li	a1,5
     e86:	93840513          	addi	a0,s0,-1736 # 2938 <__clz_tab+0x21c>
     e8a:	3631                	jal	996 <sc_printf>
     e8c:	41892583          	lw	a1,1048(s2)
     e90:	00003937          	lui	s2,0x3
     e94:	95490513          	addi	a0,s2,-1708 # 2954 <__clz_tab+0x238>
     e98:	3cfd                	jal	996 <sc_printf>
     e9a:	4585                	li	a1,1
     e9c:	93840513          	addi	a0,s0,-1736
     ea0:	3cdd                	jal	996 <sc_printf>
     ea2:	86c1c583          	lbu	a1,-1940(gp) # 342c <Ch_1_Glob>
     ea6:	000034b7          	lui	s1,0x3
     eaa:	97048513          	addi	a0,s1,-1680 # 2970 <__clz_tab+0x254>
     eae:	34e5                	jal	996 <sc_printf>
     eb0:	00003ab7          	lui	s5,0x3
     eb4:	04100593          	li	a1,65
     eb8:	98ca8513          	addi	a0,s5,-1652 # 298c <__clz_tab+0x270>
     ebc:	3ce9                	jal	996 <sc_printf>
     ebe:	46d2                	lw	a3,20(sp)
     ec0:	00003737          	lui	a4,0x3
     ec4:	9a870513          	addi	a0,a4,-1624 # 29a8 <__clz_tab+0x28c>
     ec8:	4146c583          	lbu	a1,1044(a3) # 3414 <Ch_2_Glob>
     ecc:	00003a37          	lui	s4,0x3
     ed0:	00003937          	lui	s2,0x3
     ed4:	34c9                	jal	996 <sc_printf>
     ed6:	04200593          	li	a1,66
     eda:	98ca8513          	addi	a0,s5,-1652
     ede:	3c65                	jal	996 <sc_printf>
     ee0:	080c2583          	lw	a1,128(s8)
     ee4:	00003c37          	lui	s8,0x3
     ee8:	9c4c0513          	addi	a0,s8,-1596 # 29c4 <__clz_tab+0x2a8>
     eec:	346d                	jal	996 <sc_printf>
     eee:	459d                	li	a1,7
     ef0:	93840513          	addi	a0,s0,-1736
     ef4:	344d                	jal	996 <sc_printf>
     ef6:	65cd2583          	lw	a1,1628(s10)
     efa:	00003d37          	lui	s10,0x3
     efe:	9e0d0513          	addi	a0,s10,-1568 # 29e0 <__clz_tab+0x2c4>
     f02:	3c51                	jal	996 <sc_printf>
     f04:	00003fb7          	lui	t6,0x3
     f08:	9fcf8513          	addi	a0,t6,-1540 # 29fc <__clz_tab+0x2e0>
     f0c:	3469                	jal	996 <sc_printf>
     f0e:	000035b7          	lui	a1,0x3
     f12:	a2858513          	addi	a0,a1,-1496 # 2a28 <__clz_tab+0x30c>
     f16:	3441                	jal	996 <sc_printf>
     f18:	8641af03          	lw	t5,-1948(gp) # 3424 <Ptr_Glob>
     f1c:	00003eb7          	lui	t4,0x3
     f20:	a34e8513          	addi	a0,t4,-1484 # 2a34 <__clz_tab+0x318>
     f24:	000f2583          	lw	a1,0(t5)
     f28:	c676                	sw	t4,12(sp)
     f2a:	00003c37          	lui	s8,0x3
     f2e:	34a5                	jal	996 <sc_printf>
     f30:	00003e37          	lui	t3,0x3
     f34:	a50e0513          	addi	a0,t3,-1456 # 2a50 <__clz_tab+0x334>
     f38:	3cb9                	jal	996 <sc_printf>
     f3a:	8641a883          	lw	a7,-1948(gp) # 3424 <Ptr_Glob>
     f3e:	a84c0513          	addi	a0,s8,-1404 # 2a84 <__clz_tab+0x368>
     f42:	00003ab7          	lui	s5,0x3
     f46:	0048a583          	lw	a1,4(a7)
     f4a:	000034b7          	lui	s1,0x3
     f4e:	34a1                	jal	996 <sc_printf>
     f50:	4581                	li	a1,0
     f52:	93840513          	addi	a0,s0,-1736
     f56:	3481                	jal	996 <sc_printf>
     f58:	8641a803          	lw	a6,-1948(gp) # 3424 <Ptr_Glob>
     f5c:	aa0a8513          	addi	a0,s5,-1376 # 2aa0 <__clz_tab+0x384>
     f60:	00882583          	lw	a1,8(a6)
     f64:	3c0d                	jal	996 <sc_printf>
     f66:	4589                	li	a1,2
     f68:	93840513          	addi	a0,s0,-1736
     f6c:	342d                	jal	996 <sc_printf>
     f6e:	8641a603          	lw	a2,-1948(gp) # 3424 <Ptr_Glob>
     f72:	abca0513          	addi	a0,s4,-1348 # 2abc <__clz_tab+0x3a0>
     f76:	464c                	lw	a1,12(a2)
     f78:	3c39                	jal	996 <sc_printf>
     f7a:	45c5                	li	a1,17
     f7c:	93840513          	addi	a0,s0,-1736
     f80:	3c19                	jal	996 <sc_printf>
     f82:	8641a983          	lw	s3,-1948(gp) # 3424 <Ptr_Glob>
     f86:	ad890513          	addi	a0,s2,-1320 # 2ad8 <__clz_tab+0x3bc>
     f8a:	01098593          	addi	a1,s3,16
     f8e:	3421                	jal	996 <sc_printf>
     f90:	af448513          	addi	a0,s1,-1292 # 2af4 <__clz_tab+0x3d8>
     f94:	3409                	jal	996 <sc_printf>
     f96:	00003537          	lui	a0,0x3
     f9a:	b2c50513          	addi	a0,a0,-1236 # 2b2c <__clz_tab+0x410>
     f9e:	3ae5                	jal	996 <sc_printf>
     fa0:	8681a383          	lw	t2,-1944(gp) # 3428 <Next_Ptr_Glob>
     fa4:	47b2                	lw	a5,12(sp)
     fa6:	0003a583          	lw	a1,0(t2)
     faa:	a3478513          	addi	a0,a5,-1484
     fae:	32e5                	jal	996 <sc_printf>
     fb0:	00003337          	lui	t1,0x3
     fb4:	b4030513          	addi	a0,t1,-1216 # 2b40 <__clz_tab+0x424>
     fb8:	3af9                	jal	996 <sc_printf>
     fba:	8681a283          	lw	t0,-1944(gp) # 3428 <Next_Ptr_Glob>
     fbe:	a84c0513          	addi	a0,s8,-1404
     fc2:	00003c37          	lui	s8,0x3
     fc6:	0042a583          	lw	a1,4(t0)
     fca:	32f1                	jal	996 <sc_printf>
     fcc:	4581                	li	a1,0
     fce:	93840513          	addi	a0,s0,-1736
     fd2:	32d1                	jal	996 <sc_printf>
     fd4:	8681a683          	lw	a3,-1944(gp) # 3428 <Next_Ptr_Glob>
     fd8:	aa0a8513          	addi	a0,s5,-1376
     fdc:	00003ab7          	lui	s5,0x3
     fe0:	468c                	lw	a1,8(a3)
     fe2:	3a55                	jal	996 <sc_printf>
     fe4:	4585                	li	a1,1
     fe6:	93840513          	addi	a0,s0,-1736
     fea:	3275                	jal	996 <sc_printf>
     fec:	8681a703          	lw	a4,-1944(gp) # 3428 <Next_Ptr_Glob>
     ff0:	abca0513          	addi	a0,s4,-1348
     ff4:	00003a37          	lui	s4,0x3
     ff8:	474c                	lw	a1,12(a4)
     ffa:	3a71                	jal	996 <sc_printf>
     ffc:	45c9                	li	a1,18
     ffe:	93840513          	addi	a0,s0,-1736
    1002:	3a51                	jal	996 <sc_printf>
    1004:	8681af83          	lw	t6,-1944(gp) # 3428 <Next_Ptr_Glob>
    1008:	ad890513          	addi	a0,s2,-1320
    100c:	010f8593          	addi	a1,t6,16
    1010:	3259                	jal	996 <sc_printf>
    1012:	af448513          	addi	a0,s1,-1292
    1016:	3241                	jal	996 <sc_printf>
    1018:	45e2                	lw	a1,24(sp)
    101a:	00003f37          	lui	t5,0x3
    101e:	b80f0513          	addi	a0,t5,-1152 # 2b80 <__clz_tab+0x464>
    1022:	3a95                	jal	996 <sc_printf>
    1024:	4595                	li	a1,5
    1026:	93840513          	addi	a0,s0,-1736
    102a:	32b5                	jal	996 <sc_printf>
    102c:	45f2                	lw	a1,28(sp)
    102e:	00003eb7          	lui	t4,0x3
    1032:	b9ce8513          	addi	a0,t4,-1124 # 2b9c <__clz_tab+0x480>
    1036:	961ff0ef          	jal	ra,996 <sc_printf>
    103a:	45b5                	li	a1,13
    103c:	93840513          	addi	a0,s0,-1736
    1040:	957ff0ef          	jal	ra,996 <sc_printf>
    1044:	459d                	li	a1,7
    1046:	bb8c0513          	addi	a0,s8,-1096 # 2bb8 <__clz_tab+0x49c>
    104a:	94dff0ef          	jal	ra,996 <sc_printf>
    104e:	459d                	li	a1,7
    1050:	93840513          	addi	a0,s0,-1736
    1054:	943ff0ef          	jal	ra,996 <sc_printf>
    1058:	85ee                	mv	a1,s11
    105a:	00003db7          	lui	s11,0x3
    105e:	bd4d8513          	addi	a0,s11,-1068 # 2bd4 <__clz_tab+0x4b8>
    1062:	935ff0ef          	jal	ra,996 <sc_printf>
    1066:	4585                	li	a1,1
    1068:	93840513          	addi	a0,s0,-1736
    106c:	92bff0ef          	jal	ra,996 <sc_printf>
    1070:	85de                	mv	a1,s7
    1072:	00003bb7          	lui	s7,0x3
    1076:	bf0b8513          	addi	a0,s7,-1040 # 2bf0 <__clz_tab+0x4d4>
    107a:	91dff0ef          	jal	ra,996 <sc_printf>
    107e:	00003437          	lui	s0,0x3
    1082:	c0c40513          	addi	a0,s0,-1012 # 2c0c <__clz_tab+0x4f0>
    1086:	911ff0ef          	jal	ra,996 <sc_printf>
    108a:	85da                	mv	a1,s6
    108c:	00003b37          	lui	s6,0x3
    1090:	c44b0513          	addi	a0,s6,-956 # 2c44 <__clz_tab+0x528>
    1094:	903ff0ef          	jal	ra,996 <sc_printf>
    1098:	c60a8513          	addi	a0,s5,-928 # 2c60 <__clz_tab+0x544>
    109c:	8fbff0ef          	jal	ra,996 <sc_printf>
    10a0:	a24a0513          	addi	a0,s4,-1500 # 2a24 <__clz_tab+0x308>
    10a4:	8f3ff0ef          	jal	ra,996 <sc_printf>
    10a8:	688d                	lui	a7,0x3
    10aa:	40ccae03          	lw	t3,1036(s9)
    10ae:	4208a903          	lw	s2,1056(a7) # 3420 <Begin_Time>
    10b2:	660d                	lui	a2,0x3
    10b4:	4485                	li	s1,1
    10b6:	412e0833          	sub	a6,t3,s2
    10ba:	41062423          	sw	a6,1032(a2) # 3408 <User_Time>
    10be:	1904d863          	ble	a6,s1,124e <main+0x78a>
    10c2:	49c2                	lw	s3,16(sp)
    10c4:	000f40b7          	lui	ra,0xf4
    10c8:	24008613          	addi	a2,ra,576 # f4240 <__C_STACK_TOP__+0xe4240>
    10cc:	02c983b3          	mul	t2,s3,a2
    10d0:	00003537          	lui	a0,0x3
    10d4:	6c0d                	lui	s8,0x3
    10d6:	6d8d                	lui	s11,0x3
    10d8:	85ce                	mv	a1,s3
    10da:	cf050513          	addi	a0,a0,-784 # 2cf0 <__clz_tab+0x5d4>
    10de:	03384d33          	div	s10,a6,s3
    10e2:	0303c7b3          	div	a5,t2,a6
    10e6:	41ac2223          	sw	s10,1028(s8) # 3404 <Microseconds>
    10ea:	40fda023          	sw	a5,1024(s11) # 3400 <__BSS_START__>
    10ee:	8a9ff0ef          	jal	ra,996 <sc_printf>
    10f2:	630d                	lui	t1,0x3
    10f4:	40cca603          	lw	a2,1036(s9)
    10f8:	6c8d                	lui	s9,0x3
    10fa:	40832683          	lw	a3,1032(t1) # 3408 <User_Time>
    10fe:	420ca583          	lw	a1,1056(s9) # 3420 <Begin_Time>
    1102:	000032b7          	lui	t0,0x3
    1106:	d1028513          	addi	a0,t0,-752 # 2d10 <__clz_tab+0x5f4>
    110a:	88dff0ef          	jal	ra,996 <sc_printf>
    110e:	404c2583          	lw	a1,1028(s8)
    1112:	000036b7          	lui	a3,0x3
    1116:	d3868513          	addi	a0,a3,-712 # 2d38 <__clz_tab+0x61c>
    111a:	87dff0ef          	jal	ra,996 <sc_printf>
    111e:	400da583          	lw	a1,1024(s11)
    1122:	00003737          	lui	a4,0x3
    1126:	d6c70513          	addi	a0,a4,-660 # 2d6c <__clz_tab+0x650>
    112a:	86dff0ef          	jal	ra,996 <sc_printf>
    112e:	50fa                	lw	ra,188(sp)
    1130:	546a                	lw	s0,184(sp)
    1132:	54da                	lw	s1,180(sp)
    1134:	594a                	lw	s2,176(sp)
    1136:	59ba                	lw	s3,172(sp)
    1138:	5a2a                	lw	s4,168(sp)
    113a:	5a9a                	lw	s5,164(sp)
    113c:	5b0a                	lw	s6,160(sp)
    113e:	4bfa                	lw	s7,156(sp)
    1140:	4c6a                	lw	s8,152(sp)
    1142:	4cda                	lw	s9,148(sp)
    1144:	4d4a                	lw	s10,144(sp)
    1146:	4dba                	lw	s11,140(sp)
    1148:	4501                	li	a0,0
    114a:	6129                	addi	sp,sp,192
    114c:	8082                	ret
    114e:	4305                	li	t1,1
    1150:	05900713          	li	a4,89
    1154:	b685                	j	cb4 <main+0x1f0>
    1156:	0087a083          	lw	ra,8(a5)
    115a:	4599                	li	a1,6
    115c:	00bda623          	sw	a1,12(s11)
    1160:	4609                	li	a2,2
    1162:	0cc08c63          	beq	ra,a2,123a <main+0x776>
    1166:	0c008e63          	beqz	ra,1242 <main+0x77e>
    116a:	4411                	li	s0,4
    116c:	0c808e63          	beq	ra,s0,1248 <main+0x784>
    1170:	4f8d                	li	t6,3
    1172:	01fda423          	sw	t6,8(s11)
    1176:	439c                	lw	a5,0(a5)
    1178:	4ec9                	li	t4,18
    117a:	01dda623          	sw	t4,12(s11)
    117e:	00fda023          	sw	a5,0(s11)
    1182:	04100513          	li	a0,65
    1186:	6d8d                	lui	s11,0x3
    1188:	41cda403          	lw	s0,1052(s11) # 341c <Run_Index>
    118c:	974ff0ef          	jal	ra,300 <Func_1.constprop.1>
    1190:	4d85                	li	s11,1
    1192:	460d                	li	a2,3
    1194:	c5b51ce3          	bne	a0,s11,dec <main+0x328>
    1198:	00003e37          	lui	t3,0x3
    119c:	de0e0313          	addi	t1,t3,-544 # 2de0 <__clz_tab+0x6c4>
    11a0:	00c32503          	lw	a0,12(t1)
    11a4:	01432283          	lw	t0,20(t1)
    11a8:	00432883          	lw	a7,4(t1)
    11ac:	00832803          	lw	a6,8(t1)
    11b0:	01032383          	lw	t2,16(t1)
    11b4:	01832683          	lw	a3,24(t1)
    11b8:	01c35703          	lhu	a4,28(t1)
    11bc:	01e34083          	lbu	ra,30(t1)
    11c0:	55e2                	lw	a1,56(sp)
    11c2:	c6aa                	sw	a0,76(sp)
    11c4:	8622                	mv	a2,s0
    11c6:	04200513          	li	a0,66
    11ca:	ca96                	sw	t0,84(sp)
    11cc:	c0ae                	sw	a1,64(sp)
    11ce:	c2c6                	sw	a7,68(sp)
    11d0:	c4c2                	sw	a6,72(sp)
    11d2:	c89e                	sw	t2,80(sp)
    11d4:	ccb6                	sw	a3,88(sp)
    11d6:	04e11e23          	sh	a4,92(sp)
    11da:	04110f23          	sb	ra,94(sp)
    11de:	408a2823          	sw	s0,1040(s4)
    11e2:	c632                	sw	a2,12(sp)
    11e4:	4d81                	li	s11,0
    11e6:	91aff0ef          	jal	ra,300 <Func_1.constprop.1>
    11ea:	42b2                	lw	t0,12(sp)
    11ec:	c1b518e3          	bne	a0,s11,dfc <main+0x338>
    11f0:	00003fb7          	lui	t6,0x3
    11f4:	de0f8f13          	addi	t5,t6,-544 # 2de0 <__clz_tab+0x6c4>
    11f8:	008f2d83          	lw	s11,8(t5)
    11fc:	004f2e83          	lw	t4,4(t5)
    1200:	00cf2e03          	lw	t3,12(t5)
    1204:	010f2883          	lw	a7,16(t5)
    1208:	014f2803          	lw	a6,20(t5)
    120c:	018f2503          	lw	a0,24(t5)
    1210:	01cf5383          	lhu	t2,28(t5)
    1214:	01ef4783          	lbu	a5,30(t5)
    1218:	5372                	lw	t1,60(sp)
    121a:	c4ee                	sw	s11,72(sp)
    121c:	c2f6                	sw	t4,68(sp)
    121e:	c09a                	sw	t1,64(sp)
    1220:	c6f2                	sw	t3,76(sp)
    1222:	c8c6                	sw	a7,80(sp)
    1224:	cac2                	sw	a6,84(sp)
    1226:	ccaa                	sw	a0,88(sp)
    1228:	04711e23          	sh	t2,92(sp)
    122c:	04f10f23          	sb	a5,94(sp)
    1230:	82a2                	mv	t0,s0
    1232:	408a2823          	sw	s0,1040(s4)
    1236:	4d81                	li	s11,0
    1238:	b6d1                	j	dfc <main+0x338>
    123a:	4f05                	li	t5,1
    123c:	01eda423          	sw	t5,8(s11)
    1240:	bf1d                	j	1176 <main+0x6b2>
    1242:	000da423          	sw	zero,8(s11)
    1246:	bf05                	j	1176 <main+0x6b2>
    1248:	00cda423          	sw	a2,8(s11)
    124c:	b72d                	j	1176 <main+0x6b2>
    124e:	00003fb7          	lui	t6,0x3
    1252:	c98f8513          	addi	a0,t6,-872 # 2c98 <__clz_tab+0x57c>
    1256:	f40ff0ef          	jal	ra,996 <sc_printf>
    125a:	00003f37          	lui	t5,0x3
    125e:	cd0f0513          	addi	a0,t5,-816 # 2cd0 <__clz_tab+0x5b4>
    1262:	f34ff0ef          	jal	ra,996 <sc_printf>
    1266:	a24a0513          	addi	a0,s4,-1500
    126a:	f2cff0ef          	jal	ra,996 <sc_printf>
    126e:	b5c1                	j	112e <main+0x66a>
    1270:	6e0d                	lui	t3,0x3
    1272:	690d                	lui	s2,0x3
    1274:	ca72                	sw	t3,20(sp)
    1276:	04010b13          	addi	s6,sp,64
    127a:	06010b93          	addi	s7,sp,96
    127e:	6a0d                	lui	s4,0x3
    1280:	b6c1                	j	e40 <main+0x37c>
    1282:	86e18623          	sb	a4,-1940(gp) # 342c <Ch_1_Glob>
    1286:	bc3d                	j	cc4 <main+0x200>

00001288 <atoi>:
    1288:	00a00613          	li	a2,10
    128c:	00000593          	li	a1,0
    1290:	2300006f          	j	14c0 <strtol>

00001294 <_atoi_r>:
    1294:	00a00693          	li	a3,10
    1298:	00000613          	li	a2,0
    129c:	1ec0006f          	j	1488 <_strtol_r>

000012a0 <strnlen>:
    12a0:	00b505b3          	add	a1,a0,a1
    12a4:	00050793          	mv	a5,a0
    12a8:	00b78663          	beq	a5,a1,12b4 <strnlen+0x14>
    12ac:	0007c703          	lbu	a4,0(a5)
    12b0:	00071663          	bnez	a4,12bc <strnlen+0x1c>
    12b4:	40a78533          	sub	a0,a5,a0
    12b8:	00008067          	ret
    12bc:	00178793          	addi	a5,a5,1
    12c0:	fe9ff06f          	j	12a8 <strnlen+0x8>
    12c4:	0000                	unimp
	...

000012c8 <_strtol_l.isra.0>:
    12c8:	fd010113          	addi	sp,sp,-48
    12cc:	03212023          	sw	s2,32(sp)
    12d0:	01312e23          	sw	s3,28(sp)
    12d4:	02112623          	sw	ra,44(sp)
    12d8:	02812423          	sw	s0,40(sp)
    12dc:	02912223          	sw	s1,36(sp)
    12e0:	00050993          	mv	s3,a0
    12e4:	00058913          	mv	s2,a1
    12e8:	00190493          	addi	s1,s2,1 # 3001 <impure_data+0x1f1>
    12ec:	fff4c403          	lbu	s0,-1(s1)
    12f0:	00070513          	mv	a0,a4
    12f4:	00d12623          	sw	a3,12(sp)
    12f8:	00c12423          	sw	a2,8(sp)
    12fc:	00b12223          	sw	a1,4(sp)
    1300:	00e12023          	sw	a4,0(sp)
    1304:	27c000ef          	jal	ra,1580 <__locale_ctype_ptr_l>
    1308:	00850533          	add	a0,a0,s0
    130c:	00154783          	lbu	a5,1(a0)
    1310:	00012703          	lw	a4,0(sp)
    1314:	00412583          	lw	a1,4(sp)
    1318:	0087f793          	andi	a5,a5,8
    131c:	00812603          	lw	a2,8(sp)
    1320:	00c12683          	lw	a3,12(sp)
    1324:	0a079663          	bnez	a5,13d0 <_strtol_l.isra.0+0x108>
    1328:	02d00793          	li	a5,45
    132c:	0af41663          	bne	s0,a5,13d8 <_strtol_l.isra.0+0x110>
    1330:	0004c783          	lbu	a5,0(s1)
    1334:	00100313          	li	t1,1
    1338:	00290493          	addi	s1,s2,2
    133c:	12068e63          	beqz	a3,1478 <_strtol_l.isra.0+0x1b0>
    1340:	01000713          	li	a4,16
    1344:	02e69463          	bne	a3,a4,136c <_strtol_l.isra.0+0xa4>
    1348:	03000713          	li	a4,48
    134c:	02e79063          	bne	a5,a4,136c <_strtol_l.isra.0+0xa4>
    1350:	0004c783          	lbu	a5,0(s1)
    1354:	05800713          	li	a4,88
    1358:	0df7f793          	andi	a5,a5,223
    135c:	10e79663          	bne	a5,a4,1468 <_strtol_l.isra.0+0x1a0>
    1360:	0014c783          	lbu	a5,1(s1)
    1364:	01000693          	li	a3,16
    1368:	00248493          	addi	s1,s1,2
    136c:	800008b7          	lui	a7,0x80000
    1370:	00031463          	bnez	t1,1378 <_strtol_l.isra.0+0xb0>
    1374:	fff8c893          	not	a7,a7
    1378:	02d8ff33          	remu	t5,a7,a3
    137c:	00000813          	li	a6,0
    1380:	00000513          	li	a0,0
    1384:	00900f93          	li	t6,9
    1388:	01900e93          	li	t4,25
    138c:	fff00293          	li	t0,-1
    1390:	02d8de33          	divu	t3,a7,a3
    1394:	fd078713          	addi	a4,a5,-48
    1398:	06efe063          	bltu	t6,a4,13f8 <_strtol_l.isra.0+0x130>
    139c:	00070793          	mv	a5,a4
    13a0:	06d7dc63          	ble	a3,a5,1418 <_strtol_l.isra.0+0x150>
    13a4:	02580063          	beq	a6,t0,13c4 <_strtol_l.isra.0+0xfc>
    13a8:	fff00813          	li	a6,-1
    13ac:	00ae6c63          	bltu	t3,a0,13c4 <_strtol_l.isra.0+0xfc>
    13b0:	00ae1463          	bne	t3,a0,13b8 <_strtol_l.isra.0+0xf0>
    13b4:	00ff4863          	blt	t5,a5,13c4 <_strtol_l.isra.0+0xfc>
    13b8:	00100813          	li	a6,1
    13bc:	02a68533          	mul	a0,a3,a0
    13c0:	00a78533          	add	a0,a5,a0
    13c4:	00148493          	addi	s1,s1,1
    13c8:	fff4c783          	lbu	a5,-1(s1)
    13cc:	fc9ff06f          	j	1394 <_strtol_l.isra.0+0xcc>
    13d0:	00048913          	mv	s2,s1
    13d4:	f15ff06f          	j	12e8 <_strtol_l.isra.0+0x20>
    13d8:	02b00793          	li	a5,43
    13dc:	00f40863          	beq	s0,a5,13ec <_strtol_l.isra.0+0x124>
    13e0:	00040793          	mv	a5,s0
    13e4:	00000313          	li	t1,0
    13e8:	f55ff06f          	j	133c <_strtol_l.isra.0+0x74>
    13ec:	0004c783          	lbu	a5,0(s1)
    13f0:	00290493          	addi	s1,s2,2
    13f4:	ff1ff06f          	j	13e4 <_strtol_l.isra.0+0x11c>
    13f8:	fbf78713          	addi	a4,a5,-65
    13fc:	00eee663          	bltu	t4,a4,1408 <_strtol_l.isra.0+0x140>
    1400:	fc978793          	addi	a5,a5,-55
    1404:	f9dff06f          	j	13a0 <_strtol_l.isra.0+0xd8>
    1408:	f9f78713          	addi	a4,a5,-97
    140c:	00eee663          	bltu	t4,a4,1418 <_strtol_l.isra.0+0x150>
    1410:	fa978793          	addi	a5,a5,-87
    1414:	f8dff06f          	j	13a0 <_strtol_l.isra.0+0xd8>
    1418:	fff00793          	li	a5,-1
    141c:	02f81863          	bne	a6,a5,144c <_strtol_l.isra.0+0x184>
    1420:	02200793          	li	a5,34
    1424:	00f9a023          	sw	a5,0(s3)
    1428:	00088513          	mv	a0,a7
    142c:	02061863          	bnez	a2,145c <_strtol_l.isra.0+0x194>
    1430:	02c12083          	lw	ra,44(sp)
    1434:	02812403          	lw	s0,40(sp)
    1438:	02412483          	lw	s1,36(sp)
    143c:	02012903          	lw	s2,32(sp)
    1440:	01c12983          	lw	s3,28(sp)
    1444:	03010113          	addi	sp,sp,48
    1448:	00008067          	ret
    144c:	00030463          	beqz	t1,1454 <_strtol_l.isra.0+0x18c>
    1450:	40a00533          	neg	a0,a0
    1454:	fc060ee3          	beqz	a2,1430 <_strtol_l.isra.0+0x168>
    1458:	00080463          	beqz	a6,1460 <_strtol_l.isra.0+0x198>
    145c:	fff48593          	addi	a1,s1,-1
    1460:	00b62023          	sw	a1,0(a2)
    1464:	fcdff06f          	j	1430 <_strtol_l.isra.0+0x168>
    1468:	03000793          	li	a5,48
    146c:	f00690e3          	bnez	a3,136c <_strtol_l.isra.0+0xa4>
    1470:	00800693          	li	a3,8
    1474:	ef9ff06f          	j	136c <_strtol_l.isra.0+0xa4>
    1478:	03000713          	li	a4,48
    147c:	ece78ae3          	beq	a5,a4,1350 <_strtol_l.isra.0+0x88>
    1480:	00a00693          	li	a3,10
    1484:	ee9ff06f          	j	136c <_strtol_l.isra.0+0xa4>

00001488 <_strtol_r>:
    1488:	000037b7          	lui	a5,0x3
    148c:	3c47a783          	lw	a5,964(a5) # 33c4 <_impure_ptr>
    1490:	0347a703          	lw	a4,52(a5)
    1494:	00071663          	bnez	a4,14a0 <_strtol_r+0x18>
    1498:	00003737          	lui	a4,0x3
    149c:	23870713          	addi	a4,a4,568 # 3238 <__global_locale>
    14a0:	e29ff06f          	j	12c8 <_strtol_l.isra.0>

000014a4 <strtol_l>:
    14a4:	000037b7          	lui	a5,0x3
    14a8:	00068713          	mv	a4,a3
    14ac:	00060693          	mv	a3,a2
    14b0:	00058613          	mv	a2,a1
    14b4:	00050593          	mv	a1,a0
    14b8:	3c47a503          	lw	a0,964(a5) # 33c4 <_impure_ptr>
    14bc:	e0dff06f          	j	12c8 <_strtol_l.isra.0>

000014c0 <strtol>:
    14c0:	000037b7          	lui	a5,0x3
    14c4:	3c47a783          	lw	a5,964(a5) # 33c4 <_impure_ptr>
    14c8:	00060693          	mv	a3,a2
    14cc:	0347a703          	lw	a4,52(a5)
    14d0:	00071663          	bnez	a4,14dc <strtol+0x1c>
    14d4:	00003737          	lui	a4,0x3
    14d8:	23870713          	addi	a4,a4,568 # 3238 <__global_locale>
    14dc:	00058613          	mv	a2,a1
    14e0:	00050593          	mv	a1,a0
    14e4:	00078513          	mv	a0,a5
    14e8:	de1ff06f          	j	12c8 <_strtol_l.isra.0>

000014ec <_setlocale_r>:
    14ec:	ff010113          	addi	sp,sp,-16
    14f0:	00912223          	sw	s1,4(sp)
    14f4:	00112623          	sw	ra,12(sp)
    14f8:	00812423          	sw	s0,8(sp)
    14fc:	000034b7          	lui	s1,0x3
    1500:	04060263          	beqz	a2,1544 <_setlocale_r+0x58>
    1504:	000035b7          	lui	a1,0x3
    1508:	e0458593          	addi	a1,a1,-508 # 2e04 <__clz_tab+0x6e8>
    150c:	00060513          	mv	a0,a2
    1510:	00060413          	mv	s0,a2
    1514:	128000ef          	jal	ra,163c <strcmp>
    1518:	02050663          	beqz	a0,1544 <_setlocale_r+0x58>
    151c:	e0048593          	addi	a1,s1,-512 # 2e00 <__clz_tab+0x6e4>
    1520:	00040513          	mv	a0,s0
    1524:	118000ef          	jal	ra,163c <strcmp>
    1528:	00050e63          	beqz	a0,1544 <_setlocale_r+0x58>
    152c:	000035b7          	lui	a1,0x3
    1530:	a8058593          	addi	a1,a1,-1408 # 2a80 <__clz_tab+0x364>
    1534:	00040513          	mv	a0,s0
    1538:	104000ef          	jal	ra,163c <strcmp>
    153c:	00000793          	li	a5,0
    1540:	00051463          	bnez	a0,1548 <_setlocale_r+0x5c>
    1544:	e0048793          	addi	a5,s1,-512
    1548:	00c12083          	lw	ra,12(sp)
    154c:	00812403          	lw	s0,8(sp)
    1550:	00412483          	lw	s1,4(sp)
    1554:	00078513          	mv	a0,a5
    1558:	01010113          	addi	sp,sp,16
    155c:	00008067          	ret

00001560 <__locale_mb_cur_max>:
    1560:	000037b7          	lui	a5,0x3
    1564:	3c47a783          	lw	a5,964(a5) # 33c4 <_impure_ptr>
    1568:	0347a783          	lw	a5,52(a5)
    156c:	00079663          	bnez	a5,1578 <__locale_mb_cur_max+0x18>
    1570:	000037b7          	lui	a5,0x3
    1574:	23878793          	addi	a5,a5,568 # 3238 <__global_locale>
    1578:	1287c503          	lbu	a0,296(a5)
    157c:	00008067          	ret

00001580 <__locale_ctype_ptr_l>:
    1580:	0ec52503          	lw	a0,236(a0)
    1584:	00008067          	ret

00001588 <__locale_ctype_ptr>:
    1588:	000037b7          	lui	a5,0x3
    158c:	3c47a783          	lw	a5,964(a5) # 33c4 <_impure_ptr>
    1590:	0347a783          	lw	a5,52(a5)
    1594:	00079663          	bnez	a5,15a0 <__locale_ctype_ptr+0x18>
    1598:	000037b7          	lui	a5,0x3
    159c:	23878793          	addi	a5,a5,568 # 3238 <__global_locale>
    15a0:	0ec7a503          	lw	a0,236(a5)
    15a4:	00008067          	ret

000015a8 <setlocale>:
    15a8:	000037b7          	lui	a5,0x3
    15ac:	00058613          	mv	a2,a1
    15b0:	00050593          	mv	a1,a0
    15b4:	3c47a503          	lw	a0,964(a5) # 33c4 <_impure_ptr>
    15b8:	f35ff06f          	j	14ec <_setlocale_r>
    15bc:	0000                	unimp
	...

000015c0 <_mbtowc_r>:
    15c0:	000037b7          	lui	a5,0x3
    15c4:	3c47a783          	lw	a5,964(a5) # 33c4 <_impure_ptr>
    15c8:	0347a783          	lw	a5,52(a5)
    15cc:	00079663          	bnez	a5,15d8 <_mbtowc_r+0x18>
    15d0:	000037b7          	lui	a5,0x3
    15d4:	23878793          	addi	a5,a5,568 # 3238 <__global_locale>
    15d8:	0e47a303          	lw	t1,228(a5)
    15dc:	00030067          	jr	t1

000015e0 <__ascii_mbtowc>:
    15e0:	02059a63          	bnez	a1,1614 <__ascii_mbtowc+0x34>
    15e4:	ff010113          	addi	sp,sp,-16
    15e8:	00c10593          	addi	a1,sp,12
    15ec:	00000513          	li	a0,0
    15f0:	00060e63          	beqz	a2,160c <__ascii_mbtowc+0x2c>
    15f4:	ffe00513          	li	a0,-2
    15f8:	00068a63          	beqz	a3,160c <__ascii_mbtowc+0x2c>
    15fc:	00064783          	lbu	a5,0(a2)
    1600:	00f5a023          	sw	a5,0(a1)
    1604:	00064503          	lbu	a0,0(a2)
    1608:	00a03533          	snez	a0,a0
    160c:	01010113          	addi	sp,sp,16
    1610:	00008067          	ret
    1614:	00000513          	li	a0,0
    1618:	02060063          	beqz	a2,1638 <__ascii_mbtowc+0x58>
    161c:	ffe00513          	li	a0,-2
    1620:	00068c63          	beqz	a3,1638 <__ascii_mbtowc+0x58>
    1624:	00064783          	lbu	a5,0(a2)
    1628:	00f5a023          	sw	a5,0(a1)
    162c:	00064503          	lbu	a0,0(a2)
    1630:	00a03533          	snez	a0,a0
    1634:	00008067          	ret
    1638:	00008067          	ret

0000163c <strcmp>:
    163c:	00b56733          	or	a4,a0,a1
    1640:	fff00393          	li	t2,-1
    1644:	00377713          	andi	a4,a4,3
    1648:	10071063          	bnez	a4,1748 <strcmp+0x10c>
    164c:	7f7f87b7          	lui	a5,0x7f7f8
    1650:	f7f78793          	addi	a5,a5,-129 # 7f7f7f7f <__C_STACK_TOP__+0x7f7e7f7f>
    1654:	00052603          	lw	a2,0(a0)
    1658:	0005a683          	lw	a3,0(a1)
    165c:	00f672b3          	and	t0,a2,a5
    1660:	00f66333          	or	t1,a2,a5
    1664:	00f282b3          	add	t0,t0,a5
    1668:	0062e2b3          	or	t0,t0,t1
    166c:	10729263          	bne	t0,t2,1770 <strcmp+0x134>
    1670:	08d61663          	bne	a2,a3,16fc <strcmp+0xc0>
    1674:	00452603          	lw	a2,4(a0)
    1678:	0045a683          	lw	a3,4(a1)
    167c:	00f672b3          	and	t0,a2,a5
    1680:	00f66333          	or	t1,a2,a5
    1684:	00f282b3          	add	t0,t0,a5
    1688:	0062e2b3          	or	t0,t0,t1
    168c:	0c729e63          	bne	t0,t2,1768 <strcmp+0x12c>
    1690:	06d61663          	bne	a2,a3,16fc <strcmp+0xc0>
    1694:	00852603          	lw	a2,8(a0)
    1698:	0085a683          	lw	a3,8(a1)
    169c:	00f672b3          	and	t0,a2,a5
    16a0:	00f66333          	or	t1,a2,a5
    16a4:	00f282b3          	add	t0,t0,a5
    16a8:	0062e2b3          	or	t0,t0,t1
    16ac:	0c729863          	bne	t0,t2,177c <strcmp+0x140>
    16b0:	04d61663          	bne	a2,a3,16fc <strcmp+0xc0>
    16b4:	00c52603          	lw	a2,12(a0)
    16b8:	00c5a683          	lw	a3,12(a1)
    16bc:	00f672b3          	and	t0,a2,a5
    16c0:	00f66333          	or	t1,a2,a5
    16c4:	00f282b3          	add	t0,t0,a5
    16c8:	0062e2b3          	or	t0,t0,t1
    16cc:	0c729263          	bne	t0,t2,1790 <strcmp+0x154>
    16d0:	02d61663          	bne	a2,a3,16fc <strcmp+0xc0>
    16d4:	01052603          	lw	a2,16(a0)
    16d8:	0105a683          	lw	a3,16(a1)
    16dc:	00f672b3          	and	t0,a2,a5
    16e0:	00f66333          	or	t1,a2,a5
    16e4:	00f282b3          	add	t0,t0,a5
    16e8:	0062e2b3          	or	t0,t0,t1
    16ec:	0a729c63          	bne	t0,t2,17a4 <strcmp+0x168>
    16f0:	01450513          	addi	a0,a0,20
    16f4:	01458593          	addi	a1,a1,20
    16f8:	f4d60ee3          	beq	a2,a3,1654 <strcmp+0x18>
    16fc:	01061713          	slli	a4,a2,0x10
    1700:	01069793          	slli	a5,a3,0x10
    1704:	00f71e63          	bne	a4,a5,1720 <strcmp+0xe4>
    1708:	01065713          	srli	a4,a2,0x10
    170c:	0106d793          	srli	a5,a3,0x10
    1710:	40f70533          	sub	a0,a4,a5
    1714:	0ff57593          	andi	a1,a0,255
    1718:	02059063          	bnez	a1,1738 <strcmp+0xfc>
    171c:	00008067          	ret
    1720:	01075713          	srli	a4,a4,0x10
    1724:	0107d793          	srli	a5,a5,0x10
    1728:	40f70533          	sub	a0,a4,a5
    172c:	0ff57593          	andi	a1,a0,255
    1730:	00059463          	bnez	a1,1738 <strcmp+0xfc>
    1734:	00008067          	ret
    1738:	0ff77713          	andi	a4,a4,255
    173c:	0ff7f793          	andi	a5,a5,255
    1740:	40f70533          	sub	a0,a4,a5
    1744:	00008067          	ret
    1748:	00054603          	lbu	a2,0(a0)
    174c:	0005c683          	lbu	a3,0(a1)
    1750:	00150513          	addi	a0,a0,1
    1754:	00158593          	addi	a1,a1,1
    1758:	00d61463          	bne	a2,a3,1760 <strcmp+0x124>
    175c:	fe0616e3          	bnez	a2,1748 <strcmp+0x10c>
    1760:	40d60533          	sub	a0,a2,a3
    1764:	00008067          	ret
    1768:	00450513          	addi	a0,a0,4
    176c:	00458593          	addi	a1,a1,4
    1770:	fcd61ce3          	bne	a2,a3,1748 <strcmp+0x10c>
    1774:	00000513          	li	a0,0
    1778:	00008067          	ret
    177c:	00850513          	addi	a0,a0,8
    1780:	00858593          	addi	a1,a1,8
    1784:	fcd612e3          	bne	a2,a3,1748 <strcmp+0x10c>
    1788:	00000513          	li	a0,0
    178c:	00008067          	ret
    1790:	00c50513          	addi	a0,a0,12
    1794:	00c58593          	addi	a1,a1,12
    1798:	fad618e3          	bne	a2,a3,1748 <strcmp+0x10c>
    179c:	00000513          	li	a0,0
    17a0:	00008067          	ret
    17a4:	01050513          	addi	a0,a0,16
    17a8:	01058593          	addi	a1,a1,16
    17ac:	f8d61ee3          	bne	a2,a3,1748 <strcmp+0x10c>
    17b0:	00000513          	li	a0,0
    17b4:	00008067          	ret

000017b8 <_wctomb_r>:
    17b8:	000037b7          	lui	a5,0x3
    17bc:	3c47a783          	lw	a5,964(a5) # 33c4 <_impure_ptr>
    17c0:	0347a783          	lw	a5,52(a5)
    17c4:	00079663          	bnez	a5,17d0 <_wctomb_r+0x18>
    17c8:	000037b7          	lui	a5,0x3
    17cc:	23878793          	addi	a5,a5,568 # 3238 <__global_locale>
    17d0:	0e07a303          	lw	t1,224(a5)
    17d4:	00030067          	jr	t1

000017d8 <__ascii_wctomb>:
    17d8:	02058463          	beqz	a1,1800 <__ascii_wctomb+0x28>
    17dc:	0ff00793          	li	a5,255
    17e0:	00c7fa63          	bleu	a2,a5,17f4 <__ascii_wctomb+0x1c>
    17e4:	08a00793          	li	a5,138
    17e8:	00f52023          	sw	a5,0(a0)
    17ec:	fff00513          	li	a0,-1
    17f0:	00008067          	ret
    17f4:	00c58023          	sb	a2,0(a1)
    17f8:	00100513          	li	a0,1
    17fc:	00008067          	ret
    1800:	00000513          	li	a0,0
    1804:	00008067          	ret

00001808 <__moddi3>:
    1808:	00000893          	li	a7,0
    180c:	0005dc63          	bgez	a1,1824 <__moddi3+0x1c>
    1810:	40a00533          	neg	a0,a0
    1814:	00a037b3          	snez	a5,a0
    1818:	40b005b3          	neg	a1,a1
    181c:	40f585b3          	sub	a1,a1,a5
    1820:	fff00893          	li	a7,-1
    1824:	0006da63          	bgez	a3,1838 <__moddi3+0x30>
    1828:	40c00633          	neg	a2,a2
    182c:	00c037b3          	snez	a5,a2
    1830:	40d006b3          	neg	a3,a3
    1834:	40f686b3          	sub	a3,a3,a5
    1838:	00060813          	mv	a6,a2
    183c:	00068313          	mv	t1,a3
    1840:	00050793          	mv	a5,a0
    1844:	00058713          	mv	a4,a1
    1848:	24069863          	bnez	a3,1a98 <__moddi3+0x290>
    184c:	000026b7          	lui	a3,0x2
    1850:	71c68693          	addi	a3,a3,1820 # 271c <__clz_tab>
    1854:	0ec5f863          	bleu	a2,a1,1944 <__moddi3+0x13c>
    1858:	00010e37          	lui	t3,0x10
    185c:	0dc67a63          	bleu	t3,a2,1930 <__moddi3+0x128>
    1860:	0ff00e13          	li	t3,255
    1864:	00ce7463          	bleu	a2,t3,186c <__moddi3+0x64>
    1868:	00800313          	li	t1,8
    186c:	00665e33          	srl	t3,a2,t1
    1870:	01c686b3          	add	a3,a3,t3
    1874:	0006ce03          	lbu	t3,0(a3)
    1878:	006e0e33          	add	t3,t3,t1
    187c:	02000313          	li	t1,32
    1880:	41c30333          	sub	t1,t1,t3
    1884:	00030c63          	beqz	t1,189c <__moddi3+0x94>
    1888:	006595b3          	sll	a1,a1,t1
    188c:	01c55e33          	srl	t3,a0,t3
    1890:	00661833          	sll	a6,a2,t1
    1894:	00be6733          	or	a4,t3,a1
    1898:	006517b3          	sll	a5,a0,t1
    189c:	01085593          	srli	a1,a6,0x10
    18a0:	02b77633          	remu	a2,a4,a1
    18a4:	01081513          	slli	a0,a6,0x10
    18a8:	01055513          	srli	a0,a0,0x10
    18ac:	0107d693          	srli	a3,a5,0x10
    18b0:	02b75733          	divu	a4,a4,a1
    18b4:	01061613          	slli	a2,a2,0x10
    18b8:	00d666b3          	or	a3,a2,a3
    18bc:	02e50733          	mul	a4,a0,a4
    18c0:	00e6fa63          	bleu	a4,a3,18d4 <__moddi3+0xcc>
    18c4:	010686b3          	add	a3,a3,a6
    18c8:	0106e663          	bltu	a3,a6,18d4 <__moddi3+0xcc>
    18cc:	00e6f463          	bleu	a4,a3,18d4 <__moddi3+0xcc>
    18d0:	010686b3          	add	a3,a3,a6
    18d4:	40e686b3          	sub	a3,a3,a4
    18d8:	02b6f733          	remu	a4,a3,a1
    18dc:	01079793          	slli	a5,a5,0x10
    18e0:	0107d793          	srli	a5,a5,0x10
    18e4:	02b6d6b3          	divu	a3,a3,a1
    18e8:	02d506b3          	mul	a3,a0,a3
    18ec:	01071513          	slli	a0,a4,0x10
    18f0:	00f567b3          	or	a5,a0,a5
    18f4:	00d7fa63          	bleu	a3,a5,1908 <__moddi3+0x100>
    18f8:	010787b3          	add	a5,a5,a6
    18fc:	0107e663          	bltu	a5,a6,1908 <__moddi3+0x100>
    1900:	00d7f463          	bleu	a3,a5,1908 <__moddi3+0x100>
    1904:	010787b3          	add	a5,a5,a6
    1908:	40d787b3          	sub	a5,a5,a3
    190c:	0067d533          	srl	a0,a5,t1
    1910:	00000593          	li	a1,0
    1914:	00088c63          	beqz	a7,192c <__moddi3+0x124>
    1918:	40a007b3          	neg	a5,a0
    191c:	00f03733          	snez	a4,a5
    1920:	40b005b3          	neg	a1,a1
    1924:	00078513          	mv	a0,a5
    1928:	40e585b3          	sub	a1,a1,a4
    192c:	00008067          	ret
    1930:	01000e37          	lui	t3,0x1000
    1934:	01000313          	li	t1,16
    1938:	f3c66ae3          	bltu	a2,t3,186c <__moddi3+0x64>
    193c:	01800313          	li	t1,24
    1940:	f2dff06f          	j	186c <__moddi3+0x64>
    1944:	00061663          	bnez	a2,1950 <__moddi3+0x148>
    1948:	00100813          	li	a6,1
    194c:	02685833          	divu	a6,a6,t1
    1950:	00010737          	lui	a4,0x10
    1954:	0ae87263          	bleu	a4,a6,19f8 <__moddi3+0x1f0>
    1958:	0ff00713          	li	a4,255
    195c:	01077463          	bleu	a6,a4,1964 <__moddi3+0x15c>
    1960:	00800313          	li	t1,8
    1964:	00685733          	srl	a4,a6,t1
    1968:	00e686b3          	add	a3,a3,a4
    196c:	0006ce03          	lbu	t3,0(a3)
    1970:	006e0e33          	add	t3,t3,t1
    1974:	02000313          	li	t1,32
    1978:	41c30333          	sub	t1,t1,t3
    197c:	08031863          	bnez	t1,1a0c <__moddi3+0x204>
    1980:	410585b3          	sub	a1,a1,a6
    1984:	01085693          	srli	a3,a6,0x10
    1988:	01081513          	slli	a0,a6,0x10
    198c:	01055513          	srli	a0,a0,0x10
    1990:	0107d613          	srli	a2,a5,0x10
    1994:	02d5f733          	remu	a4,a1,a3
    1998:	02d5d5b3          	divu	a1,a1,a3
    199c:	01071713          	slli	a4,a4,0x10
    19a0:	00c76733          	or	a4,a4,a2
    19a4:	02b505b3          	mul	a1,a0,a1
    19a8:	00b77a63          	bleu	a1,a4,19bc <__moddi3+0x1b4>
    19ac:	01070733          	add	a4,a4,a6
    19b0:	01076663          	bltu	a4,a6,19bc <__moddi3+0x1b4>
    19b4:	00b77463          	bleu	a1,a4,19bc <__moddi3+0x1b4>
    19b8:	01070733          	add	a4,a4,a6
    19bc:	40b705b3          	sub	a1,a4,a1
    19c0:	02d5f733          	remu	a4,a1,a3
    19c4:	01079793          	slli	a5,a5,0x10
    19c8:	0107d793          	srli	a5,a5,0x10
    19cc:	02d5d5b3          	divu	a1,a1,a3
    19d0:	02b505b3          	mul	a1,a0,a1
    19d4:	01071513          	slli	a0,a4,0x10
    19d8:	00f567b3          	or	a5,a0,a5
    19dc:	00b7fa63          	bleu	a1,a5,19f0 <__moddi3+0x1e8>
    19e0:	010787b3          	add	a5,a5,a6
    19e4:	0107e663          	bltu	a5,a6,19f0 <__moddi3+0x1e8>
    19e8:	00b7f463          	bleu	a1,a5,19f0 <__moddi3+0x1e8>
    19ec:	010787b3          	add	a5,a5,a6
    19f0:	40b787b3          	sub	a5,a5,a1
    19f4:	f19ff06f          	j	190c <__moddi3+0x104>
    19f8:	01000737          	lui	a4,0x1000
    19fc:	01000313          	li	t1,16
    1a00:	f6e862e3          	bltu	a6,a4,1964 <__moddi3+0x15c>
    1a04:	01800313          	li	t1,24
    1a08:	f5dff06f          	j	1964 <__moddi3+0x15c>
    1a0c:	00681833          	sll	a6,a6,t1
    1a10:	01c5deb3          	srl	t4,a1,t3
    1a14:	006517b3          	sll	a5,a0,t1
    1a18:	01c55e33          	srl	t3,a0,t3
    1a1c:	01085513          	srli	a0,a6,0x10
    1a20:	02aed6b3          	divu	a3,t4,a0
    1a24:	006595b3          	sll	a1,a1,t1
    1a28:	00be6e33          	or	t3,t3,a1
    1a2c:	01081593          	slli	a1,a6,0x10
    1a30:	0105d593          	srli	a1,a1,0x10
    1a34:	010e5613          	srli	a2,t3,0x10
    1a38:	02aef733          	remu	a4,t4,a0
    1a3c:	02d586b3          	mul	a3,a1,a3
    1a40:	01071713          	slli	a4,a4,0x10
    1a44:	00c76733          	or	a4,a4,a2
    1a48:	00d77a63          	bleu	a3,a4,1a5c <__moddi3+0x254>
    1a4c:	01070733          	add	a4,a4,a6
    1a50:	01076663          	bltu	a4,a6,1a5c <__moddi3+0x254>
    1a54:	00d77463          	bleu	a3,a4,1a5c <__moddi3+0x254>
    1a58:	01070733          	add	a4,a4,a6
    1a5c:	40d70633          	sub	a2,a4,a3
    1a60:	02a67733          	remu	a4,a2,a0
    1a64:	010e1e13          	slli	t3,t3,0x10
    1a68:	010e5e13          	srli	t3,t3,0x10
    1a6c:	02a65633          	divu	a2,a2,a0
    1a70:	01071713          	slli	a4,a4,0x10
    1a74:	02c58633          	mul	a2,a1,a2
    1a78:	01c765b3          	or	a1,a4,t3
    1a7c:	00c5fa63          	bleu	a2,a1,1a90 <__moddi3+0x288>
    1a80:	010585b3          	add	a1,a1,a6
    1a84:	0105e663          	bltu	a1,a6,1a90 <__moddi3+0x288>
    1a88:	00c5f463          	bleu	a2,a1,1a90 <__moddi3+0x288>
    1a8c:	010585b3          	add	a1,a1,a6
    1a90:	40c585b3          	sub	a1,a1,a2
    1a94:	ef1ff06f          	j	1984 <__moddi3+0x17c>
    1a98:	e6d5eee3          	bltu	a1,a3,1914 <__moddi3+0x10c>
    1a9c:	00010837          	lui	a6,0x10
    1aa0:	0506fc63          	bleu	a6,a3,1af8 <__moddi3+0x2f0>
    1aa4:	0ff00e93          	li	t4,255
    1aa8:	00deb833          	sltu	a6,t4,a3
    1aac:	00381813          	slli	a6,a6,0x3
    1ab0:	00002e37          	lui	t3,0x2
    1ab4:	71ce0e13          	addi	t3,t3,1820 # 271c <__clz_tab>
    1ab8:	0106d333          	srl	t1,a3,a6
    1abc:	01c30333          	add	t1,t1,t3
    1ac0:	00034e83          	lbu	t4,0(t1)
    1ac4:	02000e13          	li	t3,32
    1ac8:	010e8eb3          	add	t4,t4,a6
    1acc:	41de0e33          	sub	t3,t3,t4
    1ad0:	020e1e63          	bnez	t3,1b0c <__moddi3+0x304>
    1ad4:	00b6e463          	bltu	a3,a1,1adc <__moddi3+0x2d4>
    1ad8:	00c56a63          	bltu	a0,a2,1aec <__moddi3+0x2e4>
    1adc:	40c507b3          	sub	a5,a0,a2
    1ae0:	40d586b3          	sub	a3,a1,a3
    1ae4:	00f53533          	sltu	a0,a0,a5
    1ae8:	40a68733          	sub	a4,a3,a0
    1aec:	00078513          	mv	a0,a5
    1af0:	00070593          	mv	a1,a4
    1af4:	e21ff06f          	j	1914 <__moddi3+0x10c>
    1af8:	01000337          	lui	t1,0x1000
    1afc:	01000813          	li	a6,16
    1b00:	fa66e8e3          	bltu	a3,t1,1ab0 <__moddi3+0x2a8>
    1b04:	01800813          	li	a6,24
    1b08:	fa9ff06f          	j	1ab0 <__moddi3+0x2a8>
    1b0c:	01d65733          	srl	a4,a2,t4
    1b10:	01c696b3          	sll	a3,a3,t3
    1b14:	00d766b3          	or	a3,a4,a3
    1b18:	01d5d7b3          	srl	a5,a1,t4
    1b1c:	01d55733          	srl	a4,a0,t4
    1b20:	01c595b3          	sll	a1,a1,t3
    1b24:	00b76733          	or	a4,a4,a1
    1b28:	0106d593          	srli	a1,a3,0x10
    1b2c:	02b7f333          	remu	t1,a5,a1
    1b30:	01069f13          	slli	t5,a3,0x10
    1b34:	010f5f13          	srli	t5,t5,0x10
    1b38:	01075813          	srli	a6,a4,0x10
    1b3c:	01c61633          	sll	a2,a2,t3
    1b40:	01c51533          	sll	a0,a0,t3
    1b44:	02b7d7b3          	divu	a5,a5,a1
    1b48:	01031313          	slli	t1,t1,0x10
    1b4c:	01036833          	or	a6,t1,a6
    1b50:	02ff0fb3          	mul	t6,t5,a5
    1b54:	00078313          	mv	t1,a5
    1b58:	01f87e63          	bleu	t6,a6,1b74 <__moddi3+0x36c>
    1b5c:	00d80833          	add	a6,a6,a3
    1b60:	fff78313          	addi	t1,a5,-1
    1b64:	00d86863          	bltu	a6,a3,1b74 <__moddi3+0x36c>
    1b68:	01f87663          	bleu	t6,a6,1b74 <__moddi3+0x36c>
    1b6c:	ffe78313          	addi	t1,a5,-2
    1b70:	00d80833          	add	a6,a6,a3
    1b74:	41f80833          	sub	a6,a6,t6
    1b78:	02b87fb3          	remu	t6,a6,a1
    1b7c:	02b85833          	divu	a6,a6,a1
    1b80:	010f9f93          	slli	t6,t6,0x10
    1b84:	030f05b3          	mul	a1,t5,a6
    1b88:	01071f13          	slli	t5,a4,0x10
    1b8c:	010f5f13          	srli	t5,t5,0x10
    1b90:	01efef33          	or	t5,t6,t5
    1b94:	00080713          	mv	a4,a6
    1b98:	00bf7e63          	bleu	a1,t5,1bb4 <__moddi3+0x3ac>
    1b9c:	00df0f33          	add	t5,t5,a3
    1ba0:	fff80713          	addi	a4,a6,-1 # ffff <__BSS_END__+0xa37f>
    1ba4:	00df6863          	bltu	t5,a3,1bb4 <__moddi3+0x3ac>
    1ba8:	00bf7663          	bleu	a1,t5,1bb4 <__moddi3+0x3ac>
    1bac:	ffe80713          	addi	a4,a6,-2
    1bb0:	00df0f33          	add	t5,t5,a3
    1bb4:	01031313          	slli	t1,t1,0x10
    1bb8:	00010fb7          	lui	t6,0x10
    1bbc:	00e36333          	or	t1,t1,a4
    1bc0:	ffff8793          	addi	a5,t6,-1 # ffff <__BSS_END__+0xa37f>
    1bc4:	01065813          	srli	a6,a2,0x10
    1bc8:	40bf0f33          	sub	t5,t5,a1
    1bcc:	00f375b3          	and	a1,t1,a5
    1bd0:	01035313          	srli	t1,t1,0x10
    1bd4:	00f677b3          	and	a5,a2,a5
    1bd8:	02f58733          	mul	a4,a1,a5
    1bdc:	02f307b3          	mul	a5,t1,a5
    1be0:	030585b3          	mul	a1,a1,a6
    1be4:	03030333          	mul	t1,t1,a6
    1be8:	00f585b3          	add	a1,a1,a5
    1bec:	01075813          	srli	a6,a4,0x10
    1bf0:	00b80833          	add	a6,a6,a1
    1bf4:	00f87463          	bleu	a5,a6,1bfc <__moddi3+0x3f4>
    1bf8:	01f30333          	add	t1,t1,t6
    1bfc:	000107b7          	lui	a5,0x10
    1c00:	fff78793          	addi	a5,a5,-1 # ffff <__BSS_END__+0xa37f>
    1c04:	01085593          	srli	a1,a6,0x10
    1c08:	00f87833          	and	a6,a6,a5
    1c0c:	01081813          	slli	a6,a6,0x10
    1c10:	00f77733          	and	a4,a4,a5
    1c14:	006585b3          	add	a1,a1,t1
    1c18:	00e80733          	add	a4,a6,a4
    1c1c:	00bf6663          	bltu	t5,a1,1c28 <__moddi3+0x420>
    1c20:	00bf1e63          	bne	t5,a1,1c3c <__moddi3+0x434>
    1c24:	00e57c63          	bleu	a4,a0,1c3c <__moddi3+0x434>
    1c28:	40c70633          	sub	a2,a4,a2
    1c2c:	00c73733          	sltu	a4,a4,a2
    1c30:	40d585b3          	sub	a1,a1,a3
    1c34:	40e585b3          	sub	a1,a1,a4
    1c38:	00060713          	mv	a4,a2
    1c3c:	40e50733          	sub	a4,a0,a4
    1c40:	00e53533          	sltu	a0,a0,a4
    1c44:	40bf05b3          	sub	a1,t5,a1
    1c48:	40a585b3          	sub	a1,a1,a0
    1c4c:	01d597b3          	sll	a5,a1,t4
    1c50:	01c75733          	srl	a4,a4,t3
    1c54:	00e7e533          	or	a0,a5,a4
    1c58:	01c5d5b3          	srl	a1,a1,t3
    1c5c:	cb9ff06f          	j	1914 <__moddi3+0x10c>
    1c60:	0000                	unimp
	...

00001c64 <__udivdi3>:
    1c64:	00058793          	mv	a5,a1
    1c68:	00060813          	mv	a6,a2
    1c6c:	00068893          	mv	a7,a3
    1c70:	00050313          	mv	t1,a0
    1c74:	28069663          	bnez	a3,1f00 <__udivdi3+0x29c>
    1c78:	00002737          	lui	a4,0x2
    1c7c:	71c70713          	addi	a4,a4,1820 # 271c <__clz_tab>
    1c80:	0ec5f663          	bleu	a2,a1,1d6c <__udivdi3+0x108>
    1c84:	000106b7          	lui	a3,0x10
    1c88:	0cd67863          	bleu	a3,a2,1d58 <__udivdi3+0xf4>
    1c8c:	0ff00693          	li	a3,255
    1c90:	00c6b6b3          	sltu	a3,a3,a2
    1c94:	00369693          	slli	a3,a3,0x3
    1c98:	00d658b3          	srl	a7,a2,a3
    1c9c:	01170733          	add	a4,a4,a7
    1ca0:	00074703          	lbu	a4,0(a4)
    1ca4:	00d706b3          	add	a3,a4,a3
    1ca8:	02000713          	li	a4,32
    1cac:	40d70733          	sub	a4,a4,a3
    1cb0:	00070c63          	beqz	a4,1cc8 <__udivdi3+0x64>
    1cb4:	00e797b3          	sll	a5,a5,a4
    1cb8:	00d556b3          	srl	a3,a0,a3
    1cbc:	00e61833          	sll	a6,a2,a4
    1cc0:	00f6e5b3          	or	a1,a3,a5
    1cc4:	00e51333          	sll	t1,a0,a4
    1cc8:	01085513          	srli	a0,a6,0x10
    1ccc:	02a5d7b3          	divu	a5,a1,a0
    1cd0:	01081613          	slli	a2,a6,0x10
    1cd4:	01065613          	srli	a2,a2,0x10
    1cd8:	01035693          	srli	a3,t1,0x10
    1cdc:	02a5f733          	remu	a4,a1,a0
    1ce0:	02f605b3          	mul	a1,a2,a5
    1ce4:	01071713          	slli	a4,a4,0x10
    1ce8:	00d766b3          	or	a3,a4,a3
    1cec:	00078713          	mv	a4,a5
    1cf0:	00b6fe63          	bleu	a1,a3,1d0c <__udivdi3+0xa8>
    1cf4:	010686b3          	add	a3,a3,a6
    1cf8:	fff78713          	addi	a4,a5,-1
    1cfc:	0106e863          	bltu	a3,a6,1d0c <__udivdi3+0xa8>
    1d00:	00b6f663          	bleu	a1,a3,1d0c <__udivdi3+0xa8>
    1d04:	ffe78713          	addi	a4,a5,-2
    1d08:	010686b3          	add	a3,a3,a6
    1d0c:	40b686b3          	sub	a3,a3,a1
    1d10:	02a6f7b3          	remu	a5,a3,a0
    1d14:	01031313          	slli	t1,t1,0x10
    1d18:	01035313          	srli	t1,t1,0x10
    1d1c:	02a6d6b3          	divu	a3,a3,a0
    1d20:	01079793          	slli	a5,a5,0x10
    1d24:	0067e333          	or	t1,a5,t1
    1d28:	02d605b3          	mul	a1,a2,a3
    1d2c:	00068513          	mv	a0,a3
    1d30:	00b37c63          	bleu	a1,t1,1d48 <__udivdi3+0xe4>
    1d34:	00680333          	add	t1,a6,t1
    1d38:	fff68513          	addi	a0,a3,-1 # ffff <__BSS_END__+0xa37f>
    1d3c:	01036663          	bltu	t1,a6,1d48 <__udivdi3+0xe4>
    1d40:	00b37463          	bleu	a1,t1,1d48 <__udivdi3+0xe4>
    1d44:	ffe68513          	addi	a0,a3,-2
    1d48:	01071713          	slli	a4,a4,0x10
    1d4c:	00a76733          	or	a4,a4,a0
    1d50:	00000593          	li	a1,0
    1d54:	0e40006f          	j	1e38 <__udivdi3+0x1d4>
    1d58:	010008b7          	lui	a7,0x1000
    1d5c:	01000693          	li	a3,16
    1d60:	f3166ce3          	bltu	a2,a7,1c98 <__udivdi3+0x34>
    1d64:	01800693          	li	a3,24
    1d68:	f31ff06f          	j	1c98 <__udivdi3+0x34>
    1d6c:	00061663          	bnez	a2,1d78 <__udivdi3+0x114>
    1d70:	00100693          	li	a3,1
    1d74:	02c6d833          	divu	a6,a3,a2
    1d78:	000106b7          	lui	a3,0x10
    1d7c:	0cd87263          	bleu	a3,a6,1e40 <__udivdi3+0x1dc>
    1d80:	0ff00693          	li	a3,255
    1d84:	0106f463          	bleu	a6,a3,1d8c <__udivdi3+0x128>
    1d88:	00800893          	li	a7,8
    1d8c:	011856b3          	srl	a3,a6,a7
    1d90:	00d70733          	add	a4,a4,a3
    1d94:	00074683          	lbu	a3,0(a4)
    1d98:	02000713          	li	a4,32
    1d9c:	011686b3          	add	a3,a3,a7
    1da0:	40d70733          	sub	a4,a4,a3
    1da4:	0a071863          	bnez	a4,1e54 <__udivdi3+0x1f0>
    1da8:	410787b3          	sub	a5,a5,a6
    1dac:	00100593          	li	a1,1
    1db0:	01085613          	srli	a2,a6,0x10
    1db4:	01081893          	slli	a7,a6,0x10
    1db8:	0108d893          	srli	a7,a7,0x10
    1dbc:	01035693          	srli	a3,t1,0x10
    1dc0:	02c7f733          	remu	a4,a5,a2
    1dc4:	02c7d7b3          	divu	a5,a5,a2
    1dc8:	01071713          	slli	a4,a4,0x10
    1dcc:	00d766b3          	or	a3,a4,a3
    1dd0:	02f88533          	mul	a0,a7,a5
    1dd4:	00078713          	mv	a4,a5
    1dd8:	00a6fe63          	bleu	a0,a3,1df4 <__udivdi3+0x190>
    1ddc:	010686b3          	add	a3,a3,a6
    1de0:	fff78713          	addi	a4,a5,-1
    1de4:	0106e863          	bltu	a3,a6,1df4 <__udivdi3+0x190>
    1de8:	00a6f663          	bleu	a0,a3,1df4 <__udivdi3+0x190>
    1dec:	ffe78713          	addi	a4,a5,-2
    1df0:	010686b3          	add	a3,a3,a6
    1df4:	40a686b3          	sub	a3,a3,a0
    1df8:	02c6f7b3          	remu	a5,a3,a2
    1dfc:	01031313          	slli	t1,t1,0x10
    1e00:	01035313          	srli	t1,t1,0x10
    1e04:	02c6d6b3          	divu	a3,a3,a2
    1e08:	01079793          	slli	a5,a5,0x10
    1e0c:	0067e333          	or	t1,a5,t1
    1e10:	02d888b3          	mul	a7,a7,a3
    1e14:	00068513          	mv	a0,a3
    1e18:	01137c63          	bleu	a7,t1,1e30 <__udivdi3+0x1cc>
    1e1c:	00680333          	add	t1,a6,t1
    1e20:	fff68513          	addi	a0,a3,-1 # ffff <__BSS_END__+0xa37f>
    1e24:	01036663          	bltu	t1,a6,1e30 <__udivdi3+0x1cc>
    1e28:	01137463          	bleu	a7,t1,1e30 <__udivdi3+0x1cc>
    1e2c:	ffe68513          	addi	a0,a3,-2
    1e30:	01071713          	slli	a4,a4,0x10
    1e34:	00a76733          	or	a4,a4,a0
    1e38:	00070513          	mv	a0,a4
    1e3c:	00008067          	ret
    1e40:	010006b7          	lui	a3,0x1000
    1e44:	01000893          	li	a7,16
    1e48:	f4d862e3          	bltu	a6,a3,1d8c <__udivdi3+0x128>
    1e4c:	01800893          	li	a7,24
    1e50:	f3dff06f          	j	1d8c <__udivdi3+0x128>
    1e54:	00e81833          	sll	a6,a6,a4
    1e58:	00d7d5b3          	srl	a1,a5,a3
    1e5c:	00e51333          	sll	t1,a0,a4
    1e60:	00d556b3          	srl	a3,a0,a3
    1e64:	01085513          	srli	a0,a6,0x10
    1e68:	00e797b3          	sll	a5,a5,a4
    1e6c:	02a5f733          	remu	a4,a1,a0
    1e70:	00f6e8b3          	or	a7,a3,a5
    1e74:	01081793          	slli	a5,a6,0x10
    1e78:	0107d793          	srli	a5,a5,0x10
    1e7c:	0108d613          	srli	a2,a7,0x10
    1e80:	02a5d5b3          	divu	a1,a1,a0
    1e84:	01071713          	slli	a4,a4,0x10
    1e88:	00c76733          	or	a4,a4,a2
    1e8c:	02b786b3          	mul	a3,a5,a1
    1e90:	00058613          	mv	a2,a1
    1e94:	00d77e63          	bleu	a3,a4,1eb0 <__udivdi3+0x24c>
    1e98:	01070733          	add	a4,a4,a6
    1e9c:	fff58613          	addi	a2,a1,-1
    1ea0:	01076863          	bltu	a4,a6,1eb0 <__udivdi3+0x24c>
    1ea4:	00d77663          	bleu	a3,a4,1eb0 <__udivdi3+0x24c>
    1ea8:	ffe58613          	addi	a2,a1,-2
    1eac:	01070733          	add	a4,a4,a6
    1eb0:	40d706b3          	sub	a3,a4,a3
    1eb4:	02a6f733          	remu	a4,a3,a0
    1eb8:	01089893          	slli	a7,a7,0x10
    1ebc:	0108d893          	srli	a7,a7,0x10
    1ec0:	02a6d6b3          	divu	a3,a3,a0
    1ec4:	01071713          	slli	a4,a4,0x10
    1ec8:	02d785b3          	mul	a1,a5,a3
    1ecc:	011767b3          	or	a5,a4,a7
    1ed0:	00068713          	mv	a4,a3
    1ed4:	00b7fe63          	bleu	a1,a5,1ef0 <__udivdi3+0x28c>
    1ed8:	010787b3          	add	a5,a5,a6
    1edc:	fff68713          	addi	a4,a3,-1 # ffffff <__C_STACK_TOP__+0xfeffff>
    1ee0:	0107e863          	bltu	a5,a6,1ef0 <__udivdi3+0x28c>
    1ee4:	00b7f663          	bleu	a1,a5,1ef0 <__udivdi3+0x28c>
    1ee8:	ffe68713          	addi	a4,a3,-2
    1eec:	010787b3          	add	a5,a5,a6
    1ef0:	40b787b3          	sub	a5,a5,a1
    1ef4:	01061593          	slli	a1,a2,0x10
    1ef8:	00e5e5b3          	or	a1,a1,a4
    1efc:	eb5ff06f          	j	1db0 <__udivdi3+0x14c>
    1f00:	18d5e663          	bltu	a1,a3,208c <__udivdi3+0x428>
    1f04:	00010737          	lui	a4,0x10
    1f08:	04e6f463          	bleu	a4,a3,1f50 <__udivdi3+0x2ec>
    1f0c:	0ff00813          	li	a6,255
    1f10:	00d83733          	sltu	a4,a6,a3
    1f14:	00371713          	slli	a4,a4,0x3
    1f18:	00002837          	lui	a6,0x2
    1f1c:	71c80813          	addi	a6,a6,1820 # 271c <__clz_tab>
    1f20:	00e6d5b3          	srl	a1,a3,a4
    1f24:	010585b3          	add	a1,a1,a6
    1f28:	0005c803          	lbu	a6,0(a1)
    1f2c:	02000593          	li	a1,32
    1f30:	00e80833          	add	a6,a6,a4
    1f34:	410585b3          	sub	a1,a1,a6
    1f38:	02059663          	bnez	a1,1f64 <__udivdi3+0x300>
    1f3c:	00100713          	li	a4,1
    1f40:	eef6ece3          	bltu	a3,a5,1e38 <__udivdi3+0x1d4>
    1f44:	00c53533          	sltu	a0,a0,a2
    1f48:	00154713          	xori	a4,a0,1
    1f4c:	eedff06f          	j	1e38 <__udivdi3+0x1d4>
    1f50:	010005b7          	lui	a1,0x1000
    1f54:	01000713          	li	a4,16
    1f58:	fcb6e0e3          	bltu	a3,a1,1f18 <__udivdi3+0x2b4>
    1f5c:	01800713          	li	a4,24
    1f60:	fb9ff06f          	j	1f18 <__udivdi3+0x2b4>
    1f64:	01065733          	srl	a4,a2,a6
    1f68:	00b696b3          	sll	a3,a3,a1
    1f6c:	00d766b3          	or	a3,a4,a3
    1f70:	0106de93          	srli	t4,a3,0x10
    1f74:	0107d733          	srl	a4,a5,a6
    1f78:	03d778b3          	remu	a7,a4,t4
    1f7c:	00b797b3          	sll	a5,a5,a1
    1f80:	01055833          	srl	a6,a0,a6
    1f84:	00f86333          	or	t1,a6,a5
    1f88:	01069793          	slli	a5,a3,0x10
    1f8c:	0107d793          	srli	a5,a5,0x10
    1f90:	01035813          	srli	a6,t1,0x10
    1f94:	00b61633          	sll	a2,a2,a1
    1f98:	03d75733          	divu	a4,a4,t4
    1f9c:	01089893          	slli	a7,a7,0x10
    1fa0:	0108e833          	or	a6,a7,a6
    1fa4:	02e78f33          	mul	t5,a5,a4
    1fa8:	00070e13          	mv	t3,a4
    1fac:	01e87e63          	bleu	t5,a6,1fc8 <__udivdi3+0x364>
    1fb0:	00d80833          	add	a6,a6,a3
    1fb4:	fff70e13          	addi	t3,a4,-1 # ffff <__BSS_END__+0xa37f>
    1fb8:	00d86863          	bltu	a6,a3,1fc8 <__udivdi3+0x364>
    1fbc:	01e87663          	bleu	t5,a6,1fc8 <__udivdi3+0x364>
    1fc0:	ffe70e13          	addi	t3,a4,-2
    1fc4:	00d80833          	add	a6,a6,a3
    1fc8:	41e80833          	sub	a6,a6,t5
    1fcc:	03d878b3          	remu	a7,a6,t4
    1fd0:	03d85833          	divu	a6,a6,t4
    1fd4:	01089893          	slli	a7,a7,0x10
    1fd8:	03078eb3          	mul	t4,a5,a6
    1fdc:	01031793          	slli	a5,t1,0x10
    1fe0:	0107d793          	srli	a5,a5,0x10
    1fe4:	00f8e7b3          	or	a5,a7,a5
    1fe8:	00080713          	mv	a4,a6
    1fec:	01d7fe63          	bleu	t4,a5,2008 <__udivdi3+0x3a4>
    1ff0:	00d787b3          	add	a5,a5,a3
    1ff4:	fff80713          	addi	a4,a6,-1
    1ff8:	00d7e863          	bltu	a5,a3,2008 <__udivdi3+0x3a4>
    1ffc:	01d7f663          	bleu	t4,a5,2008 <__udivdi3+0x3a4>
    2000:	ffe80713          	addi	a4,a6,-2
    2004:	00d787b3          	add	a5,a5,a3
    2008:	010e1e13          	slli	t3,t3,0x10
    200c:	41d787b3          	sub	a5,a5,t4
    2010:	00010eb7          	lui	t4,0x10
    2014:	00ee6733          	or	a4,t3,a4
    2018:	fffe8813          	addi	a6,t4,-1 # ffff <__BSS_END__+0xa37f>
    201c:	01077333          	and	t1,a4,a6
    2020:	01075893          	srli	a7,a4,0x10
    2024:	01067833          	and	a6,a2,a6
    2028:	01065613          	srli	a2,a2,0x10
    202c:	03030e33          	mul	t3,t1,a6
    2030:	03088833          	mul	a6,a7,a6
    2034:	010e5693          	srli	a3,t3,0x10
    2038:	02c30333          	mul	t1,t1,a2
    203c:	01030333          	add	t1,t1,a6
    2040:	006686b3          	add	a3,a3,t1
    2044:	02c888b3          	mul	a7,a7,a2
    2048:	0106f463          	bleu	a6,a3,2050 <__udivdi3+0x3ec>
    204c:	01d888b3          	add	a7,a7,t4
    2050:	0106d613          	srli	a2,a3,0x10
    2054:	011608b3          	add	a7,a2,a7
    2058:	0317e663          	bltu	a5,a7,2084 <__udivdi3+0x420>
    205c:	cf179ae3          	bne	a5,a7,1d50 <__udivdi3+0xec>
    2060:	000107b7          	lui	a5,0x10
    2064:	fff78793          	addi	a5,a5,-1 # ffff <__BSS_END__+0xa37f>
    2068:	00f6f6b3          	and	a3,a3,a5
    206c:	01069693          	slli	a3,a3,0x10
    2070:	00fe7e33          	and	t3,t3,a5
    2074:	00b51533          	sll	a0,a0,a1
    2078:	01c686b3          	add	a3,a3,t3
    207c:	00000593          	li	a1,0
    2080:	dad57ce3          	bleu	a3,a0,1e38 <__udivdi3+0x1d4>
    2084:	fff70713          	addi	a4,a4,-1
    2088:	cc9ff06f          	j	1d50 <__udivdi3+0xec>
    208c:	00000593          	li	a1,0
    2090:	00000713          	li	a4,0
    2094:	da5ff06f          	j	1e38 <__udivdi3+0x1d4>
    2098:	0000                	unimp
	...

0000209c <__umoddi3>:
    209c:	00060893          	mv	a7,a2
    20a0:	00068713          	mv	a4,a3
    20a4:	00050793          	mv	a5,a0
    20a8:	00058813          	mv	a6,a1
    20ac:	22069c63          	bnez	a3,22e4 <__umoddi3+0x248>
    20b0:	000026b7          	lui	a3,0x2
    20b4:	71c68693          	addi	a3,a3,1820 # 271c <__clz_tab>
    20b8:	0cc5fc63          	bleu	a2,a1,2190 <__umoddi3+0xf4>
    20bc:	00010337          	lui	t1,0x10
    20c0:	0a667e63          	bleu	t1,a2,217c <__umoddi3+0xe0>
    20c4:	0ff00313          	li	t1,255
    20c8:	00c37463          	bleu	a2,t1,20d0 <__umoddi3+0x34>
    20cc:	00800713          	li	a4,8
    20d0:	00e65333          	srl	t1,a2,a4
    20d4:	006686b3          	add	a3,a3,t1
    20d8:	0006ce03          	lbu	t3,0(a3)
    20dc:	02000313          	li	t1,32
    20e0:	00ee0e33          	add	t3,t3,a4
    20e4:	41c30333          	sub	t1,t1,t3
    20e8:	00030c63          	beqz	t1,2100 <__umoddi3+0x64>
    20ec:	006595b3          	sll	a1,a1,t1
    20f0:	01c55e33          	srl	t3,a0,t3
    20f4:	006618b3          	sll	a7,a2,t1
    20f8:	00be6833          	or	a6,t3,a1
    20fc:	006517b3          	sll	a5,a0,t1
    2100:	0108d613          	srli	a2,a7,0x10
    2104:	02c87733          	remu	a4,a6,a2
    2108:	01089513          	slli	a0,a7,0x10
    210c:	01055513          	srli	a0,a0,0x10
    2110:	0107d693          	srli	a3,a5,0x10
    2114:	02c85833          	divu	a6,a6,a2
    2118:	01071713          	slli	a4,a4,0x10
    211c:	00d766b3          	or	a3,a4,a3
    2120:	03050833          	mul	a6,a0,a6
    2124:	0106fa63          	bleu	a6,a3,2138 <__umoddi3+0x9c>
    2128:	011686b3          	add	a3,a3,a7
    212c:	0116e663          	bltu	a3,a7,2138 <__umoddi3+0x9c>
    2130:	0106f463          	bleu	a6,a3,2138 <__umoddi3+0x9c>
    2134:	011686b3          	add	a3,a3,a7
    2138:	410686b3          	sub	a3,a3,a6
    213c:	02c6f733          	remu	a4,a3,a2
    2140:	01079793          	slli	a5,a5,0x10
    2144:	0107d793          	srli	a5,a5,0x10
    2148:	02c6d6b3          	divu	a3,a3,a2
    214c:	02d506b3          	mul	a3,a0,a3
    2150:	01071513          	slli	a0,a4,0x10
    2154:	00f567b3          	or	a5,a0,a5
    2158:	00d7fa63          	bleu	a3,a5,216c <__umoddi3+0xd0>
    215c:	011787b3          	add	a5,a5,a7
    2160:	0117e663          	bltu	a5,a7,216c <__umoddi3+0xd0>
    2164:	00d7f463          	bleu	a3,a5,216c <__umoddi3+0xd0>
    2168:	011787b3          	add	a5,a5,a7
    216c:	40d787b3          	sub	a5,a5,a3
    2170:	0067d533          	srl	a0,a5,t1
    2174:	00000593          	li	a1,0
    2178:	00008067          	ret
    217c:	01000337          	lui	t1,0x1000
    2180:	01000713          	li	a4,16
    2184:	f46666e3          	bltu	a2,t1,20d0 <__umoddi3+0x34>
    2188:	01800713          	li	a4,24
    218c:	f45ff06f          	j	20d0 <__umoddi3+0x34>
    2190:	00061663          	bnez	a2,219c <__umoddi3+0x100>
    2194:	00100613          	li	a2,1
    2198:	031658b3          	divu	a7,a2,a7
    219c:	00010637          	lui	a2,0x10
    21a0:	0ac8f263          	bleu	a2,a7,2244 <__umoddi3+0x1a8>
    21a4:	0ff00613          	li	a2,255
    21a8:	01167463          	bleu	a7,a2,21b0 <__umoddi3+0x114>
    21ac:	00800713          	li	a4,8
    21b0:	00e8d633          	srl	a2,a7,a4
    21b4:	00c686b3          	add	a3,a3,a2
    21b8:	0006ce03          	lbu	t3,0(a3)
    21bc:	02000313          	li	t1,32
    21c0:	00ee0e33          	add	t3,t3,a4
    21c4:	41c30333          	sub	t1,t1,t3
    21c8:	08031863          	bnez	t1,2258 <__umoddi3+0x1bc>
    21cc:	411585b3          	sub	a1,a1,a7
    21d0:	0108d713          	srli	a4,a7,0x10
    21d4:	01089513          	slli	a0,a7,0x10
    21d8:	01055513          	srli	a0,a0,0x10
    21dc:	0107d613          	srli	a2,a5,0x10
    21e0:	02e5f6b3          	remu	a3,a1,a4
    21e4:	02e5d5b3          	divu	a1,a1,a4
    21e8:	01069693          	slli	a3,a3,0x10
    21ec:	00c6e6b3          	or	a3,a3,a2
    21f0:	02b505b3          	mul	a1,a0,a1
    21f4:	00b6fa63          	bleu	a1,a3,2208 <__umoddi3+0x16c>
    21f8:	011686b3          	add	a3,a3,a7
    21fc:	0116e663          	bltu	a3,a7,2208 <__umoddi3+0x16c>
    2200:	00b6f463          	bleu	a1,a3,2208 <__umoddi3+0x16c>
    2204:	011686b3          	add	a3,a3,a7
    2208:	40b685b3          	sub	a1,a3,a1
    220c:	02e5f6b3          	remu	a3,a1,a4
    2210:	01079793          	slli	a5,a5,0x10
    2214:	0107d793          	srli	a5,a5,0x10
    2218:	02e5d5b3          	divu	a1,a1,a4
    221c:	02b505b3          	mul	a1,a0,a1
    2220:	01069513          	slli	a0,a3,0x10
    2224:	00f567b3          	or	a5,a0,a5
    2228:	00b7fa63          	bleu	a1,a5,223c <__umoddi3+0x1a0>
    222c:	011787b3          	add	a5,a5,a7
    2230:	0117e663          	bltu	a5,a7,223c <__umoddi3+0x1a0>
    2234:	00b7f463          	bleu	a1,a5,223c <__umoddi3+0x1a0>
    2238:	011787b3          	add	a5,a5,a7
    223c:	40b787b3          	sub	a5,a5,a1
    2240:	f31ff06f          	j	2170 <__umoddi3+0xd4>
    2244:	01000637          	lui	a2,0x1000
    2248:	01000713          	li	a4,16
    224c:	f6c8e2e3          	bltu	a7,a2,21b0 <__umoddi3+0x114>
    2250:	01800713          	li	a4,24
    2254:	f5dff06f          	j	21b0 <__umoddi3+0x114>
    2258:	006898b3          	sll	a7,a7,t1
    225c:	01c5d733          	srl	a4,a1,t3
    2260:	006517b3          	sll	a5,a0,t1
    2264:	01c55e33          	srl	t3,a0,t3
    2268:	0108d513          	srli	a0,a7,0x10
    226c:	02a776b3          	remu	a3,a4,a0
    2270:	006595b3          	sll	a1,a1,t1
    2274:	00be6e33          	or	t3,t3,a1
    2278:	01089593          	slli	a1,a7,0x10
    227c:	0105d593          	srli	a1,a1,0x10
    2280:	010e5613          	srli	a2,t3,0x10
    2284:	02a75733          	divu	a4,a4,a0
    2288:	01069693          	slli	a3,a3,0x10
    228c:	00c6e6b3          	or	a3,a3,a2
    2290:	02e58733          	mul	a4,a1,a4
    2294:	00e6fa63          	bleu	a4,a3,22a8 <__umoddi3+0x20c>
    2298:	011686b3          	add	a3,a3,a7
    229c:	0116e663          	bltu	a3,a7,22a8 <__umoddi3+0x20c>
    22a0:	00e6f463          	bleu	a4,a3,22a8 <__umoddi3+0x20c>
    22a4:	011686b3          	add	a3,a3,a7
    22a8:	40e68633          	sub	a2,a3,a4
    22ac:	02a676b3          	remu	a3,a2,a0
    22b0:	010e1e13          	slli	t3,t3,0x10
    22b4:	010e5e13          	srli	t3,t3,0x10
    22b8:	02a65633          	divu	a2,a2,a0
    22bc:	01069693          	slli	a3,a3,0x10
    22c0:	02c58633          	mul	a2,a1,a2
    22c4:	01c6e5b3          	or	a1,a3,t3
    22c8:	00c5fa63          	bleu	a2,a1,22dc <__umoddi3+0x240>
    22cc:	011585b3          	add	a1,a1,a7
    22d0:	0115e663          	bltu	a1,a7,22dc <__umoddi3+0x240>
    22d4:	00c5f463          	bleu	a2,a1,22dc <__umoddi3+0x240>
    22d8:	011585b3          	add	a1,a1,a7
    22dc:	40c585b3          	sub	a1,a1,a2
    22e0:	ef1ff06f          	j	21d0 <__umoddi3+0x134>
    22e4:	e8d5eae3          	bltu	a1,a3,2178 <__umoddi3+0xdc>
    22e8:	00010737          	lui	a4,0x10
    22ec:	04e6fc63          	bleu	a4,a3,2344 <__umoddi3+0x2a8>
    22f0:	0ff00e93          	li	t4,255
    22f4:	00deb733          	sltu	a4,t4,a3
    22f8:	00371713          	slli	a4,a4,0x3
    22fc:	00002337          	lui	t1,0x2
    2300:	00e6d8b3          	srl	a7,a3,a4
    2304:	71c30313          	addi	t1,t1,1820 # 271c <__clz_tab>
    2308:	006888b3          	add	a7,a7,t1
    230c:	0008ce83          	lbu	t4,0(a7) # 1000000 <__C_STACK_TOP__+0xff0000>
    2310:	02000e13          	li	t3,32
    2314:	00ee8eb3          	add	t4,t4,a4
    2318:	41de0e33          	sub	t3,t3,t4
    231c:	020e1e63          	bnez	t3,2358 <__umoddi3+0x2bc>
    2320:	00b6e463          	bltu	a3,a1,2328 <__umoddi3+0x28c>
    2324:	00c56a63          	bltu	a0,a2,2338 <__umoddi3+0x29c>
    2328:	40c507b3          	sub	a5,a0,a2
    232c:	40d585b3          	sub	a1,a1,a3
    2330:	00f53533          	sltu	a0,a0,a5
    2334:	40a58833          	sub	a6,a1,a0
    2338:	00078513          	mv	a0,a5
    233c:	00080593          	mv	a1,a6
    2340:	e39ff06f          	j	2178 <__umoddi3+0xdc>
    2344:	010008b7          	lui	a7,0x1000
    2348:	01000713          	li	a4,16
    234c:	fb16e8e3          	bltu	a3,a7,22fc <__umoddi3+0x260>
    2350:	01800713          	li	a4,24
    2354:	fa9ff06f          	j	22fc <__umoddi3+0x260>
    2358:	01d65733          	srl	a4,a2,t4
    235c:	01c696b3          	sll	a3,a3,t3
    2360:	00d766b3          	or	a3,a4,a3
    2364:	01d557b3          	srl	a5,a0,t4
    2368:	01d5d733          	srl	a4,a1,t4
    236c:	01c595b3          	sll	a1,a1,t3
    2370:	00b7e7b3          	or	a5,a5,a1
    2374:	0106d593          	srli	a1,a3,0x10
    2378:	02b77333          	remu	t1,a4,a1
    237c:	01069f13          	slli	t5,a3,0x10
    2380:	010f5f13          	srli	t5,t5,0x10
    2384:	0107d893          	srli	a7,a5,0x10
    2388:	01c61633          	sll	a2,a2,t3
    238c:	01c51533          	sll	a0,a0,t3
    2390:	02b75733          	divu	a4,a4,a1
    2394:	01031313          	slli	t1,t1,0x10
    2398:	011368b3          	or	a7,t1,a7
    239c:	02ef0833          	mul	a6,t5,a4
    23a0:	00070313          	mv	t1,a4
    23a4:	0108fe63          	bleu	a6,a7,23c0 <__umoddi3+0x324>
    23a8:	00d888b3          	add	a7,a7,a3
    23ac:	fff70313          	addi	t1,a4,-1 # ffff <__BSS_END__+0xa37f>
    23b0:	00d8e863          	bltu	a7,a3,23c0 <__umoddi3+0x324>
    23b4:	0108f663          	bleu	a6,a7,23c0 <__umoddi3+0x324>
    23b8:	ffe70313          	addi	t1,a4,-2
    23bc:	00d888b3          	add	a7,a7,a3
    23c0:	410888b3          	sub	a7,a7,a6
    23c4:	02b8ffb3          	remu	t6,a7,a1
    23c8:	02b8d8b3          	divu	a7,a7,a1
    23cc:	010f9f93          	slli	t6,t6,0x10
    23d0:	031f05b3          	mul	a1,t5,a7
    23d4:	01079f13          	slli	t5,a5,0x10
    23d8:	010f5f13          	srli	t5,t5,0x10
    23dc:	01efef33          	or	t5,t6,t5
    23e0:	00088713          	mv	a4,a7
    23e4:	00bf7e63          	bleu	a1,t5,2400 <__umoddi3+0x364>
    23e8:	00df0f33          	add	t5,t5,a3
    23ec:	fff88713          	addi	a4,a7,-1 # ffffff <__C_STACK_TOP__+0xfeffff>
    23f0:	00df6863          	bltu	t5,a3,2400 <__umoddi3+0x364>
    23f4:	00bf7663          	bleu	a1,t5,2400 <__umoddi3+0x364>
    23f8:	ffe88713          	addi	a4,a7,-2
    23fc:	00df0f33          	add	t5,t5,a3
    2400:	01031313          	slli	t1,t1,0x10
    2404:	000108b7          	lui	a7,0x10
    2408:	00e36333          	or	t1,t1,a4
    240c:	fff88793          	addi	a5,a7,-1 # ffff <__BSS_END__+0xa37f>
    2410:	01065813          	srli	a6,a2,0x10
    2414:	40bf0f33          	sub	t5,t5,a1
    2418:	00f375b3          	and	a1,t1,a5
    241c:	01035313          	srli	t1,t1,0x10
    2420:	00f677b3          	and	a5,a2,a5
    2424:	02f58733          	mul	a4,a1,a5
    2428:	02f307b3          	mul	a5,t1,a5
    242c:	030585b3          	mul	a1,a1,a6
    2430:	03030333          	mul	t1,t1,a6
    2434:	00f585b3          	add	a1,a1,a5
    2438:	01075813          	srli	a6,a4,0x10
    243c:	00b80833          	add	a6,a6,a1
    2440:	00f87463          	bleu	a5,a6,2448 <__umoddi3+0x3ac>
    2444:	01130333          	add	t1,t1,a7
    2448:	000107b7          	lui	a5,0x10
    244c:	fff78793          	addi	a5,a5,-1 # ffff <__BSS_END__+0xa37f>
    2450:	01085593          	srli	a1,a6,0x10
    2454:	00f87833          	and	a6,a6,a5
    2458:	01081813          	slli	a6,a6,0x10
    245c:	00f77733          	and	a4,a4,a5
    2460:	006585b3          	add	a1,a1,t1
    2464:	00e80733          	add	a4,a6,a4
    2468:	00bf6663          	bltu	t5,a1,2474 <__umoddi3+0x3d8>
    246c:	00bf1e63          	bne	t5,a1,2488 <__umoddi3+0x3ec>
    2470:	00e57c63          	bleu	a4,a0,2488 <__umoddi3+0x3ec>
    2474:	40c70633          	sub	a2,a4,a2
    2478:	00c73733          	sltu	a4,a4,a2
    247c:	40d585b3          	sub	a1,a1,a3
    2480:	40e585b3          	sub	a1,a1,a4
    2484:	00060713          	mv	a4,a2
    2488:	40e50733          	sub	a4,a0,a4
    248c:	00e53533          	sltu	a0,a0,a4
    2490:	40bf05b3          	sub	a1,t5,a1
    2494:	40a585b3          	sub	a1,a1,a0
    2498:	01d597b3          	sll	a5,a1,t4
    249c:	01c75733          	srl	a4,a4,t3
    24a0:	00e7e533          	or	a0,a5,a4
    24a4:	01c5d5b3          	srl	a1,a1,t3
    24a8:	cd1ff06f          	j	2178 <__umoddi3+0xdc>
	...

Дизассемблирование раздела .rodata:

000024c0 <_ctype_-0x158>:
    24c0:	04f2                	slli	s1,s1,0x1c
    24c2:	0000                	unimp
    24c4:	0904                	addi	s1,sp,144
    24c6:	0000                	unimp
    24c8:	08d2                	slli	a7,a7,0x14
    24ca:	0000                	unimp
    24cc:	0904                	addi	s1,sp,144
    24ce:	0000                	unimp
    24d0:	0904                	addi	s1,sp,144
    24d2:	0000                	unimp
    24d4:	0904                	addi	s1,sp,144
    24d6:	0000                	unimp
    24d8:	0904                	addi	s1,sp,144
    24da:	0000                	unimp
    24dc:	08dc                	addi	a5,sp,84
    24de:	0000                	unimp
    24e0:	0904                	addi	s1,sp,144
    24e2:	0000                	unimp
    24e4:	0904                	addi	s1,sp,144
    24e6:	0000                	unimp
    24e8:	08e6                	slli	a7,a7,0x19
    24ea:	0000                	unimp
    24ec:	04ec                	addi	a1,sp,588
    24ee:	0000                	unimp
    24f0:	0904                	addi	s1,sp,144
    24f2:	0000                	unimp
    24f4:	0724                	addi	s1,sp,904
    24f6:	0000                	unimp
    24f8:	0760                	addi	s0,sp,908
    24fa:	0000                	unimp
    24fc:	0760                	addi	s0,sp,908
    24fe:	0000                	unimp
    2500:	0760                	addi	s0,sp,908
    2502:	0000                	unimp
    2504:	0760                	addi	s0,sp,908
    2506:	0000                	unimp
    2508:	0760                	addi	s0,sp,908
    250a:	0000                	unimp
    250c:	0760                	addi	s0,sp,908
    250e:	0000                	unimp
    2510:	0760                	addi	s0,sp,908
    2512:	0000                	unimp
    2514:	0760                	addi	s0,sp,908
    2516:	0000                	unimp
    2518:	0760                	addi	s0,sp,908
    251a:	0000                	unimp
    251c:	0904                	addi	s1,sp,144
    251e:	0000                	unimp
    2520:	0904                	addi	s1,sp,144
    2522:	0000                	unimp
    2524:	0904                	addi	s1,sp,144
    2526:	0000                	unimp
    2528:	0904                	addi	s1,sp,144
    252a:	0000                	unimp
    252c:	0904                	addi	s1,sp,144
    252e:	0000                	unimp
    2530:	0904                	addi	s1,sp,144
    2532:	0000                	unimp
    2534:	0904                	addi	s1,sp,144
    2536:	0000                	unimp
    2538:	0904                	addi	s1,sp,144
    253a:	0000                	unimp
    253c:	0904                	addi	s1,sp,144
    253e:	0000                	unimp
    2540:	0904                	addi	s1,sp,144
    2542:	0000                	unimp
    2544:	0904                	addi	s1,sp,144
    2546:	0000                	unimp
    2548:	0904                	addi	s1,sp,144
    254a:	0000                	unimp
    254c:	0904                	addi	s1,sp,144
    254e:	0000                	unimp
    2550:	0904                	addi	s1,sp,144
    2552:	0000                	unimp
    2554:	0904                	addi	s1,sp,144
    2556:	0000                	unimp
    2558:	0904                	addi	s1,sp,144
    255a:	0000                	unimp
    255c:	0904                	addi	s1,sp,144
    255e:	0000                	unimp
    2560:	0904                	addi	s1,sp,144
    2562:	0000                	unimp
    2564:	0904                	addi	s1,sp,144
    2566:	0000                	unimp
    2568:	0904                	addi	s1,sp,144
    256a:	0000                	unimp
    256c:	0904                	addi	s1,sp,144
    256e:	0000                	unimp
    2570:	0904                	addi	s1,sp,144
    2572:	0000                	unimp
    2574:	0904                	addi	s1,sp,144
    2576:	0000                	unimp
    2578:	0904                	addi	s1,sp,144
    257a:	0000                	unimp
    257c:	0904                	addi	s1,sp,144
    257e:	0000                	unimp
    2580:	0904                	addi	s1,sp,144
    2582:	0000                	unimp
    2584:	0904                	addi	s1,sp,144
    2586:	0000                	unimp
    2588:	0904                	addi	s1,sp,144
    258a:	0000                	unimp
    258c:	0904                	addi	s1,sp,144
    258e:	0000                	unimp
    2590:	0904                	addi	s1,sp,144
    2592:	0000                	unimp
    2594:	08ee                	slli	a7,a7,0x1b
    2596:	0000                	unimp
    2598:	0904                	addi	s1,sp,144
    259a:	0000                	unimp
    259c:	0904                	addi	s1,sp,144
    259e:	0000                	unimp
    25a0:	0904                	addi	s1,sp,144
    25a2:	0000                	unimp
    25a4:	0904                	addi	s1,sp,144
    25a6:	0000                	unimp
    25a8:	0904                	addi	s1,sp,144
    25aa:	0000                	unimp
    25ac:	0904                	addi	s1,sp,144
    25ae:	0000                	unimp
    25b0:	0904                	addi	s1,sp,144
    25b2:	0000                	unimp
    25b4:	0904                	addi	s1,sp,144
    25b6:	0000                	unimp
    25b8:	0904                	addi	s1,sp,144
    25ba:	0000                	unimp
    25bc:	0904                	addi	s1,sp,144
    25be:	0000                	unimp
    25c0:	08f8                	addi	a4,sp,92
    25c2:	0000                	unimp
    25c4:	0894                	addi	a3,sp,80
    25c6:	0000                	unimp
    25c8:	0904                	addi	s1,sp,144
    25ca:	0000                	unimp
    25cc:	0464                	addi	s1,sp,524
    25ce:	0000                	unimp
    25d0:	0904                	addi	s1,sp,144
    25d2:	0000                	unimp
    25d4:	0904                	addi	s1,sp,144
    25d6:	0000                	unimp
    25d8:	0904                	addi	s1,sp,144
    25da:	0000                	unimp
    25dc:	0904                	addi	s1,sp,144
    25de:	0000                	unimp
    25e0:	0904                	addi	s1,sp,144
    25e2:	0000                	unimp
    25e4:	08cc                	addi	a1,sp,84
    25e6:	0000                	unimp
    25e8:	0904                	addi	s1,sp,144
    25ea:	0000                	unimp
    25ec:	0904                	addi	s1,sp,144
    25ee:	0000                	unimp
    25f0:	0736                	slli	a4,a4,0xd
    25f2:	0000                	unimp
    25f4:	073a                	slli	a4,a4,0xe
    25f6:	0000                	unimp
    25f8:	0904                	addi	s1,sp,144
    25fa:	0000                	unimp
    25fc:	0904                	addi	s1,sp,144
    25fe:	0000                	unimp
    2600:	079e                	slli	a5,a5,0x7
    2602:	0000                	unimp
    2604:	0904                	addi	s1,sp,144
    2606:	0000                	unimp
    2608:	04f6                	slli	s1,s1,0x1d
    260a:	0000                	unimp
    260c:	0904                	addi	s1,sp,144
    260e:	0000                	unimp
    2610:	0904                	addi	s1,sp,144
    2612:	0000                	unimp
    2614:	072c                	addi	a1,sp,904
	...

00002618 <_ctype_>:
    2618:	2000                	fld	fs0,0(s0)
    261a:	2020                	fld	fs0,64(s0)
    261c:	2020                	fld	fs0,64(s0)
    261e:	2020                	fld	fs0,64(s0)
    2620:	2020                	fld	fs0,64(s0)
    2622:	2828                	fld	fa0,80(s0)
    2624:	2828                	fld	fa0,80(s0)
    2626:	2028                	fld	fa0,64(s0)
    2628:	2020                	fld	fs0,64(s0)
    262a:	2020                	fld	fs0,64(s0)
    262c:	2020                	fld	fs0,64(s0)
    262e:	2020                	fld	fs0,64(s0)
    2630:	2020                	fld	fs0,64(s0)
    2632:	2020                	fld	fs0,64(s0)
    2634:	2020                	fld	fs0,64(s0)
    2636:	2020                	fld	fs0,64(s0)
    2638:	8820                	0x8820
    263a:	1010                	addi	a2,sp,32
    263c:	1010                	addi	a2,sp,32
    263e:	1010                	addi	a2,sp,32
    2640:	1010                	addi	a2,sp,32
    2642:	1010                	addi	a2,sp,32
    2644:	1010                	addi	a2,sp,32
    2646:	1010                	addi	a2,sp,32
    2648:	0410                	addi	a2,sp,512
    264a:	0404                	addi	s1,sp,512
    264c:	0404                	addi	s1,sp,512
    264e:	0404                	addi	s1,sp,512
    2650:	0404                	addi	s1,sp,512
    2652:	1004                	addi	s1,sp,32
    2654:	1010                	addi	a2,sp,32
    2656:	1010                	addi	a2,sp,32
    2658:	1010                	addi	a2,sp,32
    265a:	4141                	li	sp,16
    265c:	4141                	li	sp,16
    265e:	4141                	li	sp,16
    2660:	0101                	addi	sp,sp,0
    2662:	0101                	addi	sp,sp,0
    2664:	0101                	addi	sp,sp,0
    2666:	0101                	addi	sp,sp,0
    2668:	0101                	addi	sp,sp,0
    266a:	0101                	addi	sp,sp,0
    266c:	0101                	addi	sp,sp,0
    266e:	0101                	addi	sp,sp,0
    2670:	0101                	addi	sp,sp,0
    2672:	0101                	addi	sp,sp,0
    2674:	1010                	addi	a2,sp,32
    2676:	1010                	addi	a2,sp,32
    2678:	1010                	addi	a2,sp,32
    267a:	4242                	lw	tp,16(sp)
    267c:	4242                	lw	tp,16(sp)
    267e:	4242                	lw	tp,16(sp)
    2680:	0202                	slli	tp,tp,0x0
    2682:	0202                	slli	tp,tp,0x0
    2684:	0202                	slli	tp,tp,0x0
    2686:	0202                	slli	tp,tp,0x0
    2688:	0202                	slli	tp,tp,0x0
    268a:	0202                	slli	tp,tp,0x0
    268c:	0202                	slli	tp,tp,0x0
    268e:	0202                	slli	tp,tp,0x0
    2690:	0202                	slli	tp,tp,0x0
    2692:	0202                	slli	tp,tp,0x0
    2694:	1010                	addi	a2,sp,32
    2696:	1010                	addi	a2,sp,32
    2698:	0020                	addi	s0,sp,8
	...

0000271c <__clz_tab>:
    271c:	0100                	addi	s0,sp,128
    271e:	0202                	slli	tp,tp,0x0
    2720:	03030303          	lb	t1,48(t1)
    2724:	0404                	addi	s1,sp,512
    2726:	0404                	addi	s1,sp,512
    2728:	0404                	addi	s1,sp,512
    272a:	0404                	addi	s1,sp,512
    272c:	0505                	addi	a0,a0,1
    272e:	0505                	addi	a0,a0,1
    2730:	0505                	addi	a0,a0,1
    2732:	0505                	addi	a0,a0,1
    2734:	0505                	addi	a0,a0,1
    2736:	0505                	addi	a0,a0,1
    2738:	0505                	addi	a0,a0,1
    273a:	0505                	addi	a0,a0,1
    273c:	0606                	slli	a2,a2,0x1
    273e:	0606                	slli	a2,a2,0x1
    2740:	0606                	slli	a2,a2,0x1
    2742:	0606                	slli	a2,a2,0x1
    2744:	0606                	slli	a2,a2,0x1
    2746:	0606                	slli	a2,a2,0x1
    2748:	0606                	slli	a2,a2,0x1
    274a:	0606                	slli	a2,a2,0x1
    274c:	0606                	slli	a2,a2,0x1
    274e:	0606                	slli	a2,a2,0x1
    2750:	0606                	slli	a2,a2,0x1
    2752:	0606                	slli	a2,a2,0x1
    2754:	0606                	slli	a2,a2,0x1
    2756:	0606                	slli	a2,a2,0x1
    2758:	0606                	slli	a2,a2,0x1
    275a:	0606                	slli	a2,a2,0x1
    275c:	07070707          	0x7070707
    2760:	07070707          	0x7070707
    2764:	07070707          	0x7070707
    2768:	07070707          	0x7070707
    276c:	07070707          	0x7070707
    2770:	07070707          	0x7070707
    2774:	07070707          	0x7070707
    2778:	07070707          	0x7070707
    277c:	07070707          	0x7070707
    2780:	07070707          	0x7070707
    2784:	07070707          	0x7070707
    2788:	07070707          	0x7070707
    278c:	07070707          	0x7070707
    2790:	07070707          	0x7070707
    2794:	07070707          	0x7070707
    2798:	07070707          	0x7070707
    279c:	0808                	addi	a0,sp,16
    279e:	0808                	addi	a0,sp,16
    27a0:	0808                	addi	a0,sp,16
    27a2:	0808                	addi	a0,sp,16
    27a4:	0808                	addi	a0,sp,16
    27a6:	0808                	addi	a0,sp,16
    27a8:	0808                	addi	a0,sp,16
    27aa:	0808                	addi	a0,sp,16
    27ac:	0808                	addi	a0,sp,16
    27ae:	0808                	addi	a0,sp,16
    27b0:	0808                	addi	a0,sp,16
    27b2:	0808                	addi	a0,sp,16
    27b4:	0808                	addi	a0,sp,16
    27b6:	0808                	addi	a0,sp,16
    27b8:	0808                	addi	a0,sp,16
    27ba:	0808                	addi	a0,sp,16
    27bc:	0808                	addi	a0,sp,16
    27be:	0808                	addi	a0,sp,16
    27c0:	0808                	addi	a0,sp,16
    27c2:	0808                	addi	a0,sp,16
    27c4:	0808                	addi	a0,sp,16
    27c6:	0808                	addi	a0,sp,16
    27c8:	0808                	addi	a0,sp,16
    27ca:	0808                	addi	a0,sp,16
    27cc:	0808                	addi	a0,sp,16
    27ce:	0808                	addi	a0,sp,16
    27d0:	0808                	addi	a0,sp,16
    27d2:	0808                	addi	a0,sp,16
    27d4:	0808                	addi	a0,sp,16
    27d6:	0808                	addi	a0,sp,16
    27d8:	0808                	addi	a0,sp,16
    27da:	0808                	addi	a0,sp,16
    27dc:	0808                	addi	a0,sp,16
    27de:	0808                	addi	a0,sp,16
    27e0:	0808                	addi	a0,sp,16
    27e2:	0808                	addi	a0,sp,16
    27e4:	0808                	addi	a0,sp,16
    27e6:	0808                	addi	a0,sp,16
    27e8:	0808                	addi	a0,sp,16
    27ea:	0808                	addi	a0,sp,16
    27ec:	0808                	addi	a0,sp,16
    27ee:	0808                	addi	a0,sp,16
    27f0:	0808                	addi	a0,sp,16
    27f2:	0808                	addi	a0,sp,16
    27f4:	0808                	addi	a0,sp,16
    27f6:	0808                	addi	a0,sp,16
    27f8:	0808                	addi	a0,sp,16
    27fa:	0808                	addi	a0,sp,16
    27fc:	0808                	addi	a0,sp,16
    27fe:	0808                	addi	a0,sp,16
    2800:	0808                	addi	a0,sp,16
    2802:	0808                	addi	a0,sp,16
    2804:	0808                	addi	a0,sp,16
    2806:	0808                	addi	a0,sp,16
    2808:	0808                	addi	a0,sp,16
    280a:	0808                	addi	a0,sp,16
    280c:	0808                	addi	a0,sp,16
    280e:	0808                	addi	a0,sp,16
    2810:	0808                	addi	a0,sp,16
    2812:	0808                	addi	a0,sp,16
    2814:	0808                	addi	a0,sp,16
    2816:	0808                	addi	a0,sp,16
    2818:	0808                	addi	a0,sp,16
    281a:	0808                	addi	a0,sp,16

Дизассемблирование раздела .rodata.str1.4:

0000281c <.rodata.str1.4>:
    281c:	6e28                	flw	fa0,88(a2)
    281e:	6c75                	lui	s8,0x1d
    2820:	296c                	fld	fa1,208(a0)
    2822:	0000                	unimp
    2824:	4844                	lw	s1,20(s0)
    2826:	5952                	lw	s2,52(sp)
    2828:	4e4f5453          	0x4e4f5453
    282c:	2045                	jal	28cc <__clz_tab+0x1b0>
    282e:	5250                	lw	a2,36(a2)
    2830:	4152474f          	fnmadd.s	fa4,ft4,fs5,fs0,rmm
    2834:	2c4d                	jal	2ae6 <__clz_tab+0x3ca>
    2836:	5320                	lw	s0,96(a4)
    2838:	20454d4f          	fnmadd.s	fs10,fa0,ft4,ft4,rmm
    283c:	49525453          	0x49525453
    2840:	474e                	lw	a4,208(sp)
    2842:	0000                	unimp
    2844:	6844                	flw	fs1,20(s0)
    2846:	7972                	flw	fs2,60(sp)
    2848:	6e6f7473          	csrrci	s0,0x6e6,30
    284c:	2065                	jal	28f4 <__clz_tab+0x1d8>
    284e:	6542                	flw	fa0,16(sp)
    2850:	636e                	flw	ft6,216(sp)
    2852:	6d68                	flw	fa0,92(a0)
    2854:	7261                	lui	tp,0xffff8
    2856:	56202c6b          	0x56202c6b
    285a:	7265                	lui	tp,0xffff9
    285c:	6e6f6973          	csrrsi	s2,0x6e6,30
    2860:	3220                	fld	fs0,96(a2)
    2862:	312e                	fld	ft2,232(sp)
    2864:	2820                	fld	fs0,80(s0)
    2866:	614c                	flw	fa1,4(a0)
    2868:	676e                	flw	fa4,216(sp)
    286a:	6175                	addi	sp,sp,368
    286c:	203a6567          	0x203a6567
    2870:	000a2943          	fmadd.s	fs2,fs4,ft0,ft0,rdn
    2874:	7250                	flw	fa2,36(a2)
    2876:	6172676f          	jal	a4,2968c <__C_STACK_TOP__+0x1968c>
    287a:	206d                	jal	2924 <__clz_tab+0x208>
    287c:	706d6f63          	bltu	s10,t1,2f9a <impure_data+0x18a>
    2880:	6c69                	lui	s8,0x1a
    2882:	6465                	lui	s0,0x19
    2884:	7720                	flw	fs0,104(a4)
    2886:	7469                	lui	s0,0xffffa
    2888:	6f68                	flw	fa0,92(a4)
    288a:	7475                	lui	s0,0xffffd
    288c:	2720                	fld	fs0,72(a4)
    288e:	6572                	flw	fa0,28(sp)
    2890:	74736967          	0x74736967
    2894:	7265                	lui	tp,0xffff9
    2896:	74612027          	fsw	ft6,1856(sp)
    289a:	7274                	flw	fa3,100(a2)
    289c:	6269                	lui	tp,0x1a
    289e:	7475                	lui	s0,0xffffd
    28a0:	0a65                	addi	s4,s4,25
    28a2:	0000                	unimp
    28a4:	7845                	lui	a6,0xffff1
    28a6:	6365                	lui	t1,0x19
    28a8:	7475                	lui	s0,0xffffd
    28aa:	6f69                	lui	t5,0x1a
    28ac:	206e                	fld	ft0,216(sp)
    28ae:	72617473          	csrrci	s0,0x726,2
    28b2:	7374                	flw	fa3,100(a4)
    28b4:	202c                	fld	fa1,64(s0)
    28b6:	6425                	lui	s0,0x9
    28b8:	7220                	flw	fs0,96(a2)
    28ba:	6e75                	lui	t3,0x1d
    28bc:	68742073          	csrs	0x687,s0
    28c0:	6f72                	flw	ft10,28(sp)
    28c2:	6775                	lui	a4,0x1d
    28c4:	2068                	fld	fa0,192(s0)
    28c6:	6844                	flw	fs1,20(s0)
    28c8:	7972                	flw	fs2,60(sp)
    28ca:	6e6f7473          	csrrci	s0,0x6e6,30
    28ce:	0a65                	addi	s4,s4,25
    28d0:	0000                	unimp
    28d2:	0000                	unimp
    28d4:	7845                	lui	a6,0xffff1
    28d6:	6365                	lui	t1,0x19
    28d8:	7475                	lui	s0,0xffffd
    28da:	6f69                	lui	t5,0x1a
    28dc:	206e                	fld	ft0,216(sp)
    28de:	6e65                	lui	t3,0x19
    28e0:	7364                	flw	fs1,100(a4)
    28e2:	000a                	0xa
    28e4:	6946                	flw	fs2,80(sp)
    28e6:	616e                	flw	ft2,216(sp)
    28e8:	206c                	fld	fa1,192(s0)
    28ea:	6176                	flw	ft2,92(sp)
    28ec:	756c                	flw	fa1,108(a0)
    28ee:	7365                	lui	t1,0xffff9
    28f0:	6f20                	flw	fs0,88(a4)
    28f2:	2066                	fld	ft0,88(sp)
    28f4:	6874                	flw	fa3,84(s0)
    28f6:	2065                	jal	299e <__clz_tab+0x282>
    28f8:	6176                	flw	ft2,92(sp)
    28fa:	6972                	flw	fs2,28(sp)
    28fc:	6261                	lui	tp,0x18
    28fe:	656c                	flw	fa1,76(a0)
    2900:	73752073          	csrs	0x737,a0
    2904:	6465                	lui	s0,0x19
    2906:	6920                	flw	fs0,80(a0)
    2908:	206e                	fld	ft0,216(sp)
    290a:	6874                	flw	fa3,84(s0)
    290c:	2065                	jal	29b4 <__clz_tab+0x298>
    290e:	6562                	flw	fa0,24(sp)
    2910:	636e                	flw	ft6,216(sp)
    2912:	6d68                	flw	fa0,92(a0)
    2914:	7261                	lui	tp,0xffff8
    2916:	000a3a6b          	0xa3a6b
    291a:	0000                	unimp
    291c:	6e49                	lui	t3,0x12
    291e:	5f74                	lw	a3,124(a4)
    2920:	626f6c47          	fmsub.d	fs8,ft10,ft6,fa2,unknown
    2924:	203a                	fld	ft0,392(sp)
    2926:	2020                	fld	fs0,64(s0)
    2928:	2020                	fld	fs0,64(s0)
    292a:	2020                	fld	fs0,64(s0)
    292c:	2020                	fld	fs0,64(s0)
    292e:	2020                	fld	fs0,64(s0)
    2930:	2520                	fld	fs0,72(a0)
    2932:	0a64                	addi	s1,sp,284
    2934:	0000                	unimp
    2936:	0000                	unimp
    2938:	2020                	fld	fs0,64(s0)
    293a:	2020                	fld	fs0,64(s0)
    293c:	2020                	fld	fs0,64(s0)
    293e:	2020                	fld	fs0,64(s0)
    2940:	756f6873          	csrrsi	a6,0x756,30
    2944:	646c                	flw	fa1,76(s0)
    2946:	6220                	flw	fs0,64(a2)
    2948:	3a65                	jal	2300 <__umoddi3+0x264>
    294a:	2020                	fld	fs0,64(s0)
    294c:	2520                	fld	fs0,72(a0)
    294e:	0a64                	addi	s1,sp,284
    2950:	0000                	unimp
    2952:	0000                	unimp
    2954:	6f42                	flw	ft10,16(sp)
    2956:	475f6c6f          	jal	s8,f95ca <__C_STACK_TOP__+0xe95ca>
    295a:	6f6c                	flw	fa1,92(a4)
    295c:	3a62                	fld	fs4,56(sp)
    295e:	2020                	fld	fs0,64(s0)
    2960:	2020                	fld	fs0,64(s0)
    2962:	2020                	fld	fs0,64(s0)
    2964:	2020                	fld	fs0,64(s0)
    2966:	2020                	fld	fs0,64(s0)
    2968:	2520                	fld	fs0,72(a0)
    296a:	0a64                	addi	s1,sp,284
    296c:	0000                	unimp
    296e:	0000                	unimp
    2970:	315f6843          	fmadd.s	fa6,ft10,fs5,ft6,unknown
    2974:	475f 6f6c 3a62      	0x3a626f6c475f
    297a:	2020                	fld	fs0,64(s0)
    297c:	2020                	fld	fs0,64(s0)
    297e:	2020                	fld	fs0,64(s0)
    2980:	2020                	fld	fs0,64(s0)
    2982:	2020                	fld	fs0,64(s0)
    2984:	2520                	fld	fs0,72(a0)
    2986:	00000a63          	beqz	zero,299a <__clz_tab+0x27e>
    298a:	0000                	unimp
    298c:	2020                	fld	fs0,64(s0)
    298e:	2020                	fld	fs0,64(s0)
    2990:	2020                	fld	fs0,64(s0)
    2992:	2020                	fld	fs0,64(s0)
    2994:	756f6873          	csrrsi	a6,0x756,30
    2998:	646c                	flw	fa1,76(s0)
    299a:	6220                	flw	fs0,64(a2)
    299c:	3a65                	jal	2354 <__umoddi3+0x2b8>
    299e:	2020                	fld	fs0,64(s0)
    29a0:	2520                	fld	fs0,72(a0)
    29a2:	00000a63          	beqz	zero,29b6 <__clz_tab+0x29a>
    29a6:	0000                	unimp
    29a8:	325f6843          	fmadd.d	fa6,ft10,ft5,ft6,unknown
    29ac:	475f 6f6c 3a62      	0x3a626f6c475f
    29b2:	2020                	fld	fs0,64(s0)
    29b4:	2020                	fld	fs0,64(s0)
    29b6:	2020                	fld	fs0,64(s0)
    29b8:	2020                	fld	fs0,64(s0)
    29ba:	2020                	fld	fs0,64(s0)
    29bc:	2520                	fld	fs0,72(a0)
    29be:	00000a63          	beqz	zero,29d2 <__clz_tab+0x2b6>
    29c2:	0000                	unimp
    29c4:	7241                	lui	tp,0xffff0
    29c6:	5f72                	lw	t5,60(sp)
    29c8:	5f31                	li	t5,-20
    29ca:	626f6c47          	fmsub.d	fs8,ft10,ft6,fa2,unknown
    29ce:	3a5d385b          	0x3a5d385b
    29d2:	2020                	fld	fs0,64(s0)
    29d4:	2020                	fld	fs0,64(s0)
    29d6:	2020                	fld	fs0,64(s0)
    29d8:	2520                	fld	fs0,72(a0)
    29da:	0a64                	addi	s1,sp,284
    29dc:	0000                	unimp
    29de:	0000                	unimp
    29e0:	7241                	lui	tp,0xffff0
    29e2:	5f72                	lw	t5,60(sp)
    29e4:	5f32                	lw	t5,44(sp)
    29e6:	626f6c47          	fmsub.d	fs8,ft10,ft6,fa2,unknown
    29ea:	5b5d385b          	0x5b5d385b
    29ee:	203a5d37          	lui	s10,0x203a5
    29f2:	2020                	fld	fs0,64(s0)
    29f4:	2520                	fld	fs0,72(a0)
    29f6:	0a64                	addi	s1,sp,284
    29f8:	0000                	unimp
    29fa:	0000                	unimp
    29fc:	2020                	fld	fs0,64(s0)
    29fe:	2020                	fld	fs0,64(s0)
    2a00:	2020                	fld	fs0,64(s0)
    2a02:	2020                	fld	fs0,64(s0)
    2a04:	756f6873          	csrrsi	a6,0x756,30
    2a08:	646c                	flw	fa1,76(s0)
    2a0a:	6220                	flw	fs0,64(a2)
    2a0c:	3a65                	jal	23c4 <__umoddi3+0x328>
    2a0e:	2020                	fld	fs0,64(s0)
    2a10:	4e20                	lw	s0,88(a2)
    2a12:	6d75                	lui	s10,0x1d
    2a14:	6562                	flw	fa0,24(sp)
    2a16:	5f72                	lw	t5,60(sp)
    2a18:	525f664f          	fnmadd.d	fa2,ft10,ft5,fa0,unknown
    2a1c:	6e75                	lui	t3,0x1d
    2a1e:	202b2073          	csrs	0x202,s6
    2a22:	3031                	jal	222e <__umoddi3+0x192>
    2a24:	000a                	0xa
    2a26:	0000                	unimp
    2a28:	7450                	flw	fa2,44(s0)
    2a2a:	5f72                	lw	t5,60(sp)
    2a2c:	626f6c47          	fmsub.d	fs8,ft10,ft6,fa2,unknown
    2a30:	3e2d                	jal	256a <__umoddi3+0x4ce>
    2a32:	000a                	0xa
    2a34:	2020                	fld	fs0,64(s0)
    2a36:	7450                	flw	fa2,44(s0)
    2a38:	5f72                	lw	t5,60(sp)
    2a3a:	706d6f43          	fmadd.s	ft10,fs10,ft6,fa4,unknown
    2a3e:	203a                	fld	ft0,392(sp)
    2a40:	2020                	fld	fs0,64(s0)
    2a42:	2020                	fld	fs0,64(s0)
    2a44:	2020                	fld	fs0,64(s0)
    2a46:	2020                	fld	fs0,64(s0)
    2a48:	2520                	fld	fs0,72(a0)
    2a4a:	0a64                	addi	s1,sp,284
    2a4c:	0000                	unimp
    2a4e:	0000                	unimp
    2a50:	2020                	fld	fs0,64(s0)
    2a52:	2020                	fld	fs0,64(s0)
    2a54:	2020                	fld	fs0,64(s0)
    2a56:	2020                	fld	fs0,64(s0)
    2a58:	756f6873          	csrrsi	a6,0x756,30
    2a5c:	646c                	flw	fa1,76(s0)
    2a5e:	6220                	flw	fs0,64(a2)
    2a60:	3a65                	jal	2418 <__umoddi3+0x37c>
    2a62:	2020                	fld	fs0,64(s0)
    2a64:	2820                	fld	fs0,80(s0)
    2a66:	6d69                	lui	s10,0x1a
    2a68:	6c70                	flw	fa2,92(s0)
    2a6a:	6d65                	lui	s10,0x19
    2a6c:	6e65                	lui	t3,0x19
    2a6e:	6174                	flw	fa3,68(a0)
    2a70:	6974                	flw	fa3,84(a0)
    2a72:	642d6e6f          	jal	t3,d90b4 <__C_STACK_TOP__+0xc90b4>
    2a76:	7065                	0x7065
    2a78:	6e65                	lui	t3,0x19
    2a7a:	6564                	flw	fs1,76(a0)
    2a7c:	746e                	flw	fs0,248(sp)
    2a7e:	0a29                	addi	s4,s4,10
    2a80:	0000                	unimp
    2a82:	0000                	unimp
    2a84:	2020                	fld	fs0,64(s0)
    2a86:	6944                	flw	fs1,20(a0)
    2a88:	3a726373          	csrrsi	t1,0x3a7,4
    2a8c:	2020                	fld	fs0,64(s0)
    2a8e:	2020                	fld	fs0,64(s0)
    2a90:	2020                	fld	fs0,64(s0)
    2a92:	2020                	fld	fs0,64(s0)
    2a94:	2020                	fld	fs0,64(s0)
    2a96:	2020                	fld	fs0,64(s0)
    2a98:	2520                	fld	fs0,72(a0)
    2a9a:	0a64                	addi	s1,sp,284
    2a9c:	0000                	unimp
    2a9e:	0000                	unimp
    2aa0:	2020                	fld	fs0,64(s0)
    2aa2:	6e45                	lui	t3,0x11
    2aa4:	6d75                	lui	s10,0x1d
    2aa6:	435f 6d6f 3a70      	0x3a706d6f435f
    2aac:	2020                	fld	fs0,64(s0)
    2aae:	2020                	fld	fs0,64(s0)
    2ab0:	2020                	fld	fs0,64(s0)
    2ab2:	2020                	fld	fs0,64(s0)
    2ab4:	2520                	fld	fs0,72(a0)
    2ab6:	0a64                	addi	s1,sp,284
    2ab8:	0000                	unimp
    2aba:	0000                	unimp
    2abc:	2020                	fld	fs0,64(s0)
    2abe:	6e49                	lui	t3,0x12
    2ac0:	5f74                	lw	a3,124(a4)
    2ac2:	706d6f43          	fmadd.s	ft10,fs10,ft6,fa4,unknown
    2ac6:	203a                	fld	ft0,392(sp)
    2ac8:	2020                	fld	fs0,64(s0)
    2aca:	2020                	fld	fs0,64(s0)
    2acc:	2020                	fld	fs0,64(s0)
    2ace:	2020                	fld	fs0,64(s0)
    2ad0:	2520                	fld	fs0,72(a0)
    2ad2:	0a64                	addi	s1,sp,284
    2ad4:	0000                	unimp
    2ad6:	0000                	unimp
    2ad8:	2020                	fld	fs0,64(s0)
    2ada:	5f727453          	0x5f727453
    2ade:	706d6f43          	fmadd.s	ft10,fs10,ft6,fa4,unknown
    2ae2:	203a                	fld	ft0,392(sp)
    2ae4:	2020                	fld	fs0,64(s0)
    2ae6:	2020                	fld	fs0,64(s0)
    2ae8:	2020                	fld	fs0,64(s0)
    2aea:	2020                	fld	fs0,64(s0)
    2aec:	2520                	fld	fs0,72(a0)
    2aee:	00000a73          	0xa73
    2af2:	0000                	unimp
    2af4:	2020                	fld	fs0,64(s0)
    2af6:	2020                	fld	fs0,64(s0)
    2af8:	2020                	fld	fs0,64(s0)
    2afa:	2020                	fld	fs0,64(s0)
    2afc:	756f6873          	csrrsi	a6,0x756,30
    2b00:	646c                	flw	fa1,76(s0)
    2b02:	6220                	flw	fs0,64(a2)
    2b04:	3a65                	jal	24bc <__umoddi3+0x420>
    2b06:	2020                	fld	fs0,64(s0)
    2b08:	4420                	lw	s0,72(s0)
    2b0a:	5248                	lw	a0,36(a2)
    2b0c:	5359                	li	t1,-10
    2b0e:	4f54                	lw	a3,28(a4)
    2b10:	454e                	lw	a0,208(sp)
    2b12:	5020                	lw	s0,96(s0)
    2b14:	4f52                	lw	t5,20(sp)
    2b16:	4d415247          	0x4d415247
    2b1a:	202c                	fld	fa1,64(s0)
    2b1c:	454d4f53          	0x454d4f53
    2b20:	5320                	lw	s0,96(a4)
    2b22:	5254                	lw	a3,36(a2)
    2b24:	4e49                	li	t3,18
    2b26:	00000a47          	fmsub.s	fs4,ft0,ft0,ft0,rne
    2b2a:	0000                	unimp
    2b2c:	654e                	flw	fa0,208(sp)
    2b2e:	7478                	flw	fa4,108(s0)
    2b30:	505f 7274 475f      	0x475f7274505f
    2b36:	6f6c                	flw	fa1,92(a4)
    2b38:	2d62                	fld	fs10,24(sp)
    2b3a:	0a3e                	slli	s4,s4,0xf
    2b3c:	0000                	unimp
    2b3e:	0000                	unimp
    2b40:	2020                	fld	fs0,64(s0)
    2b42:	2020                	fld	fs0,64(s0)
    2b44:	2020                	fld	fs0,64(s0)
    2b46:	2020                	fld	fs0,64(s0)
    2b48:	756f6873          	csrrsi	a6,0x756,30
    2b4c:	646c                	flw	fa1,76(s0)
    2b4e:	6220                	flw	fs0,64(a2)
    2b50:	3a65                	jal	2508 <__umoddi3+0x46c>
    2b52:	2020                	fld	fs0,64(s0)
    2b54:	2820                	fld	fs0,80(s0)
    2b56:	6d69                	lui	s10,0x1a
    2b58:	6c70                	flw	fa2,92(s0)
    2b5a:	6d65                	lui	s10,0x19
    2b5c:	6e65                	lui	t3,0x19
    2b5e:	6174                	flw	fa3,68(a0)
    2b60:	6974                	flw	fa3,84(a0)
    2b62:	642d6e6f          	jal	t3,d91a4 <__C_STACK_TOP__+0xc91a4>
    2b66:	7065                	0x7065
    2b68:	6e65                	lui	t3,0x19
    2b6a:	6564                	flw	fs1,76(a0)
    2b6c:	746e                	flw	fs0,248(sp)
    2b6e:	2c29                	jal	2d88 <__clz_tab+0x66c>
    2b70:	7320                	flw	fs0,96(a4)
    2b72:	6d61                	lui	s10,0x18
    2b74:	2065                	jal	2c1c <__clz_tab+0x500>
    2b76:	7361                	lui	t1,0xffff8
    2b78:	6120                	flw	fs0,64(a0)
    2b7a:	6f62                	flw	ft10,24(sp)
    2b7c:	6576                	flw	fa0,92(sp)
    2b7e:	000a                	0xa
    2b80:	6e49                	lui	t3,0x12
    2b82:	5f74                	lw	a3,124(a4)
    2b84:	5f31                	li	t5,-20
    2b86:	6f4c                	flw	fa1,28(a4)
    2b88:	20203a63          	0x20203a63
    2b8c:	2020                	fld	fs0,64(s0)
    2b8e:	2020                	fld	fs0,64(s0)
    2b90:	2020                	fld	fs0,64(s0)
    2b92:	2020                	fld	fs0,64(s0)
    2b94:	2520                	fld	fs0,72(a0)
    2b96:	0a64                	addi	s1,sp,284
    2b98:	0000                	unimp
    2b9a:	0000                	unimp
    2b9c:	6e49                	lui	t3,0x12
    2b9e:	5f74                	lw	a3,124(a4)
    2ba0:	5f32                	lw	t5,44(sp)
    2ba2:	6f4c                	flw	fa1,28(a4)
    2ba4:	20203a63          	0x20203a63
    2ba8:	2020                	fld	fs0,64(s0)
    2baa:	2020                	fld	fs0,64(s0)
    2bac:	2020                	fld	fs0,64(s0)
    2bae:	2020                	fld	fs0,64(s0)
    2bb0:	2520                	fld	fs0,72(a0)
    2bb2:	0a64                	addi	s1,sp,284
    2bb4:	0000                	unimp
    2bb6:	0000                	unimp
    2bb8:	6e49                	lui	t3,0x12
    2bba:	5f74                	lw	a3,124(a4)
    2bbc:	6f4c5f33          	0x6f4c5f33
    2bc0:	20203a63          	0x20203a63
    2bc4:	2020                	fld	fs0,64(s0)
    2bc6:	2020                	fld	fs0,64(s0)
    2bc8:	2020                	fld	fs0,64(s0)
    2bca:	2020                	fld	fs0,64(s0)
    2bcc:	2520                	fld	fs0,72(a0)
    2bce:	0a64                	addi	s1,sp,284
    2bd0:	0000                	unimp
    2bd2:	0000                	unimp
    2bd4:	6e45                	lui	t3,0x11
    2bd6:	6d75                	lui	s10,0x1d
    2bd8:	4c5f 636f 203a      	0x203a636f4c5f
    2bde:	2020                	fld	fs0,64(s0)
    2be0:	2020                	fld	fs0,64(s0)
    2be2:	2020                	fld	fs0,64(s0)
    2be4:	2020                	fld	fs0,64(s0)
    2be6:	2020                	fld	fs0,64(s0)
    2be8:	2520                	fld	fs0,72(a0)
    2bea:	0a64                	addi	s1,sp,284
    2bec:	0000                	unimp
    2bee:	0000                	unimp
    2bf0:	5f727453          	0x5f727453
    2bf4:	5f31                	li	t5,-20
    2bf6:	6f4c                	flw	fa1,28(a4)
    2bf8:	20203a63          	0x20203a63
    2bfc:	2020                	fld	fs0,64(s0)
    2bfe:	2020                	fld	fs0,64(s0)
    2c00:	2020                	fld	fs0,64(s0)
    2c02:	2020                	fld	fs0,64(s0)
    2c04:	2520                	fld	fs0,72(a0)
    2c06:	00000a73          	0xa73
    2c0a:	0000                	unimp
    2c0c:	2020                	fld	fs0,64(s0)
    2c0e:	2020                	fld	fs0,64(s0)
    2c10:	2020                	fld	fs0,64(s0)
    2c12:	2020                	fld	fs0,64(s0)
    2c14:	756f6873          	csrrsi	a6,0x756,30
    2c18:	646c                	flw	fa1,76(s0)
    2c1a:	6220                	flw	fs0,64(a2)
    2c1c:	3a65                	jal	25d4 <__umoddi3+0x538>
    2c1e:	2020                	fld	fs0,64(s0)
    2c20:	4420                	lw	s0,72(s0)
    2c22:	5248                	lw	a0,36(a2)
    2c24:	5359                	li	t1,-10
    2c26:	4f54                	lw	a3,28(a4)
    2c28:	454e                	lw	a0,208(sp)
    2c2a:	5020                	lw	s0,96(s0)
    2c2c:	4f52                	lw	t5,20(sp)
    2c2e:	4d415247          	0x4d415247
    2c32:	202c                	fld	fa1,64(s0)
    2c34:	2731                	jal	3340 <__global_locale+0x108>
    2c36:	53205453          	0x53205453
    2c3a:	5254                	lw	a3,36(a2)
    2c3c:	4e49                	li	t3,18
    2c3e:	00000a47          	fmsub.s	fs4,ft0,ft0,ft0,rne
    2c42:	0000                	unimp
    2c44:	5f727453          	0x5f727453
    2c48:	5f32                	lw	t5,44(sp)
    2c4a:	6f4c                	flw	fa1,28(a4)
    2c4c:	20203a63          	0x20203a63
    2c50:	2020                	fld	fs0,64(s0)
    2c52:	2020                	fld	fs0,64(s0)
    2c54:	2020                	fld	fs0,64(s0)
    2c56:	2020                	fld	fs0,64(s0)
    2c58:	2520                	fld	fs0,72(a0)
    2c5a:	00000a73          	0xa73
    2c5e:	0000                	unimp
    2c60:	2020                	fld	fs0,64(s0)
    2c62:	2020                	fld	fs0,64(s0)
    2c64:	2020                	fld	fs0,64(s0)
    2c66:	2020                	fld	fs0,64(s0)
    2c68:	756f6873          	csrrsi	a6,0x756,30
    2c6c:	646c                	flw	fa1,76(s0)
    2c6e:	6220                	flw	fs0,64(a2)
    2c70:	3a65                	jal	2628 <_ctype_+0x10>
    2c72:	2020                	fld	fs0,64(s0)
    2c74:	4420                	lw	s0,72(s0)
    2c76:	5248                	lw	a0,36(a2)
    2c78:	5359                	li	t1,-10
    2c7a:	4f54                	lw	a3,28(a4)
    2c7c:	454e                	lw	a0,208(sp)
    2c7e:	5020                	lw	s0,96(s0)
    2c80:	4f52                	lw	t5,20(sp)
    2c82:	4d415247          	0x4d415247
    2c86:	202c                	fld	fa1,64(s0)
    2c88:	2732                	fld	fa4,264(sp)
    2c8a:	444e                	lw	s0,208(sp)
    2c8c:	5320                	lw	s0,96(a4)
    2c8e:	5254                	lw	a3,36(a2)
    2c90:	4e49                	li	t3,18
    2c92:	00000a47          	fmsub.s	fs4,ft0,ft0,ft0,rne
    2c96:	0000                	unimp
    2c98:	654d                	lui	a0,0x13
    2c9a:	7361                	lui	t1,0xffff8
    2c9c:	7275                	lui	tp,0xffffd
    2c9e:	6465                	lui	s0,0x19
    2ca0:	7420                	flw	fs0,104(s0)
    2ca2:	6d69                	lui	s10,0x1a
    2ca4:	2065                	jal	2d4c <__clz_tab+0x630>
    2ca6:	6f74                	flw	fa3,92(a4)
    2ca8:	6d73206f          	j	35b7e <__C_STACK_TOP__+0x25b7e>
    2cac:	6c61                	lui	s8,0x18
    2cae:	206c                	fld	fa1,192(s0)
    2cb0:	6f74                	flw	fa3,92(a4)
    2cb2:	6f20                	flw	fs0,88(a4)
    2cb4:	7462                	flw	fs0,56(sp)
    2cb6:	6961                	lui	s2,0x18
    2cb8:	206e                	fld	ft0,216(sp)
    2cba:	656d                	lui	a0,0x1b
    2cbc:	6e61                	lui	t3,0x18
    2cbe:	6e69                	lui	t3,0x1a
    2cc0:	6c756667          	0x6c756667
    2cc4:	7220                	flw	fs0,96(a2)
    2cc6:	7365                	lui	t1,0xffff9
    2cc8:	6c75                	lui	s8,0x1d
    2cca:	7374                	flw	fa3,100(a4)
    2ccc:	000a                	0xa
    2cce:	0000                	unimp
    2cd0:	6c50                	flw	fa2,28(s0)
    2cd2:	6165                	addi	sp,sp,112
    2cd4:	69206573          	csrrsi	a0,0x692,0
    2cd8:	636e                	flw	ft6,216(sp)
    2cda:	6572                	flw	fa0,28(sp)
    2cdc:	7361                	lui	t1,0xffff8
    2cde:	2065                	jal	2d86 <__clz_tab+0x66a>
    2ce0:	756e                	flw	fa0,248(sp)
    2ce2:	626d                	lui	tp,0x1b
    2ce4:	7265                	lui	tp,0xffff9
    2ce6:	6f20                	flw	fs0,88(a4)
    2ce8:	2066                	fld	ft0,88(sp)
    2cea:	7572                	flw	fa0,60(sp)
    2cec:	736e                	flw	ft6,248(sp)
    2cee:	000a                	0xa
    2cf0:	754e                	flw	fa0,240(sp)
    2cf2:	626d                	lui	tp,0x1b
    2cf4:	7265                	lui	tp,0xffff9
    2cf6:	4f5f 5f66 7552      	0x75525f664f5f
    2cfc:	736e                	flw	ft6,248(sp)
    2cfe:	203d                	jal	2d2c <__clz_tab+0x610>
    2d00:	6c25                	lui	s8,0x9
    2d02:	2c64                	fld	fs1,216(s0)
    2d04:	4820                	lw	s0,80(s0)
    2d06:	3d5a                	fld	fs10,432(sp)
    2d08:	2520                	fld	fs0,72(a0)
    2d0a:	646c                	flw	fa1,76(s0)
    2d0c:	000a                	0xa
    2d0e:	0000                	unimp
    2d10:	6954                	flw	fa3,20(a0)
    2d12:	656d                	lui	a0,0x1b
    2d14:	203a                	fld	ft0,392(sp)
    2d16:	6562                	flw	fa0,24(sp)
    2d18:	3d6e6967          	0x3d6e6967
    2d1c:	2520                	fld	fs0,72(a0)
    2d1e:	646c                	flw	fa1,76(s0)
    2d20:	202c                	fld	fa1,64(s0)
    2d22:	6e65                	lui	t3,0x19
    2d24:	3d64                	fld	fs1,248(a0)
    2d26:	2520                	fld	fs0,72(a0)
    2d28:	646c                	flw	fa1,76(s0)
    2d2a:	202c                	fld	fa1,64(s0)
    2d2c:	6964                	flw	fs1,84(a0)
    2d2e:	6666                	flw	fa2,88(sp)
    2d30:	203d                	jal	2d5e <__clz_tab+0x642>
    2d32:	6c25                	lui	s8,0x9
    2d34:	0a64                	addi	s1,sp,284
    2d36:	0000                	unimp
    2d38:	694d                	lui	s2,0x13
    2d3a:	736f7263          	bleu	s6,t5,345e <glob1.3071+0x2a>
    2d3e:	6365                	lui	t1,0x19
    2d40:	73646e6f          	jal	t3,49476 <__C_STACK_TOP__+0x39476>
    2d44:	6620                	flw	fs0,72(a2)
    2d46:	6f20726f          	jal	tp,a438 <__BSS_END__+0x47b8>
    2d4a:	656e                	flw	fa0,216(sp)
    2d4c:	7220                	flw	fs0,96(a2)
    2d4e:	6e75                	lui	t3,0x1d
    2d50:	7420                	flw	fs0,104(s0)
    2d52:	7268                	flw	fa0,100(a2)
    2d54:	6867756f          	jal	a0,7a3da <__C_STACK_TOP__+0x6a3da>
    2d58:	4420                	lw	s0,72(s0)
    2d5a:	7268                	flw	fa0,100(a2)
    2d5c:	7379                	lui	t1,0xffffe
    2d5e:	6f74                	flw	fa3,92(a4)
    2d60:	656e                	flw	fa0,216(sp)
    2d62:	203a                	fld	ft0,392(sp)
    2d64:	6c25                	lui	s8,0x9
    2d66:	0a64                	addi	s1,sp,284
    2d68:	0000                	unimp
    2d6a:	0000                	unimp
    2d6c:	6844                	flw	fs1,20(s0)
    2d6e:	7972                	flw	fs2,60(sp)
    2d70:	6e6f7473          	csrrci	s0,0x6e6,30
    2d74:	7365                	lui	t1,0xffff9
    2d76:	7020                	flw	fs0,96(s0)
    2d78:	7265                	lui	tp,0xffff9
    2d7a:	5320                	lw	s0,96(a4)
    2d7c:	6365                	lui	t1,0x19
    2d7e:	3a646e6f          	jal	t3,49124 <__C_STACK_TOP__+0x39124>
    2d82:	2020                	fld	fs0,64(s0)
    2d84:	2020                	fld	fs0,64(s0)
    2d86:	2020                	fld	fs0,64(s0)
    2d88:	2020                	fld	fs0,64(s0)
    2d8a:	2020                	fld	fs0,64(s0)
    2d8c:	2020                	fld	fs0,64(s0)
    2d8e:	2020                	fld	fs0,64(s0)
    2d90:	2020                	fld	fs0,64(s0)
    2d92:	2020                	fld	fs0,64(s0)
    2d94:	2020                	fld	fs0,64(s0)
    2d96:	2020                	fld	fs0,64(s0)
    2d98:	6c25                	lui	s8,0x9
    2d9a:	0a64                	addi	s1,sp,284
    2d9c:	0000                	unimp
    2d9e:	0000                	unimp
    2da0:	4844                	lw	s1,20(s0)
    2da2:	5952                	lw	s2,52(sp)
    2da4:	4e4f5453          	0x4e4f5453
    2da8:	2045                	jal	2e48 <impure_data+0x38>
    2daa:	5250                	lw	a2,36(a2)
    2dac:	4152474f          	fnmadd.s	fa4,ft4,fs5,fs0,rmm
    2db0:	2c4d                	jal	3062 <impure_data+0x252>
    2db2:	3120                	fld	fs0,96(a0)
    2db4:	20545327          	0x20545327
    2db8:	49525453          	0x49525453
    2dbc:	474e                	lw	a4,208(sp)
    2dbe:	0000                	unimp
    2dc0:	4844                	lw	s1,20(s0)
    2dc2:	5952                	lw	s2,52(sp)
    2dc4:	4e4f5453          	0x4e4f5453
    2dc8:	2045                	jal	2e68 <impure_data+0x58>
    2dca:	5250                	lw	a2,36(a2)
    2dcc:	4152474f          	fnmadd.s	fa4,ft4,fs5,fs0,rmm
    2dd0:	2c4d                	jal	3082 <impure_data+0x272>
    2dd2:	3220                	fld	fs0,96(a2)
    2dd4:	20444e27          	fsq	ft4,540(s0) # 1921c <__C_STACK_TOP__+0x921c>
    2dd8:	49525453          	0x49525453
    2ddc:	474e                	lw	a4,208(sp)
    2dde:	0000                	unimp
    2de0:	4844                	lw	s1,20(s0)
    2de2:	5952                	lw	s2,52(sp)
    2de4:	4e4f5453          	0x4e4f5453
    2de8:	2045                	jal	2e88 <impure_data+0x78>
    2dea:	5250                	lw	a2,36(a2)
    2dec:	4152474f          	fnmadd.s	fa4,ft4,fs5,fs0,rmm
    2df0:	2c4d                	jal	30a2 <impure_data+0x292>
    2df2:	3320                	fld	fs0,96(a4)
    2df4:	20445227          	0x20445227
    2df8:	49525453          	0x49525453
    2dfc:	474e                	lw	a4,208(sp)
    2dfe:	0000                	unimp
    2e00:	00000043          	fmadd.s	ft0,ft0,ft0,ft0,rne
    2e04:	4f50                	lw	a2,28(a4)
    2e06:	00584953          	fadd.s	fs2,fa6,ft5,rmm
    2e0a:	0000                	unimp
    2e0c:	002e                	0x2e

Дизассемблирование раздела .data:

00002e10 <impure_data>:
    2e10:	0000                	unimp
    2e12:	0000                	unimp
    2e14:	30fc                	fld	fa5,224(s1)
    2e16:	0000                	unimp
    2e18:	3164                	fld	fs1,224(a0)
    2e1a:	0000                	unimp
    2e1c:	31cc                	fld	fa1,160(a1)
	...
    2eb6:	0000                	unimp
    2eb8:	0001                	nop
    2eba:	0000                	unimp
    2ebc:	0000                	unimp
    2ebe:	0000                	unimp
    2ec0:	330e                	fld	ft6,224(sp)
    2ec2:	abcd                	j	34b4 <Arr_1_Glob+0x20>
    2ec4:	1234                	addi	a3,sp,296
    2ec6:	e66d                	bnez	a2,2fb0 <impure_data+0x1a0>
    2ec8:	deec                	sw	a1,124(a3)
    2eca:	0005                	c.addi	zero,1
    2ecc:	0000000b          	0xb
	...

00003238 <__global_locale>:
    3238:	00000043          	fmadd.s	ft0,ft0,ft0,ft0,rne
	...
    3258:	00000043          	fmadd.s	ft0,ft0,ft0,ft0,rne
	...
    3278:	00000043          	fmadd.s	ft0,ft0,ft0,ft0,rne
	...
    3298:	00000043          	fmadd.s	ft0,ft0,ft0,ft0,rne
	...
    32b8:	00000043          	fmadd.s	ft0,ft0,ft0,ft0,rne
	...
    32d8:	00000043          	fmadd.s	ft0,ft0,ft0,ft0,rne
	...
    32f8:	00000043          	fmadd.s	ft0,ft0,ft0,ft0,rne
	...
    3318:	17d8                	addi	a4,sp,996
    331a:	0000                	unimp
    331c:	15e0                	addi	s0,sp,748
    331e:	0000                	unimp
    3320:	0000                	unimp
    3322:	0000                	unimp
    3324:	2618                	fld	fa4,8(a2)
    3326:	0000                	unimp
    3328:	2e0c                	fld	fa1,24(a2)
    332a:	0000                	unimp
    332c:	2a80                	fld	fs0,16(a3)
    332e:	0000                	unimp
    3330:	2a80                	fld	fs0,16(a3)
    3332:	0000                	unimp
    3334:	2a80                	fld	fs0,16(a3)
    3336:	0000                	unimp
    3338:	2a80                	fld	fs0,16(a3)
    333a:	0000                	unimp
    333c:	2a80                	fld	fs0,16(a3)
    333e:	0000                	unimp
    3340:	2a80                	fld	fs0,16(a3)
    3342:	0000                	unimp
    3344:	2a80                	fld	fs0,16(a3)
    3346:	0000                	unimp
    3348:	2a80                	fld	fs0,16(a3)
    334a:	0000                	unimp
    334c:	2a80                	fld	fs0,16(a3)
    334e:	0000                	unimp
    3350:	ffff                	0xffff
    3352:	ffff                	0xffff
    3354:	ffff                	0xffff
    3356:	ffff                	0xffff
    3358:	ffff                	0xffff
    335a:	ffff                	0xffff
    335c:	ffff                	0xffff
    335e:	0000                	unimp
    3360:	0001                	nop
    3362:	5341                	li	t1,-16
    3364:	00494943          	fmadd.s	fs2,fs2,ft4,ft0,rmm
	...
    3380:	0000                	unimp
    3382:	5341                	li	t1,-16
    3384:	00494943          	fmadd.s	fs2,fs2,ft4,ft0,rmm
	...

Дизассемблирование раздела .sdata:

000033c0 <_global_impure_ptr>:
    33c0:	2e10                	fld	fa2,24(a2)
	...

000033c4 <_impure_ptr>:
    33c4:	2e10                	fld	fa2,24(a2)
	...

Дизассемблирование раздела .tbss:

00003400 <__BSS_START__>:
	...

Дизассемблирование раздела .sbss:

00003400 <Dhrystones_Per_Second>:
    3400:	0000                	unimp
	...

00003404 <Microseconds>:
    3404:	0000                	unimp
	...

00003408 <User_Time>:
    3408:	0000                	unimp
	...

0000340c <End_Time>:
    340c:	0000                	unimp
	...

00003410 <Int_Glob>:
    3410:	0000                	unimp
	...

00003414 <Ch_2_Glob>:
    3414:	0000                	unimp
	...

00003418 <Bool_Glob>:
    3418:	0000                	unimp
	...

0000341c <Run_Index>:
    341c:	0000                	unimp
	...

00003420 <Begin_Time>:
    3420:	0000                	unimp
	...

00003424 <Ptr_Glob>:
    3424:	0000                	unimp
	...

00003428 <Next_Ptr_Glob>:
    3428:	0000                	unimp
	...

0000342c <Ch_1_Glob>:
    342c:	0000                	unimp
	...

00003430 <_PathLocale>:
    3430:	0000                	unimp
	...

Дизассемблирование раздела .bss:

00003434 <glob1.3071>:
	...

00003464 <glob2.3072>:
	...

00003494 <Arr_1_Glob>:
	...

0000355c <Arr_2_Glob>:
	...

Дизассемблирование раздела .stack:

0000fc00 <__C_STACK_TOP__-0x400>:
	...

Дизассемблирование раздела .comment:

00000000 <.comment>:
   0:	3a434347          	fmsub.d	ft6,ft6,ft4,ft7,rmm
   4:	2820                	fld	fs0,80(s0)
   6:	29554e47          	fmsub.s	ft8,fa0,fs5,ft5,rmm
   a:	3720                	fld	fs0,104(a4)
   c:	312e                	fld	ft2,232(sp)
   e:	312e                	fld	ft2,232(sp)
  10:	3220                	fld	fs0,96(a2)
  12:	3130                	fld	fa2,96(a0)
  14:	30353037          	lui	zero,0x30353
  18:	0039                	c.addi	zero,14

Дизассемблирование раздела .debug_info:

00000000 <.debug_info>:
       0:	11a9                	addi	gp,gp,-22
       2:	0000                	unimp
       4:	0004                	addi	s1,sp,0
       6:	0000                	unimp
       8:	0000                	unimp
       a:	0104                	addi	s1,sp,128
       c:	006a                	0x6a
       e:	0000                	unimp
      10:	a30c                	fsd	fa1,0(a4)
      12:	0001                	nop
      14:	2c00                	fld	fs0,24(s0)
      16:	0002                	0x2
      18:	0800                	addi	s0,sp,16
      1a:	0018                	addi	a4,sp,0
      1c:	5800                	lw	s0,48(s0)
      1e:	0004                	addi	s1,sp,0
      20:	0000                	unimp
      22:	0000                	unimp
      24:	0200                	addi	s0,sp,256
      26:	0704                	addi	s1,sp,896
      28:	03d0                	addi	a2,sp,452
      2a:	0000                	unimp
      2c:	0802                	slli	a6,a6,0x0
      2e:	0003c607          	flq	fa2,0(t2)
      32:	0300                	addi	s0,sp,384
      34:	0504                	addi	s1,sp,640
      36:	6e69                	lui	t3,0x1a
      38:	0074                	addi	a3,sp,12
      3a:	0802                	slli	a6,a6,0x0
      3c:	e005                	bnez	s0,5c <buflen.1776+0x1c>
      3e:	0002                	0x2
      40:	0200                	addi	s0,sp,256
      42:	0410                	addi	a2,sp,512
      44:	0000015b          	0x15b
      48:	0102                	slli	sp,sp,0x0
      4a:	9606                	add	a2,a2,ra
      4c:	0006                	0x6
      4e:	0200                	addi	s0,sp,256
      50:	0801                	addi	a6,a6,0
      52:	0694                	addi	a3,sp,832
      54:	0000                	unimp
      56:	0202                	slli	tp,tp,0x0
      58:	0005                	c.addi	zero,1
      5a:	0000                	unimp
      5c:	0200                	addi	s0,sp,256
      5e:	0702                	slli	a4,a4,0x0
      60:	03e6                	slli	t2,t2,0x19
      62:	0000                	unimp
      64:	0402                	slli	s0,s0,0x0
      66:	e505                	bnez	a0,8e <buflen.1776+0x4e>
      68:	0002                	0x2
      6a:	0200                	addi	s0,sp,256
      6c:	0704                	addi	s1,sp,896
      6e:	000003cb          	fnmsub.s	ft7,ft0,ft0,ft0,rne
      72:	4104                	lw	s1,0(a0)
      74:	0005                	c.addi	zero,1
      76:	0200                	addi	s0,sp,256
      78:	00003307          	fld	ft6,0(zero) # 30353000 <__C_STACK_TOP__+0x30343000>
      7c:	0400                	addi	s0,sp,512
      7e:	0511                	addi	a0,a0,4
      80:	0000                	unimp
      82:	00642c03          	lw	s8,6(s0)
      86:	0000                	unimp
      88:	2704                	fld	fs1,8(a4)
      8a:	0006                	0x6
      8c:	0300                	addi	s0,sp,384
      8e:	6472                	flw	fs0,28(sp)
      90:	0000                	unimp
      92:	0400                	addi	s0,sp,512
      94:	06fe                	slli	a3,a3,0x1f
      96:	0000                	unimp
      98:	00339103          	lh	sp,3(t2)
      9c:	0000                	unimp
      9e:	4205                	li	tp,1
      a0:	0004                	addi	s1,sp,0
      a2:	0400                	addi	s0,sp,512
      a4:	0165                	addi	sp,sp,25
      a6:	0025                	c.addi	zero,9
      a8:	0000                	unimp
      aa:	0406                	slli	s0,s0,0x1
      ac:	00c9a603          	lw	a2,12(s3)
      b0:	0000                	unimp
      b2:	00042d07          	flw	fs10,0(s0)
      b6:	0300                	addi	s0,sp,384
      b8:	9ea8                	0x9ea8
      ba:	0000                	unimp
      bc:	0700                	addi	s0,sp,896
      be:	0398                	addi	a4,sp,448
      c0:	0000                	unimp
      c2:	00c9a903          	lw	s2,12(s3)
      c6:	0000                	unimp
      c8:	0800                	addi	s0,sp,16
      ca:	0000004f          	fnmadd.s	ft0,ft0,ft0,ft0,rne
      ce:	00d9                	addi	ra,ra,22
      d0:	0000                	unimp
      d2:	2509                	jal	6d4 <vprintfmt.constprop.2+0x2ba>
      d4:	0000                	unimp
      d6:	0300                	addi	s0,sp,384
      d8:	0a00                	addi	s0,sp,272
      da:	0308                	addi	a0,sp,384
      dc:	0000faa3          	0xfaa3
      e0:	0b00                	addi	s0,sp,400
      e2:	0488                	addi	a0,sp,576
      e4:	0000                	unimp
      e6:	0033a503          	lw	a0,3(t2)
      ea:	0000                	unimp
      ec:	0b00                	addi	s0,sp,400
      ee:	0619                	addi	a2,a2,6
      f0:	0000                	unimp
      f2:	00aaaa03          	lw	s4,10(s5)
      f6:	0000                	unimp
      f8:	0004                	addi	s1,sp,0
      fa:	3604                	fld	fs1,40(a2)
      fc:	0005                	c.addi	zero,1
      fe:	0300                	addi	s0,sp,384
     100:	0000d9ab          	0xd9ab
     104:	0400                	addi	s0,sp,512
     106:	0590                	addi	a2,sp,704
     108:	0000                	unimp
     10a:	0072af03          	lw	t5,7(t0)
     10e:	0000                	unimp
     110:	040c                	addi	a1,sp,512
     112:	a704                	fsd	fs1,8(a4)
     114:	0006                	0x6
     116:	0500                	addi	s0,sp,640
     118:	6b16                	flw	fs6,68(sp)
     11a:	0000                	unimp
     11c:	0d00                	addi	s0,sp,656
     11e:	04c1                	addi	s1,s1,16
     120:	0000                	unimp
     122:	0518                	addi	a4,sp,640
     124:	0001702f          	0x1702f
     128:	0b00                	addi	s0,sp,400
     12a:	07c0                	addi	s0,sp,964
     12c:	0000                	unimp
     12e:	3105                	jal	fffffd4e <__C_STACK_TOP__+0xfffefd4e>
     130:	0170                	addi	a2,sp,140
     132:	0000                	unimp
     134:	0e00                	addi	s0,sp,784
     136:	6b5f 0500 3332      	0x333205006b5f
     13c:	0000                	unimp
     13e:	0400                	addi	s0,sp,512
     140:	0005f60b          	0x5f60b
     144:	0500                	addi	s0,sp,640
     146:	3332                	fld	ft6,296(sp)
     148:	0000                	unimp
     14a:	0800                	addi	s0,sp,16
     14c:	00033c0b          	0x33c0b
     150:	0500                	addi	s0,sp,640
     152:	3332                	fld	ft6,296(sp)
     154:	0000                	unimp
     156:	0c00                	addi	s0,sp,528
     158:	0002c20b          	0x2c20b
     15c:	0500                	addi	s0,sp,640
     15e:	3332                	fld	ft6,296(sp)
     160:	0000                	unimp
     162:	1000                	addi	s0,sp,32
     164:	5f0e                	lw	t5,224(sp)
     166:	0078                	addi	a4,sp,12
     168:	3305                	jal	fffffe88 <__C_STACK_TOP__+0xfffefe88>
     16a:	0176                	slli	sp,sp,0x1d
     16c:	0000                	unimp
     16e:	0014                	addi	a3,sp,0
     170:	011d040f          	0x11d040f
     174:	0000                	unimp
     176:	1208                	addi	a0,sp,288
     178:	0001                	nop
     17a:	8600                	0x8600
     17c:	0001                	nop
     17e:	0900                	addi	s0,sp,144
     180:	0025                	c.addi	zero,9
     182:	0000                	unimp
     184:	0000                	unimp
     186:	7b0d                	lui	s6,0xfffe3
     188:	24000003          	lb	zero,576(zero) # 240 <_start+0x40>
     18c:	3705                	jal	ac <buflen.1776+0x6c>
     18e:	01ff                	0x1ff
     190:	0000                	unimp
     192:	0001930b          	0x1930b
     196:	0500                	addi	s0,sp,640
     198:	3339                	jal	fffffea6 <__C_STACK_TOP__+0xfffefea6>
     19a:	0000                	unimp
     19c:	0000                	unimp
     19e:	00075c0b          	0x75c0b
     1a2:	0500                	addi	s0,sp,640
     1a4:	333a                	fld	ft6,424(sp)
     1a6:	0000                	unimp
     1a8:	0400                	addi	s0,sp,512
     1aa:	0002010b          	0x2010b
     1ae:	0500                	addi	s0,sp,640
     1b0:	0000333b          	0x333b
     1b4:	0800                	addi	s0,sp,16
     1b6:	0007b10b          	0x7b10b
     1ba:	0500                	addi	s0,sp,640
     1bc:	333c                	fld	fa5,96(a4)
     1be:	0000                	unimp
     1c0:	0c00                	addi	s0,sp,528
     1c2:	0004eb0b          	0x4eb0b
     1c6:	0500                	addi	s0,sp,640
     1c8:	333d                	jal	fffffef6 <__C_STACK_TOP__+0xfffefef6>
     1ca:	0000                	unimp
     1cc:	1000                	addi	s0,sp,32
     1ce:	00047e0b          	0x47e0b
     1d2:	0500                	addi	s0,sp,640
     1d4:	333e                	fld	ft6,488(sp)
     1d6:	0000                	unimp
     1d8:	1400                	addi	s0,sp,544
     1da:	0006e70b          	0x6e70b
     1de:	0500                	addi	s0,sp,640
     1e0:	0000333f 980b1800 	0x980b18000000333f
     1e8:	05000007          	0x5000007
     1ec:	3340                	fld	fs0,160(a4)
     1ee:	0000                	unimp
     1f0:	1c00                	addi	s0,sp,560
     1f2:	0007420b          	0x7420b
     1f6:	0500                	addi	s0,sp,640
     1f8:	3341                	jal	ffffff78 <__C_STACK_TOP__+0xfffeff78>
     1fa:	0000                	unimp
     1fc:	2000                	fld	fs0,0(s0)
     1fe:	1000                	addi	s0,sp,32
     200:	021e                	slli	tp,tp,0x7
     202:	0000                	unimp
     204:	0108                	addi	a0,sp,128
     206:	4a05                	li	s4,1
     208:	0000023f 00032f0b 	0x32f0b0000023f
     210:	0500                	addi	s0,sp,640
     212:	00023f4b          	fnmsub.s	ft10,ft4,ft0,ft0,rup
     216:	0000                	unimp
     218:	00056c0b          	0x56c0b
     21c:	0500                	addi	s0,sp,640
     21e:	3f4c                	fld	fa1,184(a4)
     220:	0002                	0x2
     222:	8000                	0x8000
     224:	8b11                	andi	a4,a4,4
     226:	0006                	0x6
     228:	0500                	addi	s0,sp,640
     22a:	124e                	slli	tp,tp,0x33
     22c:	0001                	nop
     22e:	0000                	unimp
     230:	1101                	addi	sp,sp,-32
     232:	02ba                	slli	t0,t0,0xe
     234:	0000                	unimp
     236:	5105                	li	sp,-31
     238:	0112                	slli	sp,sp,0x4
     23a:	0000                	unimp
     23c:	0104                	addi	s1,sp,128
     23e:	0800                	addi	s0,sp,16
     240:	0110                	addi	a2,sp,128
     242:	0000                	unimp
     244:	0000024f          	fnmadd.s	ft4,ft0,ft0,ft0,rne
     248:	2509                	jal	84a <vprintfmt.constprop.2+0x430>
     24a:	0000                	unimp
     24c:	1f00                	addi	s0,sp,944
     24e:	1000                	addi	s0,sp,32
     250:	04f4                	addi	a3,sp,588
     252:	0000                	unimp
     254:	0190                	addi	a2,sp,192
     256:	5d05                	li	s10,-31
     258:	028d                	addi	t0,t0,3
     25a:	0000                	unimp
     25c:	0007c00b          	0x7c00b
     260:	0500                	addi	s0,sp,640
     262:	8d5e                	mv	s10,s7
     264:	0002                	0x2
     266:	0000                	unimp
     268:	0005df0b          	0x5df0b
     26c:	0500                	addi	s0,sp,640
     26e:	335f 0000 0400      	0x4000000335f
     274:	0003370b          	0x3370b
     278:	0500                	addi	s0,sp,640
     27a:	9361                	srli	a4,a4,0x38
     27c:	0002                	0x2
     27e:	0800                	addi	s0,sp,16
     280:	00021e0b          	0x21e0b
     284:	0500                	addi	s0,sp,640
     286:	ff62                	fsw	fs8,188(sp)
     288:	0001                	nop
     28a:	8800                	0x8800
     28c:	0f00                	addi	s0,sp,912
     28e:	4f04                	lw	s1,24(a4)
     290:	0002                	0x2
     292:	0800                	addi	s0,sp,16
     294:	000002a3          	sb	zero,5(zero) # 5 <buf.1775+0x5>
     298:	000002a3          	sb	zero,5(zero) # 5 <buf.1775+0x5>
     29c:	2509                	jal	89e <vprintfmt.constprop.2+0x484>
     29e:	0000                	unimp
     2a0:	1f00                	addi	s0,sp,944
     2a2:	0f00                	addi	s0,sp,912
     2a4:	a904                	fsd	fs1,16(a0)
     2a6:	0002                	0x2
     2a8:	1200                	addi	s0,sp,288
     2aa:	aa0d                	j	3dc <printf_putch+0xc8>
     2ac:	08000007          	0x8000007
     2b0:	7505                	lui	a0,0xfffe1
     2b2:	000002cf          	fnmadd.s	ft5,ft0,ft0,ft0,rne
     2b6:	0001fb0b          	0x1fb0b
     2ba:	0500                	addi	s0,sp,640
     2bc:	cf76                	sw	t4,156(sp)
     2be:	0002                	0x2
     2c0:	0000                	unimp
     2c2:	0006380b          	0x6380b
     2c6:	0500                	addi	s0,sp,640
     2c8:	00003377          	0x3377
     2cc:	0400                	addi	s0,sp,512
     2ce:	0f00                	addi	s0,sp,912
     2d0:	4f04                	lw	s1,24(a4)
     2d2:	0000                	unimp
     2d4:	0d00                	addi	s0,sp,656
     2d6:	000005bb          	0x5bb
     2da:	0568                	addi	a0,sp,652
     2dc:	ffb5                	bnez	a5,258 <_start+0x58>
     2de:	0e000003          	lb	zero,224(zero) # e0 <buflen.1776+0xa0>
     2e2:	705f 0500 cfb6      	0xcfb60500705f
     2e8:	0002                	0x2
     2ea:	0000                	unimp
     2ec:	5f0e                	lw	t5,224(sp)
     2ee:	0072                	0x72
     2f0:	b705                	j	210 <_start+0x10>
     2f2:	00000033          	add	zero,zero,zero
     2f6:	0e04                	addi	s1,sp,784
     2f8:	775f 0500 33b8      	0x33b80500775f
     2fe:	0000                	unimp
     300:	0800                	addi	s0,sp,16
     302:	0002b30b          	0x2b30b
     306:	0500                	addi	s0,sp,640
     308:	56b9                	li	a3,-18
     30a:	0000                	unimp
     30c:	0c00                	addi	s0,sp,528
     30e:	0003a70b          	0x3a70b
     312:	0500                	addi	s0,sp,640
     314:	56ba                	lw	a3,172(sp)
     316:	0000                	unimp
     318:	0e00                	addi	s0,sp,784
     31a:	5f0e                	lw	t5,224(sp)
     31c:	6662                	flw	fa2,24(sp)
     31e:	0500                	addi	s0,sp,640
     320:	0002aabb          	0x2aabb
     324:	1000                	addi	s0,sp,32
     326:	0001430b          	0x1430b
     32a:	0500                	addi	s0,sp,640
     32c:	33bc                	fld	fa5,96(a5)
     32e:	0000                	unimp
     330:	1800                	addi	s0,sp,48
     332:	0002a30b          	0x2a30b
     336:	0500                	addi	s0,sp,640
     338:	000110c3          	fmadd.s	ft1,ft2,ft0,ft0,rtz
     33c:	1c00                	addi	s0,sp,560
     33e:	0005530b          	0x5530b
     342:	0500                	addi	s0,sp,640
     344:	6cc5                	lui	s9,0x11
     346:	0005                	c.addi	zero,1
     348:	2000                	fld	fs0,0(s0)
     34a:	0004770b          	0x4770b
     34e:	0500                	addi	s0,sp,640
     350:	00059bc7          	fmsub.s	fs7,fa1,ft0,ft0,rtz
     354:	2400                	fld	fs0,8(s0)
     356:	0006210b          	0x6210b
     35a:	0500                	addi	s0,sp,640
     35c:	bfca                	fsd	fs2,504(sp)
     35e:	0005                	c.addi	zero,1
     360:	2800                	fld	fs0,16(s0)
     362:	00019c0b          	0x19c0b
     366:	0500                	addi	s0,sp,640
     368:	0005d9cb          	fnmsub.s	fs3,fa1,ft0,ft0,unknown
     36c:	2c00                	fld	fs0,24(s0)
     36e:	5f0e                	lw	t5,224(sp)
     370:	6275                	lui	tp,0x1d
     372:	0500                	addi	s0,sp,640
     374:	aace                	fsd	fs3,336(sp)
     376:	0002                	0x2
     378:	3000                	fld	fs0,32(s0)
     37a:	5f0e                	lw	t5,224(sp)
     37c:	7075                	0x7075
     37e:	0500                	addi	s0,sp,640
     380:	0002cfcf          	fnmadd.s	ft11,ft5,ft0,ft0,rmm
     384:	3800                	fld	fs0,48(s0)
     386:	5f0e                	lw	t5,224(sp)
     388:	7275                	lui	tp,0xffffd
     38a:	0500                	addi	s0,sp,640
     38c:	33d0                	fld	fa2,160(a5)
     38e:	0000                	unimp
     390:	3c00                	fld	fs0,56(s0)
     392:	0001f50b          	0x1f50b
     396:	0500                	addi	s0,sp,640
     398:	0005dfd3          	fadd.s	ft11,fa1,ft0,unknown
     39c:	4000                	lw	s0,0(s0)
     39e:	00072a0b          	0x72a0b
     3a2:	0500                	addi	s0,sp,640
     3a4:	efd4                	fsw	fa3,28(a5)
     3a6:	0005                	c.addi	zero,1
     3a8:	4300                	lw	s0,0(a4)
     3aa:	5f0e                	lw	t5,224(sp)
     3ac:	626c                	flw	fa1,68(a2)
     3ae:	0500                	addi	s0,sp,640
     3b0:	0002aad7          	0x2aad7
     3b4:	4400                	lw	s0,8(s0)
     3b6:	00062f0b          	0x62f0b
     3ba:	0500                	addi	s0,sp,640
     3bc:	33da                	fld	ft7,432(sp)
     3be:	0000                	unimp
     3c0:	4c00                	lw	s0,24(s0)
     3c2:	0004b90b          	0x4b90b
     3c6:	0500                	addi	s0,sp,640
     3c8:	00007ddb          	0x7ddb
     3cc:	5000                	lw	s0,32(s0)
     3ce:	0000550b          	0x550b
     3d2:	0500                	addi	s0,sp,640
     3d4:	1dde                	slli	s11,s11,0x37
     3d6:	0004                	addi	s1,sp,0
     3d8:	5400                	lw	s0,40(s0)
     3da:	0004490b          	0x4490b
     3de:	0500                	addi	s0,sp,640
     3e0:	05e2                	slli	a1,a1,0x18
     3e2:	0001                	nop
     3e4:	5800                	lw	s0,48(s0)
     3e6:	00038f0b          	0x38f0b
     3ea:	0500                	addi	s0,sp,640
     3ec:	fae4                	fsw	fs1,116(a3)
     3ee:	0000                	unimp
     3f0:	5c00                	lw	s0,56(s0)
     3f2:	0005990b          	0x5990b
     3f6:	0500                	addi	s0,sp,640
     3f8:	33e5                	jal	1e0 <machine_trap_entry+0x20>
     3fa:	0000                	unimp
     3fc:	6400                	flw	fs0,8(s0)
     3fe:	1300                	addi	s0,sp,416
     400:	00000093          	li	ra,0
     404:	041d                	addi	s0,s0,7
     406:	0000                	unimp
     408:	1d14                	addi	a3,sp,688
     40a:	0004                	addi	s1,sp,0
     40c:	1400                	addi	s0,sp,544
     40e:	0110                	addi	a2,sp,128
     410:	0000                	unimp
     412:	5a14                	lw	a3,48(a2)
     414:	0005                	c.addi	zero,1
     416:	1400                	addi	s0,sp,544
     418:	00000033          	add	zero,zero,zero
     41c:	0f00                	addi	s0,sp,912
     41e:	2804                	fld	fs1,16(s0)
     420:	0004                	addi	s1,sp,0
     422:	1500                	addi	s0,sp,672
     424:	041d                	addi	s0,s0,7
     426:	0000                	unimp
     428:	fe16                	fsw	ft5,60(sp)
     42a:	0005                	c.addi	zero,1
     42c:	2800                	fld	fs0,16(s0)
     42e:	0504                	addi	s1,sp,640
     430:	0239                	addi	tp,tp,14
     432:	055a                	slli	a0,a0,0x16
     434:	0000                	unimp
     436:	00058917          	auipc	s2,0x58
     43a:	0500                	addi	s0,sp,640
     43c:	0033023b          	0x33023b
     440:	0000                	unimp
     442:	1700                	addi	s0,sp,928
     444:	000006f7          	0x6f7
     448:	4005                	0x4005
     44a:	4602                	lw	a2,0(sp)
     44c:	0006                	0x6
     44e:	0400                	addi	s0,sp,512
     450:	0006df17          	auipc	t5,0x6d
     454:	0500                	addi	s0,sp,640
     456:	0240                	addi	s0,sp,260
     458:	0646                	slli	a2,a2,0x11
     45a:	0000                	unimp
     45c:	1708                	addi	a0,sp,928
     45e:	0342                	slli	t1,t1,0x10
     460:	0000                	unimp
     462:	4005                	0x4005
     464:	4602                	lw	a2,0(sp)
     466:	0006                	0x6
     468:	0c00                	addi	s0,sp,528
     46a:	0005da17          	auipc	s4,0x5d
     46e:	0500                	addi	s0,sp,640
     470:	0242                	slli	tp,tp,0x10
     472:	00000033          	add	zero,zero,zero
     476:	1710                	addi	a2,sp,928
     478:	0024                	addi	s1,sp,8
     47a:	0000                	unimp
     47c:	4305                	li	t1,1
     47e:	2802                	fld	fa6,0(sp)
     480:	0008                	addi	a0,sp,0
     482:	1400                	addi	s0,sp,544
     484:	00036217          	auipc	tp,0x36
     488:	0500                	addi	s0,sp,640
     48a:	0246                	slli	tp,tp,0x11
     48c:	00000033          	add	zero,zero,zero
     490:	1730                	addi	a2,sp,936
     492:	05e4                	addi	s1,sp,716
     494:	0000                	unimp
     496:	4705                	li	a4,1
     498:	3d02                	fld	fs10,32(sp)
     49a:	0008                	addi	a0,sp,0
     49c:	3400                	fld	fs0,40(s0)
     49e:	00050617          	auipc	a2,0x50
     4a2:	0500                	addi	s0,sp,640
     4a4:	0249                	addi	tp,tp,18
     4a6:	00000033          	add	zero,zero,zero
     4aa:	1738                	addi	a4,sp,936
     4ac:	05ec                	addi	a1,sp,716
     4ae:	0000                	unimp
     4b0:	4b05                	li	s6,1
     4b2:	4e02                	lw	t3,0(sp)
     4b4:	0008                	addi	a0,sp,0
     4b6:	3c00                	fld	fs0,56(s0)
     4b8:	00042517          	auipc	a0,0x42
     4bc:	0500                	addi	s0,sp,640
     4be:	024e                	slli	tp,tp,0x13
     4c0:	0170                	addi	a2,sp,140
     4c2:	0000                	unimp
     4c4:	1740                	addi	s0,sp,932
     4c6:	02ce                	slli	t0,t0,0x13
     4c8:	0000                	unimp
     4ca:	4f05                	li	t5,1
     4cc:	3302                	fld	ft6,32(sp)
     4ce:	0000                	unimp
     4d0:	4400                	lw	s0,8(s0)
     4d2:	00079317          	auipc	t1,0x79
     4d6:	0500                	addi	s0,sp,640
     4d8:	0250                	addi	a2,sp,260
     4da:	0170                	addi	a2,sp,140
     4dc:	0000                	unimp
     4de:	1748                	addi	a0,sp,932
     4e0:	0522                	slli	a0,a0,0x8
     4e2:	0000                	unimp
     4e4:	5105                	li	sp,-31
     4e6:	5402                	lw	s0,32(sp)
     4e8:	0008                	addi	a0,sp,0
     4ea:	4c00                	lw	s0,24(s0)
     4ec:	00039f17          	auipc	t5,0x39
     4f0:	0500                	addi	s0,sp,640
     4f2:	0254                	addi	a3,sp,260
     4f4:	00000033          	add	zero,zero,zero
     4f8:	1750                	addi	a2,sp,932
     4fa:	000002fb          	0x2fb
     4fe:	5505                	li	a0,-31
     500:	5a02                	lw	s4,32(sp)
     502:	0005                	c.addi	zero,1
     504:	5400                	lw	s0,40(s0)
     506:	00058217          	auipc	tp,0x58
     50a:	0500                	addi	s0,sp,640
     50c:	0278                	addi	a4,sp,268
     50e:	0806                	slli	a6,a6,0x1
     510:	0000                	unimp
     512:	1858                	addi	a4,sp,52
     514:	04f4                	addi	a3,sp,588
     516:	0000                	unimp
     518:	7c05                	lui	s8,0xfffe1
     51a:	8d02                	jr	s10
     51c:	0002                	0x2
     51e:	4800                	lw	s0,16(s0)
     520:	1801                	addi	a6,a6,-32
     522:	00000403          	lb	s0,0(zero) # 0 <buf.1775>
     526:	7d05                	lui	s10,0xfffe1
     528:	4f02                	lw	t5,0(sp)
     52a:	0002                	0x2
     52c:	4c00                	lw	s0,24(s0)
     52e:	1801                	addi	a6,a6,-32
     530:	0711                	addi	a4,a4,4
     532:	0000                	unimp
     534:	8105                	srli	a0,a0,0x1
     536:	6502                	flw	fa0,0(sp)
     538:	0008                	addi	a0,sp,0
     53a:	dc00                	sw	s0,56(s0)
     53c:	1802                	slli	a6,a6,0x20
     53e:	000002ab          	0x2ab
     542:	8605                	srai	a2,a2,0x1
     544:	0b02                	slli	s6,s6,0x0
     546:	0006                	0x6
     548:	e000                	fsw	fs0,0(s0)
     54a:	1802                	slli	a6,a6,0x20
     54c:	0219                	addi	tp,tp,6
     54e:	0000                	unimp
     550:	8705                	srai	a4,a4,0x1
     552:	7102                	flw	ft2,32(sp)
     554:	0008                	addi	a0,sp,0
     556:	ec00                	fsw	fs0,24(s0)
     558:	0002                	0x2
     55a:	0560040f          	0x560040f
     55e:	0000                	unimp
     560:	0102                	slli	sp,sp,0x0
     562:	9d08                	0x9d08
     564:	0006                	0x6
     566:	1500                	addi	s0,sp,672
     568:	0560                	addi	s0,sp,652
     56a:	0000                	unimp
     56c:	03ff040f          	0x3ff040f
     570:	0000                	unimp
     572:	00009313          	slli	t1,ra,0x0
     576:	9000                	0x9000
     578:	0005                	c.addi	zero,1
     57a:	1400                	addi	s0,sp,544
     57c:	041d                	addi	s0,s0,7
     57e:	0000                	unimp
     580:	1014                	addi	a3,sp,32
     582:	0001                	nop
     584:	1400                	addi	s0,sp,544
     586:	0590                	addi	a2,sp,704
     588:	0000                	unimp
     58a:	3314                	fld	fa3,32(a4)
     58c:	0000                	unimp
     58e:	0000                	unimp
     590:	0567040f          	0x567040f
     594:	0000                	unimp
     596:	9015                	srli	s0,s0,0x25
     598:	0005                	c.addi	zero,1
     59a:	0f00                	addi	s0,sp,912
     59c:	7204                	flw	fs1,32(a2)
     59e:	0005                	c.addi	zero,1
     5a0:	1300                	addi	s0,sp,416
     5a2:	0088                	addi	a0,sp,64
     5a4:	0000                	unimp
     5a6:	000005bf 00041d14 	0x41d14000005bf
     5ae:	1400                	addi	s0,sp,544
     5b0:	0110                	addi	a2,sp,128
     5b2:	0000                	unimp
     5b4:	8814                	0x8814
     5b6:	0000                	unimp
     5b8:	1400                	addi	s0,sp,544
     5ba:	00000033          	add	zero,zero,zero
     5be:	0f00                	addi	s0,sp,912
     5c0:	a104                	fsd	fs1,0(a0)
     5c2:	0005                	c.addi	zero,1
     5c4:	1300                	addi	s0,sp,416
     5c6:	00000033          	add	zero,zero,zero
     5ca:	05d9                	addi	a1,a1,22
     5cc:	0000                	unimp
     5ce:	1d14                	addi	a3,sp,688
     5d0:	0004                	addi	s1,sp,0
     5d2:	1400                	addi	s0,sp,544
     5d4:	0110                	addi	a2,sp,128
     5d6:	0000                	unimp
     5d8:	0f00                	addi	s0,sp,912
     5da:	c504                	sw	s1,8(a0)
     5dc:	0005                	c.addi	zero,1
     5de:	0800                	addi	s0,sp,16
     5e0:	0000004f          	fnmadd.s	ft0,ft0,ft0,ft0,rne
     5e4:	000005ef          	jal	a1,5e4 <vprintfmt.constprop.2+0x1ca>
     5e8:	2509                	jal	bea <main+0x126>
     5ea:	0000                	unimp
     5ec:	0200                	addi	s0,sp,256
     5ee:	0800                	addi	s0,sp,16
     5f0:	0000004f          	fnmadd.s	ft0,ft0,ft0,ft0,rne
     5f4:	05ff                	0x5ff
     5f6:	0000                	unimp
     5f8:	2509                	jal	bfa <main+0x136>
     5fa:	0000                	unimp
     5fc:	0000                	unimp
     5fe:	0500                	addi	s0,sp,640
     600:	000002c7          	fmsub.s	ft5,ft0,ft0,ft0,rne
     604:	1f05                	addi	t5,t5,-31
     606:	d501                	beqz	a0,50e <vprintfmt.constprop.2+0xf4>
     608:	0002                	0x2
     60a:	1900                	addi	s0,sp,176
     60c:	06f1                	addi	a3,a3,28
     60e:	0000                	unimp
     610:	050c                	addi	a1,sp,640
     612:	06400123          	sb	tp,98(zero) # 62 <buflen.1776+0x22>
     616:	0000                	unimp
     618:	0007c017          	auipc	zero,0x7c
     61c:	0500                	addi	s0,sp,640
     61e:	0125                	addi	sp,sp,9
     620:	0640                	addi	s0,sp,772
     622:	0000                	unimp
     624:	1700                	addi	s0,sp,928
     626:	000003bf 33012605 	0x33012605000003bf
     62e:	0000                	unimp
     630:	0400                	addi	s0,sp,512
     632:	0005a117          	auipc	sp,0x5a
     636:	0500                	addi	s0,sp,640
     638:	06460127          	0x6460127
     63c:	0000                	unimp
     63e:	0008                	addi	a0,sp,0
     640:	060b040f          	0x60b040f
     644:	0000                	unimp
     646:	05ff040f          	0x5ff040f
     64a:	0000                	unimp
     64c:	1c19                	addi	s8,s8,-26
     64e:	0000                	unimp
     650:	0e00                	addi	s0,sp,784
     652:	3f05                	jal	582 <vprintfmt.constprop.2+0x168>
     654:	8101                	srli	a0,a0,0x0
     656:	0006                	0x6
     658:	1700                	addi	s0,sp,928
     65a:	0000065b          	0x65b
     65e:	4005                	0x4005
     660:	8101                	srli	a0,a0,0x0
     662:	0006                	0x6
     664:	0000                	unimp
     666:	00045417          	auipc	s0,0x45
     66a:	0500                	addi	s0,sp,640
     66c:	0141                	addi	sp,sp,16
     66e:	0681                	addi	a3,a3,0
     670:	0000                	unimp
     672:	1706                	slli	a4,a4,0x21
     674:	06a2                	slli	a3,a3,0x8
     676:	0000                	unimp
     678:	4205                	li	tp,1
     67a:	5d01                	li	s10,-32
     67c:	0000                	unimp
     67e:	0c00                	addi	s0,sp,528
     680:	0800                	addi	s0,sp,16
     682:	005d                	c.addi	zero,23
     684:	0000                	unimp
     686:	0691                	addi	a3,a3,4
     688:	0000                	unimp
     68a:	2509                	jal	c8c <main+0x1c8>
     68c:	0000                	unimp
     68e:	0200                	addi	s0,sp,256
     690:	1a00                	addi	s0,sp,304
     692:	05d0                	addi	a2,sp,708
     694:	0259                	addi	tp,tp,22
     696:	0792                	slli	a5,a5,0x4
     698:	0000                	unimp
     69a:	00049017          	auipc	zero,0x49
     69e:	0500                	addi	s0,sp,640
     6a0:	0025025b          	0x25025b
     6a4:	0000                	unimp
     6a6:	1700                	addi	s0,sp,928
     6a8:	00000677          	0x677
     6ac:	5c05                	li	s8,-31
     6ae:	5a02                	lw	s4,32(sp)
     6b0:	0005                	c.addi	zero,1
     6b2:	0400                	addi	s0,sp,512
     6b4:	00041817          	auipc	a6,0x41
     6b8:	0500                	addi	s0,sp,640
     6ba:	025d                	addi	tp,tp,23
     6bc:	0792                	slli	a5,a5,0x4
     6be:	0000                	unimp
     6c0:	1708                	addi	a0,sp,928
     6c2:	074d                	addi	a4,a4,19
     6c4:	0000                	unimp
     6c6:	5e05                	li	t3,-31
     6c8:	8602                	jr	a2
     6ca:	0001                	nop
     6cc:	2400                	fld	fs0,8(s0)
     6ce:	00034a17          	auipc	s4,0x34
     6d2:	0500                	addi	s0,sp,640
     6d4:	025f 0033 0000      	0x33025f
     6da:	1748                	addi	a0,sp,932
     6dc:	000007bb          	0x7bb
     6e0:	6005                	0x6005
     6e2:	2c02                	fld	fs8,0(sp)
     6e4:	0000                	unimp
     6e6:	5000                	lw	s0,32(s0)
     6e8:	00076517          	auipc	a0,0x76
     6ec:	0500                	addi	s0,sp,640
     6ee:	0261                	addi	tp,tp,24
     6f0:	064c                	addi	a1,sp,772
     6f2:	0000                	unimp
     6f4:	1758                	addi	a4,sp,932
     6f6:	05cd                	addi	a1,a1,19
     6f8:	0000                	unimp
     6fa:	6205                	lui	tp,0x1
     6fc:	fa02                	fsw	ft0,52(sp)
     6fe:	0000                	unimp
     700:	6800                	flw	fs0,16(s0)
     702:	00078517          	auipc	a0,0x78
     706:	0500                	addi	s0,sp,640
     708:	00fa0263          	beq	s4,a5,70c <vprintfmt.constprop.2+0x2f2>
     70c:	0000                	unimp
     70e:	1770                	addi	a2,sp,940
     710:	0000020b          	0x20b
     714:	6405                	lui	s0,0x1
     716:	fa02                	fsw	ft0,52(sp)
     718:	0000                	unimp
     71a:	7800                	flw	fs0,48(s0)
     71c:	00070717          	auipc	a4,0x70
     720:	0500                	addi	s0,sp,640
     722:	0265                	addi	tp,tp,25
     724:	07a2                	slli	a5,a5,0x8
     726:	0000                	unimp
     728:	1780                	addi	s0,sp,992
     72a:	040c                	addi	a1,sp,512
     72c:	0000                	unimp
     72e:	6605                	lui	a2,0x1
     730:	b202                	fsd	ft0,288(sp)
     732:	88000007          	0x88000007
     736:	00004817          	auipc	a6,0x4
     73a:	0500                	addi	s0,sp,640
     73c:	00330267          	jalr	tp,3(t1) # 794d5 <__C_STACK_TOP__+0x694d5>
     740:	0000                	unimp
     742:	17a0                	addi	s0,sp,1000
     744:	0314                	addi	a3,sp,384
     746:	0000                	unimp
     748:	6805                	lui	a6,0x1
     74a:	fa02                	fsw	ft0,52(sp)
     74c:	0000                	unimp
     74e:	a400                	fsd	fs0,8(s0)
     750:	00017c17          	auipc	s8,0x17
     754:	0500                	addi	s0,sp,640
     756:	0269                	addi	tp,tp,26
     758:	00fa                	slli	ra,ra,0x1e
     75a:	0000                	unimp
     75c:	17ac                	addi	a1,sp,1000
     75e:	00000303          	lb	t1,0(zero) # 4969a <__C_STACK_TOP__+0x3969a>
     762:	6a05                	lui	s4,0x1
     764:	fa02                	fsw	ft0,52(sp)
     766:	0000                	unimp
     768:	b400                	fsd	fs0,40(s0)
     76a:	00005b17          	auipc	s6,0x5
     76e:	0500                	addi	s0,sp,640
     770:	00fa026b          	0xfa026b
     774:	0000                	unimp
     776:	17bc                	addi	a5,sp,1000
     778:	0128                	addi	a0,sp,136
     77a:	0000                	unimp
     77c:	6c05                	lui	s8,0x1
     77e:	fa02                	fsw	ft0,52(sp)
     780:	0000                	unimp
     782:	c400                	sw	s0,8(s0)
     784:	00058717          	auipc	a4,0x58
     788:	0500                	addi	s0,sp,640
     78a:	026d                	addi	tp,tp,27
     78c:	00000033          	add	zero,zero,zero
     790:	00cc                	addi	a1,sp,68
     792:	6008                	flw	fa0,0(s0)
     794:	0005                	c.addi	zero,1
     796:	a200                	fsd	fs0,0(a2)
     798:	09000007          	0x9000007
     79c:	0025                	c.addi	zero,9
     79e:	0000                	unimp
     7a0:	0019                	c.addi	zero,6
     7a2:	6008                	flw	fa0,0(s0)
     7a4:	0005                	c.addi	zero,1
     7a6:	b200                	fsd	fs0,32(a2)
     7a8:	09000007          	0x9000007
     7ac:	0025                	c.addi	zero,9
     7ae:	0000                	unimp
     7b0:	60080007          	0x60080007
     7b4:	0005                	c.addi	zero,1
     7b6:	c200                	sw	s0,0(a2)
     7b8:	09000007          	0x9000007
     7bc:	0025                	c.addi	zero,9
     7be:	0000                	unimp
     7c0:	f01a0017          	auipc	zero,0xf01a0
     7c4:	7205                	lui	tp,0xfffe1
     7c6:	e602                	fsw	ft0,12(sp)
     7c8:	17000007          	0x17000007
     7cc:	00000433          	add	s0,zero,zero
     7d0:	7505                	lui	a0,0xfffe1
     7d2:	e602                	fsw	ft0,12(sp)
     7d4:	00000007          	0x7
     7d8:	00035917          	auipc	s2,0x35
     7dc:	0500                	addi	s0,sp,640
     7de:	0276                	slli	tp,tp,0x1d
     7e0:	07f6                	slli	a5,a5,0x1d
     7e2:	0000                	unimp
     7e4:	0078                	addi	a4,sp,12
     7e6:	cf08                	sw	a0,24(a4)
     7e8:	0002                	0x2
     7ea:	f600                	fsw	fs0,40(a2)
     7ec:	09000007          	0x9000007
     7f0:	0025                	c.addi	zero,9
     7f2:	0000                	unimp
     7f4:	001d                	c.addi	zero,7
     7f6:	2508                	fld	fa0,8(a0)
     7f8:	0000                	unimp
     7fa:	0600                	addi	s0,sp,768
     7fc:	0008                	addi	a0,sp,0
     7fe:	0900                	addi	s0,sp,144
     800:	0025                	c.addi	zero,9
     802:	0000                	unimp
     804:	001d                	c.addi	zero,7
     806:	5705f01b          	0x5705f01b
     80a:	2802                	fld	fa6,0(sp)
     80c:	0008                	addi	a0,sp,0
     80e:	1c00                	addi	s0,sp,560
     810:	05fe                	slli	a1,a1,0x1f
     812:	0000                	unimp
     814:	6e05                	lui	t3,0x1
     816:	9102                	jalr	sp
     818:	0006                	0x6
     81a:	1c00                	addi	s0,sp,560
     81c:	0730                	addi	a2,sp,904
     81e:	0000                	unimp
     820:	7705                	lui	a4,0xfffe1
     822:	c202                	sw	zero,4(sp)
     824:	00000007          	0x7
     828:	6008                	flw	fa0,0(s0)
     82a:	0005                	c.addi	zero,1
     82c:	3800                	fld	fs0,48(s0)
     82e:	0008                	addi	a0,sp,0
     830:	0900                	addi	s0,sp,144
     832:	0025                	c.addi	zero,9
     834:	0000                	unimp
     836:	0018                	addi	a4,sp,0
     838:	711d                	addi	sp,sp,-96
     83a:	0001                	nop
     83c:	0f00                	addi	s0,sp,912
     83e:	3804                	fld	fs1,48(s0)
     840:	0008                	addi	a0,sp,0
     842:	1e00                	addi	s0,sp,816
     844:	084e                	slli	a6,a6,0x13
     846:	0000                	unimp
     848:	1d14                	addi	a3,sp,688
     84a:	0004                	addi	s1,sp,0
     84c:	0000                	unimp
     84e:	0843040f          	0x843040f
     852:	0000                	unimp
     854:	0170040f          	0x170040f
     858:	0000                	unimp
     85a:	651e                	flw	fa0,196(sp)
     85c:	0008                	addi	a0,sp,0
     85e:	1400                	addi	s0,sp,544
     860:	00000033          	add	zero,zero,zero
     864:	0f00                	addi	s0,sp,912
     866:	6b04                	flw	fs1,16(a4)
     868:	0008                	addi	a0,sp,0
     86a:	0f00                	addi	s0,sp,912
     86c:	5a04                	lw	s1,48(a2)
     86e:	0008                	addi	a0,sp,0
     870:	0800                	addi	s0,sp,16
     872:	05ff                	0x5ff
     874:	0000                	unimp
     876:	0881                	addi	a7,a7,0
     878:	0000                	unimp
     87a:	2509                	jal	e7c <main+0x3b8>
     87c:	0000                	unimp
     87e:	0200                	addi	s0,sp,256
     880:	1f00                	addi	s0,sp,944
     882:	000006cb          	fnmsub.s	fa3,ft0,ft0,ft0,rne
     886:	fe05                	bnez	a2,7be <vprintfmt.constprop.2+0x3a4>
     888:	1d02                	slli	s10,s10,0x20
     88a:	0004                	addi	s1,sp,0
     88c:	1f00                	addi	s0,sp,944
     88e:	06c4                	addi	s1,sp,836
     890:	0000                	unimp
     892:	ff05                	bnez	a4,7ca <vprintfmt.constprop.2+0x3b0>
     894:	2302                	fld	ft6,0(sp)
     896:	0004                	addi	s1,sp,0
     898:	0800                	addi	s0,sp,16
     89a:	0596                	slli	a1,a1,0x5
     89c:	0000                	unimp
     89e:	08a4                	addi	s1,sp,88
     8a0:	0000                	unimp
     8a2:	0020                	addi	s0,sp,8
     8a4:	9915                	andi	a0,a0,-27
     8a6:	0008                	addi	a0,sp,0
     8a8:	2100                	fld	fs0,0(a0)
     8aa:	02ee                	slli	t0,t0,0x1b
     8ac:	0000                	unimp
     8ae:	1406                	slli	s0,s0,0x21
     8b0:	08a4                	addi	s1,sp,88
     8b2:	0000                	unimp
     8b4:	c321                	beqz	a4,8f4 <vprintfmt.constprop.2+0x4da>
     8b6:	0005                	c.addi	zero,1
     8b8:	0600                	addi	s0,sp,768
     8ba:	3315                	jal	5de <vprintfmt.constprop.2+0x1c4>
     8bc:	0000                	unimp
     8be:	0f00                	addi	s0,sp,912
     8c0:	c504                	sw	s1,8(a0)
     8c2:	0008                	addi	a0,sp,0
     8c4:	1300                	addi	s0,sp,416
     8c6:	00000033          	add	zero,zero,zero
     8ca:	08d9                	addi	a7,a7,22
     8cc:	0000                	unimp
     8ce:	d914                	sw	a3,48(a0)
     8d0:	0008                	addi	a0,sp,0
     8d2:	1400                	addi	s0,sp,544
     8d4:	08d9                	addi	a7,a7,22
     8d6:	0000                	unimp
     8d8:	0f00                	addi	s0,sp,912
     8da:	df04                	sw	s1,56(a4)
     8dc:	0008                	addi	a0,sp,0
     8de:	2200                	fld	fs0,0(a2)
     8e0:	fc21                	bnez	s0,838 <vprintfmt.constprop.2+0x41e>
     8e2:	0004                	addi	s1,sp,0
     8e4:	0700                	addi	s0,sp,896
     8e6:	00055a63          	bgez	a0,8fa <vprintfmt.constprop.2+0x4e0>
     8ea:	2100                	fld	fs0,0(a0)
     8ec:	043a                	slli	s0,s0,0xe
     8ee:	0000                	unimp
     8f0:	1008                	addi	a0,sp,32
     8f2:	08f6                	slli	a7,a7,0x1d
     8f4:	0000                	unimp
     8f6:	055a040f          	0x55a040f
     8fa:	0000                	unimp
     8fc:	ff21                	bnez	a4,854 <vprintfmt.constprop.2+0x43a>
     8fe:	0004                	addi	s1,sp,0
     900:	0800                	addi	s0,sp,16
     902:	5ae2                	lw	s5,56(sp)
     904:	0005                	c.addi	zero,1
     906:	2100                	fld	fs0,0(a0)
     908:	014c                	addi	a1,sp,132
     90a:	0000                	unimp
     90c:	e308                	fsw	fa0,0(a4)
     90e:	00000033          	add	zero,zero,zero
     912:	6121                	addi	sp,sp,64
     914:	0006                	0x6
     916:	0800                	addi	s0,sp,16
     918:	000033e3          	0x33e3
     91c:	2100                	fld	fs0,0(a0)
     91e:	0774                	addi	a3,sp,908
     920:	0000                	unimp
     922:	e308                	fsw	fa0,0(a4)
     924:	00000033          	add	zero,zero,zero
     928:	6e21                	lui	t3,0x8
     92a:	0004                	addi	s1,sp,0
     92c:	0800                	addi	s0,sp,16
     92e:	33e5                	jal	716 <vprintfmt.constprop.2+0x2fc>
     930:	0000                	unimp
     932:	2100                	fld	fs0,0(a0)
     934:	052c                	addi	a1,sp,648
     936:	0000                	unimp
     938:	9a09                	andi	a2,a2,-30
     93a:	0064                	addi	s1,sp,12
     93c:	0000                	unimp
     93e:	2f21                	jal	1056 <main+0x592>
     940:	0000                	unimp
     942:	0900                	addi	s0,sp,144
     944:	0000339b          	0x339b
     948:	0800                	addi	s0,sp,16
     94a:	055a                	slli	a0,a0,0x16
     94c:	0000                	unimp
     94e:	0959                	addi	s2,s2,22
     950:	0000                	unimp
     952:	2509                	jal	f54 <main+0x490>
     954:	0000                	unimp
     956:	0100                	addi	s0,sp,128
     958:	2100                	fld	fs0,0(a0)
     95a:	0000018b          	0x18b
     95e:	9e09                	0x9e09
     960:	0949                	addi	s2,s2,18
     962:	0000                	unimp
     964:	ad04                	fsd	fs1,24(a0)
     966:	0a000003          	lb	zero,160(zero) # f01a0860 <__C_STACK_TOP__+0xf0190860>
     96a:	252a                	fld	fa0,136(sp)
     96c:	0000                	unimp
     96e:	0400                	addi	s0,sp,512
     970:	05b1                	addi	a1,a1,12
     972:	0000                	unimp
     974:	2f0a                	fld	ft10,128(sp)
     976:	097a                	slli	s2,s2,0x1e
     978:	0000                	unimp
     97a:	0980040f          	0x980040f
     97e:	0000                	unimp
     980:	00096413          	ori	s0,s2,0
     984:	8f00                	0x8f00
     986:	0009                	c.addi	zero,2
     988:	1400                	addi	s0,sp,544
     98a:	08d9                	addi	a7,a7,22
     98c:	0000                	unimp
     98e:	0400                	addi	s0,sp,512
     990:	07c6                	slli	a5,a5,0x11
     992:	0000                	unimp
     994:	360a                	fld	fa2,160(sp)
     996:	000008bf 00000a21 	0xa21000008bf
     99e:	0a00                	addi	s0,sp,272
     9a0:	00096fbb          	0x96fbb
     9a4:	2100                	fld	fs0,0(a0)
     9a6:	000006af          	0x6af
     9aa:	be0a                	fsd	ft2,312(sp)
     9ac:	0000098f          	0x98f
     9b0:	00038023          	sb	zero,0(t2)
     9b4:	0700                	addi	s0,sp,896
     9b6:	2504                	fld	fs1,8(a0)
     9b8:	0000                	unimp
     9ba:	0b00                	addi	s0,sp,400
     9bc:	e618                	fsw	fa4,8(a2)
     9be:	0009                	c.addi	zero,2
     9c0:	2400                	fld	fs0,8(s0)
     9c2:	0562                	slli	a0,a0,0x18
     9c4:	0000                	unimp
     9c6:	2400                	fld	fs0,8(s0)
     9c8:	04d2                	slli	s1,s1,0x14
     9ca:	0000                	unimp
     9cc:	2401                	jal	bcc <main+0x108>
     9ce:	049d                	addi	s1,s1,7
     9d0:	0000                	unimp
     9d2:	2402                	fld	fs0,0(sp)
     9d4:	0559                	addi	a0,a0,22
     9d6:	0000                	unimp
     9d8:	077b2403          	lw	s0,119(s6) # 57e1 <__global_pointer$+0x1c21>
     9dc:	0000                	unimp
     9de:	2404                	fld	fs1,8(s0)
     9e0:	076a                	slli	a4,a4,0x1a
     9e2:	0000                	unimp
     9e4:	0005                	c.addi	zero,1
     9e6:	6721                	lui	a4,0x8
     9e8:	0001                	nop
     9ea:	0b00                	addi	s0,sp,400
     9ec:	b020                	fsd	fs0,96(s0)
     9ee:	0009                	c.addi	zero,2
     9f0:	2300                	fld	fs0,0(a4)
     9f2:	04a8                	addi	a0,sp,584
     9f4:	0000                	unimp
     9f6:	00250407          	0x250407
     9fa:	0000                	unimp
     9fc:	0a15220b          	0xa15220b
     a00:	0000                	unimp
     a02:	a724                	fsd	fs1,72(a4)
     a04:	0005                	c.addi	zero,1
     a06:	0000                	unimp
     a08:	7824                	flw	fs1,112(s0)
     a0a:	0005                	c.addi	zero,1
     a0c:	0100                	addi	s0,sp,128
     a0e:	8424                	0x8424
     a10:	0006                	0x6
     a12:	0200                	addi	s0,sp,256
     a14:	2100                	fld	fs0,0(a0)
     a16:	0322                	slli	t1,t1,0x8
     a18:	0000                	unimp
     a1a:	09f1270b          	0x9f1270b
     a1e:	0000                	unimp
     a20:	5f21                	li	t5,-24
     a22:	0004                	addi	s1,sp,0
     a24:	0c00                	addi	s0,sp,528
     a26:	a425                	j	c4e <main+0x18a>
     a28:	0008                	addi	a0,sp,0
     a2a:	2100                	fld	fs0,0(a0)
     a2c:	0000064b          	fnmsub.s	fa2,ft0,ft0,ft0,rne
     a30:	310c                	fld	fa1,32(a0)
     a32:	08a4                	addi	s1,sp,88
     a34:	0000                	unimp
     a36:	a204                	fsd	fs1,0(a2)
     a38:	0d000007          	0xd000007
     a3c:	00004f7b          	0x4f7b
     a40:	1500                	addi	s0,sp,672
     a42:	0a36                	slli	s4,s4,0xd
     a44:	0000                	unimp
     a46:	d904                	sw	s1,48(a0)
     a48:	0002                	0x2
     a4a:	0d00                	addi	s0,sp,656
     a4c:	3380                	fld	fs0,32(a5)
     a4e:	0000                	unimp
     a50:	0400                	addi	s0,sp,512
     a52:	02d8                	addi	a4,sp,324
     a54:	0000                	unimp
     a56:	810d                	srli	a0,a0,0x3
     a58:	0025                	c.addi	zero,9
     a5a:	0000                	unimp
     a5c:	d804                	sw	s1,48(s0)
     a5e:	0006                	0x6
     a60:	0d00                	addi	s0,sp,656
     a62:	3a84                	fld	fs1,48(a3)
     a64:	0000                	unimp
     a66:	0400                	addi	s0,sp,512
     a68:	000006d7          	0x6d7
     a6c:	850d                	srai	a0,a0,0x3
     a6e:	002c                	addi	a1,sp,8
     a70:	0000                	unimp
     a72:	0402                	slli	s0,s0,0x0
     a74:	e504                	fsw	fs1,8(a0)
     a76:	0004                	addi	s1,sp,0
     a78:	0200                	addi	s0,sp,256
     a7a:	0308                	addi	a0,sp,384
     a7c:	04dd                	addi	s1,s1,23
     a7e:	0000                	unimp
     a80:	0802                	slli	a6,a6,0x0
     a82:	6004                	flw	fs1,0(s0)
     a84:	0001                	nop
     a86:	0200                	addi	s0,sp,256
     a88:	0310                	addi	a2,sp,384
     a8a:	0039                	c.addi	zero,14
     a8c:	0000                	unimp
     a8e:	2002                	fld	ft0,0(sp)
     a90:	00015303          	lhu	t1,0(sp) # 5a632 <__C_STACK_TOP__+0x4a632>
     a94:	1900                	addi	s0,sp,176
     a96:	03dd                	addi	t2,t2,23
     a98:	0000                	unimp
     a9a:	0d08                	addi	a0,sp,656
     a9c:	01ed                	addi	gp,gp,27
     a9e:	0abd                	addi	s5,s5,15
     aa0:	0000                	unimp
     aa2:	6c25                	lui	s8,0x9
     aa4:	0d00776f          	jal	a4,7b74 <__BSS_END__+0x1ef4>
     aa8:	01ed                	addi	gp,gp,27
     aaa:	0a46                	slli	s4,s4,0x11
     aac:	0000                	unimp
     aae:	1700                	addi	s0,sp,928
     ab0:	0668                	addi	a0,sp,780
     ab2:	0000                	unimp
     ab4:	ed0d                	bnez	a0,aee <main+0x2a>
     ab6:	4601                	li	a2,0
     ab8:	000a                	0xa
     aba:	0400                	addi	s0,sp,512
     abc:	1b00                	addi	s0,sp,432
     abe:	0d08                	addi	a0,sp,656
     ac0:	01f4                	addi	a3,sp,204
     ac2:	0adc                	addi	a5,sp,340
     ac4:	0000                	unimp
     ac6:	7326                	flw	ft6,104(sp)
     ac8:	0d00                	addi	s0,sp,656
     aca:	01f6                	slli	gp,gp,0x1d
     acc:	0a95                	addi	s5,s5,5
     ace:	0000                	unimp
     ad0:	6c26                	flw	fs8,72(sp)
     ad2:	006c                	addi	a1,sp,12
     ad4:	f70d                	bnez	a4,9fe <putchar+0x44>
     ad6:	5c01                	li	s8,-32
     ad8:	000a                	0xa
     ada:	0000                	unimp
     adc:	b705                	j	9fc <putchar+0x42>
     ade:	0d000003          	lb	zero,208(zero) # d0 <buflen.1776+0x90>
     ae2:	01f8                	addi	a4,sp,204
     ae4:	0abd                	addi	s5,s5,15
     ae6:	0000                	unimp
     ae8:	dc15                	beqz	s0,a24 <putchar+0x6a>
     aea:	000a                	0xa
     aec:	0800                	addi	s0,sp,16
     aee:	0a41                	addi	s4,s4,16
     af0:	0000                	unimp
     af2:	0afd                	addi	s5,s5,31
     af4:	0000                	unimp
     af6:	2509                	jal	10f8 <main+0x634>
     af8:	0000                	unimp
     afa:	ff00                	fsw	fs0,56(a4)
     afc:	1500                	addi	s0,sp,672
     afe:	0aed                	addi	s5,s5,27
     b00:	0000                	unimp
     b02:	1b1f 0007 0d00      	0xd0000071b1f
     b08:	01fc                	addi	a5,sp,204
     b0a:	0afd                	addi	s5,s5,31
     b0c:	0000                	unimp
     b0e:	f91f 0003 0d00      	0xd000003f91f
     b14:	0202                	slli	tp,tp,0x0
     b16:	0afd                	addi	s5,s5,31
     b18:	0000                	unimp
     b1a:	0004c927          	fsq	ft0,18(s1)
     b1e:	0100                	addi	s0,sp,128
     b20:	04e6                	slli	s1,s1,0x19
     b22:	0a5c                	addi	a5,sp,276
     b24:	0000                	unimp
     b26:	1808                	addi	a0,sp,48
     b28:	0000                	unimp
     b2a:	0458                	addi	a4,sp,516
     b2c:	0000                	unimp
     b2e:	9c01                	0x9c01
     b30:	0e75                	addi	t3,t3,29
     b32:	0000                	unimp
     b34:	7528                	flw	fa0,104(a0)
     b36:	0100                	addi	s0,sp,128
     b38:	04e6                	slli	s1,s1,0x19
     b3a:	0a5c                	addi	a5,sp,276
     b3c:	0000                	unimp
     b3e:	0000                	unimp
     b40:	0000                	unimp
     b42:	7628                	flw	fa0,104(a2)
     b44:	0100                	addi	s0,sp,128
     b46:	04e6                	slli	s1,s1,0x19
     b48:	0a5c                	addi	a5,sp,276
     b4a:	0000                	unimp
     b4c:	0028                	addi	a0,sp,8
     b4e:	0000                	unimp
     b50:	6329                	lui	t1,0xa
     b52:	0100                	addi	s0,sp,128
     b54:	04e8                	addi	a0,sp,588
     b56:	0a46                	slli	s4,s4,0x11
     b58:	0000                	unimp
     b5a:	0050                	addi	a2,sp,4
     b5c:	0000                	unimp
     b5e:	7529                	lui	a0,0xfffea
     b60:	0075                	c.addi	zero,29
     b62:	e901                	bnez	a0,b72 <main+0xae>
     b64:	dc04                	sw	s1,56(s0)
     b66:	000a                	0xa
     b68:	7c00                	flw	fs0,56(s0)
     b6a:	0000                	unimp
     b6c:	2900                	fld	fs0,16(a0)
     b6e:	7676                	flw	fa2,124(sp)
     b70:	0100                	addi	s0,sp,128
     b72:	04ea                	slli	s1,s1,0x1a
     b74:	0adc                	addi	a5,sp,340
     b76:	0000                	unimp
     b78:	00a4                	addi	s1,sp,72
     b7a:	0000                	unimp
     b7c:	7729                	lui	a4,0xfffea
     b7e:	0100                	addi	s0,sp,128
     b80:	0a5c04eb          	0xa5c04eb
     b84:	0000                	unimp
     b86:	014c                	addi	a1,sp,132
     b88:	0000                	unimp
     b8a:	752a                	flw	fa0,168(sp)
     b8c:	000e                	0xe
     b8e:	3800                	fld	fs0,48(s0)
     b90:	0018                	addi	a4,sp,0
     b92:	0000                	unimp
     b94:	0000                	unimp
     b96:	0100                	addi	s0,sp,128
     b98:	9a2b04f3          	0x9a2b04f3
     b9c:	000e                	0xe
     b9e:	8400                	0x8400
     ba0:	0001                	nop
     ba2:	2b00                	fld	fs0,16(a4)
     ba4:	0e90                	addi	a2,sp,848
     ba6:	0000                	unimp
     ba8:	01ac                	addi	a1,sp,200
     baa:	0000                	unimp
     bac:	862c                	0x862c
     bae:	000e                	0xe
     bb0:	2d00                	fld	fs0,24(a0)
     bb2:	0000                	unimp
     bb4:	0000                	unimp
     bb6:	a52e                	fsd	fa1,136(sp)
     bb8:	000e                	0xe
     bba:	2e00                	fld	fs0,24(a2)
     bbc:	0eb0                	addi	a2,sp,856
     bbe:	0000                	unimp
     bc0:	bb2e                	fsd	fa1,432(sp)
     bc2:	000e                	0xe
     bc4:	2f00                	fld	fs0,24(a4)
     bc6:	0ec6                	slli	t4,t4,0x11
     bc8:	0000                	unimp
     bca:	0244                	addi	s1,sp,260
     bcc:	0000                	unimp
     bce:	000ed12f          	0xed12f
     bd2:	8300                	0x8300
     bd4:	0002                	0x2
     bd6:	2f00                	fld	fs0,24(a4)
     bd8:	0edc                	addi	a5,sp,852
     bda:	0000                	unimp
     bdc:	02f9                	addi	t0,t0,30
     bde:	0000                	unimp
     be0:	000ee72f          	0xee72f
     be4:	6f00                	flw	fs0,24(a4)
     be6:	2f000003          	lb	zero,752(zero) # 2f0 <trap_entry+0x8c>
     bea:	0ef2                	slli	t4,t4,0x1c
     bec:	0000                	unimp
     bee:	000003cf          	fnmadd.s	ft7,ft0,ft0,ft0,rne
     bf2:	000efd2f          	0xefd2f
     bf6:	ed00                	fsw	fs0,24(a0)
     bf8:	2f000003          	lb	zero,752(zero) # 2f0 <trap_entry+0x8c>
     bfc:	0f08                	addi	a0,sp,912
     bfe:	0000                	unimp
     c00:	0401                	addi	s0,s0,0
     c02:	0000                	unimp
     c04:	000f132f          	0xf132f
     c08:	2100                	fld	fs0,0(a0)
     c0a:	0004                	addi	s1,sp,0
     c0c:	2f00                	fld	fs0,24(a4)
     c0e:	0f1d                	addi	t5,t5,7
     c10:	0000                	unimp
     c12:	0000043f 000f282e 	0xf282e0000043f
     c1a:	3000                	fld	fs0,32(s0)
     c1c:	00000f33          	add	t5,zero,zero
     c20:	0018                	addi	a4,sp,0
     c22:	0000                	unimp
     c24:	00000c3b          	0xc3b
     c28:	000f382f          	0xf382f
     c2c:	7e00                	flw	fs0,56(a2)
     c2e:	0004                	addi	s1,sp,0
     c30:	2f00                	fld	fs0,24(a4)
     c32:	0f44                	addi	s1,sp,916
     c34:	0000                	unimp
     c36:	049c                	addi	a5,sp,576
     c38:	0000                	unimp
     c3a:	3100                	fld	fs0,32(a0)
     c3c:	0f51                	addi	t5,t5,20
     c3e:	0000                	unimp
     c40:	189c                	addi	a5,sp,112
     c42:	0000                	unimp
     c44:	0070                	addi	a2,sp,12
     c46:	0000                	unimp
     c48:	0c88                	addi	a0,sp,592
     c4a:	0000                	unimp
     c4c:	000f562f          	0xf562f
     c50:	af00                	fsd	fs0,24(a4)
     c52:	0004                	addi	s1,sp,0
     c54:	2f00                	fld	fs0,24(a4)
     c56:	0f62                	slli	t5,t5,0x18
     c58:	0000                	unimp
     c5a:	04c2                	slli	s1,s1,0x10
     c5c:	0000                	unimp
     c5e:	6e2e                	flw	ft8,200(sp)
     c60:	2f00000f          	0x2f00000f
     c64:	0f7a                	slli	t5,t5,0x1e
     c66:	0000                	unimp
     c68:	04e6                	slli	s1,s1,0x19
     c6a:	0000                	unimp
     c6c:	000f862f          	0xf862f
     c70:	f900                	fsw	fs0,48(a0)
     c72:	0004                	addi	s1,sp,0
     c74:	2f00                	fld	fs0,24(a4)
     c76:	0f92                	slli	t6,t6,0x4
     c78:	0000                	unimp
     c7a:	00000517          	auipc	a0,0x0
     c7e:	000f9e2f          	0xf9e2f
     c82:	3500                	fld	fs0,40(a0)
     c84:	0005                	c.addi	zero,1
     c86:	0000                	unimp
     c88:	ab30                	fsd	fa2,80(a4)
     c8a:	3000000f          	0x3000000f
     c8e:	0000                	unimp
     c90:	a800                	fsd	fs0,16(s0)
     c92:	000c                	addi	a1,sp,0
     c94:	2f00                	fld	fs0,24(a4)
     c96:	0fb0                	addi	a2,sp,984
     c98:	0000                	unimp
     c9a:	00000553          	fadd.s	fa0,ft0,ft0,rne
     c9e:	000fbc2f          	0xfbc2f
     ca2:	7100                	flw	fs0,32(a0)
     ca4:	0005                	c.addi	zero,1
     ca6:	0000                	unimp
     ca8:	2331                	jal	11b4 <main+0x6f0>
     caa:	0010                	addi	a2,sp,0
     cac:	8400                	0x8400
     cae:	0019                	c.addi	zero,6
     cb0:	7400                	flw	fs0,40(s0)
     cb2:	0000                	unimp
     cb4:	f900                	fsw	fs0,48(a0)
     cb6:	000c                	addi	a1,sp,0
     cb8:	2f00                	fld	fs0,24(a4)
     cba:	1028                	addi	a0,sp,40
     cbc:	0000                	unimp
     cbe:	0584                	addi	s1,sp,704
     cc0:	0000                	unimp
     cc2:	0010342f          	0x10342f
     cc6:	9700                	0x9700
     cc8:	0005                	c.addi	zero,1
     cca:	2f00                	fld	fs0,24(a4)
     ccc:	1040                	addi	s0,sp,36
     cce:	0000                	unimp
     cd0:	000005bb          	0x5bb
     cd4:	00104c2f          	0x104c2f
     cd8:	ce00                	sw	s0,24(a2)
     cda:	0005                	c.addi	zero,1
     cdc:	2f00                	fld	fs0,24(a4)
     cde:	1058                	addi	a4,sp,36
     ce0:	0000                	unimp
     ce2:	05e1                	addi	a1,a1,24
     ce4:	0000                	unimp
     ce6:	0010642f          	0x10642f
     cea:	0a00                	addi	s0,sp,272
     cec:	0006                	0x6
     cee:	2f00                	fld	fs0,24(a4)
     cf0:	1070                	addi	a2,sp,44
     cf2:	0000                	unimp
     cf4:	0628                	addi	a0,sp,776
     cf6:	0000                	unimp
     cf8:	3000                	fld	fs0,32(s0)
     cfa:	0fc9                	addi	t6,t6,18
     cfc:	0000                	unimp
     cfe:	0048                	addi	a0,sp,4
     d00:	0000                	unimp
     d02:	0d46                	slli	s10,s10,0x11
     d04:	0000                	unimp
     d06:	000fce2f          	0xfce2f
     d0a:	4600                	lw	s0,8(a2)
     d0c:	0006                	0x6
     d0e:	2f00                	fld	fs0,24(a4)
     d10:	0fda                	slli	t6,t6,0x16
     d12:	0000                	unimp
     d14:	0659                	addi	a2,a2,22
     d16:	0000                	unimp
     d18:	000fe62f          	0xfe62f
     d1c:	7d00                	flw	fs0,56(a0)
     d1e:	0006                	0x6
     d20:	2f00                	fld	fs0,24(a4)
     d22:	0ff2                	slli	t6,t6,0x1c
     d24:	0000                	unimp
     d26:	06d6                	slli	a3,a3,0x15
     d28:	0000                	unimp
     d2a:	000ffe2f          	0xffe2f
     d2e:	e900                	fsw	fs0,16(a0)
     d30:	0006                	0x6
     d32:	2f00                	fld	fs0,24(a4)
     d34:	100a                	0x100a
     d36:	0000                	unimp
     d38:	0722                	slli	a4,a4,0x8
     d3a:	0000                	unimp
     d3c:	0010162f          	0x10162f
     d40:	4000                	lw	s0,0(s0)
     d42:	00000007          	0x7
     d46:	7d30                	flw	fa2,120(a0)
     d48:	0010                	addi	a2,sp,0
     d4a:	6000                	flw	fs0,0(s0)
     d4c:	0000                	unimp
     d4e:	6600                	flw	fs0,8(a2)
     d50:	000d                	c.addi	zero,3
     d52:	2f00                	fld	fs0,24(a4)
     d54:	1082                	slli	ra,ra,0x20
     d56:	0000                	unimp
     d58:	075e                	slli	a4,a4,0x17
     d5a:	0000                	unimp
     d5c:	00108e2f          	0x108e2f
     d60:	9200                	0x9200
     d62:	00000007          	0x7
     d66:	9b31                	andi	a4,a4,-20
     d68:	0010                	addi	a2,sp,0
     d6a:	dc00                	sw	s0,56(s0)
     d6c:	001a                	0x1a
     d6e:	1000                	addi	s0,sp,32
     d70:	0000                	unimp
     d72:	8100                	0x8100
     d74:	000d                	c.addi	zero,3
     d76:	2f00                	fld	fs0,24(a4)
     d78:	10a0                	addi	s0,sp,104
     d7a:	0000                	unimp
     d7c:	07b0                	addi	a2,sp,968
     d7e:	0000                	unimp
     d80:	3200                	fld	fs0,32(a2)
     d82:	10ad                	addi	ra,ra,-21
     d84:	0000                	unimp
     d86:	1b0c                	addi	a1,sp,432
     d88:	0000                	unimp
     d8a:	0154                	addi	a3,sp,132
     d8c:	0000                	unimp
     d8e:	0010ae2f          	amoadd.w	t3,ra,(ra)
     d92:	c300                	sw	s0,0(a4)
     d94:	2f000007          	0x2f000007
     d98:	10b9                	addi	ra,ra,-18
     d9a:	0000                	unimp
     d9c:	07e1                	addi	a5,a5,24
     d9e:	0000                	unimp
     da0:	c430                	sw	a2,72(s0)
     da2:	0010                	addi	a2,sp,0
     da4:	7800                	flw	fs0,48(s0)
     da6:	0000                	unimp
     da8:	ed00                	fsw	fs0,24(a0)
     daa:	000d                	c.addi	zero,3
     dac:	2f00                	fld	fs0,24(a4)
     dae:	10c9                	addi	ra,ra,-14
     db0:	0000                	unimp
     db2:	080a                	slli	a6,a6,0x2
     db4:	0000                	unimp
     db6:	0010d52f          	0x10d52f
     dba:	2c00                	fld	fs0,24(s0)
     dbc:	0008                	addi	a0,sp,0
     dbe:	2f00                	fld	fs0,24(a4)
     dc0:	10e1                	addi	ra,ra,-8
     dc2:	0000                	unimp
     dc4:	0850                	addi	a2,sp,20
     dc6:	0000                	unimp
     dc8:	0010ed2f          	0x10ed2f
     dcc:	6e00                	flw	fs0,24(a2)
     dce:	0008                	addi	a0,sp,0
     dd0:	2f00                	fld	fs0,24(a4)
     dd2:	10f9                	addi	ra,ra,-2
     dd4:	0000                	unimp
     dd6:	088c                	addi	a1,sp,80
     dd8:	0000                	unimp
     dda:	0011052f          	0x11052f
     dde:	b500                	fsd	fs0,40(a0)
     de0:	0008                	addi	a0,sp,0
     de2:	2f00                	fld	fs0,24(a4)
     de4:	1111                	addi	sp,sp,-28
     de6:	0000                	unimp
     de8:	08de                	slli	a7,a7,0x17
     dea:	0000                	unimp
     dec:	3000                	fld	fs0,32(s0)
     dee:	111e                	slli	sp,sp,0x27
     df0:	0000                	unimp
     df2:	00a0                	addi	s0,sp,72
     df4:	0000                	unimp
     df6:	00000e3f 0011232f 	0x11232f00000e3f
     dfe:	0c00                	addi	s0,sp,528
     e00:	0009                	c.addi	zero,2
     e02:	2f00                	fld	fs0,24(a4)
     e04:	0000112f          	0x112f
     e08:	091f 0000 3b2f      	0x3b2f0000091f
     e0e:	0011                	c.addi	zero,4
     e10:	3200                	fld	fs0,32(a2)
     e12:	0009                	c.addi	zero,2
     e14:	3300                	fld	fs0,32(a4)
     e16:	00001147          	fmsub.s	ft2,ft0,ft0,ft0,rtz
     e1a:	5601                	li	a2,-32
     e1c:	0011532f          	0x11532f
     e20:	4500                	lw	s0,8(a0)
     e22:	0009                	c.addi	zero,2
     e24:	2f00                	fld	fs0,24(a4)
     e26:	115f 0000 0958      	0x9580000115f
     e2c:	0000                	unimp
     e2e:	00116b2f          	0x116b2f
     e32:	8b00                	0x8b00
     e34:	0009                	c.addi	zero,2
     e36:	3300                	fld	fs0,32(a4)
     e38:	00001177          	0x1177
     e3c:	6001                	0x6001
     e3e:	3100                	fld	fs0,32(a0)
     e40:	1184                	addi	s1,sp,224
     e42:	0000                	unimp
     e44:	1c28                	addi	a0,sp,568
     e46:	0000                	unimp
     e48:	0014                	addi	a3,sp,0
     e4a:	0000                	unimp
     e4c:	0e5a                	slli	t3,t3,0x16
     e4e:	0000                	unimp
     e50:	0011892f          	0x11892f
     e54:	9e00                	0x9e00
     e56:	0009                	c.addi	zero,2
     e58:	0000                	unimp
     e5a:	9632                	add	a2,a2,a2
     e5c:	0011                	c.addi	zero,4
     e5e:	3c00                	fld	fs0,56(s0)
     e60:	001c                	addi	a5,sp,0
     e62:	1000                	addi	s0,sp,32
     e64:	0000                	unimp
     e66:	2f00                	fld	fs0,24(a4)
     e68:	00001197          	auipc	gp,0x1
     e6c:	09b1                	addi	s3,s3,12
     e6e:	0000                	unimp
     e70:	0000                	unimp
     e72:	0000                	unimp
     e74:	3400                	fld	fs0,40(s0)
     e76:	063e                	slli	a2,a2,0xf
     e78:	0000                	unimp
     e7a:	f601                	bnez	a2,d82 <main+0x2be>
     e7c:	000a6703          	0xa6703
     e80:	0300                	addi	s0,sp,384
     e82:	11a6                	slli	gp,gp,0x29
     e84:	0000                	unimp
     e86:	6e35                	lui	t3,0xd
     e88:	0100                	addi	s0,sp,128
     e8a:	03f6                	slli	t2,t2,0x1d
     e8c:	00000a67          	jalr	s4,zero
     e90:	6435                	lui	s0,0xd
     e92:	0100                	addi	s0,sp,128
     e94:	03f6                	slli	t2,t2,0x1d
     e96:	00000a67          	jalr	s4,zero
     e9a:	7235                	lui	tp,0xfffed
     e9c:	0070                	addi	a2,sp,12
     e9e:	f601                	bnez	a2,da6 <main+0x2e2>
     ea0:	0011a603          	lw	a2,1(gp) # 1e69 <__udivdi3+0x205>
     ea4:	3600                	fld	fs0,40(a2)
     ea6:	6e6e                	flw	ft8,216(sp)
     ea8:	0100                	addi	s0,sp,128
     eaa:	03f8                	addi	a4,sp,460
     eac:	0ae8                	addi	a0,sp,348
     eae:	0000                	unimp
     eb0:	6436                	flw	fs0,76(sp)
     eb2:	0064                	addi	s1,sp,12
     eb4:	f901                	bnez	a0,dc4 <main+0x300>
     eb6:	000ae803          	0xae803
     eba:	3600                	fld	fs0,40(a2)
     ebc:	7272                	flw	ft4,60(sp)
     ebe:	0100                	addi	s0,sp,128
     ec0:	03fa                	slli	t2,t2,0x1e
     ec2:	0adc                	addi	a5,sp,340
     ec4:	0000                	unimp
     ec6:	6436                	flw	fs0,76(sp)
     ec8:	0030                	addi	a2,sp,8
     eca:	fb01                	bnez	a4,dda <main+0x316>
     ecc:	000a5103          	lhu	sp,0(s4) # 1000 <main+0x53c>
     ed0:	3600                	fld	fs0,40(a2)
     ed2:	3164                	fld	fs1,224(a0)
     ed4:	0100                	addi	s0,sp,128
     ed6:	0a5103fb          	0xa5103fb
     eda:	0000                	unimp
     edc:	6e36                	flw	ft8,76(sp)
     ede:	0030                	addi	a2,sp,8
     ee0:	fb01                	bnez	a4,df0 <main+0x32c>
     ee2:	000a5103          	lhu	sp,0(s4)
     ee6:	3600                	fld	fs0,40(a2)
     ee8:	316e                	fld	ft2,248(sp)
     eea:	0100                	addi	s0,sp,128
     eec:	0a5103fb          	0xa5103fb
     ef0:	0000                	unimp
     ef2:	6e36                	flw	ft8,76(sp)
     ef4:	0032                	0x32
     ef6:	fb01                	bnez	a4,e06 <main+0x342>
     ef8:	000a5103          	lhu	sp,0(s4)
     efc:	3600                	fld	fs0,40(a2)
     efe:	3071                	jal	78a <vprintfmt.constprop.2+0x370>
     f00:	0100                	addi	s0,sp,128
     f02:	03fc                	addi	a5,sp,460
     f04:	0a51                	addi	s4,s4,20
     f06:	0000                	unimp
     f08:	7136                	flw	ft2,108(sp)
     f0a:	0031                	c.addi	zero,12
     f0c:	fc01                	bnez	s0,e24 <main+0x360>
     f0e:	000a5103          	lhu	sp,0(s4)
     f12:	3600                	fld	fs0,40(a2)
     f14:	0062                	0x62
     f16:	fd01                	bnez	a0,e2e <main+0x36a>
     f18:	000a5103          	lhu	sp,0(s4)
     f1c:	3600                	fld	fs0,40(a2)
     f1e:	6d62                	flw	fs10,24(sp)
     f20:	0100                	addi	s0,sp,128
     f22:	03fd                	addi	t2,t2,31
     f24:	0a51                	addi	s4,s4,20
     f26:	0000                	unimp
     f28:	7736                	flw	fa4,108(sp)
     f2a:	c6010077          	0xc6010077
     f2e:	e804                	fsw	fs1,16(s0)
     f30:	000a                	0xa
     f32:	3700                	fld	fs0,40(a4)
     f34:	0f51                	addi	t5,t5,20
     f36:	0000                	unimp
     f38:	bf38                	fsd	fa4,120(a4)
     f3a:	0006                	0x6
     f3c:	0100                	addi	s0,sp,128
     f3e:	042d                	addi	s0,s0,11
     f40:	0a51                	addi	s4,s4,20
     f42:	0000                	unimp
     f44:	5f36                	lw	t5,108(sp)
     f46:	615f 0100 042d      	0x42d0100615f
     f4c:	0a51                	addi	s4,s4,20
     f4e:	0000                	unimp
     f50:	3700                	fld	fs0,40(a4)
     f52:	00000fab          	0xfab
     f56:	3e38                	fld	fa4,120(a2)
     f58:	0001                	nop
     f5a:	0100                	addi	s0,sp,128
     f5c:	0439                	addi	s0,s0,14
     f5e:	0a51                	addi	s4,s4,20
     f60:	0000                	unimp
     f62:	3938                	fld	fa4,112(a0)
     f64:	0001                	nop
     f66:	0100                	addi	s0,sp,128
     f68:	0439                	addi	s0,s0,14
     f6a:	0a51                	addi	s4,s4,20
     f6c:	0000                	unimp
     f6e:	7238                	flw	fa4,96(a2)
     f70:	0006                	0x6
     f72:	0100                	addi	s0,sp,128
     f74:	0439                	addi	s0,s0,14
     f76:	0a51                	addi	s4,s4,20
     f78:	0000                	unimp
     f7a:	6d38                	flw	fa4,88(a0)
     f7c:	0006                	0x6
     f7e:	0100                	addi	s0,sp,128
     f80:	0439                	addi	s0,s0,14
     f82:	0a51                	addi	s4,s4,20
     f84:	0000                	unimp
     f86:	3d38                	fld	fa4,120(a0)
     f88:	01000007          	0x1000007
     f8c:	0439                	addi	s0,s0,14
     f8e:	0a51                	addi	s4,s4,20
     f90:	0000                	unimp
     f92:	3838                	fld	fa4,112(s0)
     f94:	01000007          	0x1000007
     f98:	0439                	addi	s0,s0,14
     f9a:	0a51                	addi	s4,s4,20
     f9c:	0000                	unimp
     f9e:	5f36                	lw	t5,108(sp)
     fa0:	6d5f 0100 0439      	0x43901006d5f
     fa6:	0a51                	addi	s4,s4,20
     fa8:	0000                	unimp
     faa:	3700                	fld	fs0,40(a4)
     fac:	0fc9                	addi	t6,t6,18
     fae:	0000                	unimp
     fb0:	bf38                	fsd	fa4,120(a4)
     fb2:	0006                	0x6
     fb4:	0100                	addi	s0,sp,128
     fb6:	0445                	addi	s0,s0,17
     fb8:	0a51                	addi	s4,s4,20
     fba:	0000                	unimp
     fbc:	5f36                	lw	t5,108(sp)
     fbe:	615f 0100 0445      	0x4450100615f
     fc4:	0a51                	addi	s4,s4,20
     fc6:	0000                	unimp
     fc8:	3700                	fld	fs0,40(a4)
     fca:	00001023          	sh	zero,0(zero) # 0 <buf.1775>
     fce:	3e38                	fld	fa4,120(a2)
     fd0:	0001                	nop
     fd2:	0100                	addi	s0,sp,128
     fd4:	045e                	slli	s0,s0,0x17
     fd6:	0a51                	addi	s4,s4,20
     fd8:	0000                	unimp
     fda:	3938                	fld	fa4,112(a0)
     fdc:	0001                	nop
     fde:	0100                	addi	s0,sp,128
     fe0:	045e                	slli	s0,s0,0x17
     fe2:	0a51                	addi	s4,s4,20
     fe4:	0000                	unimp
     fe6:	7238                	flw	fa4,96(a2)
     fe8:	0006                	0x6
     fea:	0100                	addi	s0,sp,128
     fec:	045e                	slli	s0,s0,0x17
     fee:	0a51                	addi	s4,s4,20
     ff0:	0000                	unimp
     ff2:	6d38                	flw	fa4,88(a0)
     ff4:	0006                	0x6
     ff6:	0100                	addi	s0,sp,128
     ff8:	045e                	slli	s0,s0,0x17
     ffa:	0a51                	addi	s4,s4,20
     ffc:	0000                	unimp
     ffe:	3d38                	fld	fa4,120(a0)
    1000:	01000007          	0x1000007
    1004:	045e                	slli	s0,s0,0x17
    1006:	0a51                	addi	s4,s4,20
    1008:	0000                	unimp
    100a:	3838                	fld	fa4,112(s0)
    100c:	01000007          	0x1000007
    1010:	045e                	slli	s0,s0,0x17
    1012:	0a51                	addi	s4,s4,20
    1014:	0000                	unimp
    1016:	5f36                	lw	t5,108(sp)
    1018:	6d5f 0100 045e      	0x45e01006d5f
    101e:	0a51                	addi	s4,s4,20
    1020:	0000                	unimp
    1022:	3700                	fld	fs0,40(a4)
    1024:	107d                	c.addi	zero,-1
    1026:	0000                	unimp
    1028:	3e38                	fld	fa4,120(a2)
    102a:	0001                	nop
    102c:	0100                	addi	s0,sp,128
    102e:	0a510463          	beq	sp,t0,10d6 <main+0x612>
    1032:	0000                	unimp
    1034:	3938                	fld	fa4,112(a0)
    1036:	0001                	nop
    1038:	0100                	addi	s0,sp,128
    103a:	0a510463          	beq	sp,t0,10e2 <main+0x61e>
    103e:	0000                	unimp
    1040:	7238                	flw	fa4,96(a2)
    1042:	0006                	0x6
    1044:	0100                	addi	s0,sp,128
    1046:	0a510463          	beq	sp,t0,10ee <main+0x62a>
    104a:	0000                	unimp
    104c:	6d38                	flw	fa4,88(a0)
    104e:	0006                	0x6
    1050:	0100                	addi	s0,sp,128
    1052:	0a510463          	beq	sp,t0,10fa <main+0x636>
    1056:	0000                	unimp
    1058:	3d38                	fld	fa4,120(a0)
    105a:	01000007          	0x1000007
    105e:	0a510463          	beq	sp,t0,1106 <main+0x642>
    1062:	0000                	unimp
