
/home/oleg/scr1/build/verilator_wf_AHB_IMC/dhrystone21.elf:     формат файла elf32-littleriscv


Дизассемблирование раздела .text.init:

00000000 <SIM_EXIT-0xf4>:
	...

000000f4 <SIM_EXIT>:
  f4:	00000013          	nop

000000f8 <SIM_STOP>:
  f8:	0000006f          	j	f8 <SIM_STOP>
  fc:	ffff                	0xffff
  fe:	ffff                	0xffff

Дизассемблирование раздела .text:

00000100 <machine_trap_entry-0xc0>:
	...

000001c0 <machine_trap_entry>:
     1c0:	0a40006f          	j	264 <trap_entry>
     1c4:	00000013          	nop
     1c8:	00000013          	nop
     1cc:	00000013          	nop
     1d0:	00000013          	nop
     1d4:	00000013          	nop
     1d8:	00000013          	nop
     1dc:	00000013          	nop
     1e0:	00000013          	nop
     1e4:	00000013          	nop
     1e8:	00000013          	nop
     1ec:	00000013          	nop
     1f0:	00000013          	nop
     1f4:	00000013          	nop
     1f8:	00000013          	nop
     1fc:	00000013          	nop

00000200 <_start>:
     200:	00004197          	auipc	gp,0x4
     204:	9c018193          	addi	gp,gp,-1600 # 3bc0 <__global_pointer$>
     208:	00003597          	auipc	a1,0x3
     20c:	1f858593          	addi	a1,a1,504 # 3400 <__BSS_START__>
     210:	00006617          	auipc	a2,0x6
     214:	a7060613          	addi	a2,a2,-1424 # 5c80 <__BSS_END__>
     218:	a021                	j	220 <_start+0x20>
     21a:	0005a023          	sw	zero,0(a1)
     21e:	0591                	addi	a1,a1,4
     220:	fec59de3          	bne	a1,a2,21a <_start+0x1a>
     224:	00010117          	auipc	sp,0x10
     228:	ddc10113          	addi	sp,sp,-548 # 10000 <__C_STACK_TOP__>
     22c:	004902b7          	lui	t0,0x490
     230:	4305                	li	t1,1
     232:	0062a023          	sw	t1,0(t0) # 490000 <__C_STACK_TOP__+0x480000>
     236:	004902b7          	lui	t0,0x490
     23a:	00428293          	addi	t0,t0,4 # 490004 <__C_STACK_TOP__+0x480004>
     23e:	06300313          	li	t1,99
     242:	0062a023          	sw	t1,0(t0)
     246:	004902b7          	lui	t0,0x490
     24a:	01028293          	addi	t0,t0,16 # 490010 <__C_STACK_TOP__+0x480010>
     24e:	537d                	li	t1,-1
     250:	0062a023          	sw	t1,0(t0)
     254:	0062a223          	sw	t1,4(t0)
     258:	4501                	li	a0,0
     25a:	4581                	li	a1,0
     25c:	069000ef          	jal	ra,ac4 <main>
     260:	0960006f          	j	2f6 <handle_trap>

00000264 <trap_entry>:
     264:	716d                	addi	sp,sp,-272
     266:	c206                	sw	ra,4(sp)
     268:	c40a                	sw	sp,8(sp)
     26a:	c60e                	sw	gp,12(sp)
     26c:	c812                	sw	tp,16(sp)
     26e:	ca16                	sw	t0,20(sp)
     270:	cc1a                	sw	t1,24(sp)
     272:	ce1e                	sw	t2,28(sp)
     274:	d022                	sw	s0,32(sp)
     276:	d226                	sw	s1,36(sp)
     278:	d42a                	sw	a0,40(sp)
     27a:	d62e                	sw	a1,44(sp)
     27c:	d832                	sw	a2,48(sp)
     27e:	da36                	sw	a3,52(sp)
     280:	dc3a                	sw	a4,56(sp)
     282:	de3e                	sw	a5,60(sp)
     284:	c0c2                	sw	a6,64(sp)
     286:	c2c6                	sw	a7,68(sp)
     288:	c4ca                	sw	s2,72(sp)
     28a:	c6ce                	sw	s3,76(sp)
     28c:	c8d2                	sw	s4,80(sp)
     28e:	cad6                	sw	s5,84(sp)
     290:	ccda                	sw	s6,88(sp)
     292:	cede                	sw	s7,92(sp)
     294:	d0e2                	sw	s8,96(sp)
     296:	d2e6                	sw	s9,100(sp)
     298:	d4ea                	sw	s10,104(sp)
     29a:	d6ee                	sw	s11,108(sp)
     29c:	d8f2                	sw	t3,112(sp)
     29e:	daf6                	sw	t4,116(sp)
     2a0:	dcfa                	sw	t5,120(sp)
     2a2:	defe                	sw	t6,124(sp)
     2a4:	34202573          	csrr	a0,mcause
     2a8:	341025f3          	csrr	a1,mepc
     2ac:	860a                	mv	a2,sp
     2ae:	048000ef          	jal	ra,2f6 <handle_trap>
     2b2:	4092                	lw	ra,4(sp)
     2b4:	4122                	lw	sp,8(sp)
     2b6:	41b2                	lw	gp,12(sp)
     2b8:	4242                	lw	tp,16(sp)
     2ba:	42d2                	lw	t0,20(sp)
     2bc:	4362                	lw	t1,24(sp)
     2be:	43f2                	lw	t2,28(sp)
     2c0:	5402                	lw	s0,32(sp)
     2c2:	5492                	lw	s1,36(sp)
     2c4:	5522                	lw	a0,40(sp)
     2c6:	55b2                	lw	a1,44(sp)
     2c8:	5642                	lw	a2,48(sp)
     2ca:	56d2                	lw	a3,52(sp)
     2cc:	5762                	lw	a4,56(sp)
     2ce:	57f2                	lw	a5,60(sp)
     2d0:	4806                	lw	a6,64(sp)
     2d2:	4896                	lw	a7,68(sp)
     2d4:	4926                	lw	s2,72(sp)
     2d6:	49b6                	lw	s3,76(sp)
     2d8:	4a46                	lw	s4,80(sp)
     2da:	4ad6                	lw	s5,84(sp)
     2dc:	4b66                	lw	s6,88(sp)
     2de:	4bf6                	lw	s7,92(sp)
     2e0:	5c06                	lw	s8,96(sp)
     2e2:	5c96                	lw	s9,100(sp)
     2e4:	5d26                	lw	s10,104(sp)
     2e6:	5db6                	lw	s11,108(sp)
     2e8:	5e46                	lw	t3,112(sp)
     2ea:	5ed6                	lw	t4,116(sp)
     2ec:	5f66                	lw	t5,120(sp)
     2ee:	5ff6                	lw	t6,124(sp)
     2f0:	6151                	addi	sp,sp,272
     2f2:	30200073          	mret

000002f6 <handle_trap>:
     2f6:	dffff06f          	j	f4 <SIM_EXIT>
     2fa:	0000                	unimp
     2fc:	0000                	unimp
	...

00000300 <Func_1.constprop.1>:
     300:	04300793          	li	a5,67
     304:	00f50463          	beq	a0,a5,30c <Func_1.constprop.1+0xc>
     308:	4501                	li	a0,0
     30a:	8082                	ret
     30c:	86a18623          	sb	a0,-1940(gp) # 342c <Ch_1_Glob>
     310:	4505                	li	a0,1
     312:	8082                	ret

00000314 <printf_putch>:
     314:	04022803          	lw	a6,64(tp) # 40 <buflen.1776>
     318:	00020293          	mv	t0,tp
     31c:	00180713          	addi	a4,a6,1
     320:	01028333          	add	t1,t0,a6
     324:	04e22023          	sw	a4,64(tp) # 40 <buflen.1776>
     328:	00a30023          	sb	a0,0(t1)
     32c:	43a9                	li	t2,10
     32e:	00750763          	beq	a0,t2,33c <printf_putch+0x28>
     332:	04000513          	li	a0,64
     336:	00a70563          	beq	a4,a0,340 <printf_putch+0x2c>
     33a:	8082                	ret
     33c:	0ce05c63          	blez	a4,414 <STACK_SIZE+0x14>
     340:	00777e13          	andi	t3,a4,7
     344:	00020793          	mv	a5,tp
     348:	f0000eb7          	lui	t4,0xf0000
     34c:	fff70f13          	addi	t5,a4,-1
     350:	060e0f63          	beqz	t3,3ce <printf_putch+0xba>
     354:	4f85                	li	t6,1
     356:	07fe0563          	beq	t3,t6,3c0 <printf_putch+0xac>
     35a:	4589                	li	a1,2
     35c:	04be0c63          	beq	t3,a1,3b4 <printf_putch+0xa0>
     360:	480d                	li	a6,3
     362:	050e0363          	beq	t3,a6,3a8 <printf_putch+0x94>
     366:	4691                	li	a3,4
     368:	02de0a63          	beq	t3,a3,39c <printf_putch+0x88>
     36c:	4295                	li	t0,5
     36e:	025e0163          	beq	t3,t0,390 <printf_putch+0x7c>
     372:	4319                	li	t1,6
     374:	006e0863          	beq	t3,t1,384 <printf_putch+0x70>
     378:	0007c383          	lbu	t2,0(a5)
     37c:	877a                	mv	a4,t5
     37e:	0785                	addi	a5,a5,1
     380:	007e8023          	sb	t2,0(t4) # f0000000 <__C_STACK_TOP__+0xefff0000>
     384:	0007c503          	lbu	a0,0(a5)
     388:	177d                	addi	a4,a4,-1
     38a:	0785                	addi	a5,a5,1
     38c:	00ae8023          	sb	a0,0(t4)
     390:	0007c883          	lbu	a7,0(a5)
     394:	177d                	addi	a4,a4,-1
     396:	0785                	addi	a5,a5,1
     398:	011e8023          	sb	a7,0(t4)
     39c:	0007ce03          	lbu	t3,0(a5)
     3a0:	177d                	addi	a4,a4,-1
     3a2:	0785                	addi	a5,a5,1
     3a4:	01ce8023          	sb	t3,0(t4)
     3a8:	0007cf03          	lbu	t5,0(a5)
     3ac:	177d                	addi	a4,a4,-1
     3ae:	0785                	addi	a5,a5,1
     3b0:	01ee8023          	sb	t5,0(t4)
     3b4:	0007cf83          	lbu	t6,0(a5)
     3b8:	177d                	addi	a4,a4,-1
     3ba:	0785                	addi	a5,a5,1
     3bc:	01fe8023          	sb	t6,0(t4)
     3c0:	0785                	addi	a5,a5,1
     3c2:	fff7c583          	lbu	a1,-1(a5)
     3c6:	177d                	addi	a4,a4,-1
     3c8:	00be8023          	sb	a1,0(t4)
     3cc:	c721                	beqz	a4,414 <STACK_SIZE+0x14>
     3ce:	0007c803          	lbu	a6,0(a5)
     3d2:	07a1                	addi	a5,a5,8
     3d4:	1761                	addi	a4,a4,-8
     3d6:	010e8023          	sb	a6,0(t4)
     3da:	ff97c683          	lbu	a3,-7(a5)
     3de:	00de8023          	sb	a3,0(t4)
     3e2:	ffa7c283          	lbu	t0,-6(a5)
     3e6:	005e8023          	sb	t0,0(t4)
     3ea:	ffb7c303          	lbu	t1,-5(a5)
     3ee:	006e8023          	sb	t1,0(t4)
     3f2:	ffc7c383          	lbu	t2,-4(a5)
     3f6:	007e8023          	sb	t2,0(t4)
     3fa:	ffd7c503          	lbu	a0,-3(a5)
     3fe:	00ae8023          	sb	a0,0(t4)
     402:	ffe7c883          	lbu	a7,-2(a5)
     406:	011e8023          	sb	a7,0(t4)
     40a:	fff7ce03          	lbu	t3,-1(a5)
     40e:	01ce8023          	sb	t3,0(t4)
     412:	ff55                	bnez	a4,3ce <printf_putch+0xba>
     414:	04022023          	sw	zero,64(tp) # 40 <buflen.1776>
     418:	8082                	ret

0000041a <vprintfmt.constprop.2>:
     41a:	714d                	addi	sp,sp,-336
     41c:	13512a23          	sw	s5,308(sp)
     420:	06100793          	li	a5,97
     424:	6a89                	lui	s5,0x2
     426:	14912223          	sw	s1,324(sp)
     42a:	13412c23          	sw	s4,312(sp)
     42e:	13612823          	sw	s6,304(sp)
     432:	14112623          	sw	ra,332(sp)
     436:	14812423          	sw	s0,328(sp)
     43a:	15212023          	sw	s2,320(sp)
     43e:	13312e23          	sw	s3,316(sp)
     442:	13712623          	sw	s7,300(sp)
     446:	13812423          	sw	s8,296(sp)
     44a:	13912223          	sw	s9,292(sp)
     44e:	13a12023          	sw	s10,288(sp)
     452:	11b12e23          	sw	s11,284(sp)
     456:	84aa                	mv	s1,a0
     458:	8b2e                	mv	s6,a1
     45a:	c63e                	sw	a5,12(sp)
     45c:	02500a13          	li	s4,37
     460:	4c0a8a93          	addi	s5,s5,1216 # 24c0 <__umoddi3+0x424>
     464:	0004c503          	lbu	a0,0(s1)
     468:	01450a63          	beq	a0,s4,47c <vprintfmt.constprop.2+0x62>
     46c:	c521                	beqz	a0,4b4 <vprintfmt.constprop.2+0x9a>
     46e:	4581                	li	a1,0
     470:	0485                	addi	s1,s1,1
     472:	354d                	jal	314 <printf_putch>
     474:	0004c503          	lbu	a0,0(s1)
     478:	ff451ae3          	bne	a0,s4,46c <vprintfmt.constprop.2+0x52>
     47c:	00148b93          	addi	s7,s1,1
     480:	875e                	mv	a4,s7
     482:	02000993          	li	s3,32
     486:	547d                	li	s0,-1
     488:	597d                	li	s2,-1
     48a:	4581                	li	a1,0
     48c:	05500613          	li	a2,85
     490:	4825                	li	a6,9
     492:	00074683          	lbu	a3,0(a4)
     496:	00170493          	addi	s1,a4,1
     49a:	fdd68093          	addi	ra,a3,-35
     49e:	0ff0f293          	andi	t0,ra,255
     4a2:	46566163          	bltu	a2,t0,904 <vprintfmt.constprop.2+0x4ea>
     4a6:	00229313          	slli	t1,t0,0x2
     4aa:	015303b3          	add	t2,t1,s5
     4ae:	0003a503          	lw	a0,0(t2)
     4b2:	8502                	jr	a0
     4b4:	14c12083          	lw	ra,332(sp)
     4b8:	14812403          	lw	s0,328(sp)
     4bc:	14412483          	lw	s1,324(sp)
     4c0:	14012903          	lw	s2,320(sp)
     4c4:	13c12983          	lw	s3,316(sp)
     4c8:	13812a03          	lw	s4,312(sp)
     4cc:	13412a83          	lw	s5,308(sp)
     4d0:	13012b03          	lw	s6,304(sp)
     4d4:	12c12b83          	lw	s7,300(sp)
     4d8:	12812c03          	lw	s8,296(sp)
     4dc:	12412c83          	lw	s9,292(sp)
     4e0:	12012d03          	lw	s10,288(sp)
     4e4:	11c12d83          	lw	s11,284(sp)
     4e8:	6171                	addi	sp,sp,336
     4ea:	8082                	ret
     4ec:	00095363          	bgez	s2,4f2 <vprintfmt.constprop.2+0xd8>
     4f0:	4901                	li	s2,0
     4f2:	8726                	mv	a4,s1
     4f4:	bf79                	j	492 <vprintfmt.constprop.2+0x78>
     4f6:	4d29                	li	s10,10
     4f8:	4605                	li	a2,1
     4fa:	42b65363          	ble	a1,a2,920 <vprintfmt.constprop.2+0x506>
     4fe:	007b0813          	addi	a6,s6,7
     502:	ff887893          	andi	a7,a6,-8
     506:	0008ad83          	lw	s11,0(a7)
     50a:	0048a403          	lw	s0,4(a7)
     50e:	00888b13          	addi	s6,a7,8
     512:	41fd5b93          	srai	s7,s10,0x1f
     516:	866a                	mv	a2,s10
     518:	86de                	mv	a3,s7
     51a:	856e                	mv	a0,s11
     51c:	85a2                	mv	a1,s0
     51e:	37f010ef          	jal	ra,209c <__umoddi3>
     522:	c82a                	sw	a0,16(sp)
     524:	3f746863          	bltu	s0,s7,914 <vprintfmt.constprop.2+0x4fa>
     528:	3e8b8463          	beq	s7,s0,910 <vprintfmt.constprop.2+0x4f6>
     52c:	01410c13          	addi	s8,sp,20
     530:	4c85                	li	s9,1
     532:	866a                	mv	a2,s10
     534:	86de                	mv	a3,s7
     536:	856e                	mv	a0,s11
     538:	85a2                	mv	a1,s0
     53a:	72a010ef          	jal	ra,1c64 <__udivdi3>
     53e:	866a                	mv	a2,s10
     540:	86de                	mv	a3,s7
     542:	8daa                	mv	s11,a0
     544:	842e                	mv	s0,a1
     546:	357010ef          	jal	ra,209c <__umoddi3>
     54a:	00ac2023          	sw	a0,0(s8)
     54e:	0c85                	addi	s9,s9,1
     550:	0c11                	addi	s8,s8,4
     552:	01746663          	bltu	s0,s7,55e <vprintfmt.constprop.2+0x144>
     556:	fc8b9ee3          	bne	s7,s0,532 <vprintfmt.constprop.2+0x118>
     55a:	fdadfce3          	bleu	s10,s11,532 <vprintfmt.constprop.2+0x118>
     55e:	0b2cdd63          	ble	s2,s9,618 <vprintfmt.constprop.2+0x1fe>
     562:	fffcce93          	not	t4,s9
     566:	012e8f33          	add	t5,t4,s2
     56a:	fff90b93          	addi	s7,s2,-1
     56e:	4581                	li	a1,0
     570:	854e                	mv	a0,s3
     572:	007f7d13          	andi	s10,t5,7
     576:	3b79                	jal	314 <printf_putch>
     578:	0b7cd063          	ble	s7,s9,618 <vprintfmt.constprop.2+0x1fe>
     57c:	060d0363          	beqz	s10,5e2 <vprintfmt.constprop.2+0x1c8>
     580:	4f85                	li	t6,1
     582:	05fd0a63          	beq	s10,t6,5d6 <vprintfmt.constprop.2+0x1bc>
     586:	4789                	li	a5,2
     588:	04fd0363          	beq	s10,a5,5ce <vprintfmt.constprop.2+0x1b4>
     58c:	458d                	li	a1,3
     58e:	02bd0c63          	beq	s10,a1,5c6 <vprintfmt.constprop.2+0x1ac>
     592:	4691                	li	a3,4
     594:	02dd0563          	beq	s10,a3,5be <vprintfmt.constprop.2+0x1a4>
     598:	4095                	li	ra,5
     59a:	001d0e63          	beq	s10,ra,5b6 <vprintfmt.constprop.2+0x19c>
     59e:	4299                	li	t0,6
     5a0:	005d0763          	beq	s10,t0,5ae <vprintfmt.constprop.2+0x194>
     5a4:	4581                	li	a1,0
     5a6:	854e                	mv	a0,s3
     5a8:	33b5                	jal	314 <printf_putch>
     5aa:	ffe90b93          	addi	s7,s2,-2
     5ae:	4581                	li	a1,0
     5b0:	854e                	mv	a0,s3
     5b2:	338d                	jal	314 <printf_putch>
     5b4:	1bfd                	addi	s7,s7,-1
     5b6:	4581                	li	a1,0
     5b8:	854e                	mv	a0,s3
     5ba:	3ba9                	jal	314 <printf_putch>
     5bc:	1bfd                	addi	s7,s7,-1
     5be:	4581                	li	a1,0
     5c0:	854e                	mv	a0,s3
     5c2:	3b89                	jal	314 <printf_putch>
     5c4:	1bfd                	addi	s7,s7,-1
     5c6:	4581                	li	a1,0
     5c8:	854e                	mv	a0,s3
     5ca:	33a9                	jal	314 <printf_putch>
     5cc:	1bfd                	addi	s7,s7,-1
     5ce:	4581                	li	a1,0
     5d0:	854e                	mv	a0,s3
     5d2:	3389                	jal	314 <printf_putch>
     5d4:	1bfd                	addi	s7,s7,-1
     5d6:	1bfd                	addi	s7,s7,-1
     5d8:	4581                	li	a1,0
     5da:	854e                	mv	a0,s3
     5dc:	3b25                	jal	314 <printf_putch>
     5de:	037cdd63          	ble	s7,s9,618 <vprintfmt.constprop.2+0x1fe>
     5e2:	4581                	li	a1,0
     5e4:	854e                	mv	a0,s3
     5e6:	333d                	jal	314 <printf_putch>
     5e8:	4581                	li	a1,0
     5ea:	854e                	mv	a0,s3
     5ec:	3325                	jal	314 <printf_putch>
     5ee:	4581                	li	a1,0
     5f0:	854e                	mv	a0,s3
     5f2:	330d                	jal	314 <printf_putch>
     5f4:	4581                	li	a1,0
     5f6:	854e                	mv	a0,s3
     5f8:	3b31                	jal	314 <printf_putch>
     5fa:	4581                	li	a1,0
     5fc:	854e                	mv	a0,s3
     5fe:	3b19                	jal	314 <printf_putch>
     600:	4581                	li	a1,0
     602:	854e                	mv	a0,s3
     604:	3b01                	jal	314 <printf_putch>
     606:	4581                	li	a1,0
     608:	854e                	mv	a0,s3
     60a:	3329                	jal	314 <printf_putch>
     60c:	1be1                	addi	s7,s7,-8
     60e:	4581                	li	a1,0
     610:	854e                	mv	a0,s3
     612:	3309                	jal	314 <printf_putch>
     614:	fd7cc7e3          	blt	s9,s7,5e2 <vprintfmt.constprop.2+0x1c8>
     618:	fffc8b93          	addi	s7,s9,-1
     61c:	002b9913          	slli	s2,s7,0x2
     620:	01010313          	addi	t1,sp,16
     624:	01230db3          	add	s11,t1,s2
     628:	4532                	lw	a0,12(sp)
     62a:	000da383          	lw	t2,0(s11)
     62e:	49a5                	li	s3,9
     630:	ff650d13          	addi	s10,a0,-10
     634:	003bfc13          	andi	s8,s7,3
     638:	03000613          	li	a2,48
     63c:	0079f363          	bleu	t2,s3,642 <vprintfmt.constprop.2+0x228>
     640:	866a                	mv	a2,s10
     642:	4581                	li	a1,0
     644:	00c38533          	add	a0,t2,a2
     648:	31f1                	jal	314 <printf_putch>
     64a:	fffb8c93          	addi	s9,s7,-1
     64e:	ffcd8413          	addi	s0,s11,-4
     652:	e17059e3          	blez	s7,464 <vprintfmt.constprop.2+0x4a>
     656:	060c0363          	beqz	s8,6bc <vprintfmt.constprop.2+0x2a2>
     65a:	4705                	li	a4,1
     65c:	02ec0f63          	beq	s8,a4,69a <vprintfmt.constprop.2+0x280>
     660:	4809                	li	a6,2
     662:	010c0f63          	beq	s8,a6,680 <vprintfmt.constprop.2+0x266>
     666:	ffcda883          	lw	a7,-4(s11)
     66a:	03000e13          	li	t3,48
     66e:	0119f363          	bleu	a7,s3,674 <vprintfmt.constprop.2+0x25a>
     672:	8e6a                	mv	t3,s10
     674:	4581                	li	a1,0
     676:	01c88533          	add	a0,a7,t3
     67a:	3969                	jal	314 <printf_putch>
     67c:	1cfd                	addi	s9,s9,-1
     67e:	1471                	addi	s0,s0,-4
     680:	00042e83          	lw	t4,0(s0)
     684:	03000f13          	li	t5,48
     688:	01d9f363          	bleu	t4,s3,68e <vprintfmt.constprop.2+0x274>
     68c:	8f6a                	mv	t5,s10
     68e:	4581                	li	a1,0
     690:	01ee8533          	add	a0,t4,t5
     694:	3141                	jal	314 <printf_putch>
     696:	1cfd                	addi	s9,s9,-1
     698:	1471                	addi	s0,s0,-4
     69a:	00042f83          	lw	t6,0(s0)
     69e:	03000793          	li	a5,48
     6a2:	01f9f363          	bleu	t6,s3,6a8 <vprintfmt.constprop.2+0x28e>
     6a6:	87ea                	mv	a5,s10
     6a8:	4581                	li	a1,0
     6aa:	00ff8533          	add	a0,t6,a5
     6ae:	1cfd                	addi	s9,s9,-1
     6b0:	3195                	jal	314 <printf_putch>
     6b2:	001c8593          	addi	a1,s9,1
     6b6:	1471                	addi	s0,s0,-4
     6b8:	dab056e3          	blez	a1,464 <vprintfmt.constprop.2+0x4a>
     6bc:	4014                	lw	a3,0(s0)
     6be:	03000093          	li	ra,48
     6c2:	00d9f363          	bleu	a3,s3,6c8 <vprintfmt.constprop.2+0x2ae>
     6c6:	80ea                	mv	ra,s10
     6c8:	4581                	li	a1,0
     6ca:	00168533          	add	a0,a3,ra
     6ce:	3199                	jal	314 <printf_putch>
     6d0:	ffc42283          	lw	t0,-4(s0)
     6d4:	1cfd                	addi	s9,s9,-1
     6d6:	1471                	addi	s0,s0,-4
     6d8:	03000b93          	li	s7,48
     6dc:	0059f363          	bleu	t0,s3,6e2 <vprintfmt.constprop.2+0x2c8>
     6e0:	8bea                	mv	s7,s10
     6e2:	4581                	li	a1,0
     6e4:	01728533          	add	a0,t0,s7
     6e8:	3135                	jal	314 <printf_putch>
     6ea:	ffc42903          	lw	s2,-4(s0)
     6ee:	03000313          	li	t1,48
     6f2:	0129f363          	bleu	s2,s3,6f8 <vprintfmt.constprop.2+0x2de>
     6f6:	836a                	mv	t1,s10
     6f8:	4581                	li	a1,0
     6fa:	00690533          	add	a0,s2,t1
     6fe:	3919                	jal	314 <printf_putch>
     700:	ff842d83          	lw	s11,-8(s0)
     704:	03000393          	li	t2,48
     708:	01b9f363          	bleu	s11,s3,70e <vprintfmt.constprop.2+0x2f4>
     70c:	83ea                	mv	t2,s10
     70e:	007d8533          	add	a0,s11,t2
     712:	4581                	li	a1,0
     714:	3101                	jal	314 <printf_putch>
     716:	ffec8513          	addi	a0,s9,-2
     71a:	1451                	addi	s0,s0,-12
     71c:	1cf5                	addi	s9,s9,-3
     71e:	f8a04fe3          	bgtz	a0,6bc <vprintfmt.constprop.2+0x2a2>
     722:	b389                	j	464 <vprintfmt.constprop.2+0x4a>
     724:	8726                	mv	a4,s1
     726:	03000993          	li	s3,48
     72a:	b3a5                	j	492 <vprintfmt.constprop.2+0x78>
     72c:	06100413          	li	s0,97
     730:	c622                	sw	s0,12(sp)
     732:	4d41                	li	s10,16
     734:	b3d1                	j	4f8 <vprintfmt.constprop.2+0xde>
     736:	4d21                	li	s10,8
     738:	b3c1                	j	4f8 <vprintfmt.constprop.2+0xde>
     73a:	4581                	li	a1,0
     73c:	03000513          	li	a0,48
     740:	3ed1                	jal	314 <printf_putch>
     742:	4581                	li	a1,0
     744:	07800513          	li	a0,120
     748:	36f1                	jal	314 <printf_putch>
     74a:	06100793          	li	a5,97
     74e:	c63e                	sw	a5,12(sp)
     750:	4d41                	li	s10,16
     752:	004b0713          	addi	a4,s6,4
     756:	000b2d83          	lw	s11,0(s6)
     75a:	4401                	li	s0,0
     75c:	8b3a                	mv	s6,a4
     75e:	bb55                	j	512 <vprintfmt.constprop.2+0xf8>
     760:	00174e83          	lbu	t4,1(a4)
     764:	fd068413          	addi	s0,a3,-48
     768:	8726                	mv	a4,s1
     76a:	fd0e8d13          	addi	s10,t4,-48
     76e:	03a86363          	bltu	a6,s10,794 <vprintfmt.constprop.2+0x37a>
     772:	00241493          	slli	s1,s0,0x2
     776:	00848c33          	add	s8,s1,s0
     77a:	0705                	addi	a4,a4,1
     77c:	001c1893          	slli	a7,s8,0x1
     780:	01d88e33          	add	t3,a7,t4
     784:	00074e83          	lbu	t4,0(a4)
     788:	fd0e0413          	addi	s0,t3,-48
     78c:	fd0e8f13          	addi	t5,t4,-48
     790:	ffe871e3          	bleu	t5,a6,772 <vprintfmt.constprop.2+0x358>
     794:	ce095fe3          	bgez	s2,492 <vprintfmt.constprop.2+0x78>
     798:	8922                	mv	s2,s0
     79a:	547d                	li	s0,-1
     79c:	b9dd                	j	492 <vprintfmt.constprop.2+0x78>
     79e:	000b2c03          	lw	s8,0(s6)
     7a2:	0b11                	addi	s6,s6,4
     7a4:	1c0c0b63          	beqz	s8,97a <vprintfmt.constprop.2+0x560>
     7a8:	19205563          	blez	s2,932 <vprintfmt.constprop.2+0x518>
     7ac:	02d00593          	li	a1,45
     7b0:	1ab99763          	bne	s3,a1,95e <vprintfmt.constprop.2+0x544>
     7b4:	000c4503          	lbu	a0,0(s8)
     7b8:	cd09                	beqz	a0,7d2 <vprintfmt.constprop.2+0x3b8>
     7ba:	59fd                	li	s3,-1
     7bc:	18045163          	bgez	s0,93e <vprintfmt.constprop.2+0x524>
     7c0:	4581                	li	a1,0
     7c2:	0c05                	addi	s8,s8,1
     7c4:	3e81                	jal	314 <printf_putch>
     7c6:	000c4503          	lbu	a0,0(s8)
     7ca:	197d                	addi	s2,s2,-1
     7cc:	f965                	bnez	a0,7bc <vprintfmt.constprop.2+0x3a2>
     7ce:	c9205be3          	blez	s2,464 <vprintfmt.constprop.2+0x4a>
     7d2:	00797b93          	andi	s7,s2,7
     7d6:	fff90c13          	addi	s8,s2,-1
     7da:	060b8963          	beqz	s7,84c <vprintfmt.constprop.2+0x432>
     7de:	4c85                	li	s9,1
     7e0:	059b8f63          	beq	s7,s9,83e <vprintfmt.constprop.2+0x424>
     7e4:	4d89                	li	s11,2
     7e6:	05bb8763          	beq	s7,s11,834 <vprintfmt.constprop.2+0x41a>
     7ea:	4e0d                	li	t3,3
     7ec:	03cb8f63          	beq	s7,t3,82a <vprintfmt.constprop.2+0x410>
     7f0:	4e91                	li	t4,4
     7f2:	03db8763          	beq	s7,t4,820 <vprintfmt.constprop.2+0x406>
     7f6:	4f15                	li	t5,5
     7f8:	01eb8f63          	beq	s7,t5,816 <vprintfmt.constprop.2+0x3fc>
     7fc:	4f99                	li	t6,6
     7fe:	01fb8763          	beq	s7,t6,80c <vprintfmt.constprop.2+0x3f2>
     802:	4581                	li	a1,0
     804:	02000513          	li	a0,32
     808:	3631                	jal	314 <printf_putch>
     80a:	8962                	mv	s2,s8
     80c:	4581                	li	a1,0
     80e:	02000513          	li	a0,32
     812:	3609                	jal	314 <printf_putch>
     814:	197d                	addi	s2,s2,-1
     816:	4581                	li	a1,0
     818:	02000513          	li	a0,32
     81c:	3ce5                	jal	314 <printf_putch>
     81e:	197d                	addi	s2,s2,-1
     820:	4581                	li	a1,0
     822:	02000513          	li	a0,32
     826:	34fd                	jal	314 <printf_putch>
     828:	197d                	addi	s2,s2,-1
     82a:	4581                	li	a1,0
     82c:	02000513          	li	a0,32
     830:	34d5                	jal	314 <printf_putch>
     832:	197d                	addi	s2,s2,-1
     834:	4581                	li	a1,0
     836:	02000513          	li	a0,32
     83a:	3ce9                	jal	314 <printf_putch>
     83c:	197d                	addi	s2,s2,-1
     83e:	197d                	addi	s2,s2,-1
     840:	4581                	li	a1,0
     842:	02000513          	li	a0,32
     846:	34f9                	jal	314 <printf_putch>
     848:	c0090ee3          	beqz	s2,464 <vprintfmt.constprop.2+0x4a>
     84c:	4581                	li	a1,0
     84e:	02000513          	li	a0,32
     852:	34c9                	jal	314 <printf_putch>
     854:	4581                	li	a1,0
     856:	02000513          	li	a0,32
     85a:	3c6d                	jal	314 <printf_putch>
     85c:	4581                	li	a1,0
     85e:	02000513          	li	a0,32
     862:	3c4d                	jal	314 <printf_putch>
     864:	4581                	li	a1,0
     866:	02000513          	li	a0,32
     86a:	346d                	jal	314 <printf_putch>
     86c:	4581                	li	a1,0
     86e:	02000513          	li	a0,32
     872:	344d                	jal	314 <printf_putch>
     874:	4581                	li	a1,0
     876:	02000513          	li	a0,32
     87a:	3c69                	jal	314 <printf_putch>
     87c:	4581                	li	a1,0
     87e:	02000513          	li	a0,32
     882:	3c49                	jal	314 <printf_putch>
     884:	1961                	addi	s2,s2,-8
     886:	4581                	li	a1,0
     888:	02000513          	li	a0,32
     88c:	3461                	jal	314 <printf_putch>
     88e:	fa091fe3          	bnez	s2,84c <vprintfmt.constprop.2+0x432>
     892:	bec9                	j	464 <vprintfmt.constprop.2+0x4a>
     894:	4685                	li	a3,1
     896:	0ab6d863          	ble	a1,a3,946 <vprintfmt.constprop.2+0x52c>
     89a:	0b1d                	addi	s6,s6,7
     89c:	ff8b7293          	andi	t0,s6,-8
     8a0:	0002ad83          	lw	s11,0(t0)
     8a4:	0042a403          	lw	s0,4(t0)
     8a8:	00828b13          	addi	s6,t0,8
     8ac:	00045e63          	bgez	s0,8c8 <vprintfmt.constprop.2+0x4ae>
     8b0:	4581                	li	a1,0
     8b2:	02d00513          	li	a0,45
     8b6:	3cb9                	jal	314 <printf_putch>
     8b8:	41b00db3          	neg	s11,s11
     8bc:	01b03333          	snez	t1,s11
     8c0:	408003b3          	neg	t2,s0
     8c4:	40638433          	sub	s0,t2,t1
     8c8:	4d29                	li	s10,10
     8ca:	b1a1                	j	512 <vprintfmt.constprop.2+0xf8>
     8cc:	0585                	addi	a1,a1,1
     8ce:	8726                	mv	a4,s1
     8d0:	b6c9                	j	492 <vprintfmt.constprop.2+0x78>
     8d2:	4581                	li	a1,0
     8d4:	02500513          	li	a0,37
     8d8:	3c35                	jal	314 <printf_putch>
     8da:	b669                	j	464 <vprintfmt.constprop.2+0x4a>
     8dc:	000b2403          	lw	s0,0(s6)
     8e0:	8726                	mv	a4,s1
     8e2:	0b11                	addi	s6,s6,4
     8e4:	bd45                	j	794 <vprintfmt.constprop.2+0x37a>
     8e6:	8726                	mv	a4,s1
     8e8:	02d00993          	li	s3,45
     8ec:	b65d                	j	492 <vprintfmt.constprop.2+0x78>
     8ee:	04100513          	li	a0,65
     8f2:	c62a                	sw	a0,12(sp)
     8f4:	4d41                	li	s10,16
     8f6:	b109                	j	4f8 <vprintfmt.constprop.2+0xde>
     8f8:	000b2503          	lw	a0,0(s6)
     8fc:	4581                	li	a1,0
     8fe:	0b11                	addi	s6,s6,4
     900:	3c11                	jal	314 <printf_putch>
     902:	b68d                	j	464 <vprintfmt.constprop.2+0x4a>
     904:	4581                	li	a1,0
     906:	02500513          	li	a0,37
     90a:	3429                	jal	314 <printf_putch>
     90c:	84de                	mv	s1,s7
     90e:	be99                	j	464 <vprintfmt.constprop.2+0x4a>
     910:	c1adfee3          	bleu	s10,s11,52c <vprintfmt.constprop.2+0x112>
     914:	4e05                	li	t3,1
     916:	4c85                	li	s9,1
     918:	c52e45e3          	blt	t3,s2,562 <vprintfmt.constprop.2+0x148>
     91c:	4b81                	li	s7,0
     91e:	b9fd                	j	61c <vprintfmt.constprop.2+0x202>
     920:	004b0713          	addi	a4,s6,4
     924:	bd0d                	j	756 <vprintfmt.constprop.2+0x33c>
     926:	88de                	mv	a7,s7
     928:	000bd363          	bgez	s7,92e <vprintfmt.constprop.2+0x514>
     92c:	4881                	li	a7,0
     92e:	411b8933          	sub	s2,s7,a7
     932:	000c4503          	lbu	a0,0(s8)
     936:	b20507e3          	beqz	a0,464 <vprintfmt.constprop.2+0x4a>
     93a:	59fd                	li	s3,-1
     93c:	b541                	j	7bc <vprintfmt.constprop.2+0x3a2>
     93e:	147d                	addi	s0,s0,-1
     940:	e93410e3          	bne	s0,s3,7c0 <vprintfmt.constprop.2+0x3a6>
     944:	b569                	j	7ce <vprintfmt.constprop.2+0x3b4>
     946:	000b2d83          	lw	s11,0(s6)
     94a:	004b0093          	addi	ra,s6,4
     94e:	8b06                	mv	s6,ra
     950:	41fdd413          	srai	s0,s11,0x1f
     954:	bfa1                	j	8ac <vprintfmt.constprop.2+0x492>
     956:	00003837          	lui	a6,0x3
     95a:	81c80c13          	addi	s8,a6,-2020 # 281c <__clz_tab+0x100>
     95e:	85a2                	mv	a1,s0
     960:	8562                	mv	a0,s8
     962:	13f000ef          	jal	ra,12a0 <strnlen>
     966:	40a90bb3          	sub	s7,s2,a0
     96a:	8d5e                	mv	s10,s7
     96c:	fba05de3          	blez	s10,926 <vprintfmt.constprop.2+0x50c>
     970:	4581                	li	a1,0
     972:	854e                	mv	a0,s3
     974:	3245                	jal	314 <printf_putch>
     976:	1d7d                	addi	s10,s10,-1
     978:	bfd5                	j	96c <vprintfmt.constprop.2+0x552>
     97a:	01205663          	blez	s2,986 <vprintfmt.constprop.2+0x56c>
     97e:	02d00613          	li	a2,45
     982:	fcc99ae3          	bne	s3,a2,956 <vprintfmt.constprop.2+0x53c>
     986:	00003737          	lui	a4,0x3
     98a:	81c70c13          	addi	s8,a4,-2020 # 281c <__clz_tab+0x100>
     98e:	02800513          	li	a0,40
     992:	59fd                	li	s3,-1
     994:	b525                	j	7bc <vprintfmt.constprop.2+0x3a2>

00000996 <sc_printf>:
     996:	7139                	addi	sp,sp,-64
     998:	02410313          	addi	t1,sp,36
     99c:	d22e                	sw	a1,36(sp)
     99e:	859a                	mv	a1,t1
     9a0:	ce06                	sw	ra,28(sp)
     9a2:	d432                	sw	a2,40(sp)
     9a4:	d636                	sw	a3,44(sp)
     9a6:	d83a                	sw	a4,48(sp)
     9a8:	da3e                	sw	a5,52(sp)
     9aa:	dc42                	sw	a6,56(sp)
     9ac:	de46                	sw	a7,60(sp)
     9ae:	c61a                	sw	t1,12(sp)
     9b0:	34ad                	jal	41a <vprintfmt.constprop.2>
     9b2:	40f2                	lw	ra,28(sp)
     9b4:	4501                	li	a0,0
     9b6:	6121                	addi	sp,sp,64
     9b8:	8082                	ret

000009ba <putchar>:
     9ba:	04022803          	lw	a6,64(tp) # 40 <buflen.1776>
     9be:	00020293          	mv	t0,tp
     9c2:	00180713          	addi	a4,a6,1
     9c6:	01028333          	add	t1,t0,a6
     9ca:	04e22023          	sw	a4,64(tp) # 40 <buflen.1776>
     9ce:	00a30023          	sb	a0,0(t1)
     9d2:	43a9                	li	t2,10
     9d4:	00750863          	beq	a0,t2,9e4 <putchar+0x2a>
     9d8:	04000513          	li	a0,64
     9dc:	00a70663          	beq	a4,a0,9e8 <putchar+0x2e>
     9e0:	4501                	li	a0,0
     9e2:	8082                	ret
     9e4:	0ce05c63          	blez	a4,abc <putchar+0x102>
     9e8:	00777e13          	andi	t3,a4,7
     9ec:	00020793          	mv	a5,tp
     9f0:	f0000eb7          	lui	t4,0xf0000
     9f4:	fff70f13          	addi	t5,a4,-1
     9f8:	060e0f63          	beqz	t3,a76 <putchar+0xbc>
     9fc:	4f85                	li	t6,1
     9fe:	07fe0563          	beq	t3,t6,a68 <putchar+0xae>
     a02:	4589                	li	a1,2
     a04:	04be0c63          	beq	t3,a1,a5c <putchar+0xa2>
     a08:	480d                	li	a6,3
     a0a:	050e0363          	beq	t3,a6,a50 <putchar+0x96>
     a0e:	4691                	li	a3,4
     a10:	02de0a63          	beq	t3,a3,a44 <putchar+0x8a>
     a14:	4295                	li	t0,5
     a16:	025e0163          	beq	t3,t0,a38 <putchar+0x7e>
     a1a:	4319                	li	t1,6
     a1c:	006e0863          	beq	t3,t1,a2c <putchar+0x72>
     a20:	0007c383          	lbu	t2,0(a5)
     a24:	877a                	mv	a4,t5
     a26:	0785                	addi	a5,a5,1
     a28:	007e8023          	sb	t2,0(t4) # f0000000 <__C_STACK_TOP__+0xefff0000>
     a2c:	0007c503          	lbu	a0,0(a5)
     a30:	177d                	addi	a4,a4,-1
     a32:	0785                	addi	a5,a5,1
     a34:	00ae8023          	sb	a0,0(t4)
     a38:	0007c883          	lbu	a7,0(a5)
     a3c:	177d                	addi	a4,a4,-1
     a3e:	0785                	addi	a5,a5,1
     a40:	011e8023          	sb	a7,0(t4)
     a44:	0007ce03          	lbu	t3,0(a5)
     a48:	177d                	addi	a4,a4,-1
     a4a:	0785                	addi	a5,a5,1
     a4c:	01ce8023          	sb	t3,0(t4)
     a50:	0007cf03          	lbu	t5,0(a5)
     a54:	177d                	addi	a4,a4,-1
     a56:	0785                	addi	a5,a5,1
     a58:	01ee8023          	sb	t5,0(t4)
     a5c:	0007cf83          	lbu	t6,0(a5)
     a60:	177d                	addi	a4,a4,-1
     a62:	0785                	addi	a5,a5,1
     a64:	01fe8023          	sb	t6,0(t4)
     a68:	0785                	addi	a5,a5,1
     a6a:	fff7c583          	lbu	a1,-1(a5)
     a6e:	177d                	addi	a4,a4,-1
     a70:	00be8023          	sb	a1,0(t4)
     a74:	c721                	beqz	a4,abc <putchar+0x102>
     a76:	0007c803          	lbu	a6,0(a5)
     a7a:	07a1                	addi	a5,a5,8
     a7c:	1761                	addi	a4,a4,-8
     a7e:	010e8023          	sb	a6,0(t4)
     a82:	ff97c683          	lbu	a3,-7(a5)
     a86:	00de8023          	sb	a3,0(t4)
     a8a:	ffa7c283          	lbu	t0,-6(a5)
     a8e:	005e8023          	sb	t0,0(t4)
     a92:	ffb7c303          	lbu	t1,-5(a5)
     a96:	006e8023          	sb	t1,0(t4)
     a9a:	ffc7c383          	lbu	t2,-4(a5)
     a9e:	007e8023          	sb	t2,0(t4)
     aa2:	ffd7c503          	lbu	a0,-3(a5)
     aa6:	00ae8023          	sb	a0,0(t4)
     aaa:	ffe7c883          	lbu	a7,-2(a5)
     aae:	011e8023          	sb	a7,0(t4)
     ab2:	fff7ce03          	lbu	t3,-1(a5)
     ab6:	01ce8023          	sb	t3,0(t4)
     aba:	ff55                	bnez	a4,a76 <putchar+0xbc>
     abc:	04022023          	sw	zero,64(tp) # 40 <buflen.1776>
     ac0:	4501                	li	a0,0
     ac2:	8082                	ret

00000ac4 <main>:
     ac4:	00003337          	lui	t1,0x3
     ac8:	7131                	addi	sp,sp,-192
     aca:	82430693          	addi	a3,t1,-2012 # 2824 <__clz_tab+0x108>
     ace:	df06                	sw	ra,188(sp)
     ad0:	d94a                	sw	s2,176(sp)
     ad2:	d552                	sw	s4,168(sp)
     ad4:	0046a903          	lw	s2,4(a3)
     ad8:	82432a03          	lw	s4,-2012(t1)
     adc:	dd22                	sw	s0,184(sp)
     ade:	db26                	sw	s1,180(sp)
     ae0:	cd62                	sw	s8,152(sp)
     ae2:	46c0                	lw	s0,12(a3)
     ae4:	87418c13          	addi	s8,gp,-1932 # 3434 <glob1.3071>
     ae8:	4684                	lw	s1,8(a3)
     aea:	d74e                	sw	s3,172(sp)
     aec:	d356                	sw	s5,164(sp)
     aee:	d15a                	sw	s6,160(sp)
     af0:	cf5e                	sw	s7,156(sp)
     af2:	cb66                	sw	s9,148(sp)
     af4:	c96a                	sw	s10,144(sp)
     af6:	c76e                	sw	s11,140(sp)
     af8:	00003837          	lui	a6,0x3
     afc:	030c0a93          	addi	s5,s8,48
     b00:	4b89                	li	s7,2
     b02:	02800c93          	li	s9,40
     b06:	da080713          	addi	a4,a6,-608 # 2da0 <__clz_tab+0x684>
     b0a:	0146a283          	lw	t0,20(a3)
     b0e:	054c2023          	sw	s4,64(s8)
     b12:	052c2223          	sw	s2,68(s8)
     b16:	8781a423          	sw	s8,-1944(gp) # 3428 <Next_Ptr_Glob>
     b1a:	8751a223          	sw	s5,-1948(gp) # 3424 <Ptr_Glob>
     b1e:	038c2823          	sw	s8,48(s8)
     b22:	020c2a23          	sw	zero,52(s8)
     b26:	037c2c23          	sw	s7,56(s8)
     b2a:	039c2e23          	sw	s9,60(s8)
     b2e:	0106a383          	lw	t2,16(a3)
     b32:	0186af83          	lw	t6,24(a3)
     b36:	01c6df03          	lhu	t5,28(a3)
     b3a:	01e6ce83          	lbu	t4,30(a3)
     b3e:	da082e03          	lw	t3,-608(a6)
     b42:	00472883          	lw	a7,4(a4)
     b46:	049c2423          	sw	s1,72(s8)
     b4a:	00872803          	lw	a6,8(a4)
     b4e:	00c72a03          	lw	s4,12(a4)
     b52:	01072903          	lw	s2,16(a4)
     b56:	4b44                	lw	s1,20(a4)
     b58:	01c75303          	lhu	t1,28(a4)
     b5c:	048c2623          	sw	s0,76(s8)
     b60:	4f00                	lw	s0,24(a4)
     b62:	01e74703          	lbu	a4,30(a4)
     b66:	6d0d                	lui	s10,0x3
     b68:	045c2a23          	sw	t0,84(s8)
     b6c:	55cd0d13          	addi	s10,s10,1372 # 355c <Arr_2_Glob>
     b70:	46a9                	li	a3,10
     b72:	1f400293          	li	t0,500
     b76:	047c2823          	sw	t2,80(s8)
     b7a:	05fc2c23          	sw	t6,88(s8)
     b7e:	05ec1e23          	sh	t5,92(s8)
     b82:	05dc0f23          	sb	t4,94(s8)
     b86:	d0f2                	sw	t3,96(sp)
     b88:	d2c6                	sw	a7,100(sp)
     b8a:	d4c2                	sw	a6,104(sp)
     b8c:	d6d2                	sw	s4,108(sp)
     b8e:	d8ca                	sw	s2,112(sp)
     b90:	daa6                	sw	s1,116(sp)
     b92:	dca2                	sw	s0,120(sp)
     b94:	06611e23          	sh	t1,124(sp)
     b98:	06e10f23          	sb	a4,126(sp)
     b9c:	64dd2e23          	sw	a3,1628(s10)
     ba0:	4385                	li	t2,1
     ba2:	c816                	sw	t0,16(sp)
     ba4:	00a3da63          	ble	a0,t2,bb8 <main+0xf4>
     ba8:	41c8                	lw	a0,4(a1)
     baa:	ca3e                	sw	a5,20(sp)
     bac:	c632                	sw	a2,12(sp)
     bae:	6da000ef          	jal	ra,1288 <atoi>
     bb2:	47d2                	lw	a5,20(sp)
     bb4:	4632                	lw	a2,12(sp)
     bb6:	c82a                	sw	a0,16(sp)
     bb8:	00003ab7          	lui	s5,0x3
     bbc:	a24a8513          	addi	a0,s5,-1500 # 2a24 <__clz_tab+0x308>
     bc0:	ca3e                	sw	a5,20(sp)
     bc2:	c632                	sw	a2,12(sp)
     bc4:	3bc9                	jal	996 <sc_printf>
     bc6:	00003537          	lui	a0,0x3
     bca:	84450513          	addi	a0,a0,-1980 # 2844 <__clz_tab+0x128>
     bce:	33e1                	jal	996 <sc_printf>
     bd0:	a24a8513          	addi	a0,s5,-1500
     bd4:	33c9                	jal	996 <sc_printf>
     bd6:	000035b7          	lui	a1,0x3
     bda:	87458513          	addi	a0,a1,-1932 # 2874 <__clz_tab+0x158>
     bde:	3b65                	jal	996 <sc_printf>
     be0:	a24a8513          	addi	a0,s5,-1500
     be4:	3b4d                	jal	996 <sc_printf>
     be6:	4b42                	lw	s6,16(sp)
     be8:	00003637          	lui	a2,0x3
     bec:	8a460513          	addi	a0,a2,-1884 # 28a4 <__clz_tab+0x188>
     bf0:	85da                	mv	a1,s6
     bf2:	3355                	jal	996 <sc_printf>
     bf4:	c0002ff3          	rdcycle	t6
     bf8:	678d                	lui	a5,0x3
     bfa:	4f05                	li	t5,1
     bfc:	6e8d                	lui	t4,0x3
     bfe:	43f7a023          	sw	t6,1056(a5) # 3420 <Begin_Time>
     c02:	41eeae23          	sw	t5,1052(t4) # 341c <Run_Index>
     c06:	4532                	lw	a0,12(sp)
     c08:	48d2                	lw	a7,20(sp)
     c0a:	660b0363          	beqz	s6,1270 <main+0x7ac>
     c0e:	00003db7          	lui	s11,0x3
     c12:	dc0d8c93          	addi	s9,s11,-576 # 2dc0 <__clz_tab+0x6a4>
     c16:	000030b7          	lui	ra,0x3
     c1a:	de00a883          	lw	a7,-544(ra) # 2de0 <__clz_tab+0x6c4>
     c1e:	dc0dab83          	lw	s7,-576(s11)
     c22:	008caa03          	lw	s4,8(s9)
     c26:	00cca903          	lw	s2,12(s9)
     c2a:	010ca483          	lw	s1,16(s9)
     c2e:	004ca803          	lw	a6,4(s9)
     c32:	014ca403          	lw	s0,20(s9)
     c36:	018ca303          	lw	t1,24(s9)
     c3a:	01ccd703          	lhu	a4,28(s9)
     c3e:	668d                	lui	a3,0x3
     c40:	6391                	lui	t2,0x4
     c42:	cc5e                	sw	s7,24(sp)
     c44:	d052                	sw	s4,32(sp)
     c46:	d24a                	sw	s2,36(sp)
     c48:	d426                	sw	s1,40(sp)
     c4a:	dc46                	sw	a7,56(sp)
     c4c:	ce42                	sw	a6,28(sp)
     c4e:	d622                	sw	s0,44(sp)
     c50:	d81a                	sw	t1,48(sp)
     c52:	02e11b23          	sh	a4,54(sp)
     c56:	690d                	lui	s2,0x3
     c58:	ca36                	sw	a3,20(sp)
     c5a:	04010b13          	addi	s6,sp,64
     c5e:	06010b93          	addi	s7,sp,96
     c62:	55c38a93          	addi	s5,t2,1372 # 455c <__global_pointer$+0x99c>
     c66:	6a0d                	lui	s4,0x3
     c68:	de46                	sw	a7,60(sp)
     c6a:	01ecc283          	lbu	t0,30(s9)
     c6e:	4652                	lw	a2,20(sp)
     c70:	4fe2                	lw	t6,24(sp)
     c72:	47f2                	lw	a5,28(sp)
     c74:	5f02                	lw	t5,32(sp)
     c76:	5e92                	lw	t4,36(sp)
     c78:	5e22                	lw	t3,40(sp)
     c7a:	5db2                	lw	s11,44(sp)
     c7c:	50c2                	lw	ra,48(sp)
     c7e:	03615883          	lhu	a7,54(sp)
     c82:	06214803          	lbu	a6,98(sp)
     c86:	4505                	li	a0,1
     c88:	04200593          	li	a1,66
     c8c:	40a92c23          	sw	a0,1048(s2) # 3418 <Bool_Glob>
     c90:	40b60a23          	sb	a1,1044(a2)
     c94:	c0fe                	sw	t6,64(sp)
     c96:	c2be                	sw	a5,68(sp)
     c98:	c4fa                	sw	t5,72(sp)
     c9a:	c6f6                	sw	t4,76(sp)
     c9c:	c8f2                	sw	t3,80(sp)
     c9e:	caee                	sw	s11,84(sp)
     ca0:	cc86                	sw	ra,88(sp)
     ca2:	05111e23          	sh	a7,92(sp)
     ca6:	04510f23          	sb	t0,94(sp)
     caa:	4301                	li	t1,0
     cac:	04100713          	li	a4,65
     cb0:	05900413          	li	s0,89
     cb4:	48880d63          	beq	a6,s0,114e <main+0x68a>
     cb8:	5c031563          	bnez	t1,1282 <main+0x7be>
     cbc:	04100693          	li	a3,65
     cc0:	86d18623          	sb	a3,-1940(gp) # 342c <Ch_1_Glob>
     cc4:	85da                	mv	a1,s6
     cc6:	855e                	mv	a0,s7
     cc8:	175000ef          	jal	ra,163c <strcmp>
     ccc:	65cd2383          	lw	t2,1628(s10)
     cd0:	8641a783          	lw	a5,-1948(gp) # 3424 <Ptr_Glob>
     cd4:	429d                	li	t0,7
     cd6:	45a1                	li	a1,8
     cd8:	00138613          	addi	a2,t2,1
     cdc:	0ebc2c23          	sw	a1,248(s8)
     ce0:	66bd2023          	sw	a1,1632(s10)
     ce4:	66bd2223          	sw	a1,1636(s10)
     ce8:	64cd2e23          	sw	a2,1628(s10)
     cec:	605aa023          	sw	t0,1536(s5)
     cf0:	085c2223          	sw	t0,132(s8)
     cf4:	085c2023          	sw	t0,128(s8)
     cf8:	0007ad83          	lw	s11,0(a5)
     cfc:	43c0                	lw	s0,4(a5)
     cfe:	0087af83          	lw	t6,8(a5)
     d02:	0107af03          	lw	t5,16(a5)
     d06:	0147ae83          	lw	t4,20(a5)
     d0a:	0187ae03          	lw	t3,24(a5)
     d0e:	01c7a303          	lw	t1,28(a5)
     d12:	0207a883          	lw	a7,32(a5)
     d16:	0247a803          	lw	a6,36(a5)
     d1a:	5798                	lw	a4,40(a5)
     d1c:	4695                	li	a3,5
     d1e:	00152513          	slti	a0,a0,1
     d22:	02c7a383          	lw	t2,44(a5)
     d26:	40a92c23          	sw	a0,1048(s2)
     d2a:	008da223          	sw	s0,4(s11)
     d2e:	40da2823          	sw	a3,1040(s4) # 3410 <Int_Glob>
     d32:	01bda023          	sw	s11,0(s11)
     d36:	01fda423          	sw	t6,8(s11)
     d3a:	01eda823          	sw	t5,16(s11)
     d3e:	01ddaa23          	sw	t4,20(s11)
     d42:	01cdac23          	sw	t3,24(s11)
     d46:	006dae23          	sw	t1,28(s11)
     d4a:	031da023          	sw	a7,32(s11)
     d4e:	030da223          	sw	a6,36(s11)
     d52:	02eda423          	sw	a4,40(s11)
     d56:	0007a283          	lw	t0,0(a5)
     d5a:	4645                	li	a2,17
     d5c:	027da623          	sw	t2,44(s11)
     d60:	005da023          	sw	t0,0(s11)
     d64:	438c                	lw	a1,0(a5)
     d66:	00dda623          	sw	a3,12(s11)
     d6a:	00bda023          	sw	a1,0(s11)
     d6e:	c7d0                	sw	a2,12(a5)
     d70:	004da403          	lw	s0,4(s11)
     d74:	3e040163          	beqz	s0,1156 <main+0x692>
     d78:	0007a083          	lw	ra,0(a5)
     d7c:	6d8d                	lui	s11,0x3
     d7e:	41cda403          	lw	s0,1052(s11) # 341c <Run_Index>
     d82:	01c0a503          	lw	a0,28(ra)
     d86:	0000af83          	lw	t6,0(ra)
     d8a:	0040af03          	lw	t5,4(ra)
     d8e:	0080ae83          	lw	t4,8(ra)
     d92:	00c0ae03          	lw	t3,12(ra)
     d96:	0100a303          	lw	t1,16(ra)
     d9a:	0140a883          	lw	a7,20(ra)
     d9e:	0180a803          	lw	a6,24(ra)
     da2:	0200a383          	lw	t2,32(ra)
     da6:	0240a283          	lw	t0,36(ra)
     daa:	0280a683          	lw	a3,40(ra)
     dae:	02c0a703          	lw	a4,44(ra)
     db2:	cfc8                	sw	a0,28(a5)
     db4:	01f7a023          	sw	t6,0(a5)
     db8:	01e7a223          	sw	t5,4(a5)
     dbc:	01d7a423          	sw	t4,8(a5)
     dc0:	01c7a623          	sw	t3,12(a5)
     dc4:	0067a823          	sw	t1,16(a5)
     dc8:	0117aa23          	sw	a7,20(a5)
     dcc:	0107ac23          	sw	a6,24(a5)
     dd0:	0277a023          	sw	t2,32(a5)
     dd4:	0257a223          	sw	t0,36(a5)
     dd8:	d794                	sw	a3,40(a5)
     dda:	d7d8                	sw	a4,44(a5)
     ddc:	04100513          	li	a0,65
     de0:	d20ff0ef          	jal	ra,300 <Func_1.constprop.1>
     de4:	4d85                	li	s11,1
     de6:	460d                	li	a2,3
     de8:	3bb50863          	beq	a0,s11,1198 <main+0x6d4>
     dec:	04200513          	li	a0,66
     df0:	c632                	sw	a2,12(sp)
     df2:	d0eff0ef          	jal	ra,300 <Func_1.constprop.1>
     df6:	42b2                	lw	t0,12(sp)
     df8:	3fb50c63          	beq	a0,s11,11f0 <main+0x72c>
     dfc:	00129693          	slli	a3,t0,0x1
     e00:	00568733          	add	a4,a3,t0
     e04:	409d                	li	ra,7
     e06:	02174533          	div	a0,a4,ra
     e0a:	ff970f93          	addi	t6,a4,-7
     e0e:	86c1c583          	lbu	a1,-1940(gp) # 342c <Ch_1_Glob>
     e12:	003f9f13          	slli	t5,t6,0x3
     e16:	41ff0eb3          	sub	t4,t5,t6
     e1a:	04100e13          	li	t3,65
     e1e:	40ae88b3          	sub	a7,t4,a0
     e22:	01c59863          	bne	a1,t3,e32 <main+0x36e>
     e26:	410a2803          	lw	a6,1040(s4)
     e2a:	00950613          	addi	a2,a0,9
     e2e:	41060533          	sub	a0,a2,a6
     e32:	47c2                	lw	a5,16(sp)
     e34:	0405                	addi	s0,s0,1
     e36:	638d                	lui	t2,0x3
     e38:	4083ae23          	sw	s0,1052(t2) # 341c <Run_Index>
     e3c:	e287f7e3          	bleu	s0,a5,c6a <main+0x1a6>
     e40:	ce46                	sw	a7,28(sp)
     e42:	cc2a                	sw	a0,24(sp)
     e44:	c0002af3          	rdcycle	s5
     e48:	00003337          	lui	t1,0x3
     e4c:	8d430513          	addi	a0,t1,-1836 # 28d4 <__clz_tab+0x1b8>
     e50:	6c8d                	lui	s9,0x3
     e52:	00003437          	lui	s0,0x3
     e56:	415ca623          	sw	s5,1036(s9) # 340c <End_Time>
     e5a:	3e35                	jal	996 <sc_printf>
     e5c:	a2440513          	addi	a0,s0,-1500 # 2a24 <__clz_tab+0x308>
     e60:	3e1d                	jal	996 <sc_printf>
     e62:	000032b7          	lui	t0,0x3
     e66:	8e428513          	addi	a0,t0,-1820 # 28e4 <__clz_tab+0x1c8>
     e6a:	3635                	jal	996 <sc_printf>
     e6c:	a2440513          	addi	a0,s0,-1500
     e70:	361d                	jal	996 <sc_printf>
     e72:	410a2583          	lw	a1,1040(s4)
     e76:	00003a37          	lui	s4,0x3
     e7a:	91ca0513          	addi	a0,s4,-1764 # 291c <__clz_tab+0x200>
     e7e:	3e21                	jal	996 <sc_printf>
     e80:	00003437          	lui	s0,0x3
     e84:	4595                	li	a1,5
     e86:	93840513          	addi	a0,s0,-1736 # 2938 <__clz_tab+0x21c>
     e8a:	3631                	jal	996 <sc_printf>
     e8c:	41892583          	lw	a1,1048(s2)
     e90:	00003937          	lui	s2,0x3
     e94:	95490513          	addi	a0,s2,-1708 # 2954 <__clz_tab+0x238>
     e98:	3cfd                	jal	996 <sc_printf>
     e9a:	4585                	li	a1,1
     e9c:	93840513          	addi	a0,s0,-1736
     ea0:	3cdd                	jal	996 <sc_printf>
     ea2:	86c1c583          	lbu	a1,-1940(gp) # 342c <Ch_1_Glob>
     ea6:	000034b7          	lui	s1,0x3
     eaa:	97048513          	addi	a0,s1,-1680 # 2970 <__clz_tab+0x254>
     eae:	34e5                	jal	996 <sc_printf>
     eb0:	00003ab7          	lui	s5,0x3
     eb4:	04100593          	li	a1,65
     eb8:	98ca8513          	addi	a0,s5,-1652 # 298c <__clz_tab+0x270>
     ebc:	3ce9                	jal	996 <sc_printf>
     ebe:	46d2                	lw	a3,20(sp)
     ec0:	00003737          	lui	a4,0x3
     ec4:	9a870513          	addi	a0,a4,-1624 # 29a8 <__clz_tab+0x28c>
     ec8:	4146c583          	lbu	a1,1044(a3) # 3414 <Ch_2_Glob>
     ecc:	00003a37          	lui	s4,0x3
     ed0:	00003937          	lui	s2,0x3
     ed4:	34c9                	jal	996 <sc_printf>
     ed6:	04200593          	li	a1,66
     eda:	98ca8513          	addi	a0,s5,-1652
     ede:	3c65                	jal	996 <sc_printf>
     ee0:	080c2583          	lw	a1,128(s8)
     ee4:	00003c37          	lui	s8,0x3
     ee8:	9c4c0513          	addi	a0,s8,-1596 # 29c4 <__clz_tab+0x2a8>
     eec:	346d                	jal	996 <sc_printf>
     eee:	459d                	li	a1,7
     ef0:	93840513          	addi	a0,s0,-1736
     ef4:	344d                	jal	996 <sc_printf>
     ef6:	65cd2583          	lw	a1,1628(s10)
     efa:	00003d37          	lui	s10,0x3
     efe:	9e0d0513          	addi	a0,s10,-1568 # 29e0 <__clz_tab+0x2c4>
     f02:	3c51                	jal	996 <sc_printf>
     f04:	00003fb7          	lui	t6,0x3
     f08:	9fcf8513          	addi	a0,t6,-1540 # 29fc <__clz_tab+0x2e0>
     f0c:	3469                	jal	996 <sc_printf>
     f0e:	000035b7          	lui	a1,0x3
     f12:	a2858513          	addi	a0,a1,-1496 # 2a28 <__clz_tab+0x30c>
     f16:	3441                	jal	996 <sc_printf>
     f18:	8641af03          	lw	t5,-1948(gp) # 3424 <Ptr_Glob>
     f1c:	00003eb7          	lui	t4,0x3
     f20:	a34e8513          	addi	a0,t4,-1484 # 2a34 <__clz_tab+0x318>
     f24:	000f2583          	lw	a1,0(t5)
     f28:	c676                	sw	t4,12(sp)
     f2a:	00003c37          	lui	s8,0x3
     f2e:	34a5                	jal	996 <sc_printf>
     f30:	00003e37          	lui	t3,0x3
     f34:	a50e0513          	addi	a0,t3,-1456 # 2a50 <__clz_tab+0x334>
     f38:	3cb9                	jal	996 <sc_printf>
     f3a:	8641a883          	lw	a7,-1948(gp) # 3424 <Ptr_Glob>
     f3e:	a84c0513          	addi	a0,s8,-1404 # 2a84 <__clz_tab+0x368>
     f42:	00003ab7          	lui	s5,0x3
     f46:	0048a583          	lw	a1,4(a7)
     f4a:	000034b7          	lui	s1,0x3
     f4e:	34a1                	jal	996 <sc_printf>
     f50:	4581                	li	a1,0
     f52:	93840513          	addi	a0,s0,-1736
     f56:	3481                	jal	996 <sc_printf>
     f58:	8641a803          	lw	a6,-1948(gp) # 3424 <Ptr_Glob>
     f5c:	aa0a8513          	addi	a0,s5,-1376 # 2aa0 <__clz_tab+0x384>
     f60:	00882583          	lw	a1,8(a6)
     f64:	3c0d                	jal	996 <sc_printf>
     f66:	4589                	li	a1,2
     f68:	93840513          	addi	a0,s0,-1736
     f6c:	342d                	jal	996 <sc_printf>
     f6e:	8641a603          	lw	a2,-1948(gp) # 3424 <Ptr_Glob>
     f72:	abca0513          	addi	a0,s4,-1348 # 2abc <__clz_tab+0x3a0>
     f76:	464c                	lw	a1,12(a2)
     f78:	3c39                	jal	996 <sc_printf>
     f7a:	45c5                	li	a1,17
     f7c:	93840513          	addi	a0,s0,-1736
     f80:	3c19                	jal	996 <sc_printf>
     f82:	8641a983          	lw	s3,-1948(gp) # 3424 <Ptr_Glob>
     f86:	ad890513          	addi	a0,s2,-1320 # 2ad8 <__clz_tab+0x3bc>
     f8a:	01098593          	addi	a1,s3,16
     f8e:	3421                	jal	996 <sc_printf>
     f90:	af448513          	addi	a0,s1,-1292 # 2af4 <__clz_tab+0x3d8>
     f94:	3409                	jal	996 <sc_printf>
     f96:	00003537          	lui	a0,0x3
     f9a:	b2c50513          	addi	a0,a0,-1236 # 2b2c <__clz_tab+0x410>
     f9e:	3ae5                	jal	996 <sc_printf>
     fa0:	8681a383          	lw	t2,-1944(gp) # 3428 <Next_Ptr_Glob>
     fa4:	47b2                	lw	a5,12(sp)
     fa6:	0003a583          	lw	a1,0(t2)
     faa:	a3478513          	addi	a0,a5,-1484
     fae:	32e5                	jal	996 <sc_printf>
     fb0:	00003337          	lui	t1,0x3
     fb4:	b4030513          	addi	a0,t1,-1216 # 2b40 <__clz_tab+0x424>
     fb8:	3af9                	jal	996 <sc_printf>
     fba:	8681a283          	lw	t0,-1944(gp) # 3428 <Next_Ptr_Glob>
     fbe:	a84c0513          	addi	a0,s8,-1404
     fc2:	00003c37          	lui	s8,0x3
     fc6:	0042a583          	lw	a1,4(t0)
     fca:	32f1                	jal	996 <sc_printf>
     fcc:	4581                	li	a1,0
     fce:	93840513          	addi	a0,s0,-1736
     fd2:	32d1                	jal	996 <sc_printf>
     fd4:	8681a683          	lw	a3,-1944(gp) # 3428 <Next_Ptr_Glob>
     fd8:	aa0a8513          	addi	a0,s5,-1376
     fdc:	00003ab7          	lui	s5,0x3
     fe0:	468c                	lw	a1,8(a3)
     fe2:	3a55                	jal	996 <sc_printf>
     fe4:	4585                	li	a1,1
     fe6:	93840513          	addi	a0,s0,-1736
     fea:	3275                	jal	996 <sc_printf>
     fec:	8681a703          	lw	a4,-1944(gp) # 3428 <Next_Ptr_Glob>
     ff0:	abca0513          	addi	a0,s4,-1348
     ff4:	00003a37          	lui	s4,0x3
     ff8:	474c                	lw	a1,12(a4)
     ffa:	3a71                	jal	996 <sc_printf>
     ffc:	45c9                	li	a1,18
     ffe:	93840513          	addi	a0,s0,-1736
    1002:	3a51                	jal	996 <sc_printf>
    1004:	8681af83          	lw	t6,-1944(gp) # 3428 <Next_Ptr_Glob>
    1008:	ad890513          	addi	a0,s2,-1320
    100c:	010f8593          	addi	a1,t6,16
    1010:	3259                	jal	996 <sc_printf>
    1012:	af448513          	addi	a0,s1,-1292
    1016:	3241                	jal	996 <sc_printf>
    1018:	45e2                	lw	a1,24(sp)
    101a:	00003f37          	lui	t5,0x3
    101e:	b80f0513          	addi	a0,t5,-1152 # 2b80 <__clz_tab+0x464>
    1022:	3a95                	jal	996 <sc_printf>
    1024:	4595                	li	a1,5
    1026:	93840513          	addi	a0,s0,-1736
    102a:	32b5                	jal	996 <sc_printf>
    102c:	45f2                	lw	a1,28(sp)
    102e:	00003eb7          	lui	t4,0x3
    1032:	b9ce8513          	addi	a0,t4,-1124 # 2b9c <__clz_tab+0x480>
    1036:	961ff0ef          	jal	ra,996 <sc_printf>
    103a:	45b5                	li	a1,13
    103c:	93840513          	addi	a0,s0,-1736
    1040:	957ff0ef          	jal	ra,996 <sc_printf>
    1044:	459d                	li	a1,7
    1046:	bb8c0513          	addi	a0,s8,-1096 # 2bb8 <__clz_tab+0x49c>
    104a:	94dff0ef          	jal	ra,996 <sc_printf>
    104e:	459d                	li	a1,7
    1050:	93840513          	addi	a0,s0,-1736
    1054:	943ff0ef          	jal	ra,996 <sc_printf>
    1058:	85ee                	mv	a1,s11
    105a:	00003db7          	lui	s11,0x3
    105e:	bd4d8513          	addi	a0,s11,-1068 # 2bd4 <__clz_tab+0x4b8>
    1062:	935ff0ef          	jal	ra,996 <sc_printf>
    1066:	4585                	li	a1,1
    1068:	93840513          	addi	a0,s0,-1736
    106c:	92bff0ef          	jal	ra,996 <sc_printf>
    1070:	85de                	mv	a1,s7
    1072:	00003bb7          	lui	s7,0x3
    1076:	bf0b8513          	addi	a0,s7,-1040 # 2bf0 <__clz_tab+0x4d4>
    107a:	91dff0ef          	jal	ra,996 <sc_printf>
    107e:	00003437          	lui	s0,0x3
    1082:	c0c40513          	addi	a0,s0,-1012 # 2c0c <__clz_tab+0x4f0>
    1086:	911ff0ef          	jal	ra,996 <sc_printf>
    108a:	85da                	mv	a1,s6
    108c:	00003b37          	lui	s6,0x3
    1090:	c44b0513          	addi	a0,s6,-956 # 2c44 <__clz_tab+0x528>
    1094:	903ff0ef          	jal	ra,996 <sc_printf>
    1098:	c60a8513          	addi	a0,s5,-928 # 2c60 <__clz_tab+0x544>
    109c:	8fbff0ef          	jal	ra,996 <sc_printf>
    10a0:	a24a0513          	addi	a0,s4,-1500 # 2a24 <__clz_tab+0x308>
    10a4:	8f3ff0ef          	jal	ra,996 <sc_printf>
    10a8:	688d                	lui	a7,0x3
    10aa:	40ccae03          	lw	t3,1036(s9)
    10ae:	4208a903          	lw	s2,1056(a7) # 3420 <Begin_Time>
    10b2:	660d                	lui	a2,0x3
    10b4:	4485                	li	s1,1
    10b6:	412e0833          	sub	a6,t3,s2
    10ba:	41062423          	sw	a6,1032(a2) # 3408 <User_Time>
    10be:	1904d863          	ble	a6,s1,124e <main+0x78a>
    10c2:	49c2                	lw	s3,16(sp)
    10c4:	000f40b7          	lui	ra,0xf4
    10c8:	24008613          	addi	a2,ra,576 # f4240 <__C_STACK_TOP__+0xe4240>
    10cc:	02c983b3          	mul	t2,s3,a2
    10d0:	00003537          	lui	a0,0x3
    10d4:	6c0d                	lui	s8,0x3
    10d6:	6d8d                	lui	s11,0x3
    10d8:	85ce                	mv	a1,s3
    10da:	cf050513          	addi	a0,a0,-784 # 2cf0 <__clz_tab+0x5d4>
    10de:	03384d33          	div	s10,a6,s3
    10e2:	0303c7b3          	div	a5,t2,a6
    10e6:	41ac2223          	sw	s10,1028(s8) # 3404 <Microseconds>
    10ea:	40fda023          	sw	a5,1024(s11) # 3400 <__BSS_START__>
    10ee:	8a9ff0ef          	jal	ra,996 <sc_printf>
    10f2:	630d                	lui	t1,0x3
    10f4:	40cca603          	lw	a2,1036(s9)
    10f8:	6c8d                	lui	s9,0x3
    10fa:	40832683          	lw	a3,1032(t1) # 3408 <User_Time>
    10fe:	420ca583          	lw	a1,1056(s9) # 3420 <Begin_Time>
    1102:	000032b7          	lui	t0,0x3
    1106:	d1028513          	addi	a0,t0,-752 # 2d10 <__clz_tab+0x5f4>
    110a:	88dff0ef          	jal	ra,996 <sc_printf>
    110e:	404c2583          	lw	a1,1028(s8)
    1112:	000036b7          	lui	a3,0x3
    1116:	d3868513          	addi	a0,a3,-712 # 2d38 <__clz_tab+0x61c>
    111a:	87dff0ef          	jal	ra,996 <sc_printf>
    111e:	400da583          	lw	a1,1024(s11)
    1122:	00003737          	lui	a4,0x3
    1126:	d6c70513          	addi	a0,a4,-660 # 2d6c <__clz_tab+0x650>
    112a:	86dff0ef          	jal	ra,996 <sc_printf>
    112e:	50fa                	lw	ra,188(sp)
    1130:	546a                	lw	s0,184(sp)
    1132:	54da                	lw	s1,180(sp)
    1134:	594a                	lw	s2,176(sp)
    1136:	59ba                	lw	s3,172(sp)
    1138:	5a2a                	lw	s4,168(sp)
    113a:	5a9a                	lw	s5,164(sp)
    113c:	5b0a                	lw	s6,160(sp)
    113e:	4bfa                	lw	s7,156(sp)
    1140:	4c6a                	lw	s8,152(sp)
    1142:	4cda                	lw	s9,148(sp)
    1144:	4d4a                	lw	s10,144(sp)
    1146:	4dba                	lw	s11,140(sp)
    1148:	4501                	li	a0,0
    114a:	6129                	addi	sp,sp,192
    114c:	8082                	ret
    114e:	4305                	li	t1,1
    1150:	05900713          	li	a4,89
    1154:	b685                	j	cb4 <main+0x1f0>
    1156:	0087a083          	lw	ra,8(a5)
    115a:	4599                	li	a1,6
    115c:	00bda623          	sw	a1,12(s11)
    1160:	4609                	li	a2,2
    1162:	0cc08c63          	beq	ra,a2,123a <main+0x776>
    1166:	0c008e63          	beqz	ra,1242 <main+0x77e>
    116a:	4411                	li	s0,4
    116c:	0c808e63          	beq	ra,s0,1248 <main+0x784>
    1170:	4f8d                	li	t6,3
    1172:	01fda423          	sw	t6,8(s11)
    1176:	439c                	lw	a5,0(a5)
    1178:	4ec9                	li	t4,18
    117a:	01dda623          	sw	t4,12(s11)
    117e:	00fda023          	sw	a5,0(s11)
    1182:	04100513          	li	a0,65
    1186:	6d8d                	lui	s11,0x3
    1188:	41cda403          	lw	s0,1052(s11) # 341c <Run_Index>
    118c:	974ff0ef          	jal	ra,300 <Func_1.constprop.1>
    1190:	4d85                	li	s11,1
    1192:	460d                	li	a2,3
    1194:	c5b51ce3          	bne	a0,s11,dec <main+0x328>
    1198:	00003e37          	lui	t3,0x3
    119c:	de0e0313          	addi	t1,t3,-544 # 2de0 <__clz_tab+0x6c4>
    11a0:	00c32503          	lw	a0,12(t1)
    11a4:	01432283          	lw	t0,20(t1)
    11a8:	00432883          	lw	a7,4(t1)
    11ac:	00832803          	lw	a6,8(t1)
    11b0:	01032383          	lw	t2,16(t1)
    11b4:	01832683          	lw	a3,24(t1)
    11b8:	01c35703          	lhu	a4,28(t1)
    11bc:	01e34083          	lbu	ra,30(t1)
    11c0:	55e2                	lw	a1,56(sp)
    11c2:	c6aa                	sw	a0,76(sp)
    11c4:	8622                	mv	a2,s0
    11c6:	04200513          	li	a0,66
    11ca:	ca96                	sw	t0,84(sp)
    11cc:	c0ae                	sw	a1,64(sp)
    11ce:	c2c6                	sw	a7,68(sp)
    11d0:	c4c2                	sw	a6,72(sp)
    11d2:	c89e                	sw	t2,80(sp)
    11d4:	ccb6                	sw	a3,88(sp)
    11d6:	04e11e23          	sh	a4,92(sp)
    11da:	04110f23          	sb	ra,94(sp)
    11de:	408a2823          	sw	s0,1040(s4)
    11e2:	c632                	sw	a2,12(sp)
    11e4:	4d81                	li	s11,0
    11e6:	91aff0ef          	jal	ra,300 <Func_1.constprop.1>
    11ea:	42b2                	lw	t0,12(sp)
    11ec:	c1b518e3          	bne	a0,s11,dfc <main+0x338>
    11f0:	00003fb7          	lui	t6,0x3
    11f4:	de0f8f13          	addi	t5,t6,-544 # 2de0 <__clz_tab+0x6c4>
    11f8:	008f2d83          	lw	s11,8(t5)
    11fc:	004f2e83          	lw	t4,4(t5)
    1200:	00cf2e03          	lw	t3,12(t5)
    1204:	010f2883          	lw	a7,16(t5)
    1208:	014f2803          	lw	a6,20(t5)
    120c:	018f2503          	lw	a0,24(t5)
    1210:	01cf5383          	lhu	t2,28(t5)
    1214:	01ef4783          	lbu	a5,30(t5)
    1218:	5372                	lw	t1,60(sp)
    121a:	c4ee                	sw	s11,72(sp)
    121c:	c2f6                	sw	t4,68(sp)
    121e:	c09a                	sw	t1,64(sp)
    1220:	c6f2                	sw	t3,76(sp)
    1222:	c8c6                	sw	a7,80(sp)
    1224:	cac2                	sw	a6,84(sp)
    1226:	ccaa                	sw	a0,88(sp)
    1228:	04711e23          	sh	t2,92(sp)
    122c:	04f10f23          	sb	a5,94(sp)
    1230:	82a2                	mv	t0,s0
    1232:	408a2823          	sw	s0,1040(s4)
    1236:	4d81                	li	s11,0
    1238:	b6d1                	j	dfc <main+0x338>
    123a:	4f05                	li	t5,1
    123c:	01eda423          	sw	t5,8(s11)
    1240:	bf1d                	j	1176 <main+0x6b2>
    1242:	000da423          	sw	zero,8(s11)
    1246:	bf05                	j	1176 <main+0x6b2>
    1248:	00cda423          	sw	a2,8(s11)
    124c:	b72d                	j	1176 <main+0x6b2>
    124e:	00003fb7          	lui	t6,0x3
    1252:	c98f8513          	addi	a0,t6,-872 # 2c98 <__clz_tab+0x57c>
    1256:	f40ff0ef          	jal	ra,996 <sc_printf>
    125a:	00003f37          	lui	t5,0x3
    125e:	cd0f0513          	addi	a0,t5,-816 # 2cd0 <__clz_tab+0x5b4>
    1262:	f34ff0ef          	jal	ra,996 <sc_printf>
    1266:	a24a0513          	addi	a0,s4,-1500
    126a:	f2cff0ef          	jal	ra,996 <sc_printf>
    126e:	b5c1                	j	112e <main+0x66a>
    1270:	6e0d                	lui	t3,0x3
    1272:	690d                	lui	s2,0x3
    1274:	ca72                	sw	t3,20(sp)
    1276:	04010b13          	addi	s6,sp,64
    127a:	06010b93          	addi	s7,sp,96
    127e:	6a0d                	lui	s4,0x3
    1280:	b6c1                	j	e40 <main+0x37c>
    1282:	86e18623          	sb	a4,-1940(gp) # 342c <Ch_1_Glob>
    1286:	bc3d                	j	cc4 <main+0x200>

00001288 <atoi>:
    1288:	00a00613          	li	a2,10
    128c:	00000593          	li	a1,0
    1290:	2300006f          	j	14c0 <strtol>

00001294 <_atoi_r>:
    1294:	00a00693          	li	a3,10
    1298:	00000613          	li	a2,0
    129c:	1ec0006f          	j	1488 <_strtol_r>

000012a0 <strnlen>:
    12a0:	00b505b3          	add	a1,a0,a1
    12a4:	00050793          	mv	a5,a0
    12a8:	00b78663          	beq	a5,a1,12b4 <strnlen+0x14>
    12ac:	0007c703          	lbu	a4,0(a5)
    12b0:	00071663          	bnez	a4,12bc <strnlen+0x1c>
    12b4:	40a78533          	sub	a0,a5,a0
    12b8:	00008067          	ret
    12bc:	00178793          	addi	a5,a5,1
    12c0:	fe9ff06f          	j	12a8 <strnlen+0x8>
    12c4:	0000                	unimp
	...

000012c8 <_strtol_l.isra.0>:
    12c8:	fd010113          	addi	sp,sp,-48
    12cc:	03212023          	sw	s2,32(sp)
    12d0:	01312e23          	sw	s3,28(sp)
    12d4:	02112623          	sw	ra,44(sp)
    12d8:	02812423          	sw	s0,40(sp)
    12dc:	02912223          	sw	s1,36(sp)
    12e0:	00050993          	mv	s3,a0
    12e4:	00058913          	mv	s2,a1
    12e8:	00190493          	addi	s1,s2,1 # 3001 <impure_data+0x1f1>
    12ec:	fff4c403          	lbu	s0,-1(s1)
    12f0:	00070513          	mv	a0,a4
    12f4:	00d12623          	sw	a3,12(sp)
    12f8:	00c12423          	sw	a2,8(sp)
    12fc:	00b12223          	sw	a1,4(sp)
    1300:	00e12023          	sw	a4,0(sp)
    1304:	27c000ef          	jal	ra,1580 <__locale_ctype_ptr_l>
    1308:	00850533          	add	a0,a0,s0
    130c:	00154783          	lbu	a5,1(a0)
    1310:	00012703          	lw	a4,0(sp)
    1314:	00412583          	lw	a1,4(sp)
    1318:	0087f793          	andi	a5,a5,8
    131c:	00812603          	lw	a2,8(sp)
    1320:	00c12683          	lw	a3,12(sp)
    1324:	0a079663          	bnez	a5,13d0 <_strtol_l.isra.0+0x108>
    1328:	02d00793          	li	a5,45
    132c:	0af41663          	bne	s0,a5,13d8 <_strtol_l.isra.0+0x110>
    1330:	0004c783          	lbu	a5,0(s1)
    1334:	00100313          	li	t1,1
    1338:	00290493          	addi	s1,s2,2
    133c:	12068e63          	beqz	a3,1478 <_strtol_l.isra.0+0x1b0>
    1340:	01000713          	li	a4,16
    1344:	02e69463          	bne	a3,a4,136c <_strtol_l.isra.0+0xa4>
    1348:	03000713          	li	a4,48
    134c:	02e79063          	bne	a5,a4,136c <_strtol_l.isra.0+0xa4>
    1350:	0004c783          	lbu	a5,0(s1)
    1354:	05800713          	li	a4,88
    1358:	0df7f793          	andi	a5,a5,223
    135c:	10e79663          	bne	a5,a4,1468 <_strtol_l.isra.0+0x1a0>
    1360:	0014c783          	lbu	a5,1(s1)
    1364:	01000693          	li	a3,16
    1368:	00248493          	addi	s1,s1,2
    136c:	800008b7          	lui	a7,0x80000
    1370:	00031463          	bnez	t1,1378 <_strtol_l.isra.0+0xb0>
    1374:	fff8c893          	not	a7,a7
    1378:	02d8ff33          	remu	t5,a7,a3
    137c:	00000813          	li	a6,0
    1380:	00000513          	li	a0,0
    1384:	00900f93          	li	t6,9
    1388:	01900e93          	li	t4,25
    138c:	fff00293          	li	t0,-1
    1390:	02d8de33          	divu	t3,a7,a3
    1394:	fd078713          	addi	a4,a5,-48
    1398:	06efe063          	bltu	t6,a4,13f8 <_strtol_l.isra.0+0x130>
    139c:	00070793          	mv	a5,a4
    13a0:	06d7dc63          	ble	a3,a5,1418 <_strtol_l.isra.0+0x150>
    13a4:	02580063          	beq	a6,t0,13c4 <_strtol_l.isra.0+0xfc>
    13a8:	fff00813          	li	a6,-1
    13ac:	00ae6c63          	bltu	t3,a0,13c4 <_strtol_l.isra.0+0xfc>
    13b0:	00ae1463          	bne	t3,a0,13b8 <_strtol_l.isra.0+0xf0>
    13b4:	00ff4863          	blt	t5,a5,13c4 <_strtol_l.isra.0+0xfc>
    13b8:	00100813          	li	a6,1
    13bc:	02a68533          	mul	a0,a3,a0
    13c0:	00a78533          	add	a0,a5,a0
    13c4:	00148493          	addi	s1,s1,1
    13c8:	fff4c783          	lbu	a5,-1(s1)
    13cc:	fc9ff06f          	j	1394 <_strtol_l.isra.0+0xcc>
    13d0:	00048913          	mv	s2,s1
    13d4:	f15ff06f          	j	12e8 <_strtol_l.isra.0+0x20>
    13d8:	02b00793          	li	a5,43
    13dc:	00f40863          	beq	s0,a5,13ec <_strtol_l.isra.0+0x124>
    13e0:	00040793          	mv	a5,s0
    13e4:	00000313          	li	t1,0
    13e8:	f55ff06f          	j	133c <_strtol_l.isra.0+0x74>
    13ec:	0004c783          	lbu	a5,0(s1)
    13f0:	00290493          	addi	s1,s2,2
    13f4:	ff1ff06f          	j	13e4 <_strtol_l.isra.0+0x11c>
    13f8:	fbf78713          	addi	a4,a5,-65
    13fc:	00eee663          	bltu	t4,a4,1408 <_strtol_l.isra.0+0x140>
    1400:	fc978793          	addi	a5,a5,-55
    1404:	f9dff06f          	j	13a0 <_strtol_l.isra.0+0xd8>
    1408:	f9f78713          	addi	a4,a5,-97
    140c:	00eee663          	bltu	t4,a4,1418 <_strtol_l.isra.0+0x150>
    1410:	fa978793          	addi	a5,a5,-87
    1414:	f8dff06f          	j	13a0 <_strtol_l.isra.0+0xd8>
    1418:	fff00793          	li	a5,-1
    141c:	02f81863          	bne	a6,a5,144c <_strtol_l.isra.0+0x184>
    1420:	02200793          	li	a5,34
    1424:	00f9a023          	sw	a5,0(s3)
    1428:	00088513          	mv	a0,a7
    142c:	02061863          	bnez	a2,145c <_strtol_l.isra.0+0x194>
    1430:	02c12083          	lw	ra,44(sp)
    1434:	02812403          	lw	s0,40(sp)
    1438:	02412483          	lw	s1,36(sp)
    143c:	02012903          	lw	s2,32(sp)
    1440:	01c12983          	lw	s3,28(sp)
    1444:	03010113          	addi	sp,sp,48
    1448:	00008067          	ret
    144c:	00030463          	beqz	t1,1454 <_strtol_l.isra.0+0x18c>
    1450:	40a00533          	neg	a0,a0
    1454:	fc060ee3          	beqz	a2,1430 <_strtol_l.isra.0+0x168>
    1458:	00080463          	beqz	a6,1460 <_strtol_l.isra.0+0x198>
    145c:	fff48593          	addi	a1,s1,-1
    1460:	00b62023          	sw	a1,0(a2)
    1464:	fcdff06f          	j	1430 <_strtol_l.isra.0+0x168>
    1468:	03000793          	li	a5,48
    146c:	f00690e3          	bnez	a3,136c <_strtol_l.isra.0+0xa4>
    1470:	00800693          	li	a3,8
    1474:	ef9ff06f          	j	136c <_strtol_l.isra.0+0xa4>
    1478:	03000713          	li	a4,48
    147c:	ece78ae3          	beq	a5,a4,1350 <_strtol_l.isra.0+0x88>
    1480:	00a00693          	li	a3,10
    1484:	ee9ff06f          	j	136c <_strtol_l.isra.0+0xa4>

00001488 <_strtol_r>:
    1488:	000037b7          	lui	a5,0x3
    148c:	3c47a783          	lw	a5,964(a5) # 33c4 <_impure_ptr>
    1490:	0347a703          	lw	a4,52(a5)
    1494:	00071663          	bnez	a4,14a0 <_strtol_r+0x18>
    1498:	00003737          	lui	a4,0x3
    149c:	23870713          	addi	a4,a4,568 # 3238 <__global_locale>
    14a0:	e29ff06f          	j	12c8 <_strtol_l.isra.0>

000014a4 <strtol_l>:
    14a4:	000037b7          	lui	a5,0x3
    14a8:	00068713          	mv	a4,a3
    14ac:	00060693          	mv	a3,a2
    14b0:	00058613          	mv	a2,a1
    14b4:	00050593          	mv	a1,a0
    14b8:	3c47a503          	lw	a0,964(a5) # 33c4 <_impure_ptr>
    14bc:	e0dff06f          	j	12c8 <_strtol_l.isra.0>

000014c0 <strtol>:
    14c0:	000037b7          	lui	a5,0x3
    14c4:	3c47a783          	lw	a5,964(a5) # 33c4 <_impure_ptr>
    14c8:	00060693          	mv	a3,a2
    14cc:	0347a703          	lw	a4,52(a5)
    14d0:	00071663          	bnez	a4,14dc <strtol+0x1c>
    14d4:	00003737          	lui	a4,0x3
    14d8:	23870713          	addi	a4,a4,568 # 3238 <__global_locale>
    14dc:	00058613          	mv	a2,a1
    14e0:	00050593          	mv	a1,a0
    14e4:	00078513          	mv	a0,a5
    14e8:	de1ff06f          	j	12c8 <_strtol_l.isra.0>

000014ec <_setlocale_r>:
    14ec:	ff010113          	addi	sp,sp,-16
    14f0:	00912223          	sw	s1,4(sp)
    14f4:	00112623          	sw	ra,12(sp)
    14f8:	00812423          	sw	s0,8(sp)
    14fc:	000034b7          	lui	s1,0x3
    1500:	04060263          	beqz	a2,1544 <_setlocale_r+0x58>
    1504:	000035b7          	lui	a1,0x3
    1508:	e0458593          	addi	a1,a1,-508 # 2e04 <__clz_tab+0x6e8>
    150c:	00060513          	mv	a0,a2
    1510:	00060413          	mv	s0,a2
    1514:	128000ef          	jal	ra,163c <strcmp>
    1518:	02050663          	beqz	a0,1544 <_setlocale_r+0x58>
    151c:	e0048593          	addi	a1,s1,-512 # 2e00 <__clz_tab+0x6e4>
    1520:	00040513          	mv	a0,s0
    1524:	118000ef          	jal	ra,163c <strcmp>
    1528:	00050e63          	beqz	a0,1544 <_setlocale_r+0x58>
    152c:	000035b7          	lui	a1,0x3
    1530:	a8058593          	addi	a1,a1,-1408 # 2a80 <__clz_tab+0x364>
    1534:	00040513          	mv	a0,s0
    1538:	104000ef          	jal	ra,163c <strcmp>
    153c:	00000793          	li	a5,0
    1540:	00051463          	bnez	a0,1548 <_setlocale_r+0x5c>
    1544:	e0048793          	addi	a5,s1,-512
    1548:	00c12083          	lw	ra,12(sp)
    154c:	00812403          	lw	s0,8(sp)
    1550:	00412483          	lw	s1,4(sp)
    1554:	00078513          	mv	a0,a5
    1558:	01010113          	addi	sp,sp,16
    155c:	00008067          	ret

00001560 <__locale_mb_cur_max>:
    1560:	000037b7          	lui	a5,0x3
    1564:	3c47a783          	lw	a5,964(a5) # 33c4 <_impure_ptr>
    1568:	0347a783          	lw	a5,52(a5)
    156c:	00079663          	bnez	a5,1578 <__locale_mb_cur_max+0x18>
    1570:	000037b7          	lui	a5,0x3
    1574:	23878793          	addi	a5,a5,568 # 3238 <__global_locale>
    1578:	1287c503          	lbu	a0,296(a5)
    157c:	00008067          	ret

00001580 <__locale_ctype_ptr_l>:
    1580:	0ec52503          	lw	a0,236(a0)
    1584:	00008067          	ret

00001588 <__locale_ctype_ptr>:
    1588:	000037b7          	lui	a5,0x3
    158c:	3c47a783          	lw	a5,964(a5) # 33c4 <_impure_ptr>
    1590:	0347a783          	lw	a5,52(a5)
    1594:	00079663          	bnez	a5,15a0 <__locale_ctype_ptr+0x18>
    1598:	000037b7          	lui	a5,0x3
    159c:	23878793          	addi	a5,a5,568 # 3238 <__global_locale>
    15a0:	0ec7a503          	lw	a0,236(a5)
    15a4:	00008067          	ret

000015a8 <setlocale>:
    15a8:	000037b7          	lui	a5,0x3
    15ac:	00058613          	mv	a2,a1
    15b0:	00050593          	mv	a1,a0
    15b4:	3c47a503          	lw	a0,964(a5) # 33c4 <_impure_ptr>
    15b8:	f35ff06f          	j	14ec <_setlocale_r>
    15bc:	0000                	unimp
	...

000015c0 <_mbtowc_r>:
    15c0:	000037b7          	lui	a5,0x3
    15c4:	3c47a783          	lw	a5,964(a5) # 33c4 <_impure_ptr>
    15c8:	0347a783          	lw	a5,52(a5)
    15cc:	00079663          	bnez	a5,15d8 <_mbtowc_r+0x18>
    15d0:	000037b7          	lui	a5,0x3
    15d4:	23878793          	addi	a5,a5,568 # 3238 <__global_locale>
    15d8:	0e47a303          	lw	t1,228(a5)
    15dc:	00030067          	jr	t1

000015e0 <__ascii_mbtowc>:
    15e0:	02059a63          	bnez	a1,1614 <__ascii_mbtowc+0x34>
    15e4:	ff010113          	addi	sp,sp,-16
    15e8:	00c10593          	addi	a1,sp,12
    15ec:	00000513          	li	a0,0
    15f0:	00060e63          	beqz	a2,160c <__ascii_mbtowc+0x2c>
    15f4:	ffe00513          	li	a0,-2
    15f8:	00068a63          	beqz	a3,160c <__ascii_mbtowc+0x2c>
    15fc:	00064783          	lbu	a5,0(a2)
    1600:	00f5a023          	sw	a5,0(a1)
    1604:	00064503          	lbu	a0,0(a2)
    1608:	00a03533          	snez	a0,a0
    160c:	01010113          	addi	sp,sp,16
    1610:	00008067          	ret
    1614:	00000513          	li	a0,0
    1618:	02060063          	beqz	a2,1638 <__ascii_mbtowc+0x58>
    161c:	ffe00513          	li	a0,-2
    1620:	00068c63          	beqz	a3,1638 <__ascii_mbtowc+0x58>
    1624:	00064783          	lbu	a5,0(a2)
    1628:	00f5a023          	sw	a5,0(a1)
    162c:	00064503          	lbu	a0,0(a2)
    1630:	00a03533          	snez	a0,a0
    1634:	00008067          	ret
    1638:	00008067          	ret

0000163c <strcmp>:
    163c:	00b56733          	or	a4,a0,a1
    1640:	fff00393          	li	t2,-1
    1644:	00377713          	andi	a4,a4,3
    1648:	10071063          	bnez	a4,1748 <strcmp+0x10c>
    164c:	7f7f87b7          	lui	a5,0x7f7f8
    1650:	f7f78793          	addi	a5,a5,-129 # 7f7f7f7f <__C_STACK_TOP__+0x7f7e7f7f>
    1654:	00052603          	lw	a2,0(a0)
    1658:	0005a683          	lw	a3,0(a1)
    165c:	00f672b3          	and	t0,a2,a5
    1660:	00f66333          	or	t1,a2,a5
    1664:	00f282b3          	add	t0,t0,a5
    1668:	0062e2b3          	or	t0,t0,t1
    166c:	10729263          	bne	t0,t2,1770 <strcmp+0x134>
    1670:	08d61663          	bne	a2,a3,16fc <strcmp+0xc0>
    1674:	00452603          	lw	a2,4(a0)
    1678:	0045a683          	lw	a3,4(a1)
    167c:	00f672b3          	and	t0,a2,a5
    1680:	00f66333          	or	t1,a2,a5
    1684:	00f282b3          	add	t0,t0,a5
    1688:	0062e2b3          	or	t0,t0,t1
    168c:	0c729e63          	bne	t0,t2,1768 <strcmp+0x12c>
    1690:	06d61663          	bne	a2,a3,16fc <strcmp+0xc0>
    1694:	00852603          	lw	a2,8(a0)
    1698:	0085a683          	lw	a3,8(a1)
    169c:	00f672b3          	and	t0,a2,a5
    16a0:	00f66333          	or	t1,a2,a5
    16a4:	00f282b3          	add	t0,t0,a5
    16a8:	0062e2b3          	or	t0,t0,t1
    16ac:	0c729863          	bne	t0,t2,177c <strcmp+0x140>
    16b0:	04d61663          	bne	a2,a3,16fc <strcmp+0xc0>
    16b4:	00c52603          	lw	a2,12(a0)
    16b8:	00c5a683          	lw	a3,12(a1)
    16bc:	00f672b3          	and	t0,a2,a5
    16c0:	00f66333          	or	t1,a2,a5
    16c4:	00f282b3          	add	t0,t0,a5
    16c8:	0062e2b3          	or	t0,t0,t1
    16cc:	0c729263          	bne	t0,t2,1790 <strcmp+0x154>
    16d0:	02d61663          	bne	a2,a3,16fc <strcmp+0xc0>
    16d4:	01052603          	lw	a2,16(a0)
    16d8:	0105a683          	lw	a3,16(a1)
    16dc:	00f672b3          	and	t0,a2,a5
    16e0:	00f66333          	or	t1,a2,a5
    16e4:	00f282b3          	add	t0,t0,a5
    16e8:	0062e2b3          	or	t0,t0,t1
    16ec:	0a729c63          	bne	t0,t2,17a4 <strcmp+0x168>
    16f0:	01450513          	addi	a0,a0,20
    16f4:	01458593          	addi	a1,a1,20
    16f8:	f4d60ee3          	beq	a2,a3,1654 <strcmp+0x18>
    16fc:	01061713          	slli	a4,a2,0x10
    1700:	01069793          	slli	a5,a3,0x10
    1704:	00f71e63          	bne	a4,a5,1720 <strcmp+0xe4>
    1708:	01065713          	srli	a4,a2,0x10
    170c:	0106d793          	srli	a5,a3,0x10
    1710:	40f70533          	sub	a0,a4,a5
    1714:	0ff57593          	andi	a1,a0,255
    1718:	02059063          	bnez	a1,1738 <strcmp+0xfc>
    171c:	00008067          	ret
    1720:	01075713          	srli	a4,a4,0x10
    1724:	0107d793          	srli	a5,a5,0x10
    1728:	40f70533          	sub	a0,a4,a5
    172c:	0ff57593          	andi	a1,a0,255
    1730:	00059463          	bnez	a1,1738 <strcmp+0xfc>
    1734:	00008067          	ret
    1738:	0ff77713          	andi	a4,a4,255
    173c:	0ff7f793          	andi	a5,a5,255
    1740:	40f70533          	sub	a0,a4,a5
    1744:	00008067          	ret
    1748:	00054603          	lbu	a2,0(a0)
    174c:	0005c683          	lbu	a3,0(a1)
    1750:	00150513          	addi	a0,a0,1
    1754:	00158593          	addi	a1,a1,1
    1758:	00d61463          	bne	a2,a3,1760 <strcmp+0x124>
    175c:	fe0616e3          	bnez	a2,1748 <strcmp+0x10c>
    1760:	40d60533          	sub	a0,a2,a3
    1764:	00008067          	ret
    1768:	00450513          	addi	a0,a0,4
    176c:	00458593          	addi	a1,a1,4
    1770:	fcd61ce3          	bne	a2,a3,1748 <strcmp+0x10c>
    1774:	00000513          	li	a0,0
    1778:	00008067          	ret
    177c:	00850513          	addi	a0,a0,8
    1780:	00858593          	addi	a1,a1,8
    1784:	fcd612e3          	bne	a2,a3,1748 <strcmp+0x10c>
    1788:	00000513          	li	a0,0
    178c:	00008067          	ret
    1790:	00c50513          	addi	a0,a0,12
    1794:	00c58593          	addi	a1,a1,12
    1798:	fad618e3          	bne	a2,a3,1748 <strcmp+0x10c>
    179c:	00000513          	li	a0,0
    17a0:	00008067          	ret
    17a4:	01050513          	addi	a0,a0,16
    17a8:	01058593          	addi	a1,a1,16
    17ac:	f8d61ee3          	bne	a2,a3,1748 <strcmp+0x10c>
    17b0:	00000513          	li	a0,0
    17b4:	00008067          	ret

000017b8 <_wctomb_r>:
    17b8:	000037b7          	lui	a5,0x3
    17bc:	3c47a783          	lw	a5,964(a5) # 33c4 <_impure_ptr>
    17c0:	0347a783          	lw	a5,52(a5)
    17c4:	00079663          	bnez	a5,17d0 <_wctomb_r+0x18>
    17c8:	000037b7          	lui	a5,0x3
    17cc:	23878793          	addi	a5,a5,568 # 3238 <__global_locale>
    17d0:	0e07a303          	lw	t1,224(a5)
    17d4:	00030067          	jr	t1

000017d8 <__ascii_wctomb>:
    17d8:	02058463          	beqz	a1,1800 <__ascii_wctomb+0x28>
    17dc:	0ff00793          	li	a5,255
    17e0:	00c7fa63          	bleu	a2,a5,17f4 <__ascii_wctomb+0x1c>
    17e4:	08a00793          	li	a5,138
    17e8:	00f52023          	sw	a5,0(a0)
    17ec:	fff00513          	li	a0,-1
    17f0:	00008067          	ret
    17f4:	00c58023          	sb	a2,0(a1)
    17f8:	00100513          	li	a0,1
    17fc:	00008067          	ret
    1800:	00000513          	li	a0,0
    1804:	00008067          	ret

00001808 <__moddi3>:
    1808:	00000893          	li	a7,0
    180c:	0005dc63          	bgez	a1,1824 <__moddi3+0x1c>
    1810:	40a00533          	neg	a0,a0
    1814:	00a037b3          	snez	a5,a0
    1818:	40b005b3          	neg	a1,a1
    181c:	40f585b3          	sub	a1,a1,a5
    1820:	fff00893          	li	a7,-1
    1824:	0006da63          	bgez	a3,1838 <__moddi3+0x30>
    1828:	40c00633          	neg	a2,a2
    182c:	00c037b3          	snez	a5,a2
    1830:	40d006b3          	neg	a3,a3
    1834:	40f686b3          	sub	a3,a3,a5
    1838:	00060813          	mv	a6,a2
    183c:	00068313          	mv	t1,a3
    1840:	00050793          	mv	a5,a0
    1844:	00058713          	mv	a4,a1
    1848:	24069863          	bnez	a3,1a98 <__moddi3+0x290>
    184c:	000026b7          	lui	a3,0x2
    1850:	71c68693          	addi	a3,a3,1820 # 271c <__clz_tab>
    1854:	0ec5f863          	bleu	a2,a1,1944 <__moddi3+0x13c>
    1858:	00010e37          	lui	t3,0x10
    185c:	0dc67a63          	bleu	t3,a2,1930 <__moddi3+0x128>
    1860:	0ff00e13          	li	t3,255
    1864:	00ce7463          	bleu	a2,t3,186c <__moddi3+0x64>
    1868:	00800313          	li	t1,8
    186c:	00665e33          	srl	t3,a2,t1
    1870:	01c686b3          	add	a3,a3,t3
    1874:	0006ce03          	lbu	t3,0(a3)
    1878:	006e0e33          	add	t3,t3,t1
    187c:	02000313          	li	t1,32
    1880:	41c30333          	sub	t1,t1,t3
    1884:	00030c63          	beqz	t1,189c <__moddi3+0x94>
    1888:	006595b3          	sll	a1,a1,t1
    188c:	01c55e33          	srl	t3,a0,t3
    1890:	00661833          	sll	a6,a2,t1
    1894:	00be6733          	or	a4,t3,a1
    1898:	006517b3          	sll	a5,a0,t1
    189c:	01085593          	srli	a1,a6,0x10
    18a0:	02b77633          	remu	a2,a4,a1
    18a4:	01081513          	slli	a0,a6,0x10
    18a8:	01055513          	srli	a0,a0,0x10
    18ac:	0107d693          	srli	a3,a5,0x10
    18b0:	02b75733          	divu	a4,a4,a1
    18b4:	01061613          	slli	a2,a2,0x10
    18b8:	00d666b3          	or	a3,a2,a3
    18bc:	02e50733          	mul	a4,a0,a4
    18c0:	00e6fa63          	bleu	a4,a3,18d4 <__moddi3+0xcc>
    18c4:	010686b3          	add	a3,a3,a6
    18c8:	0106e663          	bltu	a3,a6,18d4 <__moddi3+0xcc>
    18cc:	00e6f463          	bleu	a4,a3,18d4 <__moddi3+0xcc>
    18d0:	010686b3          	add	a3,a3,a6
    18d4:	40e686b3          	sub	a3,a3,a4
    18d8:	02b6f733          	remu	a4,a3,a1
    18dc:	01079793          	slli	a5,a5,0x10
    18e0:	0107d793          	srli	a5,a5,0x10
    18e4:	02b6d6b3          	divu	a3,a3,a1
    18e8:	02d506b3          	mul	a3,a0,a3
    18ec:	01071513          	slli	a0,a4,0x10
    18f0:	00f567b3          	or	a5,a0,a5
    18f4:	00d7fa63          	bleu	a3,a5,1908 <__moddi3+0x100>
    18f8:	010787b3          	add	a5,a5,a6
    18fc:	0107e663          	bltu	a5,a6,1908 <__moddi3+0x100>
    1900:	00d7f463          	bleu	a3,a5,1908 <__moddi3+0x100>
    1904:	010787b3          	add	a5,a5,a6
    1908:	40d787b3          	sub	a5,a5,a3
    190c:	0067d533          	srl	a0,a5,t1
    1910:	00000593          	li	a1,0
    1914:	00088c63          	beqz	a7,192c <__moddi3+0x124>
    1918:	40a007b3          	neg	a5,a0
    191c:	00f03733          	snez	a4,a5
    1920:	40b005b3          	neg	a1,a1
    1924:	00078513          	mv	a0,a5
    1928:	40e585b3          	sub	a1,a1,a4
    192c:	00008067          	ret
    1930:	01000e37          	lui	t3,0x1000
    1934:	01000313          	li	t1,16
    1938:	f3c66ae3          	bltu	a2,t3,186c <__moddi3+0x64>
    193c:	01800313          	li	t1,24
    1940:	f2dff06f          	j	186c <__moddi3+0x64>
    1944:	00061663          	bnez	a2,1950 <__moddi3+0x148>
    1948:	00100813          	li	a6,1
    194c:	02685833          	divu	a6,a6,t1
    1950:	00010737          	lui	a4,0x10
    1954:	0ae87263          	bleu	a4,a6,19f8 <__moddi3+0x1f0>
    1958:	0ff00713          	li	a4,255
    195c:	01077463          	bleu	a6,a4,1964 <__moddi3+0x15c>
    1960:	00800313          	li	t1,8
    1964:	00685733          	srl	a4,a6,t1
    1968:	00e686b3          	add	a3,a3,a4
    196c:	0006ce03          	lbu	t3,0(a3)
    1970:	006e0e33          	add	t3,t3,t1
    1974:	02000313          	li	t1,32
    1978:	41c30333          	sub	t1,t1,t3
    197c:	08031863          	bnez	t1,1a0c <__moddi3+0x204>
    1980:	410585b3          	sub	a1,a1,a6
    1984:	01085693          	srli	a3,a6,0x10
    1988:	01081513          	slli	a0,a6,0x10
    198c:	01055513          	srli	a0,a0,0x10
    1990:	0107d613          	srli	a2,a5,0x10
    1994:	02d5f733          	remu	a4,a1,a3
    1998:	02d5d5b3          	divu	a1,a1,a3
    199c:	01071713          	slli	a4,a4,0x10
    19a0:	00c76733          	or	a4,a4,a2
    19a4:	02b505b3          	mul	a1,a0,a1
    19a8:	00b77a63          	bleu	a1,a4,19bc <__moddi3+0x1b4>
    19ac:	01070733          	add	a4,a4,a6
    19b0:	01076663          	bltu	a4,a6,19bc <__moddi3+0x1b4>
    19b4:	00b77463          	bleu	a1,a4,19bc <__moddi3+0x1b4>
    19b8:	01070733          	add	a4,a4,a6
    19bc:	40b705b3          	sub	a1,a4,a1
    19c0:	02d5f733          	remu	a4,a1,a3
    19c4:	01079793          	slli	a5,a5,0x10
    19c8:	0107d793          	srli	a5,a5,0x10
    19cc:	02d5d5b3          	divu	a1,a1,a3
    19d0:	02b505b3          	mul	a1,a0,a1
    19d4:	01071513          	slli	a0,a4,0x10
    19d8:	00f567b3          	or	a5,a0,a5
    19dc:	00b7fa63          	bleu	a1,a5,19f0 <__moddi3+0x1e8>
    19e0:	010787b3          	add	a5,a5,a6
    19e4:	0107e663          	bltu	a5,a6,19f0 <__moddi3+0x1e8>
    19e8:	00b7f463          	bleu	a1,a5,19f0 <__moddi3+0x1e8>
    19ec:	010787b3          	add	a5,a5,a6
    19f0:	40b787b3          	sub	a5,a5,a1
    19f4:	f19ff06f          	j	190c <__moddi3+0x104>
    19f8:	01000737          	lui	a4,0x1000
    19fc:	01000313          	li	t1,16
    1a00:	f6e862e3          	bltu	a6,a4,1964 <__moddi3+0x15c>
    1a04:	01800313          	li	t1,24
    1a08:	f5dff06f          	j	1964 <__moddi3+0x15c>
    1a0c:	00681833          	sll	a6,a6,t1
    1a10:	01c5deb3          	srl	t4,a1,t3
    1a14:	006517b3          	sll	a5,a0,t1
    1a18:	01c55e33          	srl	t3,a0,t3
    1a1c:	01085513          	srli	a0,a6,0x10
    1a20:	02aed6b3          	divu	a3,t4,a0
    1a24:	006595b3          	sll	a1,a1,t1
    1a28:	00be6e33          	or	t3,t3,a1
    1a2c:	01081593          	slli	a1,a6,0x10
    1a30:	0105d593          	srli	a1,a1,0x10
    1a34:	010e5613          	srli	a2,t3,0x10
    1a38:	02aef733          	remu	a4,t4,a0
    1a3c:	02d586b3          	mul	a3,a1,a3
    1a40:	01071713          	slli	a4,a4,0x10
    1a44:	00c76733          	or	a4,a4,a2
    1a48:	00d77a63          	bleu	a3,a4,1a5c <__moddi3+0x254>
    1a4c:	01070733          	add	a4,a4,a6
    1a50:	01076663          	bltu	a4,a6,1a5c <__moddi3+0x254>
    1a54:	00d77463          	bleu	a3,a4,1a5c <__moddi3+0x254>
    1a58:	01070733          	add	a4,a4,a6
    1a5c:	40d70633          	sub	a2,a4,a3
    1a60:	02a67733          	remu	a4,a2,a0
    1a64:	010e1e13          	slli	t3,t3,0x10
    1a68:	010e5e13          	srli	t3,t3,0x10
    1a6c:	02a65633          	divu	a2,a2,a0
    1a70:	01071713          	slli	a4,a4,0x10
    1a74:	02c58633          	mul	a2,a1,a2
    1a78:	01c765b3          	or	a1,a4,t3
    1a7c:	00c5fa63          	bleu	a2,a1,1a90 <__moddi3+0x288>
    1a80:	010585b3          	add	a1,a1,a6
    1a84:	0105e663          	bltu	a1,a6,1a90 <__moddi3+0x288>
    1a88:	00c5f463          	bleu	a2,a1,1a90 <__moddi3+0x288>
    1a8c:	010585b3          	add	a1,a1,a6
    1a90:	40c585b3          	sub	a1,a1,a2
    1a94:	ef1ff06f          	j	1984 <__moddi3+0x17c>
    1a98:	e6d5eee3          	bltu	a1,a3,1914 <__moddi3+0x10c>
    1a9c:	00010837          	lui	a6,0x10
    1aa0:	0506fc63          	bleu	a6,a3,1af8 <__moddi3+0x2f0>
    1aa4:	0ff00e93          	li	t4,255
    1aa8:	00deb833          	sltu	a6,t4,a3
    1aac:	00381813          	slli	a6,a6,0x3
    1ab0:	00002e37          	lui	t3,0x2
    1ab4:	71ce0e13          	addi	t3,t3,1820 # 271c <__clz_tab>
    1ab8:	0106d333          	srl	t1,a3,a6
    1abc:	01c30333          	add	t1,t1,t3
    1ac0:	00034e83          	lbu	t4,0(t1)
    1ac4:	02000e13          	li	t3,32
    1ac8:	010e8eb3          	add	t4,t4,a6
    1acc:	41de0e33          	sub	t3,t3,t4
    1ad0:	020e1e63          	bnez	t3,1b0c <__moddi3+0x304>
    1ad4:	00b6e463          	bltu	a3,a1,1adc <__moddi3+0x2d4>
    1ad8:	00c56a63          	bltu	a0,a2,1aec <__moddi3+0x2e4>
    1adc:	40c507b3          	sub	a5,a0,a2
    1ae0:	40d586b3          	sub	a3,a1,a3
    1ae4:	00f53533          	sltu	a0,a0,a5
    1ae8:	40a68733          	sub	a4,a3,a0
    1aec:	00078513          	mv	a0,a5
    1af0:	00070593          	mv	a1,a4
    1af4:	e21ff06f          	j	1914 <__moddi3+0x10c>
    1af8:	01000337          	lui	t1,0x1000
    1afc:	01000813          	li	a6,16
    1b00:	fa66e8e3          	bltu	a3,t1,1ab0 <__moddi3+0x2a8>
    1b04:	01800813          	li	a6,24
    1b08:	fa9ff06f          	j	1ab0 <__moddi3+0x2a8>
    1b0c:	01d65733          	srl	a4,a2,t4
    1b10:	01c696b3          	sll	a3,a3,t3
    1b14:	00d766b3          	or	a3,a4,a3
    1b18:	01d5d7b3          	srl	a5,a1,t4
    1b1c:	01d55733          	srl	a4,a0,t4
    1b20:	01c595b3          	sll	a1,a1,t3
    1b24:	00b76733          	or	a4,a4,a1
    1b28:	0106d593          	srli	a1,a3,0x10
    1b2c:	02b7f333          	remu	t1,a5,a1
    1b30:	01069f13          	slli	t5,a3,0x10
    1b34:	010f5f13          	srli	t5,t5,0x10
    1b38:	01075813          	srli	a6,a4,0x10
    1b3c:	01c61633          	sll	a2,a2,t3
    1b40:	01c51533          	sll	a0,a0,t3
    1b44:	02b7d7b3          	divu	a5,a5,a1
    1b48:	01031313          	slli	t1,t1,0x10
    1b4c:	01036833          	or	a6,t1,a6
    1b50:	02ff0fb3          	mul	t6,t5,a5
    1b54:	00078313          	mv	t1,a5
    1b58:	01f87e63          	bleu	t6,a6,1b74 <__moddi3+0x36c>
    1b5c:	00d80833          	add	a6,a6,a3
    1b60:	fff78313          	addi	t1,a5,-1
    1b64:	00d86863          	bltu	a6,a3,1b74 <__moddi3+0x36c>
    1b68:	01f87663          	bleu	t6,a6,1b74 <__moddi3+0x36c>
    1b6c:	ffe78313          	addi	t1,a5,-2
    1b70:	00d80833          	add	a6,a6,a3
    1b74:	41f80833          	sub	a6,a6,t6
    1b78:	02b87fb3          	remu	t6,a6,a1
    1b7c:	02b85833          	divu	a6,a6,a1
    1b80:	010f9f93          	slli	t6,t6,0x10
    1b84:	030f05b3          	mul	a1,t5,a6
    1b88:	01071f13          	slli	t5,a4,0x10
    1b8c:	010f5f13          	srli	t5,t5,0x10
    1b90:	01efef33          	or	t5,t6,t5
    1b94:	00080713          	mv	a4,a6
    1b98:	00bf7e63          	bleu	a1,t5,1bb4 <__moddi3+0x3ac>
    1b9c:	00df0f33          	add	t5,t5,a3
    1ba0:	fff80713          	addi	a4,a6,-1 # ffff <__BSS_END__+0xa37f>
    1ba4:	00df6863          	bltu	t5,a3,1bb4 <__moddi3+0x3ac>
    1ba8:	00bf7663          	bleu	a1,t5,1bb4 <__moddi3+0x3ac>
    1bac:	ffe80713          	addi	a4,a6,-2
    1bb0:	00df0f33          	add	t5,t5,a3
    1bb4:	01031313          	slli	t1,t1,0x10
    1bb8:	00010fb7          	lui	t6,0x10
    1bbc:	00e36333          	or	t1,t1,a4
    1bc0:	ffff8793          	addi	a5,t6,-1 # ffff <__BSS_END__+0xa37f>
    1bc4:	01065813          	srli	a6,a2,0x10
    1bc8:	40bf0f33          	sub	t5,t5,a1
    1bcc:	00f375b3          	and	a1,t1,a5
    1bd0:	01035313          	srli	t1,t1,0x10
    1bd4:	00f677b3          	and	a5,a2,a5
    1bd8:	02f58733          	mul	a4,a1,a5
    1bdc:	02f307b3          	mul	a5,t1,a5
    1be0:	030585b3          	mul	a1,a1,a6
    1be4:	03030333          	mul	t1,t1,a6
    1be8:	00f585b3          	add	a1,a1,a5
    1bec:	01075813          	srli	a6,a4,0x10
    1bf0:	00b80833          	add	a6,a6,a1
    1bf4:	00f87463          	bleu	a5,a6,1bfc <__moddi3+0x3f4>
    1bf8:	01f30333          	add	t1,t1,t6
    1bfc:	000107b7          	lui	a5,0x10
    1c00:	fff78793          	addi	a5,a5,-1 # ffff <__BSS_END__+0xa37f>
    1c04:	01085593          	srli	a1,a6,0x10
    1c08:	00f87833          	and	a6,a6,a5
    1c0c:	01081813          	slli	a6,a6,0x10
    1c10:	00f77733          	and	a4,a4,a5
    1c14:	006585b3          	add	a1,a1,t1
    1c18:	00e80733          	add	a4,a6,a4
    1c1c:	00bf6663          	bltu	t5,a1,1c28 <__moddi3+0x420>
    1c20:	00bf1e63          	bne	t5,a1,1c3c <__moddi3+0x434>
    1c24:	00e57c63          	bleu	a4,a0,1c3c <__moddi3+0x434>
    1c28:	40c70633          	sub	a2,a4,a2
    1c2c:	00c73733          	sltu	a4,a4,a2
    1c30:	40d585b3          	sub	a1,a1,a3
    1c34:	40e585b3          	sub	a1,a1,a4
    1c38:	00060713          	mv	a4,a2
    1c3c:	40e50733          	sub	a4,a0,a4
    1c40:	00e53533          	sltu	a0,a0,a4
    1c44:	40bf05b3          	sub	a1,t5,a1
    1c48:	40a585b3          	sub	a1,a1,a0
    1c4c:	01d597b3          	sll	a5,a1,t4
    1c50:	01c75733          	srl	a4,a4,t3
    1c54:	00e7e533          	or	a0,a5,a4
    1c58:	01c5d5b3          	srl	a1,a1,t3
    1c5c:	cb9ff06f          	j	1914 <__moddi3+0x10c>
    1c60:	0000                	unimp
	...

00001c64 <__udivdi3>:
    1c64:	00058793          	mv	a5,a1
    1c68:	00060813          	mv	a6,a2
    1c6c:	00068893          	mv	a7,a3
    1c70:	00050313          	mv	t1,a0
    1c74:	28069663          	bnez	a3,1f00 <__udivdi3+0x29c>
    1c78:	00002737          	lui	a4,0x2
    1c7c:	71c70713          	addi	a4,a4,1820 # 271c <__clz_tab>
    1c80:	0ec5f663          	bleu	a2,a1,1d6c <__udivdi3+0x108>
    1c84:	000106b7          	lui	a3,0x10
    1c88:	0cd67863          	bleu	a3,a2,1d58 <__udivdi3+0xf4>
    1c8c:	0ff00693          	li	a3,255
    1c90:	00c6b6b3          	sltu	a3,a3,a2
    1c94:	00369693          	slli	a3,a3,0x3
    1c98:	00d658b3          	srl	a7,a2,a3
    1c9c:	01170733          	add	a4,a4,a7
    1ca0:	00074703          	lbu	a4,0(a4)
    1ca4:	00d706b3          	add	a3,a4,a3
    1ca8:	02000713          	li	a4,32
    1cac:	40d70733          	sub	a4,a4,a3
    1cb0:	00070c63          	beqz	a4,1cc8 <__udivdi3+0x64>
    1cb4:	00e797b3          	sll	a5,a5,a4
    1cb8:	00d556b3          	srl	a3,a0,a3
    1cbc:	00e61833          	sll	a6,a2,a4
    1cc0:	00f6e5b3          	or	a1,a3,a5
    1cc4:	00e51333          	sll	t1,a0,a4
    1cc8:	01085513          	srli	a0,a6,0x10
    1ccc:	02a5d7b3          	divu	a5,a1,a0
    1cd0:	01081613          	slli	a2,a6,0x10
    1cd4:	01065613          	srli	a2,a2,0x10
    1cd8:	01035693          	srli	a3,t1,0x10
    1cdc:	02a5f733          	remu	a4,a1,a0
    1ce0:	02f605b3          	mul	a1,a2,a5
    1ce4:	01071713          	slli	a4,a4,0x10
    1ce8:	00d766b3          	or	a3,a4,a3
    1cec:	00078713          	mv	a4,a5
    1cf0:	00b6fe63          	bleu	a1,a3,1d0c <__udivdi3+0xa8>
    1cf4:	010686b3          	add	a3,a3,a6
    1cf8:	fff78713          	addi	a4,a5,-1
    1cfc:	0106e863          	bltu	a3,a6,1d0c <__udivdi3+0xa8>
    1d00:	00b6f663          	bleu	a1,a3,1d0c <__udivdi3+0xa8>
    1d04:	ffe78713          	addi	a4,a5,-2
    1d08:	010686b3          	add	a3,a3,a6
    1d0c:	40b686b3          	sub	a3,a3,a1
    1d10:	02a6f7b3          	remu	a5,a3,a0
    1d14:	01031313          	slli	t1,t1,0x10
    1d18:	01035313          	srli	t1,t1,0x10
    1d1c:	02a6d6b3          	divu	a3,a3,a0
    1d20:	01079793          	slli	a5,a5,0x10
    1d24:	0067e333          	or	t1,a5,t1
    1d28:	02d605b3          	mul	a1,a2,a3
    1d2c:	00068513          	mv	a0,a3
    1d30:	00b37c63          	bleu	a1,t1,1d48 <__udivdi3+0xe4>
    1d34:	00680333          	add	t1,a6,t1
    1d38:	fff68513          	addi	a0,a3,-1 # ffff <__BSS_END__+0xa37f>
    1d3c:	01036663          	bltu	t1,a6,1d48 <__udivdi3+0xe4>
    1d40:	00b37463          	bleu	a1,t1,1d48 <__udivdi3+0xe4>
    1d44:	ffe68513          	addi	a0,a3,-2
    1d48:	01071713          	slli	a4,a4,0x10
    1d4c:	00a76733          	or	a4,a4,a0
    1d50:	00000593          	li	a1,0
    1d54:	0e40006f          	j	1e38 <__udivdi3+0x1d4>
    1d58:	010008b7          	lui	a7,0x1000
    1d5c:	01000693          	li	a3,16
    1d60:	f3166ce3          	bltu	a2,a7,1c98 <__udivdi3+0x34>
    1d64:	01800693          	li	a3,24
    1d68:	f31ff06f          	j	1c98 <__udivdi3+0x34>
    1d6c:	00061663          	bnez	a2,1d78 <__udivdi3+0x114>
    1d70:	00100693          	li	a3,1
    1d74:	02c6d833          	divu	a6,a3,a2
    1d78:	000106b7          	lui	a3,0x10
    1d7c:	0cd87263          	bleu	a3,a6,1e40 <__udivdi3+0x1dc>
    1d80:	0ff00693          	li	a3,255
    1d84:	0106f463          	bleu	a6,a3,1d8c <__udivdi3+0x128>
    1d88:	00800893          	li	a7,8
    1d8c:	011856b3          	srl	a3,a6,a7
    1d90:	00d70733          	add	a4,a4,a3
    1d94:	00074683          	lbu	a3,0(a4)
    1d98:	02000713          	li	a4,32
    1d9c:	011686b3          	add	a3,a3,a7
    1da0:	40d70733          	sub	a4,a4,a3
    1da4:	0a071863          	bnez	a4,1e54 <__udivdi3+0x1f0>
    1da8:	410787b3          	sub	a5,a5,a6
    1dac:	00100593          	li	a1,1
    1db0:	01085613          	srli	a2,a6,0x10
    1db4:	01081893          	slli	a7,a6,0x10
    1db8:	0108d893          	srli	a7,a7,0x10
    1dbc:	01035693          	srli	a3,t1,0x10
    1dc0:	02c7f733          	remu	a4,a5,a2
    1dc4:	02c7d7b3          	divu	a5,a5,a2
    1dc8:	01071713          	slli	a4,a4,0x10
    1dcc:	00d766b3          	or	a3,a4,a3
    1dd0:	02f88533          	mul	a0,a7,a5
    1dd4:	00078713          	mv	a4,a5
    1dd8:	00a6fe63          	bleu	a0,a3,1df4 <__udivdi3+0x190>
    1ddc:	010686b3          	add	a3,a3,a6
    1de0:	fff78713          	addi	a4,a5,-1
    1de4:	0106e863          	bltu	a3,a6,1df4 <__udivdi3+0x190>
    1de8:	00a6f663          	bleu	a0,a3,1df4 <__udivdi3+0x190>
    1dec:	ffe78713          	addi	a4,a5,-2
    1df0:	010686b3          	add	a3,a3,a6
    1df4:	40a686b3          	sub	a3,a3,a0
    1df8:	02c6f7b3          	remu	a5,a3,a2
    1dfc:	01031313          	slli	t1,t1,0x10
    1e00:	01035313          	srli	t1,t1,0x10
    1e04:	02c6d6b3          	divu	a3,a3,a2
    1e08:	01079793          	slli	a5,a5,0x10
    1e0c:	0067e333          	or	t1,a5,t1
    1e10:	02d888b3          	mul	a7,a7,a3
    1e14:	00068513          	mv	a0,a3
    1e18:	01137c63          	bleu	a7,t1,1e30 <__udivdi3+0x1cc>
    1e1c:	00680333          	add	t1,a6,t1
    1e20:	fff68513          	addi	a0,a3,-1 # ffff <__BSS_END__+0xa37f>
    1e24:	01036663          	bltu	t1,a6,1e30 <__udivdi3+0x1cc>
    1e28:	01137463          	bleu	a7,t1,1e30 <__udivdi3+0x1cc>
    1e2c:	ffe68513          	addi	a0,a3,-2
    1e30:	01071713          	slli	a4,a4,0x10
    1e34:	00a76733          	or	a4,a4,a0
    1e38:	00070513          	mv	a0,a4
    1e3c:	00008067          	ret
    1e40:	010006b7          	lui	a3,0x1000
    1e44:	01000893          	li	a7,16
    1e48:	f4d862e3          	bltu	a6,a3,1d8c <__udivdi3+0x128>
    1e4c:	01800893          	li	a7,24
    1e50:	f3dff06f          	j	1d8c <__udivdi3+0x128>
    1e54:	00e81833          	sll	a6,a6,a4
    1e58:	00d7d5b3          	srl	a1,a5,a3
    1e5c:	00e51333          	sll	t1,a0,a4
    1e60:	00d556b3          	srl	a3,a0,a3
    1e64:	01085513          	srli	a0,a6,0x10
    1e68:	00e797b3          	sll	a5,a5,a4
    1e6c:	02a5f733          	remu	a4,a1,a0
    1e70:	00f6e8b3          	or	a7,a3,a5
    1e74:	01081793          	slli	a5,a6,0x10
    1e78:	0107d793          	srli	a5,a5,0x10
    1e7c:	0108d613          	srli	a2,a7,0x10
    1e80:	02a5d5b3          	divu	a1,a1,a0
    1e84:	01071713          	slli	a4,a4,0x10
    1e88:	00c76733          	or	a4,a4,a2
    1e8c:	02b786b3          	mul	a3,a5,a1
    1e90:	00058613          	mv	a2,a1
    1e94:	00d77e63          	bleu	a3,a4,1eb0 <__udivdi3+0x24c>
    1e98:	01070733          	add	a4,a4,a6
    1e9c:	fff58613          	addi	a2,a1,-1
    1ea0:	01076863          	bltu	a4,a6,1eb0 <__udivdi3+0x24c>
    1ea4:	00d77663          	bleu	a3,a4,1eb0 <__udivdi3+0x24c>
    1ea8:	ffe58613          	addi	a2,a1,-2
    1eac:	01070733          	add	a4,a4,a6
    1eb0:	40d706b3          	sub	a3,a4,a3
    1eb4:	02a6f733          	remu	a4,a3,a0
    1eb8:	01089893          	slli	a7,a7,0x10
    1ebc:	0108d893          	srli	a7,a7,0x10
    1ec0:	02a6d6b3          	divu	a3,a3,a0
    1ec4:	01071713          	slli	a4,a4,0x10
    1ec8:	02d785b3          	mul	a1,a5,a3
    1ecc:	011767b3          	or	a5,a4,a7
    1ed0:	00068713          	mv	a4,a3
    1ed4:	00b7fe63          	bleu	a1,a5,1ef0 <__udivdi3+0x28c>
    1ed8:	010787b3          	add	a5,a5,a6
    1edc:	fff68713          	addi	a4,a3,-1 # ffffff <__C_STACK_TOP__+0xfeffff>
    1ee0:	0107e863          	bltu	a5,a6,1ef0 <__udivdi3+0x28c>
    1ee4:	00b7f663          	bleu	a1,a5,1ef0 <__udivdi3+0x28c>
    1ee8:	ffe68713          	addi	a4,a3,-2
    1eec:	010787b3          	add	a5,a5,a6
    1ef0:	40b787b3          	sub	a5,a5,a1
    1ef4:	01061593          	slli	a1,a2,0x10
    1ef8:	00e5e5b3          	or	a1,a1,a4
    1efc:	eb5ff06f          	j	1db0 <__udivdi3+0x14c>
    1f00:	18d5e663          	bltu	a1,a3,208c <__udivdi3+0x428>
    1f04:	00010737          	lui	a4,0x10
    1f08:	04e6f463          	bleu	a4,a3,1f50 <__udivdi3+0x2ec>
    1f0c:	0ff00813          	li	a6,255
    1f10:	00d83733          	sltu	a4,a6,a3
    1f14:	00371713          	slli	a4,a4,0x3
    1f18:	00002837          	lui	a6,0x2
    1f1c:	71c80813          	addi	a6,a6,1820 # 271c <__clz_tab>
    1f20:	00e6d5b3          	srl	a1,a3,a4
    1f24:	010585b3          	add	a1,a1,a6
    1f28:	0005c803          	lbu	a6,0(a1)
    1f2c:	02000593          	li	a1,32
    1f30:	00e80833          	add	a6,a6,a4
    1f34:	410585b3          	sub	a1,a1,a6
    1f38:	02059663          	bnez	a1,1f64 <__udivdi3+0x300>
    1f3c:	00100713          	li	a4,1
    1f40:	eef6ece3          	bltu	a3,a5,1e38 <__udivdi3+0x1d4>
    1f44:	00c53533          	sltu	a0,a0,a2
    1f48:	00154713          	xori	a4,a0,1
    1f4c:	eedff06f          	j	1e38 <__udivdi3+0x1d4>
    1f50:	010005b7          	lui	a1,0x1000
    1f54:	01000713          	li	a4,16
    1f58:	fcb6e0e3          	bltu	a3,a1,1f18 <__udivdi3+0x2b4>
    1f5c:	01800713          	li	a4,24
    1f60:	fb9ff06f          	j	1f18 <__udivdi3+0x2b4>
    1f64:	01065733          	srl	a4,a2,a6
    1f68:	00b696b3          	sll	a3,a3,a1
    1f6c:	00d766b3          	or	a3,a4,a3
    1f70:	0106de93          	srli	t4,a3,0x10
    1f74:	0107d733          	srl	a4,a5,a6
    1f78:	03d778b3          	remu	a7,a4,t4
    1f7c:	00b797b3          	sll	a5,a5,a1
    1f80:	01055833          	srl	a6,a0,a6
    1f84:	00f86333          	or	t1,a6,a5
    1f88:	01069793          	slli	a5,a3,0x10
    1f8c:	0107d793          	srli	a5,a5,0x10
    1f90:	01035813          	srli	a6,t1,0x10
    1f94:	00b61633          	sll	a2,a2,a1
    1f98:	03d75733          	divu	a4,a4,t4
    1f9c:	01089893          	slli	a7,a7,0x10
    1fa0:	0108e833          	or	a6,a7,a6
    1fa4:	02e78f33          	mul	t5,a5,a4
    1fa8:	00070e13          	mv	t3,a4
    1fac:	01e87e63          	bleu	t5,a6,1fc8 <__udivdi3+0x364>
    1fb0:	00d80833          	add	a6,a6,a3
    1fb4:	fff70e13          	addi	t3,a4,-1 # ffff <__BSS_END__+0xa37f>
    1fb8:	00d86863          	bltu	a6,a3,1fc8 <__udivdi3+0x364>
    1fbc:	01e87663          	bleu	t5,a6,1fc8 <__udivdi3+0x364>
    1fc0:	ffe70e13          	addi	t3,a4,-2
    1fc4:	00d80833          	add	a6,a6,a3
    1fc8:	41e80833          	sub	a6,a6,t5
    1fcc:	03d878b3          	remu	a7,a6,t4
    1fd0:	03d85833          	divu	a6,a6,t4
    1fd4:	01089893          	slli	a7,a7,0x10
    1fd8:	03078eb3          	mul	t4,a5,a6
    1fdc:	01031793          	slli	a5,t1,0x10
    1fe0:	0107d793          	srli	a5,a5,0x10
    1fe4:	00f8e7b3          	or	a5,a7,a5
    1fe8:	00080713          	mv	a4,a6
    1fec:	01d7fe63          	bleu	t4,a5,2008 <__udivdi3+0x3a4>
    1ff0:	00d787b3          	add	a5,a5,a3
    1ff4:	fff80713          	addi	a4,a6,-1
    1ff8:	00d7e863          	bltu	a5,a3,2008 <__udivdi3+0x3a4>
    1ffc:	01d7f663          	bleu	t4,a5,2008 <__udivdi3+0x3a4>
    2000:	ffe80713          	addi	a4,a6,-2
    2004:	00d787b3          	add	a5,a5,a3
    2008:	010e1e13          	slli	t3,t3,0x10
    200c:	41d787b3          	sub	a5,a5,t4
    2010:	00010eb7          	lui	t4,0x10
    2014:	00ee6733          	or	a4,t3,a4
    2018:	fffe8813          	addi	a6,t4,-1 # ffff <__BSS_END__+0xa37f>
    201c:	01077333          	and	t1,a4,a6
    2020:	01075893          	srli	a7,a4,0x10
    2024:	01067833          	and	a6,a2,a6
    2028:	01065613          	srli	a2,a2,0x10
    202c:	03030e33          	mul	t3,t1,a6
    2030:	03088833          	mul	a6,a7,a6
    2034:	010e5693          	srli	a3,t3,0x10
    2038:	02c30333          	mul	t1,t1,a2
    203c:	01030333          	add	t1,t1,a6
    2040:	006686b3          	add	a3,a3,t1
    2044:	02c888b3          	mul	a7,a7,a2
    2048:	0106f463          	bleu	a6,a3,2050 <__udivdi3+0x3ec>
    204c:	01d888b3          	add	a7,a7,t4
    2050:	0106d613          	srli	a2,a3,0x10
    2054:	011608b3          	add	a7,a2,a7
    2058:	0317e663          	bltu	a5,a7,2084 <__udivdi3+0x420>
    205c:	cf179ae3          	bne	a5,a7,1d50 <__udivdi3+0xec>
    2060:	000107b7          	lui	a5,0x10
    2064:	fff78793          	addi	a5,a5,-1 # ffff <__BSS_END__+0xa37f>
    2068:	00f6f6b3          	and	a3,a3,a5
    206c:	01069693          	slli	a3,a3,0x10
    2070:	00fe7e33          	and	t3,t3,a5
    2074:	00b51533          	sll	a0,a0,a1
    2078:	01c686b3          	add	a3,a3,t3
    207c:	00000593          	li	a1,0
    2080:	dad57ce3          	bleu	a3,a0,1e38 <__udivdi3+0x1d4>
    2084:	fff70713          	addi	a4,a4,-1
    2088:	cc9ff06f          	j	1d50 <__udivdi3+0xec>
    208c:	00000593          	li	a1,0
    2090:	00000713          	li	a4,0
    2094:	da5ff06f          	j	1e38 <__udivdi3+0x1d4>
    2098:	0000                	unimp
	...

0000209c <__umoddi3>:
    209c:	00060893          	mv	a7,a2
    20a0:	00068713          	mv	a4,a3
    20a4:	00050793          	mv	a5,a0
    20a8:	00058813          	mv	a6,a1
    20ac:	22069c63          	bnez	a3,22e4 <__umoddi3+0x248>
    20b0:	000026b7          	lui	a3,0x2
    20b4:	71c68693          	addi	a3,a3,1820 # 271c <__clz_tab>
    20b8:	0cc5fc63          	bleu	a2,a1,2190 <__umoddi3+0xf4>
    20bc:	00010337          	lui	t1,0x10
    20c0:	0a667e63          	bleu	t1,a2,217c <__umoddi3+0xe0>
    20c4:	0ff00313          	li	t1,255
    20c8:	00c37463          	bleu	a2,t1,20d0 <__umoddi3+0x34>
    20cc:	00800713          	li	a4,8
    20d0:	00e65333          	srl	t1,a2,a4
    20d4:	006686b3          	add	a3,a3,t1
    20d8:	0006ce03          	lbu	t3,0(a3)
    20dc:	02000313          	li	t1,32
    20e0:	00ee0e33          	add	t3,t3,a4
    20e4:	41c30333          	sub	t1,t1,t3
    20e8:	00030c63          	beqz	t1,2100 <__umoddi3+0x64>
    20ec:	006595b3          	sll	a1,a1,t1
    20f0:	01c55e33          	srl	t3,a0,t3
    20f4:	006618b3          	sll	a7,a2,t1
    20f8:	00be6833          	or	a6,t3,a1
    20fc:	006517b3          	sll	a5,a0,t1
    2100:	0108d613          	srli	a2,a7,0x10
    2104:	02c87733          	remu	a4,a6,a2
    2108:	01089513          	slli	a0,a7,0x10
    210c:	01055513          	srli	a0,a0,0x10
    2110:	0107d693          	srli	a3,a5,0x10
    2114:	02c85833          	divu	a6,a6,a2
    2118:	01071713          	slli	a4,a4,0x10
    211c:	00d766b3          	or	a3,a4,a3
    2120:	03050833          	mul	a6,a0,a6
    2124:	0106fa63          	bleu	a6,a3,2138 <__umoddi3+0x9c>
    2128:	011686b3          	add	a3,a3,a7
    212c:	0116e663          	bltu	a3,a7,2138 <__umoddi3+0x9c>
    2130:	0106f463          	bleu	a6,a3,2138 <__umoddi3+0x9c>
    2134:	011686b3          	add	a3,a3,a7
    2138:	410686b3          	sub	a3,a3,a6
    213c:	02c6f733          	remu	a4,a3,a2
    2140:	01079793          	slli	a5,a5,0x10
    2144:	0107d793          	srli	a5,a5,0x10
    2148:	02c6d6b3          	divu	a3,a3,a2
    214c:	02d506b3          	mul	a3,a0,a3
    2150:	01071513          	slli	a0,a4,0x10
    2154:	00f567b3          	or	a5,a0,a5
    2158:	00d7fa63          	bleu	a3,a5,216c <__umoddi3+0xd0>
    215c:	011787b3          	add	a5,a5,a7
    2160:	0117e663          	bltu	a5,a7,216c <__umoddi3+0xd0>
    2164:	00d7f463          	bleu	a3,a5,216c <__umoddi3+0xd0>
    2168:	011787b3          	add	a5,a5,a7
    216c:	40d787b3          	sub	a5,a5,a3
    2170:	0067d533          	srl	a0,a5,t1
    2174:	00000593          	li	a1,0
    2178:	00008067          	ret
    217c:	01000337          	lui	t1,0x1000
    2180:	01000713          	li	a4,16
    2184:	f46666e3          	bltu	a2,t1,20d0 <__umoddi3+0x34>
    2188:	01800713          	li	a4,24
    218c:	f45ff06f          	j	20d0 <__umoddi3+0x34>
    2190:	00061663          	bnez	a2,219c <__umoddi3+0x100>
    2194:	00100613          	li	a2,1
    2198:	031658b3          	divu	a7,a2,a7
    219c:	00010637          	lui	a2,0x10
    21a0:	0ac8f263          	bleu	a2,a7,2244 <__umoddi3+0x1a8>
    21a4:	0ff00613          	li	a2,255
    21a8:	01167463          	bleu	a7,a2,21b0 <__umoddi3+0x114>
    21ac:	00800713          	li	a4,8
    21b0:	00e8d633          	srl	a2,a7,a4
    21b4:	00c686b3          	add	a3,a3,a2
    21b8:	0006ce03          	lbu	t3,0(a3)
    21bc:	02000313          	li	t1,32
    21c0:	00ee0e33          	add	t3,t3,a4
    21c4:	41c30333          	sub	t1,t1,t3
    21c8:	08031863          	bnez	t1,2258 <__umoddi3+0x1bc>
    21cc:	411585b3          	sub	a1,a1,a7
    21d0:	0108d713          	srli	a4,a7,0x10
    21d4:	01089513          	slli	a0,a7,0x10
    21d8:	01055513          	srli	a0,a0,0x10
    21dc:	0107d613          	srli	a2,a5,0x10
    21e0:	02e5f6b3          	remu	a3,a1,a4
    21e4:	02e5d5b3          	divu	a1,a1,a4
    21e8:	01069693          	slli	a3,a3,0x10
    21ec:	00c6e6b3          	or	a3,a3,a2
    21f0:	02b505b3          	mul	a1,a0,a1
    21f4:	00b6fa63          	bleu	a1,a3,2208 <__umoddi3+0x16c>
    21f8:	011686b3          	add	a3,a3,a7
    21fc:	0116e663          	bltu	a3,a7,2208 <__umoddi3+0x16c>
    2200:	00b6f463          	bleu	a1,a3,2208 <__umoddi3+0x16c>
    2204:	011686b3          	add	a3,a3,a7
    2208:	40b685b3          	sub	a1,a3,a1
    220c:	02e5f6b3          	remu	a3,a1,a4
    2210:	01079793          	slli	a5,a5,0x10
    2214:	0107d793          	srli	a5,a5,0x10
    2218:	02e5d5b3          	divu	a1,a1,a4
    221c:	02b505b3          	mul	a1,a0,a1
    2220:	01069513          	slli	a0,a3,0x10
    2224:	00f567b3          	or	a5,a0,a5
    2228:	00b7fa63          	bleu	a1,a5,223c <__umoddi3+0x1a0>
    222c:	011787b3          	add	a5,a5,a7
    2230:	0117e663          	bltu	a5,a7,223c <__umoddi3+0x1a0>
    2234:	00b7f463          	bleu	a1,a5,223c <__umoddi3+0x1a0>
    2238:	011787b3          	add	a5,a5,a7
    223c:	40b787b3          	sub	a5,a5,a1
    2240:	f31ff06f          	j	2170 <__umoddi3+0xd4>
    2244:	01000637          	lui	a2,0x1000
    2248:	01000713          	li	a4,16
    224c:	f6c8e2e3          	bltu	a7,a2,21b0 <__umoddi3+0x114>
    2250:	01800713          	li	a4,24
    2254:	f5dff06f          	j	21b0 <__umoddi3+0x114>
    2258:	006898b3          	sll	a7,a7,t1
    225c:	01c5d733          	srl	a4,a1,t3
    2260:	006517b3          	sll	a5,a0,t1
    2264:	01c55e33          	srl	t3,a0,t3
    2268:	0108d513          	srli	a0,a7,0x10
    226c:	02a776b3          	remu	a3,a4,a0
    2270:	006595b3          	sll	a1,a1,t1
    2274:	00be6e33          	or	t3,t3,a1
    2278:	01089593          	slli	a1,a7,0x10
    227c:	0105d593          	srli	a1,a1,0x10
    2280:	010e5613          	srli	a2,t3,0x10
    2284:	02a75733          	divu	a4,a4,a0
    2288:	01069693          	slli	a3,a3,0x10
    228c:	00c6e6b3          	or	a3,a3,a2
    2290:	02e58733          	mul	a4,a1,a4
    2294:	00e6fa63          	bleu	a4,a3,22a8 <__umoddi3+0x20c>
    2298:	011686b3          	add	a3,a3,a7
    229c:	0116e663          	bltu	a3,a7,22a8 <__umoddi3+0x20c>
    22a0:	00e6f463          	bleu	a4,a3,22a8 <__umoddi3+0x20c>
    22a4:	011686b3          	add	a3,a3,a7
    22a8:	40e68633          	sub	a2,a3,a4
    22ac:	02a676b3          	remu	a3,a2,a0
    22b0:	010e1e13          	slli	t3,t3,0x10
    22b4:	010e5e13          	srli	t3,t3,0x10
    22b8:	02a65633          	divu	a2,a2,a0
    22bc:	01069693          	slli	a3,a3,0x10
    22c0:	02c58633          	mul	a2,a1,a2
    22c4:	01c6e5b3          	or	a1,a3,t3
    22c8:	00c5fa63          	bleu	a2,a1,22dc <__umoddi3+0x240>
    22cc:	011585b3          	add	a1,a1,a7
    22d0:	0115e663          	bltu	a1,a7,22dc <__umoddi3+0x240>
    22d4:	00c5f463          	bleu	a2,a1,22dc <__umoddi3+0x240>
    22d8:	011585b3          	add	a1,a1,a7
    22dc:	40c585b3          	sub	a1,a1,a2
    22e0:	ef1ff06f          	j	21d0 <__umoddi3+0x134>
    22e4:	e8d5eae3          	bltu	a1,a3,2178 <__umoddi3+0xdc>
    22e8:	00010737          	lui	a4,0x10
    22ec:	04e6fc63          	bleu	a4,a3,2344 <__umoddi3+0x2a8>
    22f0:	0ff00e93          	li	t4,255
    22f4:	00deb733          	sltu	a4,t4,a3
    22f8:	00371713          	slli	a4,a4,0x3
    22fc:	00002337          	lui	t1,0x2
    2300:	00e6d8b3          	srl	a7,a3,a4
    2304:	71c30313          	addi	t1,t1,1820 # 271c <__clz_tab>
    2308:	006888b3          	add	a7,a7,t1
    230c:	0008ce83          	lbu	t4,0(a7) # 1000000 <__C_STACK_TOP__+0xff0000>
    2310:	02000e13          	li	t3,32
    2314:	00ee8eb3          	add	t4,t4,a4
    2318:	41de0e33          	sub	t3,t3,t4
    231c:	020e1e63          	bnez	t3,2358 <__umoddi3+0x2bc>
    2320:	00b6e463          	bltu	a3,a1,2328 <__umoddi3+0x28c>
    2324:	00c56a63          	bltu	a0,a2,2338 <__umoddi3+0x29c>
    2328:	40c507b3          	sub	a5,a0,a2
    232c:	40d585b3          	sub	a1,a1,a3
    2330:	00f53533          	sltu	a0,a0,a5
    2334:	40a58833          	sub	a6,a1,a0
    2338:	00078513          	mv	a0,a5
    233c:	00080593          	mv	a1,a6
    2340:	e39ff06f          	j	2178 <__umoddi3+0xdc>
    2344:	010008b7          	lui	a7,0x1000
    2348:	01000713          	li	a4,16
    234c:	fb16e8e3          	bltu	a3,a7,22fc <__umoddi3+0x260>
    2350:	01800713          	li	a4,24
    2354:	fa9ff06f          	j	22fc <__umoddi3+0x260>
    2358:	01d65733          	srl	a4,a2,t4
    235c:	01c696b3          	sll	a3,a3,t3
    2360:	00d766b3          	or	a3,a4,a3
    2364:	01d557b3          	srl	a5,a0,t4
    2368:	01d5d733          	srl	a4,a1,t4
    236c:	01c595b3          	sll	a1,a1,t3
    2370:	00b7e7b3          	or	a5,a5,a1
    2374:	0106d593          	srli	a1,a3,0x10
    2378:	02b77333          	remu	t1,a4,a1
    237c:	01069f13          	slli	t5,a3,0x10
    2380:	010f5f13          	srli	t5,t5,0x10
    2384:	0107d893          	srli	a7,a5,0x10
    2388:	01c61633          	sll	a2,a2,t3
    238c:	01c51533          	sll	a0,a0,t3
    2390:	02b75733          	divu	a4,a4,a1
    2394:	01031313          	slli	t1,t1,0x10
    2398:	011368b3          	or	a7,t1,a7
    239c:	02ef0833          	mul	a6,t5,a4
    23a0:	00070313          	mv	t1,a4
    23a4:	0108fe63          	bleu	a6,a7,23c0 <__umoddi3+0x324>
    23a8:	00d888b3          	add	a7,a7,a3
    23ac:	fff70313          	addi	t1,a4,-1 # ffff <__BSS_END__+0xa37f>
    23b0:	00d8e863          	bltu	a7,a3,23c0 <__umoddi3+0x324>
    23b4:	0108f663          	bleu	a6,a7,23c0 <__umoddi3+0x324>
    23b8:	ffe70313          	addi	t1,a4,-2
    23bc:	00d888b3          	add	a7,a7,a3
    23c0:	410888b3          	sub	a7,a7,a6
    23c4:	02b8ffb3          	remu	t6,a7,a1
    23c8:	02b8d8b3          	divu	a7,a7,a1
    23cc:	010f9f93          	slli	t6,t6,0x10
    23d0:	031f05b3          	mul	a1,t5,a7
    23d4:	01079f13          	slli	t5,a5,0x10
    23d8:	010f5f13          	srli	t5,t5,0x10
    23dc:	01efef33          	or	t5,t6,t5
    23e0:	00088713          	mv	a4,a7
    23e4:	00bf7e63          	bleu	a1,t5,2400 <__umoddi3+0x364>
    23e8:	00df0f33          	add	t5,t5,a3
    23ec:	fff88713          	addi	a4,a7,-1 # ffffff <__C_STACK_TOP__+0xfeffff>
    23f0:	00df6863          	bltu	t5,a3,2400 <__umoddi3+0x364>
    23f4:	00bf7663          	bleu	a1,t5,2400 <__umoddi3+0x364>
    23f8:	ffe88713          	addi	a4,a7,-2
    23fc:	00df0f33          	add	t5,t5,a3
    2400:	01031313          	slli	t1,t1,0x10
    2404:	000108b7          	lui	a7,0x10
    2408:	00e36333          	or	t1,t1,a4
    240c:	fff88793          	addi	a5,a7,-1 # ffff <__BSS_END__+0xa37f>
    2410:	01065813          	srli	a6,a2,0x10
    2414:	40bf0f33          	sub	t5,t5,a1
    2418:	00f375b3          	and	a1,t1,a5
    241c:	01035313          	srli	t1,t1,0x10
    2420:	00f677b3          	and	a5,a2,a5
    2424:	02f58733          	mul	a4,a1,a5
    2428:	02f307b3          	mul	a5,t1,a5
    242c:	030585b3          	mul	a1,a1,a6
    2430:	03030333          	mul	t1,t1,a6
    2434:	00f585b3          	add	a1,a1,a5
    2438:	01075813          	srli	a6,a4,0x10
    243c:	00b80833          	add	a6,a6,a1
    2440:	00f87463          	bleu	a5,a6,2448 <__umoddi3+0x3ac>
    2444:	01130333          	add	t1,t1,a7
    2448:	000107b7          	lui	a5,0x10
    244c:	fff78793          	addi	a5,a5,-1 # ffff <__BSS_END__+0xa37f>
    2450:	01085593          	srli	a1,a6,0x10
    2454:	00f87833          	and	a6,a6,a5
    2458:	01081813          	slli	a6,a6,0x10
    245c:	00f77733          	and	a4,a4,a5
    2460:	006585b3          	add	a1,a1,t1
    2464:	00e80733          	add	a4,a6,a4
    2468:	00bf6663          	bltu	t5,a1,2474 <__umoddi3+0x3d8>
    246c:	00bf1e63          	bne	t5,a1,2488 <__umoddi3+0x3ec>
    2470:	00e57c63          	bleu	a4,a0,2488 <__umoddi3+0x3ec>
    2474:	40c70633          	sub	a2,a4,a2
    2478:	00c73733          	sltu	a4,a4,a2
    247c:	40d585b3          	sub	a1,a1,a3
    2480:	40e585b3          	sub	a1,a1,a4
    2484:	00060713          	mv	a4,a2
    2488:	40e50733          	sub	a4,a0,a4
    248c:	00e53533          	sltu	a0,a0,a4
    2490:	40bf05b3          	sub	a1,t5,a1
    2494:	40a585b3          	sub	a1,a1,a0
    2498:	01d597b3          	sll	a5,a1,t4
    249c:	01c75733          	srl	a4,a4,t3
    24a0:	00e7e533          	or	a0,a5,a4
    24a4:	01c5d5b3          	srl	a1,a1,t3
    24a8:	cd1ff06f          	j	2178 <__umoddi3+0xdc>
	...

Дизассемблирование раздела .rodata:

000024c0 <_ctype_-0x158>:
    24c0:	04f2                	slli	s1,s1,0x1c
    24c2:	0000                	unimp
    24c4:	0904                	addi	s1,sp,144
    24c6:	0000                	unimp
    24c8:	08d2                	slli	a7,a7,0x14
    24ca:	0000                	unimp
    24cc:	0904                	addi	s1,sp,144
    24ce:	0000                	unimp
    24d0:	0904                	addi	s1,sp,144
    24d2:	0000                	unimp
    24d4:	0904                	addi	s1,sp,144
    24d6:	0000                	unimp
    24d8:	0904                	addi	s1,sp,144
    24da:	0000                	unimp
    24dc:	08dc                	addi	a5,sp,84
    24de:	0000                	unimp
    24e0:	0904                	addi	s1,sp,144
    24e2:	0000                	unimp
    24e4:	0904                	addi	s1,sp,144
    24e6:	0000                	unimp
    24e8:	08e6                	slli	a7,a7,0x19
    24ea:	0000                	unimp
    24ec:	04ec                	addi	a1,sp,588
    24ee:	0000                	unimp
    24f0:	0904                	addi	s1,sp,144
    24f2:	0000                	unimp
    24f4:	0724                	addi	s1,sp,904
    24f6:	0000                	unimp
    24f8:	0760                	addi	s0,sp,908
    24fa:	0000                	unimp
    24fc:	0760                	addi	s0,sp,908
    24fe:	0000                	unimp
    2500:	0760                	addi	s0,sp,908
    2502:	0000                	unimp
    2504:	0760                	addi	s0,sp,908
    2506:	0000                	unimp
    2508:	0760                	addi	s0,sp,908
    250a:	0000                	unimp
    250c:	0760                	addi	s0,sp,908
    250e:	0000                	unimp
    2510:	0760                	addi	s0,sp,908
    2512:	0000                	unimp
    2514:	0760                	addi	s0,sp,908
    2516:	0000                	unimp
    2518:	0760                	addi	s0,sp,908
    251a:	0000                	unimp
    251c:	0904                	addi	s1,sp,144
    251e:	0000                	unimp
    2520:	0904                	addi	s1,sp,144
    2522:	0000                	unimp
    2524:	0904                	addi	s1,sp,144
    2526:	0000                	unimp
    2528:	0904                	addi	s1,sp,144
    252a:	0000                	unimp
    252c:	0904                	addi	s1,sp,144
    252e:	0000                	unimp
    2530:	0904                	addi	s1,sp,144
    2532:	0000                	unimp
    2534:	0904                	addi	s1,sp,144
    2536:	0000                	unimp
    2538:	0904                	addi	s1,sp,144
    253a:	0000                	unimp
    253c:	0904                	addi	s1,sp,144
    253e:	0000                	unimp
    2540:	0904                	addi	s1,sp,144
    2542:	0000                	unimp
    2544:	0904                	addi	s1,sp,144
    2546:	0000                	unimp
    2548:	0904                	addi	s1,sp,144
    254a:	0000                	unimp
    254c:	0904                	addi	s1,sp,144
    254e:	0000                	unimp
    2550:	0904                	addi	s1,sp,144
    2552:	0000                	unimp
    2554:	0904                	addi	s1,sp,144
    2556:	0000                	unimp
    2558:	0904                	addi	s1,sp,144
    255a:	0000                	unimp
    255c:	0904                	addi	s1,sp,144
    255e:	0000                	unimp
    2560:	0904                	addi	s1,sp,144
    2562:	0000                	unimp
    2564:	0904                	addi	s1,sp,144
    2566:	0000                	unimp
    2568:	0904                	addi	s1,sp,144
    256a:	0000                	unimp
    256c:	0904                	addi	s1,sp,144
    256e:	0000                	unimp
    2570:	0904                	addi	s1,sp,144
    2572:	0000                	unimp
    2574:	0904                	addi	s1,sp,144
    2576:	0000                	unimp
    2578:	0904                	addi	s1,sp,144
    257a:	0000                	unimp
    257c:	0904                	addi	s1,sp,144
    257e:	0000                	unimp
    2580:	0904                	addi	s1,sp,144
    2582:	0000                	unimp
    2584:	0904                	addi	s1,sp,144
    2586:	0000                	unimp
    2588:	0904                	addi	s1,sp,144
    258a:	0000                	unimp
    258c:	0904                	addi	s1,sp,144
    258e:	0000                	unimp
    2590:	0904                	addi	s1,sp,144
    2592:	0000                	unimp
    2594:	08ee                	slli	a7,a7,0x1b
    2596:	0000                	unimp
    2598:	0904                	addi	s1,sp,144
    259a:	0000                	unimp
    259c:	0904                	addi	s1,sp,144
    259e:	0000                	unimp
    25a0:	0904                	addi	s1,sp,144
    25a2:	0000                	unimp
    25a4:	0904                	addi	s1,sp,144
    25a6:	0000                	unimp
    25a8:	0904                	addi	s1,sp,144
    25aa:	0000                	unimp
    25ac:	0904                	addi	s1,sp,144
    25ae:	0000                	unimp
    25b0:	0904                	addi	s1,sp,144
    25b2:	0000                	unimp
    25b4:	0904                	addi	s1,sp,144
    25b6:	0000                	unimp
    25b8:	0904                	addi	s1,sp,144
    25ba:	0000                	unimp
    25bc:	0904                	addi	s1,sp,144
    25be:	0000                	unimp
    25c0:	08f8                	addi	a4,sp,92
    25c2:	0000                	unimp
    25c4:	0894                	addi	a3,sp,80
    25c6:	0000                	unimp
    25c8:	0904                	addi	s1,sp,144
    25ca:	0000                	unimp
    25cc:	0464                	addi	s1,sp,524
    25ce:	0000                	unimp
    25d0:	0904                	addi	s1,sp,144
    25d2:	0000                	unimp
    25d4:	0904                	addi	s1,sp,144
    25d6:	0000                	unimp
    25d8:	0904                	addi	s1,sp,144
    25da:	0000                	unimp
    25dc:	0904                	addi	s1,sp,144
    25de:	0000                	unimp
    25e0:	0904                	addi	s1,sp,144
    25e2:	0000                	unimp
    25e4:	08cc                	addi	a1,sp,84
    25e6:	0000                	unimp
    25e8:	0904                	addi	s1,sp,144
    25ea:	0000                	unimp
    25ec:	0904                	addi	s1,sp,144
    25ee:	0000                	unimp
    25f0:	0736                	slli	a4,a4,0xd
    25f2:	0000                	unimp
    25f4:	073a                	slli	a4,a4,0xe
    25f6:	0000                	unimp
    25f8:	0904                	addi	s1,sp,144
    25fa:	0000                	unimp
    25fc:	0904                	addi	s1,sp,144
    25fe:	0000                	unimp
    2600:	079e                	slli	a5,a5,0x7
    2602:	0000                	unimp
    2604:	0904                	addi	s1,sp,144
    2606:	0000                	unimp
    2608:	04f6                	slli	s1,s1,0x1d
    260a:	0000                	unimp
    260c:	0904                	addi	s1,sp,144
    260e:	0000                	unimp
    2610:	0904                	addi	s1,sp,144
    2612:	0000                	unimp
    2614:	072c                	addi	a1,sp,904
	...

00002618 <_ctype_>:
    2618:	2000                	fld	fs0,0(s0)
    261a:	2020                	fld	fs0,64(s0)
    261c:	2020                	fld	fs0,64(s0)
    261e:	2020                	fld	fs0,64(s0)
    2620:	2020                	fld	fs0,64(s0)
    2622:	2828                	fld	fa0,80(s0)
    2624:	2828                	fld	fa0,80(s0)
    2626:	2028                	fld	fa0,64(s0)
    2628:	2020                	fld	fs0,64(s0)
    262a:	2020                	fld	fs0,64(s0)
    262c:	2020                	fld	fs0,64(s0)
    262e:	2020                	fld	fs0,64(s0)
    2630:	2020                	fld	fs0,64(s0)
    2632:	2020                	fld	fs0,64(s0)
    2634:	2020                	fld	fs0,64(s0)
    2636:	2020                	fld	fs0,64(s0)
    2638:	8820                	0x8820
    263a:	1010                	addi	a2,sp,32
    263c:	1010                	addi	a2,sp,32
    263e:	1010                	addi	a2,sp,32
    2640:	1010                	addi	a2,sp,32
    2642:	1010                	addi	a2,sp,32
    2644:	1010                	addi	a2,sp,32
    2646:	1010                	addi	a2,sp,32
    2648:	0410                	addi	a2,sp,512
    264a:	0404                	addi	s1,sp,512
    264c:	0404                	addi	s1,sp,512
    264e:	0404                	addi	s1,sp,512
    2650:	0404                	addi	s1,sp,512
    2652:	1004                	addi	s1,sp,32
    2654:	1010                	addi	a2,sp,32
    2656:	1010                	addi	a2,sp,32
    2658:	1010                	addi	a2,sp,32
    265a:	4141                	li	sp,16
    265c:	4141                	li	sp,16
    265e:	4141                	li	sp,16
    2660:	0101                	addi	sp,sp,0
    2662:	0101                	addi	sp,sp,0
    2664:	0101                	addi	sp,sp,0
    2666:	0101                	addi	sp,sp,0
    2668:	0101                	addi	sp,sp,0
    266a:	0101                	addi	sp,sp,0
    266c:	0101                	addi	sp,sp,0
    266e:	0101                	addi	sp,sp,0
    2670:	0101                	addi	sp,sp,0
    2672:	0101                	addi	sp,sp,0
    2674:	1010                	addi	a2,sp,32
    2676:	1010                	addi	a2,sp,32
    2678:	1010                	addi	a2,sp,32
    267a:	4242                	lw	tp,16(sp)
    267c:	4242                	lw	tp,16(sp)
    267e:	4242                	lw	tp,16(sp)
    2680:	0202                	slli	tp,tp,0x0
    2682:	0202                	slli	tp,tp,0x0
    2684:	0202                	slli	tp,tp,0x0
    2686:	0202                	slli	tp,tp,0x0
    2688:	0202                	slli	tp,tp,0x0
    268a:	0202                	slli	tp,tp,0x0
    268c:	0202                	slli	tp,tp,0x0
    268e:	0202                	slli	tp,tp,0x0
    2690:	0202                	slli	tp,tp,0x0
    2692:	0202                	slli	tp,tp,0x0
    2694:	1010                	addi	a2,sp,32
    2696:	1010                	addi	a2,sp,32
    2698:	0020                	addi	s0,sp,8
	...

0000271c <__clz_tab>:
    271c:	0100                	addi	s0,sp,128
    271e:	0202                	slli	tp,tp,0x0
    2720:	03030303          	lb	t1,48(t1)
    2724:	0404                	addi	s1,sp,512
    2726:	0404                	addi	s1,sp,512
    2728:	0404                	addi	s1,sp,512
    272a:	0404                	addi	s1,sp,512
    272c:	0505                	addi	a0,a0,1
    272e:	0505                	addi	a0,a0,1
    2730:	0505                	addi	a0,a0,1
    2732:	0505                	addi	a0,a0,1
    2734:	0505                	addi	a0,a0,1
    2736:	0505                	addi	a0,a0,1
    2738:	0505                	addi	a0,a0,1
    273a:	0505                	addi	a0,a0,1
    273c:	0606                	slli	a2,a2,0x1
    273e:	0606                	slli	a2,a2,0x1
    2740:	0606                	slli	a2,a2,0x1
    2742:	0606                	slli	a2,a2,0x1
    2744:	0606                	slli	a2,a2,0x1
    2746:	0606                	slli	a2,a2,0x1
    2748:	0606                	slli	a2,a2,0x1
    274a:	0606                	slli	a2,a2,0x1
    274c:	0606                	slli	a2,a2,0x1
    274e:	0606                	slli	a2,a2,0x1
    2750:	0606                	slli	a2,a2,0x1
    2752:	0606                	slli	a2,a2,0x1
    2754:	0606                	slli	a2,a2,0x1
    2756:	0606                	slli	a2,a2,0x1
    2758:	0606                	slli	a2,a2,0x1
    275a:	0606                	slli	a2,a2,0x1
    275c:	07070707          	0x7070707
    2760:	07070707          	0x7070707
    2764:	07070707          	0x7070707
    2768:	07070707          	0x7070707
    276c:	07070707          	0x7070707
    2770:	07070707          	0x7070707
    2774:	07070707          	0x7070707
    2778:	07070707          	0x7070707
    277c:	07070707          	0x7070707
    2780:	07070707          	0x7070707
    2784:	07070707          	0x7070707
    2788:	07070707          	0x7070707
    278c:	07070707          	0x7070707
    2790:	07070707          	0x7070707
    2794:	07070707          	0x7070707
    2798:	07070707          	0x7070707
    279c:	0808                	addi	a0,sp,16
    279e:	0808                	addi	a0,sp,16
    27a0:	0808                	addi	a0,sp,16
    27a2:	0808                	addi	a0,sp,16
    27a4:	0808                	addi	a0,sp,16
    27a6:	0808                	addi	a0,sp,16
    27a8:	0808                	addi	a0,sp,16
    27aa:	0808                	addi	a0,sp,16
    27ac:	0808                	addi	a0,sp,16
    27ae:	0808                	addi	a0,sp,16
    27b0:	0808                	addi	a0,sp,16
    27b2:	0808                	addi	a0,sp,16
    27b4:	0808                	addi	a0,sp,16
    27b6:	0808                	addi	a0,sp,16
    27b8:	0808                	addi	a0,sp,16
    27ba:	0808                	addi	a0,sp,16
    27bc:	0808                	addi	a0,sp,16
    27be:	0808                	addi	a0,sp,16
    27c0:	0808                	addi	a0,sp,16
    27c2:	0808                	addi	a0,sp,16
    27c4:	0808                	addi	a0,sp,16
    27c6:	0808                	addi	a0,sp,16
    27c8:	0808                	addi	a0,sp,16
    27ca:	0808                	addi	a0,sp,16
    27cc:	0808                	addi	a0,sp,16
    27ce:	0808                	addi	a0,sp,16
    27d0:	0808                	addi	a0,sp,16
    27d2:	0808                	addi	a0,sp,16
    27d4:	0808                	addi	a0,sp,16
    27d6:	0808                	addi	a0,sp,16
    27d8:	0808                	addi	a0,sp,16
    27da:	0808                	addi	a0,sp,16
    27dc:	0808                	addi	a0,sp,16
    27de:	0808                	addi	a0,sp,16
    27e0:	0808                	addi	a0,sp,16
    27e2:	0808                	addi	a0,sp,16
    27e4:	0808                	addi	a0,sp,16
    27e6:	0808                	addi	a0,sp,16
    27e8:	0808                	addi	a0,sp,16
    27ea:	0808                	addi	a0,sp,16
    27ec:	0808                	addi	a0,sp,16
    27ee:	0808                	addi	a0,sp,16
    27f0:	0808                	addi	a0,sp,16
    27f2:	0808                	addi	a0,sp,16
    27f4:	0808                	addi	a0,sp,16
    27f6:	0808                	addi	a0,sp,16
    27f8:	0808                	addi	a0,sp,16
    27fa:	0808                	addi	a0,sp,16
    27fc:	0808                	addi	a0,sp,16
    27fe:	0808                	addi	a0,sp,16
    2800:	0808                	addi	a0,sp,16
    2802:	0808                	addi	a0,sp,16
    2804:	0808                	addi	a0,sp,16
    2806:	0808                	addi	a0,sp,16
    2808:	0808                	addi	a0,sp,16
    280a:	0808                	addi	a0,sp,16
    280c:	0808                	addi	a0,sp,16
    280e:	0808                	addi	a0,sp,16
    2810:	0808                	addi	a0,sp,16
    2812:	0808                	addi	a0,sp,16
    2814:	0808                	addi	a0,sp,16
    2816:	0808                	addi	a0,sp,16
    2818:	0808                	addi	a0,sp,16
    281a:	0808                	addi	a0,sp,16

Дизассемблирование раздела .rodata.str1.4:

0000281c <.rodata.str1.4>:
    281c:	6e28                	flw	fa0,88(a2)
    281e:	6c75                	lui	s8,0x1d
    2820:	296c                	fld	fa1,208(a0)
    2822:	0000                	unimp
    2824:	4844                	lw	s1,20(s0)
    2826:	5952                	lw	s2,52(sp)
    2828:	4e4f5453          	0x4e4f5453
    282c:	2045                	jal	28cc <__clz_tab+0x1b0>
    282e:	5250                	lw	a2,36(a2)
    2830:	4152474f          	fnmadd.s	fa4,ft4,fs5,fs0,rmm
    2834:	2c4d                	jal	2ae6 <__clz_tab+0x3ca>
    2836:	5320                	lw	s0,96(a4)
    2838:	20454d4f          	fnmadd.s	fs10,fa0,ft4,ft4,rmm
    283c:	49525453          	0x49525453
    2840:	474e                	lw	a4,208(sp)
    2842:	0000                	unimp
    2844:	6844                	flw	fs1,20(s0)
    2846:	7972                	flw	fs2,60(sp)
    2848:	6e6f7473          	csrrci	s0,0x6e6,30
    284c:	2065                	jal	28f4 <__clz_tab+0x1d8>
    284e:	6542                	flw	fa0,16(sp)
    2850:	636e                	flw	ft6,216(sp)
    2852:	6d68                	flw	fa0,92(a0)
    2854:	7261                	lui	tp,0xffff8
    2856:	56202c6b          	0x56202c6b
    285a:	7265                	lui	tp,0xffff9
    285c:	6e6f6973          	csrrsi	s2,0x6e6,30
    2860:	3220                	fld	fs0,96(a2)
    2862:	312e                	fld	ft2,232(sp)
    2864:	2820                	fld	fs0,80(s0)
    2866:	614c                	flw	fa1,4(a0)
    2868:	676e                	flw	fa4,216(sp)
    286a:	6175                	addi	sp,sp,368
    286c:	203a6567          	0x203a6567
    2870:	000a2943          	fmadd.s	fs2,fs4,ft0,ft0,rdn
    2874:	7250                	flw	fa2,36(a2)
    2876:	6172676f          	jal	a4,2968c <__C_STACK_TOP__+0x1968c>
    287a:	206d                	jal	2924 <__clz_tab+0x208>
    287c:	706d6f63          	bltu	s10,t1,2f9a <impure_data+0x18a>
    2880:	6c69                	lui	s8,0x1a
    2882:	6465                	lui	s0,0x19
    2884:	7720                	flw	fs0,104(a4)
    2886:	7469                	lui	s0,0xffffa
    2888:	6f68                	flw	fa0,92(a4)
    288a:	7475                	lui	s0,0xffffd
    288c:	2720                	fld	fs0,72(a4)
    288e:	6572                	flw	fa0,28(sp)
    2890:	74736967          	0x74736967
    2894:	7265                	lui	tp,0xffff9
    2896:	74612027          	fsw	ft6,1856(sp)
    289a:	7274                	flw	fa3,100(a2)
    289c:	6269                	lui	tp,0x1a
    289e:	7475                	lui	s0,0xffffd
    28a0:	0a65                	addi	s4,s4,25
    28a2:	0000                	unimp
    28a4:	7845                	lui	a6,0xffff1
    28a6:	6365                	lui	t1,0x19
    28a8:	7475                	lui	s0,0xffffd
    28aa:	6f69                	lui	t5,0x1a
    28ac:	206e                	fld	ft0,216(sp)
    28ae:	72617473          	csrrci	s0,0x726,2
    28b2:	7374                	flw	fa3,100(a4)
    28b4:	202c                	fld	fa1,64(s0)
    28b6:	6425                	lui	s0,0x9
    28b8:	7220                	flw	fs0,96(a2)
    28ba:	6e75                	lui	t3,0x1d
    28bc:	68742073          	csrs	0x687,s0
    28c0:	6f72                	flw	ft10,28(sp)
    28c2:	6775                	lui	a4,0x1d
    28c4:	2068                	fld	fa0,192(s0)
    28c6:	6844                	flw	fs1,20(s0)
    28c8:	7972                	flw	fs2,60(sp)
    28ca:	6e6f7473          	csrrci	s0,0x6e6,30
    28ce:	0a65                	addi	s4,s4,25
    28d0:	0000                	unimp
    28d2:	0000                	unimp
    28d4:	7845                	lui	a6,0xffff1
    28d6:	6365                	lui	t1,0x19
    28d8:	7475                	lui	s0,0xffffd
    28da:	6f69                	lui	t5,0x1a
    28dc:	206e                	fld	ft0,216(sp)
    28de:	6e65                	lui	t3,0x19
    28e0:	7364                	flw	fs1,100(a4)
    28e2:	000a                	0xa
    28e4:	6946                	flw	fs2,80(sp)
    28e6:	616e                	flw	ft2,216(sp)
    28e8:	206c                	fld	fa1,192(s0)
    28ea:	6176                	flw	ft2,92(sp)
    28ec:	756c                	flw	fa1,108(a0)
    28ee:	7365                	lui	t1,0xffff9
    28f0:	6f20                	flw	fs0,88(a4)
    28f2:	2066                	fld	ft0,88(sp)
    28f4:	6874                	flw	fa3,84(s0)
    28f6:	2065                	jal	299e <__clz_tab+0x282>
    28f8:	6176                	flw	ft2,92(sp)
    28fa:	6972                	flw	fs2,28(sp)
    28fc:	6261                	lui	tp,0x18
    28fe:	656c                	flw	fa1,76(a0)
    2900:	73752073          	csrs	0x737,a0
    2904:	6465                	lui	s0,0x19
    2906:	6920                	flw	fs0,80(a0)
    2908:	206e                	fld	ft0,216(sp)
    290a:	6874                	flw	fa3,84(s0)
    290c:	2065                	jal	29b4 <__clz_tab+0x298>
    290e:	6562                	flw	fa0,24(sp)
    2910:	636e                	flw	ft6,216(sp)
    2912:	6d68                	flw	fa0,92(a0)
    2914:	7261                	lui	tp,0xffff8
    2916:	000a3a6b          	0xa3a6b
    291a:	0000                	unimp
    291c:	6e49                	lui	t3,0x12
    291e:	5f74                	lw	a3,124(a4)
    2920:	626f6c47          	fmsub.d	fs8,ft10,ft6,fa2,unknown
    2924:	203a                	fld	ft0,392(sp)
    2926:	2020                	fld	fs0,64(s0)
    2928:	2020                	fld	fs0,64(s0)
    292a:	2020                	fld	fs0,64(s0)
    292c:	2020                	fld	fs0,64(s0)
    292e:	2020                	fld	fs0,64(s0)
    2930:	2520                	fld	fs0,72(a0)
    2932:	0a64                	addi	s1,sp,284
    2934:	0000                	unimp
    2936:	0000                	unimp
    2938:	2020                	fld	fs0,64(s0)
    293a:	2020                	fld	fs0,64(s0)
    293c:	2020                	fld	fs0,64(s0)
    293e:	2020                	fld	fs0,64(s0)
    2940:	756f6873          	csrrsi	a6,0x756,30
    2944:	646c                	flw	fa1,76(s0)
    2946:	6220                	flw	fs0,64(a2)
    2948:	3a65                	jal	2300 <__umoddi3+0x264>
    294a:	2020                	fld	fs0,64(s0)
    294c:	2520                	fld	fs0,72(a0)
    294e:	0a64                	addi	s1,sp,284
    2950:	0000                	unimp
    2952:	0000                	unimp
    2954:	6f42                	flw	ft10,16(sp)
    2956:	475f6c6f          	jal	s8,f95ca <__C_STACK_TOP__+0xe95ca>
    295a:	6f6c                	flw	fa1,92(a4)
    295c:	3a62                	fld	fs4,56(sp)
    295e:	2020                	fld	fs0,64(s0)
    2960:	2020                	fld	fs0,64(s0)
    2962:	2020                	fld	fs0,64(s0)
    2964:	2020                	fld	fs0,64(s0)
    2966:	2020                	fld	fs0,64(s0)
    2968:	2520                	fld	fs0,72(a0)
    296a:	0a64                	addi	s1,sp,284
    296c:	0000                	unimp
    296e:	0000                	unimp
    2970:	315f6843          	fmadd.s	fa6,ft10,fs5,ft6,unknown
    2974:	475f 6f6c 3a62      	0x3a626f6c475f
    297a:	2020                	fld	fs0,64(s0)
    297c:	2020                	fld	fs0,64(s0)
    297e:	2020                	fld	fs0,64(s0)
    2980:	2020                	fld	fs0,64(s0)
    2982:	2020                	fld	fs0,64(s0)
    2984:	2520                	fld	fs0,72(a0)
    2986:	00000a63          	beqz	zero,299a <__clz_tab+0x27e>
    298a:	0000                	unimp
    298c:	2020                	fld	fs0,64(s0)
    298e:	2020                	fld	fs0,64(s0)
    2990:	2020                	fld	fs0,64(s0)
    2992:	2020                	fld	fs0,64(s0)
    2994:	756f6873          	csrrsi	a6,0x756,30
    2998:	646c                	flw	fa1,76(s0)
    299a:	6220                	flw	fs0,64(a2)
    299c:	3a65                	jal	2354 <__umoddi3+0x2b8>
    299e:	2020                	fld	fs0,64(s0)
    29a0:	2520                	fld	fs0,72(a0)
    29a2:	00000a63          	beqz	zero,29b6 <__clz_tab+0x29a>
    29a6:	0000                	unimp
    29a8:	325f6843          	fmadd.d	fa6,ft10,ft5,ft6,unknown
    29ac:	475f 6f6c 3a62      	0x3a626f6c475f
    29b2:	2020                	fld	fs0,64(s0)
    29b4:	2020                	fld	fs0,64(s0)
    29b6:	2020                	fld	fs0,64(s0)
    29b8:	2020                	fld	fs0,64(s0)
    29ba:	2020                	fld	fs0,64(s0)
    29bc:	2520                	fld	fs0,72(a0)
    29be:	00000a63          	beqz	zero,29d2 <__clz_tab+0x2b6>
    29c2:	0000                	unimp
    29c4:	7241                	lui	tp,0xffff0
    29c6:	5f72                	lw	t5,60(sp)
    29c8:	5f31                	li	t5,-20
    29ca:	626f6c47          	fmsub.d	fs8,ft10,ft6,fa2,unknown
    29ce:	3a5d385b          	0x3a5d385b
    29d2:	2020                	fld	fs0,64(s0)
    29d4:	2020                	fld	fs0,64(s0)
    29d6:	2020                	fld	fs0,64(s0)
    29d8:	2520                	fld	fs0,72(a0)
    29da:	0a64                	addi	s1,sp,284
    29dc:	0000                	unimp
    29de:	0000                	unimp
    29e0:	7241                	lui	tp,0xffff0
    29e2:	5f72                	lw	t5,60(sp)
    29e4:	5f32                	lw	t5,44(sp)
    29e6:	626f6c47          	fmsub.d	fs8,ft10,ft6,fa2,unknown
    29ea:	5b5d385b          	0x5b5d385b
    29ee:	203a5d37          	lui	s10,0x203a5
    29f2:	2020                	fld	fs0,64(s0)
    29f4:	2520                	fld	fs0,72(a0)
    29f6:	0a64                	addi	s1,sp,284
    29f8:	0000                	unimp
    29fa:	0000                	unimp
    29fc:	2020                	fld	fs0,64(s0)
    29fe:	2020                	fld	fs0,64(s0)
    2a00:	2020                	fld	fs0,64(s0)
    2a02:	2020                	fld	fs0,64(s0)
    2a04:	756f6873          	csrrsi	a6,0x756,30
    2a08:	646c                	flw	fa1,76(s0)
    2a0a:	6220                	flw	fs0,64(a2)
    2a0c:	3a65                	jal	23c4 <__umoddi3+0x328>
    2a0e:	2020                	fld	fs0,64(s0)
    2a10:	4e20                	lw	s0,88(a2)
    2a12:	6d75                	lui	s10,0x1d
    2a14:	6562                	flw	fa0,24(sp)
    2a16:	5f72                	lw	t5,60(sp)
    2a18:	525f664f          	fnmadd.d	fa2,ft10,ft5,fa0,unknown
    2a1c:	6e75                	lui	t3,0x1d
    2a1e:	202b2073          	csrs	0x202,s6
    2a22:	3031                	jal	222e <__umoddi3+0x192>
    2a24:	000a                	0xa
    2a26:	0000                	unimp
    2a28:	7450                	flw	fa2,44(s0)
    2a2a:	5f72                	lw	t5,60(sp)
    2a2c:	626f6c47          	fmsub.d	fs8,ft10,ft6,fa2,unknown
    2a30:	3e2d                	jal	256a <__umoddi3+0x4ce>
    2a32:	000a                	0xa
    2a34:	2020                	fld	fs0,64(s0)
    2a36:	7450                	flw	fa2,44(s0)
    2a38:	5f72                	lw	t5,60(sp)
    2a3a:	706d6f43          	fmadd.s	ft10,fs10,ft6,fa4,unknown
    2a3e:	203a                	fld	ft0,392(sp)
    2a40:	2020                	fld	fs0,64(s0)
    2a42:	2020                	fld	fs0,64(s0)
    2a44:	2020                	fld	fs0,64(s0)
    2a46:	2020                	fld	fs0,64(s0)
    2a48:	2520                	fld	fs0,72(a0)
    2a4a:	0a64                	addi	s1,sp,284
    2a4c:	0000                	unimp
    2a4e:	0000                	unimp
    2a50:	2020                	fld	fs0,64(s0)
    2a52:	2020                	fld	fs0,64(s0)
    2a54:	2020                	fld	fs0,64(s0)
    2a56:	2020                	fld	fs0,64(s0)
    2a58:	756f6873          	csrrsi	a6,0x756,30
    2a5c:	646c                	flw	fa1,76(s0)
    2a5e:	6220                	flw	fs0,64(a2)
    2a60:	3a65                	jal	2418 <__umoddi3+0x37c>
    2a62:	2020                	fld	fs0,64(s0)
    2a64:	2820                	fld	fs0,80(s0)
    2a66:	6d69                	lui	s10,0x1a
    2a68:	6c70                	flw	fa2,92(s0)
    2a6a:	6d65                	lui	s10,0x19
    2a6c:	6e65                	lui	t3,0x19
    2a6e:	6174                	flw	fa3,68(a0)
    2a70:	6974                	flw	fa3,84(a0)
    2a72:	642d6e6f          	jal	t3,d90b4 <__C_STACK_TOP__+0xc90b4>
    2a76:	7065                	0x7065
    2a78:	6e65                	lui	t3,0x19
    2a7a:	6564                	flw	fs1,76(a0)
    2a7c:	746e                	flw	fs0,248(sp)
    2a7e:	0a29                	addi	s4,s4,10
    2a80:	0000                	unimp
    2a82:	0000                	unimp
    2a84:	2020                	fld	fs0,64(s0)
    2a86:	6944                	flw	fs1,20(a0)
    2a88:	3a726373          	csrrsi	t1,0x3a7,4
    2a8c:	2020                	fld	fs0,64(s0)
    2a8e:	2020                	fld	fs0,64(s0)
    2a90:	2020                	fld	fs0,64(s0)
    2a92:	2020                	fld	fs0,64(s0)
    2a94:	2020                	fld	fs0,64(s0)
    2a96:	2020                	fld	fs0,64(s0)
    2a98:	2520                	fld	fs0,72(a0)
    2a9a:	0a64                	addi	s1,sp,284
    2a9c:	0000                	unimp
    2a9e:	0000                	unimp
    2aa0:	2020                	fld	fs0,64(s0)
    2aa2:	6e45                	lui	t3,0x11
    2aa4:	6d75                	lui	s10,0x1d
    2aa6:	435f 6d6f 3a70      	0x3a706d6f435f
    2aac:	2020                	fld	fs0,64(s0)
    2aae:	2020                	fld	fs0,64(s0)
    2ab0:	2020                	fld	fs0,64(s0)
    2ab2:	2020                	fld	fs0,64(s0)
    2ab4:	2520                	fld	fs0,72(a0)
    2ab6:	0a64                	addi	s1,sp,284
    2ab8:	0000                	unimp
    2aba:	0000                	unimp
    2abc:	2020                	fld	fs0,64(s0)
    2abe:	6e49                	lui	t3,0x12
    2ac0:	5f74                	lw	a3,124(a4)
    2ac2:	706d6f43          	fmadd.s	ft10,fs10,ft6,fa4,unknown
    2ac6:	203a                	fld	ft0,392(sp)
    2ac8:	2020                	fld	fs0,64(s0)
    2aca:	2020                	fld	fs0,64(s0)
    2acc:	2020                	fld	fs0,64(s0)
    2ace:	2020                	fld	fs0,64(s0)
    2ad0:	2520                	fld	fs0,72(a0)
    2ad2:	0a64                	addi	s1,sp,284
    2ad4:	0000                	unimp
    2ad6:	0000                	unimp
    2ad8:	2020                	fld	fs0,64(s0)
    2ada:	5f727453          	0x5f727453
    2ade:	706d6f43          	fmadd.s	ft10,fs10,ft6,fa4,unknown
    2ae2:	203a                	fld	ft0,392(sp)
    2ae4:	2020                	fld	fs0,64(s0)
    2ae6:	2020                	fld	fs0,64(s0)
    2ae8:	2020                	fld	fs0,64(s0)
    2aea:	2020                	fld	fs0,64(s0)
    2aec:	2520                	fld	fs0,72(a0)
    2aee:	00000a73          	0xa73
    2af2:	0000                	unimp
    2af4:	2020                	fld	fs0,64(s0)
    2af6:	2020                	fld	fs0,64(s0)
    2af8:	2020                	fld	fs0,64(s0)
    2afa:	2020                	fld	fs0,64(s0)
    2afc:	756f6873          	csrrsi	a6,0x756,30
    2b00:	646c                	flw	fa1,76(s0)
    2b02:	6220                	flw	fs0,64(a2)
    2b04:	3a65                	jal	24bc <__umoddi3+0x420>
    2b06:	2020                	fld	fs0,64(s0)
    2b08:	4420                	lw	s0,72(s0)
    2b0a:	5248                	lw	a0,36(a2)
    2b0c:	5359                	li	t1,-10
    2b0e:	4f54                	lw	a3,28(a4)
    2b10:	454e                	lw	a0,208(sp)
    2b12:	5020                	lw	s0,96(s0)
    2b14:	4f52                	lw	t5,20(sp)
    2b16:	4d415247          	0x4d415247
    2b1a:	202c                	fld	fa1,64(s0)
    2b1c:	454d4f53          	0x454d4f53
    2b20:	5320                	lw	s0,96(a4)
    2b22:	5254                	lw	a3,36(a2)
    2b24:	4e49                	li	t3,18
    2b26:	00000a47          	fmsub.s	fs4,ft0,ft0,ft0,rne
    2b2a:	0000                	unimp
    2b2c:	654e                	flw	fa0,208(sp)
    2b2e:	7478                	flw	fa4,108(s0)
    2b30:	505f 7274 475f      	0x475f7274505f
    2b36:	6f6c                	flw	fa1,92(a4)
    2b38:	2d62                	fld	fs10,24(sp)
    2b3a:	0a3e                	slli	s4,s4,0xf
    2b3c:	0000                	unimp
    2b3e:	0000                	unimp
    2b40:	2020                	fld	fs0,64(s0)
    2b42:	2020                	fld	fs0,64(s0)
    2b44:	2020                	fld	fs0,64(s0)
    2b46:	2020                	fld	fs0,64(s0)
    2b48:	756f6873          	csrrsi	a6,0x756,30
    2b4c:	646c                	flw	fa1,76(s0)
    2b4e:	6220                	flw	fs0,64(a2)
    2b50:	3a65                	jal	2508 <__umoddi3+0x46c>
    2b52:	2020                	fld	fs0,64(s0)
    2b54:	2820                	fld	fs0,80(s0)
    2b56:	6d69                	lui	s10,0x1a
    2b58:	6c70                	flw	fa2,92(s0)
    2b5a:	6d65                	lui	s10,0x19
    2b5c:	6e65                	lui	t3,0x19
    2b5e:	6174                	flw	fa3,68(a0)
    2b60:	6974                	flw	fa3,84(a0)
    2b62:	642d6e6f          	jal	t3,d91a4 <__C_STACK_TOP__+0xc91a4>
    2b66:	7065                	0x7065
    2b68:	6e65                	lui	t3,0x19
    2b6a:	6564                	flw	fs1,76(a0)
    2b6c:	746e                	flw	fs0,248(sp)
    2b6e:	2c29                	jal	2d88 <__clz_tab+0x66c>
    2b70:	7320                	flw	fs0,96(a4)
    2b72:	6d61                	lui	s10,0x18
    2b74:	2065                	jal	2c1c <__clz_tab+0x500>
    2b76:	7361                	lui	t1,0xffff8
    2b78:	6120                	flw	fs0,64(a0)
    2b7a:	6f62                	flw	ft10,24(sp)
    2b7c:	6576                	flw	fa0,92(sp)
    2b7e:	000a                	0xa
    2b80:	6e49                	lui	t3,0x12
    2b82:	5f74                	lw	a3,124(a4)
    2b84:	5f31                	li	t5,-20
    2b86:	6f4c                	flw	fa1,28(a4)
    2b88:	20203a63          	0x20203a63
    2b8c:	2020                	fld	fs0,64(s0)
    2b8e:	2020                	fld	fs0,64(s0)
    2b90:	2020                	fld	fs0,64(s0)
    2b92:	2020                	fld	fs0,64(s0)
    2b94:	2520                	fld	fs0,72(a0)
    2b96:	0a64                	addi	s1,sp,284
    2b98:	0000                	unimp
    2b9a:	0000                	unimp
    2b9c:	6e49                	lui	t3,0x12
    2b9e:	5f74                	lw	a3,124(a4)
    2ba0:	5f32                	lw	t5,44(sp)
    2ba2:	6f4c                	flw	fa1,28(a4)
    2ba4:	20203a63          	0x20203a63
    2ba8:	2020                	fld	fs0,64(s0)
    2baa:	2020                	fld	fs0,64(s0)
    2bac:	2020                	fld	fs0,64(s0)
    2bae:	2020                	fld	fs0,64(s0)
    2bb0:	2520                	fld	fs0,72(a0)
    2bb2:	0a64                	addi	s1,sp,284
    2bb4:	0000                	unimp
    2bb6:	0000                	unimp
    2bb8:	6e49                	lui	t3,0x12
    2bba:	5f74                	lw	a3,124(a4)
    2bbc:	6f4c5f33          	0x6f4c5f33
    2bc0:	20203a63          	0x20203a63
    2bc4:	2020                	fld	fs0,64(s0)
    2bc6:	2020                	fld	fs0,64(s0)
    2bc8:	2020                	fld	fs0,64(s0)
    2bca:	2020                	fld	fs0,64(s0)
    2bcc:	2520                	fld	fs0,72(a0)
    2bce:	0a64                	addi	s1,sp,284
    2bd0:	0000                	unimp
    2bd2:	0000                	unimp
    2bd4:	6e45                	lui	t3,0x11
    2bd6:	6d75                	lui	s10,0x1d
    2bd8:	4c5f 636f 203a      	0x203a636f4c5f
    2bde:	2020                	fld	fs0,64(s0)
    2be0:	2020                	fld	fs0,64(s0)
    2be2:	2020                	fld	fs0,64(s0)
    2be4:	2020                	fld	fs0,64(s0)
    2be6:	2020                	fld	fs0,64(s0)
    2be8:	2520                	fld	fs0,72(a0)
    2bea:	0a64                	addi	s1,sp,284
    2bec:	0000                	unimp
    2bee:	0000                	unimp
    2bf0:	5f727453          	0x5f727453
    2bf4:	5f31                	li	t5,-20
    2bf6:	6f4c                	flw	fa1,28(a4)
    2bf8:	20203a63          	0x20203a63
    2bfc:	2020                	fld	fs0,64(s0)
    2bfe:	2020                	fld	fs0,64(s0)
    2c00:	2020                	fld	fs0,64(s0)
    2c02:	2020                	fld	fs0,64(s0)
    2c04:	2520                	fld	fs0,72(a0)
    2c06:	00000a73          	0xa73
    2c0a:	0000                	unimp
    2c0c:	2020                	fld	fs0,64(s0)
    2c0e:	2020                	fld	fs0,64(s0)
    2c10:	2020                	fld	fs0,64(s0)
    2c12:	2020                	fld	fs0,64(s0)
    2c14:	756f6873          	csrrsi	a6,0x756,30
    2c18:	646c                	flw	fa1,76(s0)
    2c1a:	6220                	flw	fs0,64(a2)
    2c1c:	3a65                	jal	25d4 <__umoddi3+0x538>
    2c1e:	2020                	fld	fs0,64(s0)
    2c20:	4420                	lw	s0,72(s0)
    2c22:	5248                	lw	a0,36(a2)
    2c24:	5359                	li	t1,-10
    2c26:	4f54                	lw	a3,28(a4)
    2c28:	454e                	lw	a0,208(sp)
    2c2a:	5020                	lw	s0,96(s0)
    2c2c:	4f52                	lw	t5,20(sp)
    2c2e:	4d415247          	0x4d415247
    2c32:	202c                	fld	fa1,64(s0)
    2c34:	2731                	jal	3340 <__global_locale+0x108>
    2c36:	53205453          	0x53205453
    2c3a:	5254                	lw	a3,36(a2)
    2c3c:	4e49                	li	t3,18
    2c3e:	00000a47          	fmsub.s	fs4,ft0,ft0,ft0,rne
    2c42:	0000                	unimp
    2c44:	5f727453          	0x5f727453
    2c48:	5f32                	lw	t5,44(sp)
    2c4a:	6f4c                	flw	fa1,28(a4)
    2c4c:	20203a63          	0x20203a63
    2c50:	2020                	fld	fs0,64(s0)
    2c52:	2020                	fld	fs0,64(s0)
    2c54:	2020                	fld	fs0,64(s0)
    2c56:	2020                	fld	fs0,64(s0)
    2c58:	2520                	fld	fs0,72(a0)
    2c5a:	00000a73          	0xa73
    2c5e:	0000                	unimp
    2c60:	2020                	fld	fs0,64(s0)
    2c62:	2020                	fld	fs0,64(s0)
    2c64:	2020                	fld	fs0,64(s0)
    2c66:	2020                	fld	fs0,64(s0)
    2c68:	756f6873          	csrrsi	a6,0x756,30
    2c6c:	646c                	flw	fa1,76(s0)
    2c6e:	6220                	flw	fs0,64(a2)
    2c70:	3a65                	jal	2628 <_ctype_+0x10>
    2c72:	2020                	fld	fs0,64(s0)
    2c74:	4420                	lw	s0,72(s0)
    2c76:	5248                	lw	a0,36(a2)
    2c78:	5359                	li	t1,-10
    2c7a:	4f54                	lw	a3,28(a4)
    2c7c:	454e                	lw	a0,208(sp)
    2c7e:	5020                	lw	s0,96(s0)
    2c80:	4f52                	lw	t5,20(sp)
    2c82:	4d415247          	0x4d415247
    2c86:	202c                	fld	fa1,64(s0)
    2c88:	2732                	fld	fa4,264(sp)
    2c8a:	444e                	lw	s0,208(sp)
    2c8c:	5320                	lw	s0,96(a4)
    2c8e:	5254                	lw	a3,36(a2)
    2c90:	4e49                	li	t3,18
    2c92:	00000a47          	fmsub.s	fs4,ft0,ft0,ft0,rne
    2c96:	0000                	unimp
    2c98:	654d                	lui	a0,0x13
    2c9a:	7361                	lui	t1,0xffff8
    2c9c:	7275                	lui	tp,0xffffd
    2c9e:	6465                	lui	s0,0x19
    2ca0:	7420                	flw	fs0,104(s0)
    2ca2:	6d69                	lui	s10,0x1a
    2ca4:	2065                	jal	2d4c <__clz_tab+0x630>
    2ca6:	6f74                	flw	fa3,92(a4)
    2ca8:	6d73206f          	j	35b7e <__C_STACK_TOP__+0x25b7e>
    2cac:	6c61                	lui	s8,0x18
    2cae:	206c                	fld	fa1,192(s0)
    2cb0:	6f74                	flw	fa3,92(a4)
    2cb2:	6f20                	flw	fs0,88(a4)
    2cb4:	7462                	flw	fs0,56(sp)
    2cb6:	6961                	lui	s2,0x18
    2cb8:	206e                	fld	ft0,216(sp)
    2cba:	656d                	lui	a0,0x1b
    2cbc:	6e61                	lui	t3,0x18
    2cbe:	6e69                	lui	t3,0x1a
    2cc0:	6c756667          	0x6c756667
    2cc4:	7220                	flw	fs0,96(a2)
    2cc6:	7365                	lui	t1,0xffff9
    2cc8:	6c75                	lui	s8,0x1d
    2cca:	7374                	flw	fa3,100(a4)
    2ccc:	000a                	0xa
    2cce:	0000                	unimp
    2cd0:	6c50                	flw	fa2,28(s0)
    2cd2:	6165                	addi	sp,sp,112
    2cd4:	69206573          	csrrsi	a0,0x692,0
    2cd8:	636e                	flw	ft6,216(sp)
    2cda:	6572                	flw	fa0,28(sp)
    2cdc:	7361                	lui	t1,0xffff8
    2cde:	2065                	jal	2d86 <__clz_tab+0x66a>
    2ce0:	756e                	flw	fa0,248(sp)
    2ce2:	626d                	lui	tp,0x1b
    2ce4:	7265                	lui	tp,0xffff9
    2ce6:	6f20                	flw	fs0,88(a4)
    2ce8:	2066                	fld	ft0,88(sp)
    2cea:	7572                	flw	fa0,60(sp)
    2cec:	736e                	flw	ft6,248(sp)
    2cee:	000a                	0xa
    2cf0:	754e                	flw	fa0,240(sp)
    2cf2:	626d                	lui	tp,0x1b
    2cf4:	7265                	lui	tp,0xffff9
    2cf6:	4f5f 5f66 7552      	0x75525f664f5f
    2cfc:	736e                	flw	ft6,248(sp)
    2cfe:	203d                	jal	2d2c <__clz_tab+0x610>
    2d00:	6c25                	lui	s8,0x9
    2d02:	2c64                	fld	fs1,216(s0)
    2d04:	4820                	lw	s0,80(s0)
    2d06:	3d5a                	fld	fs10,432(sp)
    2d08:	2520                	fld	fs0,72(a0)
    2d0a:	646c                	flw	fa1,76(s0)
    2d0c:	000a                	0xa
    2d0e:	0000                	unimp
    2d10:	6954                	flw	fa3,20(a0)
    2d12:	656d                	lui	a0,0x1b
    2d14:	203a                	fld	ft0,392(sp)
    2d16:	6562                	flw	fa0,24(sp)
    2d18:	3d6e6967          	0x3d6e6967
    2d1c:	2520                	fld	fs0,72(a0)
    2d1e:	646c                	flw	fa1,76(s0)
    2d20:	202c                	fld	fa1,64(s0)
    2d22:	6e65                	lui	t3,0x19
    2d24:	3d64                	fld	fs1,248(a0)
    2d26:	2520                	fld	fs0,72(a0)
    2d28:	646c                	flw	fa1,76(s0)
    2d2a:	202c                	fld	fa1,64(s0)
    2d2c:	6964                	flw	fs1,84(a0)
    2d2e:	6666                	flw	fa2,88(sp)
    2d30:	203d                	jal	2d5e <__clz_tab+0x642>
    2d32:	6c25                	lui	s8,0x9
    2d34:	0a64                	addi	s1,sp,284
    2d36:	0000                	unimp
    2d38:	694d                	lui	s2,0x13
    2d3a:	736f7263          	bleu	s6,t5,345e <glob1.3071+0x2a>
    2d3e:	6365                	lui	t1,0x19
    2d40:	73646e6f          	jal	t3,49476 <__C_STACK_TOP__+0x39476>
    2d44:	6620                	flw	fs0,72(a2)
    2d46:	6f20726f          	jal	tp,a438 <__BSS_END__+0x47b8>
    2d4a:	656e                	flw	fa0,216(sp)
    2d4c:	7220                	flw	fs0,96(a2)
    2d4e:	6e75                	lui	t3,0x1d
    2d50:	7420                	flw	fs0,104(s0)
    2d52:	7268                	flw	fa0,100(a2)
    2d54:	6867756f          	jal	a0,7a3da <__C_STACK_TOP__+0x6a3da>
    2d58:	4420                	lw	s0,72(s0)
    2d5a:	7268                	flw	fa0,100(a2)
    2d5c:	7379                	lui	t1,0xffffe
    2d5e:	6f74                	flw	fa3,92(a4)
    2d60:	656e                	flw	fa0,216(sp)
    2d62:	203a                	fld	ft0,392(sp)
    2d64:	6c25                	lui	s8,0x9
    2d66:	0a64                	addi	s1,sp,284
    2d68:	0000                	unimp
    2d6a:	0000                	unimp
    2d6c:	6844                	flw	fs1,20(s0)
    2d6e:	7972                	flw	fs2,60(sp)
    2d70:	6e6f7473          	csrrci	s0,0x6e6,30
    2d74:	7365                	lui	t1,0xffff9
    2d76:	7020                	flw	fs0,96(s0)
    2d78:	7265                	lui	tp,0xffff9
    2d7a:	5320                	lw	s0,96(a4)
    2d7c:	6365                	lui	t1,0x19
    2d7e:	3a646e6f          	jal	t3,49124 <__C_STACK_TOP__+0x39124>
    2d82:	2020                	fld	fs0,64(s0)
    2d84:	2020                	fld	fs0,64(s0)
    2d86:	2020                	fld	fs0,64(s0)
    2d88:	2020                	fld	fs0,64(s0)
    2d8a:	2020                	fld	fs0,64(s0)
    2d8c:	2020                	fld	fs0,64(s0)
    2d8e:	2020                	fld	fs0,64(s0)
    2d90:	2020                	fld	fs0,64(s0)
    2d92:	2020                	fld	fs0,64(s0)
    2d94:	2020                	fld	fs0,64(s0)
    2d96:	2020                	fld	fs0,64(s0)
    2d98:	6c25                	lui	s8,0x9
    2d9a:	0a64                	addi	s1,sp,284
    2d9c:	0000                	unimp
    2d9e:	0000                	unimp
    2da0:	4844                	lw	s1,20(s0)
    2da2:	5952                	lw	s2,52(sp)
    2da4:	4e4f5453          	0x4e4f5453
    2da8:	2045                	jal	2e48 <impure_data+0x38>
    2daa:	5250                	lw	a2,36(a2)
    2dac:	4152474f          	fnmadd.s	fa4,ft4,fs5,fs0,rmm
    2db0:	2c4d                	jal	3062 <impure_data+0x252>
    2db2:	3120                	fld	fs0,96(a0)
    2db4:	20545327          	0x20545327
    2db8:	49525453          	0x49525453
    2dbc:	474e                	lw	a4,208(sp)
    2dbe:	0000                	unimp
    2dc0:	4844                	lw	s1,20(s0)
    2dc2:	5952                	lw	s2,52(sp)
    2dc4:	4e4f5453          	0x4e4f5453
    2dc8:	2045                	jal	2e68 <impure_data+0x58>
    2dca:	5250                	lw	a2,36(a2)
    2dcc:	4152474f          	fnmadd.s	fa4,ft4,fs5,fs0,rmm
    2dd0:	2c4d                	jal	3082 <impure_data+0x272>
    2dd2:	3220                	fld	fs0,96(a2)
    2dd4:	20444e27          	fsq	ft4,540(s0) # 1921c <__C_STACK_TOP__+0x921c>
    2dd8:	49525453          	0x49525453
    2ddc:	474e                	lw	a4,208(sp)
    2dde:	0000                	unimp
    2de0:	4844                	lw	s1,20(s0)
    2de2:	5952                	lw	s2,52(sp)
    2de4:	4e4f5453          	0x4e4f5453
    2de8:	2045                	jal	2e88 <impure_data+0x78>
    2dea:	5250                	lw	a2,36(a2)
    2dec:	4152474f          	fnmadd.s	fa4,ft4,fs5,fs0,rmm
    2df0:	2c4d                	jal	30a2 <impure_data+0x292>
    2df2:	3320                	fld	fs0,96(a4)
    2df4:	20445227          	0x20445227
    2df8:	49525453          	0x49525453
    2dfc:	474e                	lw	a4,208(sp)
    2dfe:	0000                	unimp
    2e00:	00000043          	fmadd.s	ft0,ft0,ft0,ft0,rne
    2e04:	4f50                	lw	a2,28(a4)
    2e06:	00584953          	fadd.s	fs2,fa6,ft5,rmm
    2e0a:	0000                	unimp
    2e0c:	002e                	0x2e

Дизассемблирование раздела .data:

00002e10 <impure_data>:
    2e10:	0000                	unimp
    2e12:	0000                	unimp
    2e14:	30fc                	fld	fa5,224(s1)
    2e16:	0000                	unimp
    2e18:	3164                	fld	fs1,224(a0)
    2e1a:	0000                	unimp
    2e1c:	31cc                	fld	fa1,160(a1)
	...
    2eb6:	0000                	unimp
    2eb8:	0001                	nop
    2eba:	0000                	unimp
    2ebc:	0000                	unimp
    2ebe:	0000                	unimp
    2ec0:	330e                	fld	ft6,224(sp)
    2ec2:	abcd                	j	34b4 <Arr_1_Glob+0x20>
    2ec4:	1234                	addi	a3,sp,296
    2ec6:	e66d                	bnez	a2,2fb0 <impure_data+0x1a0>
    2ec8:	deec                	sw	a1,124(a3)
    2eca:	0005                	c.addi	zero,1
    2ecc:	0000000b          	0xb
	...

00003238 <__global_locale>:
    3238:	00000043          	fmadd.s	ft0,ft0,ft0,ft0,rne
	...
    3258:	00000043          	fmadd.s	ft0,ft0,ft0,ft0,rne
	...
    3278:	00000043          	fmadd.s	ft0,ft0,ft0,ft0,rne
	...
    3298:	00000043          	fmadd.s	ft0,ft0,ft0,ft0,rne
	...
    32b8:	00000043          	fmadd.s	ft0,ft0,ft0,ft0,rne
	...
    32d8:	00000043          	fmadd.s	ft0,ft0,ft0,ft0,rne
	...
    32f8:	00000043          	fmadd.s	ft0,ft0,ft0,ft0,rne
	...
    3318:	17d8                	addi	a4,sp,996
    331a:	0000                	unimp
    331c:	15e0                	addi	s0,sp,748
    331e:	0000                	unimp
    3320:	0000                	unimp
    3322:	0000                	unimp
    3324:	2618                	fld	fa4,8(a2)
    3326:	0000                	unimp
    3328:	2e0c                	fld	fa1,24(a2)
    332a:	0000                	unimp
    332c:	2a80                	fld	fs0,16(a3)
    332e:	0000                	unimp
    3330:	2a80                	fld	fs0,16(a3)
    3332:	0000                	unimp
    3334:	2a80                	fld	fs0,16(a3)
    3336:	0000                	unimp
    3338:	2a80                	fld	fs0,16(a3)
    333a:	0000                	unimp
    333c:	2a80                	fld	fs0,16(a3)
    333e:	0000                	unimp
    3340:	2a80                	fld	fs0,16(a3)
    3342:	0000                	unimp
    3344:	2a80                	fld	fs0,16(a3)
    3346:	0000                	unimp
    3348:	2a80                	fld	fs0,16(a3)
    334a:	0000                	unimp
    334c:	2a80                	fld	fs0,16(a3)
    334e:	0000                	unimp
    3350:	ffff                	0xffff
    3352:	ffff                	0xffff
    3354:	ffff                	0xffff
    3356:	ffff                	0xffff
    3358:	ffff                	0xffff
    335a:	ffff                	0xffff
    335c:	ffff                	0xffff
    335e:	0000                	unimp
    3360:	0001                	nop
    3362:	5341                	li	t1,-16
    3364:	00494943          	fmadd.s	fs2,fs2,ft4,ft0,rmm
	...
    3380:	0000                	unimp
    3382:	5341                	li	t1,-16
    3384:	00494943          	fmadd.s	fs2,fs2,ft4,ft0,rmm
	...

Дизассемблирование раздела .sdata:

000033c0 <_global_impure_ptr>:
    33c0:	2e10                	fld	fa2,24(a2)
	...

000033c4 <_impure_ptr>:
    33c4:	2e10                	fld	fa2,24(a2)
	...

Дизассемблирование раздела .tbss:

00003400 <__BSS_START__>:
	...

Дизассемблирование раздела .sbss:

00003400 <Dhrystones_Per_Second>:
    3400:	0000                	unimp
	...

00003404 <Microseconds>:
    3404:	0000                	unimp
	...

00003408 <User_Time>:
    3408:	0000                	unimp
	...

0000340c <End_Time>:
    340c:	0000                	unimp
	...

00003410 <Int_Glob>:
    3410:	0000                	unimp
	...

00003414 <Ch_2_Glob>:
    3414:	0000                	unimp
	...

00003418 <Bool_Glob>:
    3418:	0000                	unimp
	...

0000341c <Run_Index>:
    341c:	0000                	unimp
	...

00003420 <Begin_Time>:
    3420:	0000                	unimp
	...

00003424 <Ptr_Glob>:
    3424:	0000                	unimp
	...

00003428 <Next_Ptr_Glob>:
    3428:	0000                	unimp
	...

0000342c <Ch_1_Glob>:
    342c:	0000                	unimp
	...

00003430 <_PathLocale>:
    3430:	0000                	unimp
	...

Дизассемблирование раздела .bss:

00003434 <glob1.3071>:
	...

00003464 <glob2.3072>:
	...

00003494 <Arr_1_Glob>:
	...

0000355c <Arr_2_Glob>:
	...

Дизассемблирование раздела .stack:

0000fc00 <__C_STACK_TOP__-0x400>:
	...

Дизассемблирование раздела .comment:

00000000 <.comment>:
   0:	3a434347          	fmsub.d	ft6,ft6,ft4,ft7,rmm
   4:	2820                	fld	fs0,80(s0)
   6:	29554e47          	fmsub.s	ft8,fa0,fs5,ft5,rmm
   a:	3720                	fld	fs0,104(a4)
   c:	312e                	fld	ft2,232(sp)
   e:	312e                	fld	ft2,232(sp)
  10:	3220                	fld	fs0,96(a2)
  12:	3130                	fld	fa2,96(a0)
  14:	30353037          	lui	zero,0x30353
  18:	0039                	c.addi	zero,14

Дизассемблирование раздела .debug_info:

00000000 <.debug_info>:
       0:	11a9                	addi	gp,gp,-22
       2:	0000                	unimp
       4:	0004                	addi	s1,sp,0
       6:	0000                	unimp
       8:	0000                	unimp
       a:	0104                	addi	s1,sp,128
       c:	006a                	0x6a
       e:	0000                	unimp
      10:	a30c                	fsd	fa1,0(a4)
      12:	0001                	nop
      14:	2c00                	fld	fs0,24(s0)
      16:	0002                	0x2
      18:	0800                	addi	s0,sp,16
      1a:	0018                	addi	a4,sp,0
      1c:	5800                	lw	s0,48(s0)
      1e:	0004                	addi	s1,sp,0
      20:	0000                	unimp
      22:	0000                	unimp
      24:	0200                	addi	s0,sp,256
      26:	0704                	addi	s1,sp,896
      28:	03d0                	addi	a2,sp,452
      2a:	0000                	unimp
      2c:	0802                	slli	a6,a6,0x0
      2e:	0003c607          	flq	fa2,0(t2)
      32:	0300                	addi	s0,sp,384
      34:	0504                	addi	s1,sp,640
      36:	6e69                	lui	t3,0x1a
      38:	0074                	addi	a3,sp,12
      3a:	0802                	slli	a6,a6,0x0
      3c:	e005                	bnez	s0,5c <buflen.1776+0x1c>
      3e:	0002                	0x2
      40:	0200                	addi	s0,sp,256
      42:	0410                	addi	a2,sp,512
      44:	0000015b          	0x15b
      48:	0102                	slli	sp,sp,0x0
      4a:	9606                	add	a2,a2,ra
      4c:	0006                	0x6
      4e:	0200                	addi	s0,sp,256
      50:	0801                	addi	a6,a6,0
      52:	0694                	addi	a3,sp,832
      54:	0000                	unimp
      56:	0202                	slli	tp,tp,0x0
      58:	0005                	c.addi	zero,1
      5a:	0000                	unimp
      5c:	0200                	addi	s0,sp,256
      5e:	0702                	slli	a4,a4,0x0
      60:	03e6                	slli	t2,t2,0x19
      62:	0000                	unimp
      64:	0402                	slli	s0,s0,0x0
      66:	e505                	bnez	a0,8e <buflen.1776+0x4e>
      68:	0002                	0x2
      6a:	0200                	addi	s0,sp,256
      6c:	0704                	addi	s1,sp,896
      6e:	000003cb          	fnmsub.s	ft7,ft0,ft0,ft0,rne
      72:	4104                	lw	s1,0(a0)
      74:	0005                	c.addi	zero,1
      76:	0200                	addi	s0,sp,256
      78:	00003307          	fld	ft6,0(zero) # 30353000 <__C_STACK_TOP__+0x30343000>
      7c:	0400                	addi	s0,sp,512
      7e:	0511                	addi	a0,a0,4
      80:	0000                	unimp
      82:	00642c03          	lw	s8,6(s0)
      86:	0000                	unimp
      88:	2704                	fld	fs1,8(a4)
      8a:	0006                	0x6
      8c:	0300                	addi	s0,sp,384
      8e:	6472                	flw	fs0,28(sp)
      90:	0000                	unimp
      92:	0400                	addi	s0,sp,512
      94:	06fe                	slli	a3,a3,0x1f
      96:	0000                	unimp
      98:	00339103          	lh	sp,3(t2)
      9c:	0000                	unimp
      9e:	4205                	li	tp,1
      a0:	0004                	addi	s1,sp,0
      a2:	0400                	addi	s0,sp,512
      a4:	0165                	addi	sp,sp,25
      a6:	0025                	c.addi	zero,9
      a8:	0000                	unimp
      aa:	0406                	slli	s0,s0,0x1
      ac:	00c9a603          	lw	a2,12(s3)
      b0:	0000                	unimp
      b2:	00042d07          	flw	fs10,0(s0)
      b6:	0300                	addi	s0,sp,384
      b8:	9ea8                	0x9ea8
      ba:	0000                	unimp
      bc:	0700                	addi	s0,sp,896
      be:	0398                	addi	a4,sp,448
      c0:	0000                	unimp
      c2:	00c9a903          	lw	s2,12(s3)
      c6:	0000                	unimp
      c8:	0800                	addi	s0,sp,16
      ca:	0000004f          	fnmadd.s	ft0,ft0,ft0,ft0,rne
      ce:	00d9                	addi	ra,ra,22
      d0:	0000                	unimp
      d2:	2509                	jal	6d4 <vprintfmt.constprop.2+0x2ba>
      d4:	0000                	unimp
      d6:	0300                	addi	s0,sp,384
      d8:	0a00                	addi	s0,sp,272
      da:	0308                	addi	a0,sp,384
      dc:	0000faa3          	0xfaa3
      e0:	0b00                	addi	s0,sp,400
      e2:	0488                	addi	a0,sp,576
      e4:	0000                	unimp
      e6:	0033a503          	lw	a0,3(t2)
      ea:	0000                	unimp
      ec:	0b00                	addi	s0,sp,400
      ee:	0619                	addi	a2,a2,6
      f0:	0000                	unimp
      f2:	00aaaa03          	lw	s4,10(s5)
      f6:	0000                	unimp
      f8:	0004                	addi	s1,sp,0
      fa:	3604                	fld	fs1,40(a2)
      fc:	0005                	c.addi	zero,1
      fe:	0300                	addi	s0,sp,384
     100:	0000d9ab          	0xd9ab
     104:	0400                	addi	s0,sp,512
     106:	0590                	addi	a2,sp,704
     108:	0000                	unimp
     10a:	0072af03          	lw	t5,7(t0)
     10e:	0000                	unimp
     110:	040c                	addi	a1,sp,512
     112:	a704                	fsd	fs1,8(a4)
     114:	0006                	0x6
     116:	0500                	addi	s0,sp,640
     118:	6b16                	flw	fs6,68(sp)
     11a:	0000                	unimp
     11c:	0d00                	addi	s0,sp,656
     11e:	04c1                	addi	s1,s1,16
     120:	0000                	unimp
     122:	0518                	addi	a4,sp,640
     124:	0001702f          	0x1702f
     128:	0b00                	addi	s0,sp,400
     12a:	07c0                	addi	s0,sp,964
     12c:	0000                	unimp
     12e:	3105                	jal	fffffd4e <__C_STACK_TOP__+0xfffefd4e>
     130:	0170                	addi	a2,sp,140
     132:	0000                	unimp
     134:	0e00                	addi	s0,sp,784
     136:	6b5f 0500 3332      	0x333205006b5f
     13c:	0000                	unimp
     13e:	0400                	addi	s0,sp,512
     140:	0005f60b          	0x5f60b
     144:	0500                	addi	s0,sp,640
     146:	3332                	fld	ft6,296(sp)
     148:	0000                	unimp
     14a:	0800                	addi	s0,sp,16
     14c:	00033c0b          	0x33c0b
     150:	0500                	addi	s0,sp,640
     152:	3332                	fld	ft6,296(sp)
     154:	0000                	unimp
     156:	0c00                	addi	s0,sp,528
     158:	0002c20b          	0x2c20b
     15c:	0500                	addi	s0,sp,640
     15e:	3332                	fld	ft6,296(sp)
     160:	0000                	unimp
     162:	1000                	addi	s0,sp,32
     164:	5f0e                	lw	t5,224(sp)
     166:	0078                	addi	a4,sp,12
     168:	3305                	jal	fffffe88 <__C_STACK_TOP__+0xfffefe88>
     16a:	0176                	slli	sp,sp,0x1d
     16c:	0000                	unimp
     16e:	0014                	addi	a3,sp,0
     170:	011d040f          	0x11d040f
     174:	0000                	unimp
     176:	1208                	addi	a0,sp,288
     178:	0001                	nop
     17a:	8600                	0x8600
     17c:	0001                	nop
     17e:	0900                	addi	s0,sp,144
     180:	0025                	c.addi	zero,9
     182:	0000                	unimp
     184:	0000                	unimp
     186:	7b0d                	lui	s6,0xfffe3
     188:	24000003          	lb	zero,576(zero) # 240 <_start+0x40>
     18c:	3705                	jal	ac <buflen.1776+0x6c>
     18e:	01ff                	0x1ff
     190:	0000                	unimp
     192:	0001930b          	0x1930b
     196:	0500                	addi	s0,sp,640
     198:	3339                	jal	fffffea6 <__C_STACK_TOP__+0xfffefea6>
     19a:	0000                	unimp
     19c:	0000                	unimp
     19e:	00075c0b          	0x75c0b
     1a2:	0500                	addi	s0,sp,640
     1a4:	333a                	fld	ft6,424(sp)
     1a6:	0000                	unimp
     1a8:	0400                	addi	s0,sp,512
     1aa:	0002010b          	0x2010b
     1ae:	0500                	addi	s0,sp,640
     1b0:	0000333b          	0x333b
     1b4:	0800                	addi	s0,sp,16
     1b6:	0007b10b          	0x7b10b
     1ba:	0500                	addi	s0,sp,640
     1bc:	333c                	fld	fa5,96(a4)
     1be:	0000                	unimp
     1c0:	0c00                	addi	s0,sp,528
     1c2:	0004eb0b          	0x4eb0b
     1c6:	0500                	addi	s0,sp,640
     1c8:	333d                	jal	fffffef6 <__C_STACK_TOP__+0xfffefef6>
     1ca:	0000                	unimp
     1cc:	1000                	addi	s0,sp,32
     1ce:	00047e0b          	0x47e0b
     1d2:	0500                	addi	s0,sp,640
     1d4:	333e                	fld	ft6,488(sp)
     1d6:	0000                	unimp
     1d8:	1400                	addi	s0,sp,544
     1da:	0006e70b          	0x6e70b
     1de:	0500                	addi	s0,sp,640
     1e0:	0000333f 980b1800 	0x980b18000000333f
     1e8:	05000007          	0x5000007
     1ec:	3340                	fld	fs0,160(a4)
     1ee:	0000                	unimp
     1f0:	1c00                	addi	s0,sp,560
     1f2:	0007420b          	0x7420b
     1f6:	0500                	addi	s0,sp,640
     1f8:	3341                	jal	ffffff78 <__C_STACK_TOP__+0xfffeff78>
     1fa:	0000                	unimp
     1fc:	2000                	fld	fs0,0(s0)
     1fe:	1000                	addi	s0,sp,32
     200:	021e                	slli	tp,tp,0x7
     202:	0000                	unimp
     204:	0108                	addi	a0,sp,128
     206:	4a05                	li	s4,1
     208:	0000023f 00032f0b 	0x32f0b0000023f
     210:	0500                	addi	s0,sp,640
     212:	00023f4b          	fnmsub.s	ft10,ft4,ft0,ft0,rup
     216:	0000                	unimp
     218:	00056c0b          	0x56c0b
     21c:	0500                	addi	s0,sp,640
     21e:	3f4c                	fld	fa1,184(a4)
     220:	0002                	0x2
     222:	8000                	0x8000
     224:	8b11                	andi	a4,a4,4
     226:	0006                	0x6
     228:	0500                	addi	s0,sp,640
     22a:	124e                	slli	tp,tp,0x33
     22c:	0001                	nop
     22e:	0000                	unimp
     230:	1101                	addi	sp,sp,-32
     232:	02ba                	slli	t0,t0,0xe
     234:	0000                	unimp
     236:	5105                	li	sp,-31
     238:	0112                	slli	sp,sp,0x4
     23a:	0000                	unimp
     23c:	0104                	addi	s1,sp,128
     23e:	0800                	addi	s0,sp,16
     240:	0110                	addi	a2,sp,128
     242:	0000                	unimp
     244:	0000024f          	fnmadd.s	ft4,ft0,ft0,ft0,rne
     248:	2509                	jal	84a <vprintfmt.constprop.2+0x430>
     24a:	0000                	unimp
     24c:	1f00                	addi	s0,sp,944
     24e:	1000                	addi	s0,sp,32
     250:	04f4                	addi	a3,sp,588
     252:	0000                	unimp
     254:	0190                	addi	a2,sp,192
     256:	5d05                	li	s10,-31
     258:	028d                	addi	t0,t0,3
     25a:	0000                	unimp
     25c:	0007c00b          	0x7c00b
     260:	0500                	addi	s0,sp,640
     262:	8d5e                	mv	s10,s7
     264:	0002                	0x2
     266:	0000                	unimp
     268:	0005df0b          	0x5df0b
     26c:	0500                	addi	s0,sp,640
     26e:	335f 0000 0400      	0x4000000335f
     274:	0003370b          	0x3370b
     278:	0500                	addi	s0,sp,640
     27a:	9361                	srli	a4,a4,0x38
     27c:	0002                	0x2
     27e:	0800                	addi	s0,sp,16
     280:	00021e0b          	0x21e0b
     284:	0500                	addi	s0,sp,640
     286:	ff62                	fsw	fs8,188(sp)
     288:	0001                	nop
     28a:	8800                	0x8800
     28c:	0f00                	addi	s0,sp,912
     28e:	4f04                	lw	s1,24(a4)
     290:	0002                	0x2
     292:	0800                	addi	s0,sp,16
     294:	000002a3          	sb	zero,5(zero) # 5 <buf.1775+0x5>
     298:	000002a3          	sb	zero,5(zero) # 5 <buf.1775+0x5>
     29c:	2509                	jal	89e <vprintfmt.constprop.2+0x484>
     29e:	0000                	unimp
     2a0:	1f00                	addi	s0,sp,944
     2a2:	0f00                	addi	s0,sp,912
     2a4:	a904                	fsd	fs1,16(a0)
     2a6:	0002                	0x2
     2a8:	1200                	addi	s0,sp,288
     2aa:	aa0d                	j	3dc <printf_putch+0xc8>
     2ac:	08000007          	0x8000007
     2b0:	7505                	lui	a0,0xfffe1
     2b2:	000002cf          	fnmadd.s	ft5,ft0,ft0,ft0,rne
     2b6:	0001fb0b          	0x1fb0b
     2ba:	0500                	addi	s0,sp,640
     2bc:	cf76                	sw	t4,156(sp)
     2be:	0002                	0x2
     2c0:	0000                	unimp
     2c2:	0006380b          	0x6380b
     2c6:	0500                	addi	s0,sp,640
     2c8:	00003377          	0x3377
     2cc:	0400                	addi	s0,sp,512
     2ce:	0f00                	addi	s0,sp,912
     2d0:	4f04                	lw	s1,24(a4)
     2d2:	0000                	unimp
     2d4:	0d00                	addi	s0,sp,656
     2d6:	000005bb          	0x5bb
     2da:	0568                	addi	a0,sp,652
     2dc:	ffb5                	bnez	a5,258 <_start+0x58>
     2de:	0e000003          	lb	zero,224(zero) # e0 <buflen.1776+0xa0>
     2e2:	705f 0500 cfb6      	0xcfb60500705f
     2e8:	0002                	0x2
     2ea:	0000                	unimp
     2ec:	5f0e                	lw	t5,224(sp)
     2ee:	0072                	0x72
     2f0:	b705                	j	210 <_start+0x10>
     2f2:	00000033          	add	zero,zero,zero
     2f6:	0e04                	addi	s1,sp,784
     2f8:	775f 0500 33b8      	0x33b80500775f
     2fe:	0000                	unimp
     300:	0800                	addi	s0,sp,16
     302:	0002b30b          	0x2b30b
     306:	0500                	addi	s0,sp,640
     308:	56b9                	li	a3,-18
     30a:	0000                	unimp
     30c:	0c00                	addi	s0,sp,528
     30e:	0003a70b          	0x3a70b
     312:	0500                	addi	s0,sp,640
     314:	56ba                	lw	a3,172(sp)
     316:	0000                	unimp
     318:	0e00                	addi	s0,sp,784
     31a:	5f0e                	lw	t5,224(sp)
     31c:	6662                	flw	fa2,24(sp)
     31e:	0500                	addi	s0,sp,640
     320:	0002aabb          	0x2aabb
     324:	1000                	addi	s0,sp,32
     326:	0001430b          	0x1430b
     32a:	0500                	addi	s0,sp,640
     32c:	33bc                	fld	fa5,96(a5)
     32e:	0000                	unimp
     330:	1800                	addi	s0,sp,48
     332:	0002a30b          	0x2a30b
     336:	0500                	addi	s0,sp,640
     338:	000110c3          	fmadd.s	ft1,ft2,ft0,ft0,rtz
     33c:	1c00                	addi	s0,sp,560
     33e:	0005530b          	0x5530b
     342:	0500                	addi	s0,sp,640
     344:	6cc5                	lui	s9,0x11
     346:	0005                	c.addi	zero,1
     348:	2000                	fld	fs0,0(s0)
     34a:	0004770b          	0x4770b
     34e:	0500                	addi	s0,sp,640
     350:	00059bc7          	fmsub.s	fs7,fa1,ft0,ft0,rtz
     354:	2400                	fld	fs0,8(s0)
     356:	0006210b          	0x6210b
     35a:	0500                	addi	s0,sp,640
     35c:	bfca                	fsd	fs2,504(sp)
     35e:	0005                	c.addi	zero,1
     360:	2800                	fld	fs0,16(s0)
     362:	00019c0b          	0x19c0b
     366:	0500                	addi	s0,sp,640
     368:	0005d9cb          	fnmsub.s	fs3,fa1,ft0,ft0,unknown
     36c:	2c00                	fld	fs0,24(s0)
     36e:	5f0e                	lw	t5,224(sp)
     370:	6275                	lui	tp,0x1d
     372:	0500                	addi	s0,sp,640
     374:	aace                	fsd	fs3,336(sp)
     376:	0002                	0x2
     378:	3000                	fld	fs0,32(s0)
     37a:	5f0e                	lw	t5,224(sp)
     37c:	7075                	0x7075
     37e:	0500                	addi	s0,sp,640
     380:	0002cfcf          	fnmadd.s	ft11,ft5,ft0,ft0,rmm
     384:	3800                	fld	fs0,48(s0)
     386:	5f0e                	lw	t5,224(sp)
     388:	7275                	lui	tp,0xffffd
     38a:	0500                	addi	s0,sp,640
     38c:	33d0                	fld	fa2,160(a5)
     38e:	0000                	unimp
     390:	3c00                	fld	fs0,56(s0)
     392:	0001f50b          	0x1f50b
     396:	0500                	addi	s0,sp,640
     398:	0005dfd3          	fadd.s	ft11,fa1,ft0,unknown
     39c:	4000                	lw	s0,0(s0)
     39e:	00072a0b          	0x72a0b
     3a2:	0500                	addi	s0,sp,640
     3a4:	efd4                	fsw	fa3,28(a5)
     3a6:	0005                	c.addi	zero,1
     3a8:	4300                	lw	s0,0(a4)
     3aa:	5f0e                	lw	t5,224(sp)
     3ac:	626c                	flw	fa1,68(a2)
     3ae:	0500                	addi	s0,sp,640
     3b0:	0002aad7          	0x2aad7
     3b4:	4400                	lw	s0,8(s0)
     3b6:	00062f0b          	0x62f0b
     3ba:	0500                	addi	s0,sp,640
     3bc:	33da                	fld	ft7,432(sp)
     3be:	0000                	unimp
     3c0:	4c00                	lw	s0,24(s0)
     3c2:	0004b90b          	0x4b90b
     3c6:	0500                	addi	s0,sp,640
     3c8:	00007ddb          	0x7ddb
     3cc:	5000                	lw	s0,32(s0)
     3ce:	0000550b          	0x550b
     3d2:	0500                	addi	s0,sp,640
     3d4:	1dde                	slli	s11,s11,0x37
     3d6:	0004                	addi	s1,sp,0
     3d8:	5400                	lw	s0,40(s0)
     3da:	0004490b          	0x4490b
     3de:	0500                	addi	s0,sp,640
     3e0:	05e2                	slli	a1,a1,0x18
     3e2:	0001                	nop
     3e4:	5800                	lw	s0,48(s0)
     3e6:	00038f0b          	0x38f0b
     3ea:	0500                	addi	s0,sp,640
     3ec:	fae4                	fsw	fs1,116(a3)
     3ee:	0000                	unimp
     3f0:	5c00                	lw	s0,56(s0)
     3f2:	0005990b          	0x5990b
     3f6:	0500                	addi	s0,sp,640
     3f8:	33e5                	jal	1e0 <machine_trap_entry+0x20>
     3fa:	0000                	unimp
     3fc:	6400                	flw	fs0,8(s0)
     3fe:	1300                	addi	s0,sp,416
     400:	00000093          	li	ra,0
     404:	041d                	addi	s0,s0,7
     406:	0000                	unimp
     408:	1d14                	addi	a3,sp,688
     40a:	0004                	addi	s1,sp,0
     40c:	1400                	addi	s0,sp,544
     40e:	0110                	addi	a2,sp,128
     410:	0000                	unimp
     412:	5a14                	lw	a3,48(a2)
     414:	0005                	c.addi	zero,1
     416:	1400                	addi	s0,sp,544
     418:	00000033          	add	zero,zero,zero
     41c:	0f00                	addi	s0,sp,912
     41e:	2804                	fld	fs1,16(s0)
     420:	0004                	addi	s1,sp,0
     422:	1500                	addi	s0,sp,672
     424:	041d                	addi	s0,s0,7
     426:	0000                	unimp
     428:	fe16                	fsw	ft5,60(sp)
     42a:	0005                	c.addi	zero,1
     42c:	2800                	fld	fs0,16(s0)
     42e:	0504                	addi	s1,sp,640
     430:	0239                	addi	tp,tp,14
     432:	055a                	slli	a0,a0,0x16
     434:	0000                	unimp
     436:	00058917          	auipc	s2,0x58
     43a:	0500                	addi	s0,sp,640
     43c:	0033023b          	0x33023b
     440:	0000                	unimp
     442:	1700                	addi	s0,sp,928
     444:	000006f7          	0x6f7
     448:	4005                	0x4005
     44a:	4602                	lw	a2,0(sp)
     44c:	0006                	0x6
     44e:	0400                	addi	s0,sp,512
     450:	0006df17          	auipc	t5,0x6d
     454:	0500                	addi	s0,sp,640
     456:	0240                	addi	s0,sp,260
     458:	0646                	slli	a2,a2,0x11
     45a:	0000                	unimp
     45c:	1708                	addi	a0,sp,928
     45e:	0342                	slli	t1,t1,0x10
     460:	0000                	unimp
     462:	4005                	0x4005
     464:	4602                	lw	a2,0(sp)
     466:	0006                	0x6
     468:	0c00                	addi	s0,sp,528
     46a:	0005da17          	auipc	s4,0x5d
     46e:	0500                	addi	s0,sp,640
     470:	0242                	slli	tp,tp,0x10
     472:	00000033          	add	zero,zero,zero
     476:	1710                	addi	a2,sp,928
     478:	0024                	addi	s1,sp,8
     47a:	0000                	unimp
     47c:	4305                	li	t1,1
     47e:	2802                	fld	fa6,0(sp)
     480:	0008                	addi	a0,sp,0
     482:	1400                	addi	s0,sp,544
     484:	00036217          	auipc	tp,0x36
     488:	0500                	addi	s0,sp,640
     48a:	0246                	slli	tp,tp,0x11
     48c:	00000033          	add	zero,zero,zero
     490:	1730                	addi	a2,sp,936
     492:	05e4                	addi	s1,sp,716
     494:	0000                	unimp
     496:	4705                	li	a4,1
     498:	3d02                	fld	fs10,32(sp)
     49a:	0008                	addi	a0,sp,0
     49c:	3400                	fld	fs0,40(s0)
     49e:	00050617          	auipc	a2,0x50
     4a2:	0500                	addi	s0,sp,640
     4a4:	0249                	addi	tp,tp,18
     4a6:	00000033          	add	zero,zero,zero
     4aa:	1738                	addi	a4,sp,936
     4ac:	05ec                	addi	a1,sp,716
     4ae:	0000                	unimp
     4b0:	4b05                	li	s6,1
     4b2:	4e02                	lw	t3,0(sp)
     4b4:	0008                	addi	a0,sp,0
     4b6:	3c00                	fld	fs0,56(s0)
     4b8:	00042517          	auipc	a0,0x42
     4bc:	0500                	addi	s0,sp,640
     4be:	024e                	slli	tp,tp,0x13
     4c0:	0170                	addi	a2,sp,140
     4c2:	0000                	unimp
     4c4:	1740                	addi	s0,sp,932
     4c6:	02ce                	slli	t0,t0,0x13
     4c8:	0000                	unimp
     4ca:	4f05                	li	t5,1
     4cc:	3302                	fld	ft6,32(sp)
     4ce:	0000                	unimp
     4d0:	4400                	lw	s0,8(s0)
     4d2:	00079317          	auipc	t1,0x79
     4d6:	0500                	addi	s0,sp,640
     4d8:	0250                	addi	a2,sp,260
     4da:	0170                	addi	a2,sp,140
     4dc:	0000                	unimp
     4de:	1748                	addi	a0,sp,932
     4e0:	0522                	slli	a0,a0,0x8
     4e2:	0000                	unimp
     4e4:	5105                	li	sp,-31
     4e6:	5402                	lw	s0,32(sp)
     4e8:	0008                	addi	a0,sp,0
     4ea:	4c00                	lw	s0,24(s0)
     4ec:	00039f17          	auipc	t5,0x39
     4f0:	0500                	addi	s0,sp,640
     4f2:	0254                	addi	a3,sp,260
     4f4:	00000033          	add	zero,zero,zero
     4f8:	1750                	addi	a2,sp,932
     4fa:	000002fb          	0x2fb
     4fe:	5505                	li	a0,-31
     500:	5a02                	lw	s4,32(sp)
     502:	0005                	c.addi	zero,1
     504:	5400                	lw	s0,40(s0)
     506:	00058217          	auipc	tp,0x58
     50a:	0500                	addi	s0,sp,640
     50c:	0278                	addi	a4,sp,268
     50e:	0806                	slli	a6,a6,0x1
     510:	0000                	unimp
     512:	1858                	addi	a4,sp,52
     514:	04f4                	addi	a3,sp,588
     516:	0000                	unimp
     518:	7c05                	lui	s8,0xfffe1
     51a:	8d02                	jr	s10
     51c:	0002                	0x2
     51e:	4800                	lw	s0,16(s0)
     520:	1801                	addi	a6,a6,-32
     522:	00000403          	lb	s0,0(zero) # 0 <buf.1775>
     526:	7d05                	lui	s10,0xfffe1
     528:	4f02                	lw	t5,0(sp)
     52a:	0002                	0x2
     52c:	4c00                	lw	s0,24(s0)
     52e:	1801                	addi	a6,a6,-32
     530:	0711                	addi	a4,a4,4
     532:	0000                	unimp
     534:	8105                	srli	a0,a0,0x1
     536:	6502                	flw	fa0,0(sp)
     538:	0008                	addi	a0,sp,0
     53a:	dc00                	sw	s0,56(s0)
     53c:	1802                	slli	a6,a6,0x20
     53e:	000002ab          	0x2ab
     542:	8605                	srai	a2,a2,0x1
     544:	0b02                	slli	s6,s6,0x0
     546:	0006                	0x6
     548:	e000                	fsw	fs0,0(s0)
     54a:	1802                	slli	a6,a6,0x20
     54c:	0219                	addi	tp,tp,6
     54e:	0000                	unimp
     550:	8705                	srai	a4,a4,0x1
     552:	7102                	flw	ft2,32(sp)
     554:	0008                	addi	a0,sp,0
     556:	ec00                	fsw	fs0,24(s0)
     558:	0002                	0x2
     55a:	0560040f          	0x560040f
     55e:	0000                	unimp
     560:	0102                	slli	sp,sp,0x0
     562:	9d08                	0x9d08
     564:	0006                	0x6
     566:	1500                	addi	s0,sp,672
     568:	0560                	addi	s0,sp,652
     56a:	0000                	unimp
     56c:	03ff040f          	0x3ff040f
     570:	0000                	unimp
     572:	00009313          	slli	t1,ra,0x0
     576:	9000                	0x9000
     578:	0005                	c.addi	zero,1
     57a:	1400                	addi	s0,sp,544
     57c:	041d                	addi	s0,s0,7
     57e:	0000                	unimp
     580:	1014                	addi	a3,sp,32
     582:	0001                	nop
     584:	1400                	addi	s0,sp,544
     586:	0590                	addi	a2,sp,704
     588:	0000                	unimp
     58a:	3314                	fld	fa3,32(a4)
     58c:	0000                	unimp
     58e:	0000                	unimp
     590:	0567040f          	0x567040f
     594:	0000                	unimp
     596:	9015                	srli	s0,s0,0x25
     598:	0005                	c.addi	zero,1
     59a:	0f00                	addi	s0,sp,912
     59c:	7204                	flw	fs1,32(a2)
     59e:	0005                	c.addi	zero,1
     5a0:	1300                	addi	s0,sp,416
     5a2:	0088                	addi	a0,sp,64
     5a4:	0000                	unimp
     5a6:	000005bf 00041d14 	0x41d14000005bf
     5ae:	1400                	addi	s0,sp,544
     5b0:	0110                	addi	a2,sp,128
     5b2:	0000                	unimp
     5b4:	8814                	0x8814
     5b6:	0000                	unimp
     5b8:	1400                	addi	s0,sp,544
     5ba:	00000033          	add	zero,zero,zero
     5be:	0f00                	addi	s0,sp,912
     5c0:	a104                	fsd	fs1,0(a0)
     5c2:	0005                	c.addi	zero,1
     5c4:	1300                	addi	s0,sp,416
     5c6:	00000033          	add	zero,zero,zero
     5ca:	05d9                	addi	a1,a1,22
     5cc:	0000                	unimp
     5ce:	1d14                	addi	a3,sp,688
     5d0:	0004                	addi	s1,sp,0
     5d2:	1400                	addi	s0,sp,544
     5d4:	0110                	addi	a2,sp,128
     5d6:	0000                	unimp
     5d8:	0f00                	addi	s0,sp,912
     5da:	c504                	sw	s1,8(a0)
     5dc:	0005                	c.addi	zero,1
     5de:	0800                	addi	s0,sp,16
     5e0:	0000004f          	fnmadd.s	ft0,ft0,ft0,ft0,rne
     5e4:	000005ef          	jal	a1,5e4 <vprintfmt.constprop.2+0x1ca>
     5e8:	2509                	jal	bea <main+0x126>
     5ea:	0000                	unimp
     5ec:	0200                	addi	s0,sp,256
     5ee:	0800                	addi	s0,sp,16
     5f0:	0000004f          	fnmadd.s	ft0,ft0,ft0,ft0,rne
     5f4:	05ff                	0x5ff
     5f6:	0000                	unimp
     5f8:	2509                	jal	bfa <main+0x136>
     5fa:	0000                	unimp
     5fc:	0000                	unimp
     5fe:	0500                	addi	s0,sp,640
     600:	000002c7          	fmsub.s	ft5,ft0,ft0,ft0,rne
     604:	1f05                	addi	t5,t5,-31
     606:	d501                	beqz	a0,50e <vprintfmt.constprop.2+0xf4>
     608:	0002                	0x2
     60a:	1900                	addi	s0,sp,176
     60c:	06f1                	addi	a3,a3,28
     60e:	0000                	unimp
     610:	050c                	addi	a1,sp,640
     612:	06400123          	sb	tp,98(zero) # 62 <buflen.1776+0x22>
     616:	0000                	unimp
     618:	0007c017          	auipc	zero,0x7c
     61c:	0500                	addi	s0,sp,640
     61e:	0125                	addi	sp,sp,9
     620:	0640                	addi	s0,sp,772
     622:	0000                	unimp
     624:	1700                	addi	s0,sp,928
     626:	000003bf 33012605 	0x33012605000003bf
     62e:	0000                	unimp
     630:	0400                	addi	s0,sp,512
     632:	0005a117          	auipc	sp,0x5a
     636:	0500                	addi	s0,sp,640
     638:	06460127          	0x6460127
     63c:	0000                	unimp
     63e:	0008                	addi	a0,sp,0
     640:	060b040f          	0x60b040f
     644:	0000                	unimp
     646:	05ff040f          	0x5ff040f
     64a:	0000                	unimp
     64c:	1c19                	addi	s8,s8,-26
     64e:	0000                	unimp
     650:	0e00                	addi	s0,sp,784
     652:	3f05                	jal	582 <vprintfmt.constprop.2+0x168>
     654:	8101                	srli	a0,a0,0x0
     656:	0006                	0x6
     658:	1700                	addi	s0,sp,928
     65a:	0000065b          	0x65b
     65e:	4005                	0x4005
     660:	8101                	srli	a0,a0,0x0
     662:	0006                	0x6
     664:	0000                	unimp
     666:	00045417          	auipc	s0,0x45
     66a:	0500                	addi	s0,sp,640
     66c:	0141                	addi	sp,sp,16
     66e:	0681                	addi	a3,a3,0
     670:	0000                	unimp
     672:	1706                	slli	a4,a4,0x21
     674:	06a2                	slli	a3,a3,0x8
     676:	0000                	unimp
     678:	4205                	li	tp,1
     67a:	5d01                	li	s10,-32
     67c:	0000                	unimp
     67e:	0c00                	addi	s0,sp,528
     680:	0800                	addi	s0,sp,16
     682:	005d                	c.addi	zero,23
     684:	0000                	unimp
     686:	0691                	addi	a3,a3,4
     688:	0000                	unimp
     68a:	2509                	jal	c8c <main+0x1c8>
     68c:	0000                	unimp
     68e:	0200                	addi	s0,sp,256
     690:	1a00                	addi	s0,sp,304
     692:	05d0                	addi	a2,sp,708
     694:	0259                	addi	tp,tp,22
     696:	0792                	slli	a5,a5,0x4
     698:	0000                	unimp
     69a:	00049017          	auipc	zero,0x49
     69e:	0500                	addi	s0,sp,640
     6a0:	0025025b          	0x25025b
     6a4:	0000                	unimp
     6a6:	1700                	addi	s0,sp,928
     6a8:	00000677          	0x677
     6ac:	5c05                	li	s8,-31
     6ae:	5a02                	lw	s4,32(sp)
     6b0:	0005                	c.addi	zero,1
     6b2:	0400                	addi	s0,sp,512
     6b4:	00041817          	auipc	a6,0x41
     6b8:	0500                	addi	s0,sp,640
     6ba:	025d                	addi	tp,tp,23
     6bc:	0792                	slli	a5,a5,0x4
     6be:	0000                	unimp
     6c0:	1708                	addi	a0,sp,928
     6c2:	074d                	addi	a4,a4,19
     6c4:	0000                	unimp
     6c6:	5e05                	li	t3,-31
     6c8:	8602                	jr	a2
     6ca:	0001                	nop
     6cc:	2400                	fld	fs0,8(s0)
     6ce:	00034a17          	auipc	s4,0x34
     6d2:	0500                	addi	s0,sp,640
     6d4:	025f 0033 0000      	0x33025f
     6da:	1748                	addi	a0,sp,932
     6dc:	000007bb          	0x7bb
     6e0:	6005                	0x6005
     6e2:	2c02                	fld	fs8,0(sp)
     6e4:	0000                	unimp
     6e6:	5000                	lw	s0,32(s0)
     6e8:	00076517          	auipc	a0,0x76
     6ec:	0500                	addi	s0,sp,640
     6ee:	0261                	addi	tp,tp,24
     6f0:	064c                	addi	a1,sp,772
     6f2:	0000                	unimp
     6f4:	1758                	addi	a4,sp,932
     6f6:	05cd                	addi	a1,a1,19
     6f8:	0000                	unimp
     6fa:	6205                	lui	tp,0x1
     6fc:	fa02                	fsw	ft0,52(sp)
     6fe:	0000                	unimp
     700:	6800                	flw	fs0,16(s0)
     702:	00078517          	auipc	a0,0x78
     706:	0500                	addi	s0,sp,640
     708:	00fa0263          	beq	s4,a5,70c <vprintfmt.constprop.2+0x2f2>
     70c:	0000                	unimp
     70e:	1770                	addi	a2,sp,940
     710:	0000020b          	0x20b
     714:	6405                	lui	s0,0x1
     716:	fa02                	fsw	ft0,52(sp)
     718:	0000                	unimp
     71a:	7800                	flw	fs0,48(s0)
     71c:	00070717          	auipc	a4,0x70
     720:	0500                	addi	s0,sp,640
     722:	0265                	addi	tp,tp,25
     724:	07a2                	slli	a5,a5,0x8
     726:	0000                	unimp
     728:	1780                	addi	s0,sp,992
     72a:	040c                	addi	a1,sp,512
     72c:	0000                	unimp
     72e:	6605                	lui	a2,0x1
     730:	b202                	fsd	ft0,288(sp)
     732:	88000007          	0x88000007
     736:	00004817          	auipc	a6,0x4
     73a:	0500                	addi	s0,sp,640
     73c:	00330267          	jalr	tp,3(t1) # 794d5 <__C_STACK_TOP__+0x694d5>
     740:	0000                	unimp
     742:	17a0                	addi	s0,sp,1000
     744:	0314                	addi	a3,sp,384
     746:	0000                	unimp
     748:	6805                	lui	a6,0x1
     74a:	fa02                	fsw	ft0,52(sp)
     74c:	0000                	unimp
     74e:	a400                	fsd	fs0,8(s0)
     750:	00017c17          	auipc	s8,0x17
     754:	0500                	addi	s0,sp,640
     756:	0269                	addi	tp,tp,26
     758:	00fa                	slli	ra,ra,0x1e
     75a:	0000                	unimp
     75c:	17ac                	addi	a1,sp,1000
     75e:	00000303          	lb	t1,0(zero) # 4969a <__C_STACK_TOP__+0x3969a>
     762:	6a05                	lui	s4,0x1
     764:	fa02                	fsw	ft0,52(sp)
     766:	0000                	unimp
     768:	b400                	fsd	fs0,40(s0)
     76a:	00005b17          	auipc	s6,0x5
     76e:	0500                	addi	s0,sp,640
     770:	00fa026b          	0xfa026b
     774:	0000                	unimp
     776:	17bc                	addi	a5,sp,1000
     778:	0128                	addi	a0,sp,136
     77a:	0000                	unimp
     77c:	6c05                	lui	s8,0x1
     77e:	fa02                	fsw	ft0,52(sp)
     780:	0000                	unimp
     782:	c400                	sw	s0,8(s0)
     784:	00058717          	auipc	a4,0x58
     788:	0500                	addi	s0,sp,640
     78a:	026d                	addi	tp,tp,27
     78c:	00000033          	add	zero,zero,zero
     790:	00cc                	addi	a1,sp,68
     792:	6008                	flw	fa0,0(s0)
     794:	0005                	c.addi	zero,1
     796:	a200                	fsd	fs0,0(a2)
     798:	09000007          	0x9000007
     79c:	0025                	c.addi	zero,9
     79e:	0000                	unimp
     7a0:	0019                	c.addi	zero,6
     7a2:	6008                	flw	fa0,0(s0)
     7a4:	0005                	c.addi	zero,1
     7a6:	b200                	fsd	fs0,32(a2)
     7a8:	09000007          	0x9000007
     7ac:	0025                	c.addi	zero,9
     7ae:	0000                	unimp
     7b0:	60080007          	0x60080007
     7b4:	0005                	c.addi	zero,1
     7b6:	c200                	sw	s0,0(a2)
     7b8:	09000007          	0x9000007
     7bc:	0025                	c.addi	zero,9
     7be:	0000                	unimp
     7c0:	f01a0017          	auipc	zero,0xf01a0
     7c4:	7205                	lui	tp,0xfffe1
     7c6:	e602                	fsw	ft0,12(sp)
     7c8:	17000007          	0x17000007
     7cc:	00000433          	add	s0,zero,zero
     7d0:	7505                	lui	a0,0xfffe1
     7d2:	e602                	fsw	ft0,12(sp)
     7d4:	00000007          	0x7
     7d8:	00035917          	auipc	s2,0x35
     7dc:	0500                	addi	s0,sp,640
     7de:	0276                	slli	tp,tp,0x1d
     7e0:	07f6                	slli	a5,a5,0x1d
     7e2:	0000                	unimp
     7e4:	0078                	addi	a4,sp,12
     7e6:	cf08                	sw	a0,24(a4)
     7e8:	0002                	0x2
     7ea:	f600                	fsw	fs0,40(a2)
     7ec:	09000007          	0x9000007
     7f0:	0025                	c.addi	zero,9
     7f2:	0000                	unimp
     7f4:	001d                	c.addi	zero,7
     7f6:	2508                	fld	fa0,8(a0)
     7f8:	0000                	unimp
     7fa:	0600                	addi	s0,sp,768
     7fc:	0008                	addi	a0,sp,0
     7fe:	0900                	addi	s0,sp,144
     800:	0025                	c.addi	zero,9
     802:	0000                	unimp
     804:	001d                	c.addi	zero,7
     806:	5705f01b          	0x5705f01b
     80a:	2802                	fld	fa6,0(sp)
     80c:	0008                	addi	a0,sp,0
     80e:	1c00                	addi	s0,sp,560
     810:	05fe                	slli	a1,a1,0x1f
     812:	0000                	unimp
     814:	6e05                	lui	t3,0x1
     816:	9102                	jalr	sp
     818:	0006                	0x6
     81a:	1c00                	addi	s0,sp,560
     81c:	0730                	addi	a2,sp,904
     81e:	0000                	unimp
     820:	7705                	lui	a4,0xfffe1
     822:	c202                	sw	zero,4(sp)
     824:	00000007          	0x7
     828:	6008                	flw	fa0,0(s0)
     82a:	0005                	c.addi	zero,1
     82c:	3800                	fld	fs0,48(s0)
     82e:	0008                	addi	a0,sp,0
     830:	0900                	addi	s0,sp,144
     832:	0025                	c.addi	zero,9
     834:	0000                	unimp
     836:	0018                	addi	a4,sp,0
     838:	711d                	addi	sp,sp,-96
     83a:	0001                	nop
     83c:	0f00                	addi	s0,sp,912
     83e:	3804                	fld	fs1,48(s0)
     840:	0008                	addi	a0,sp,0
     842:	1e00                	addi	s0,sp,816
     844:	084e                	slli	a6,a6,0x13
     846:	0000                	unimp
     848:	1d14                	addi	a3,sp,688
     84a:	0004                	addi	s1,sp,0
     84c:	0000                	unimp
     84e:	0843040f          	0x843040f
     852:	0000                	unimp
     854:	0170040f          	0x170040f
     858:	0000                	unimp
     85a:	651e                	flw	fa0,196(sp)
     85c:	0008                	addi	a0,sp,0
     85e:	1400                	addi	s0,sp,544
     860:	00000033          	add	zero,zero,zero
     864:	0f00                	addi	s0,sp,912
     866:	6b04                	flw	fs1,16(a4)
     868:	0008                	addi	a0,sp,0
     86a:	0f00                	addi	s0,sp,912
     86c:	5a04                	lw	s1,48(a2)
     86e:	0008                	addi	a0,sp,0
     870:	0800                	addi	s0,sp,16
     872:	05ff                	0x5ff
     874:	0000                	unimp
     876:	0881                	addi	a7,a7,0
     878:	0000                	unimp
     87a:	2509                	jal	e7c <main+0x3b8>
     87c:	0000                	unimp
     87e:	0200                	addi	s0,sp,256
     880:	1f00                	addi	s0,sp,944
     882:	000006cb          	fnmsub.s	fa3,ft0,ft0,ft0,rne
     886:	fe05                	bnez	a2,7be <vprintfmt.constprop.2+0x3a4>
     888:	1d02                	slli	s10,s10,0x20
     88a:	0004                	addi	s1,sp,0
     88c:	1f00                	addi	s0,sp,944
     88e:	06c4                	addi	s1,sp,836
     890:	0000                	unimp
     892:	ff05                	bnez	a4,7ca <vprintfmt.constprop.2+0x3b0>
     894:	2302                	fld	ft6,0(sp)
     896:	0004                	addi	s1,sp,0
     898:	0800                	addi	s0,sp,16
     89a:	0596                	slli	a1,a1,0x5
     89c:	0000                	unimp
     89e:	08a4                	addi	s1,sp,88
     8a0:	0000                	unimp
     8a2:	0020                	addi	s0,sp,8
     8a4:	9915                	andi	a0,a0,-27
     8a6:	0008                	addi	a0,sp,0
     8a8:	2100                	fld	fs0,0(a0)
     8aa:	02ee                	slli	t0,t0,0x1b
     8ac:	0000                	unimp
     8ae:	1406                	slli	s0,s0,0x21
     8b0:	08a4                	addi	s1,sp,88
     8b2:	0000                	unimp
     8b4:	c321                	beqz	a4,8f4 <vprintfmt.constprop.2+0x4da>
     8b6:	0005                	c.addi	zero,1
     8b8:	0600                	addi	s0,sp,768
     8ba:	3315                	jal	5de <vprintfmt.constprop.2+0x1c4>
     8bc:	0000                	unimp
     8be:	0f00                	addi	s0,sp,912
     8c0:	c504                	sw	s1,8(a0)
     8c2:	0008                	addi	a0,sp,0
     8c4:	1300                	addi	s0,sp,416
     8c6:	00000033          	add	zero,zero,zero
     8ca:	08d9                	addi	a7,a7,22
     8cc:	0000                	unimp
     8ce:	d914                	sw	a3,48(a0)
     8d0:	0008                	addi	a0,sp,0
     8d2:	1400                	addi	s0,sp,544
     8d4:	08d9                	addi	a7,a7,22
     8d6:	0000                	unimp
     8d8:	0f00                	addi	s0,sp,912
     8da:	df04                	sw	s1,56(a4)
     8dc:	0008                	addi	a0,sp,0
     8de:	2200                	fld	fs0,0(a2)
     8e0:	fc21                	bnez	s0,838 <vprintfmt.constprop.2+0x41e>
     8e2:	0004                	addi	s1,sp,0
     8e4:	0700                	addi	s0,sp,896
     8e6:	00055a63          	bgez	a0,8fa <vprintfmt.constprop.2+0x4e0>
     8ea:	2100                	fld	fs0,0(a0)
     8ec:	043a                	slli	s0,s0,0xe
     8ee:	0000                	unimp
     8f0:	1008                	addi	a0,sp,32
     8f2:	08f6                	slli	a7,a7,0x1d
     8f4:	0000                	unimp
     8f6:	055a040f          	0x55a040f
     8fa:	0000                	unimp
     8fc:	ff21                	bnez	a4,854 <vprintfmt.constprop.2+0x43a>
     8fe:	0004                	addi	s1,sp,0
     900:	0800                	addi	s0,sp,16
     902:	5ae2                	lw	s5,56(sp)
     904:	0005                	c.addi	zero,1
     906:	2100                	fld	fs0,0(a0)
     908:	014c                	addi	a1,sp,132
     90a:	0000                	unimp
     90c:	e308                	fsw	fa0,0(a4)
     90e:	00000033          	add	zero,zero,zero
     912:	6121                	addi	sp,sp,64
     914:	0006                	0x6
     916:	0800                	addi	s0,sp,16
     918:	000033e3          	0x33e3
     91c:	2100                	fld	fs0,0(a0)
     91e:	0774                	addi	a3,sp,908
     920:	0000                	unimp
     922:	e308                	fsw	fa0,0(a4)
     924:	00000033          	add	zero,zero,zero
     928:	6e21                	lui	t3,0x8
     92a:	0004                	addi	s1,sp,0
     92c:	0800                	addi	s0,sp,16
     92e:	33e5                	jal	716 <vprintfmt.constprop.2+0x2fc>
     930:	0000                	unimp
     932:	2100                	fld	fs0,0(a0)
     934:	052c                	addi	a1,sp,648
     936:	0000                	unimp
     938:	9a09                	andi	a2,a2,-30
     93a:	0064                	addi	s1,sp,12
     93c:	0000                	unimp
     93e:	2f21                	jal	1056 <main+0x592>
     940:	0000                	unimp
     942:	0900                	addi	s0,sp,144
     944:	0000339b          	0x339b
     948:	0800                	addi	s0,sp,16
     94a:	055a                	slli	a0,a0,0x16
     94c:	0000                	unimp
     94e:	0959                	addi	s2,s2,22
     950:	0000                	unimp
     952:	2509                	jal	f54 <main+0x490>
     954:	0000                	unimp
     956:	0100                	addi	s0,sp,128
     958:	2100                	fld	fs0,0(a0)
     95a:	0000018b          	0x18b
     95e:	9e09                	0x9e09
     960:	0949                	addi	s2,s2,18
     962:	0000                	unimp
     964:	ad04                	fsd	fs1,24(a0)
     966:	0a000003          	lb	zero,160(zero) # f01a0860 <__C_STACK_TOP__+0xf0190860>
     96a:	252a                	fld	fa0,136(sp)
     96c:	0000                	unimp
     96e:	0400                	addi	s0,sp,512
     970:	05b1                	addi	a1,a1,12
     972:	0000                	unimp
     974:	2f0a                	fld	ft10,128(sp)
     976:	097a                	slli	s2,s2,0x1e
     978:	0000                	unimp
     97a:	0980040f          	0x980040f
     97e:	0000                	unimp
     980:	00096413          	ori	s0,s2,0
     984:	8f00                	0x8f00
     986:	0009                	c.addi	zero,2
     988:	1400                	addi	s0,sp,544
     98a:	08d9                	addi	a7,a7,22
     98c:	0000                	unimp
     98e:	0400                	addi	s0,sp,512
     990:	07c6                	slli	a5,a5,0x11
     992:	0000                	unimp
     994:	360a                	fld	fa2,160(sp)
     996:	000008bf 00000a21 	0xa21000008bf
     99e:	0a00                	addi	s0,sp,272
     9a0:	00096fbb          	0x96fbb
     9a4:	2100                	fld	fs0,0(a0)
     9a6:	000006af          	0x6af
     9aa:	be0a                	fsd	ft2,312(sp)
     9ac:	0000098f          	0x98f
     9b0:	00038023          	sb	zero,0(t2)
     9b4:	0700                	addi	s0,sp,896
     9b6:	2504                	fld	fs1,8(a0)
     9b8:	0000                	unimp
     9ba:	0b00                	addi	s0,sp,400
     9bc:	e618                	fsw	fa4,8(a2)
     9be:	0009                	c.addi	zero,2
     9c0:	2400                	fld	fs0,8(s0)
     9c2:	0562                	slli	a0,a0,0x18
     9c4:	0000                	unimp
     9c6:	2400                	fld	fs0,8(s0)
     9c8:	04d2                	slli	s1,s1,0x14
     9ca:	0000                	unimp
     9cc:	2401                	jal	bcc <main+0x108>
     9ce:	049d                	addi	s1,s1,7
     9d0:	0000                	unimp
     9d2:	2402                	fld	fs0,0(sp)
     9d4:	0559                	addi	a0,a0,22
     9d6:	0000                	unimp
     9d8:	077b2403          	lw	s0,119(s6) # 57e1 <__global_pointer$+0x1c21>
     9dc:	0000                	unimp
     9de:	2404                	fld	fs1,8(s0)
     9e0:	076a                	slli	a4,a4,0x1a
     9e2:	0000                	unimp
     9e4:	0005                	c.addi	zero,1
     9e6:	6721                	lui	a4,0x8
     9e8:	0001                	nop
     9ea:	0b00                	addi	s0,sp,400
     9ec:	b020                	fsd	fs0,96(s0)
     9ee:	0009                	c.addi	zero,2
     9f0:	2300                	fld	fs0,0(a4)
     9f2:	04a8                	addi	a0,sp,584
     9f4:	0000                	unimp
     9f6:	00250407          	0x250407
     9fa:	0000                	unimp
     9fc:	0a15220b          	0xa15220b
     a00:	0000                	unimp
     a02:	a724                	fsd	fs1,72(a4)
     a04:	0005                	c.addi	zero,1
     a06:	0000                	unimp
     a08:	7824                	flw	fs1,112(s0)
     a0a:	0005                	c.addi	zero,1
     a0c:	0100                	addi	s0,sp,128
     a0e:	8424                	0x8424
     a10:	0006                	0x6
     a12:	0200                	addi	s0,sp,256
     a14:	2100                	fld	fs0,0(a0)
     a16:	0322                	slli	t1,t1,0x8
     a18:	0000                	unimp
     a1a:	09f1270b          	0x9f1270b
     a1e:	0000                	unimp
     a20:	5f21                	li	t5,-24
     a22:	0004                	addi	s1,sp,0
     a24:	0c00                	addi	s0,sp,528
     a26:	a425                	j	c4e <main+0x18a>
     a28:	0008                	addi	a0,sp,0
     a2a:	2100                	fld	fs0,0(a0)
     a2c:	0000064b          	fnmsub.s	fa2,ft0,ft0,ft0,rne
     a30:	310c                	fld	fa1,32(a0)
     a32:	08a4                	addi	s1,sp,88
     a34:	0000                	unimp
     a36:	a204                	fsd	fs1,0(a2)
     a38:	0d000007          	0xd000007
     a3c:	00004f7b          	0x4f7b
     a40:	1500                	addi	s0,sp,672
     a42:	0a36                	slli	s4,s4,0xd
     a44:	0000                	unimp
     a46:	d904                	sw	s1,48(a0)
     a48:	0002                	0x2
     a4a:	0d00                	addi	s0,sp,656
     a4c:	3380                	fld	fs0,32(a5)
     a4e:	0000                	unimp
     a50:	0400                	addi	s0,sp,512
     a52:	02d8                	addi	a4,sp,324
     a54:	0000                	unimp
     a56:	810d                	srli	a0,a0,0x3
     a58:	0025                	c.addi	zero,9
     a5a:	0000                	unimp
     a5c:	d804                	sw	s1,48(s0)
     a5e:	0006                	0x6
     a60:	0d00                	addi	s0,sp,656
     a62:	3a84                	fld	fs1,48(a3)
     a64:	0000                	unimp
     a66:	0400                	addi	s0,sp,512
     a68:	000006d7          	0x6d7
     a6c:	850d                	srai	a0,a0,0x3
     a6e:	002c                	addi	a1,sp,8
     a70:	0000                	unimp
     a72:	0402                	slli	s0,s0,0x0
     a74:	e504                	fsw	fs1,8(a0)
     a76:	0004                	addi	s1,sp,0
     a78:	0200                	addi	s0,sp,256
     a7a:	0308                	addi	a0,sp,384
     a7c:	04dd                	addi	s1,s1,23
     a7e:	0000                	unimp
     a80:	0802                	slli	a6,a6,0x0
     a82:	6004                	flw	fs1,0(s0)
     a84:	0001                	nop
     a86:	0200                	addi	s0,sp,256
     a88:	0310                	addi	a2,sp,384
     a8a:	0039                	c.addi	zero,14
     a8c:	0000                	unimp
     a8e:	2002                	fld	ft0,0(sp)
     a90:	00015303          	lhu	t1,0(sp) # 5a632 <__C_STACK_TOP__+0x4a632>
     a94:	1900                	addi	s0,sp,176
     a96:	03dd                	addi	t2,t2,23
     a98:	0000                	unimp
     a9a:	0d08                	addi	a0,sp,656
     a9c:	01ed                	addi	gp,gp,27
     a9e:	0abd                	addi	s5,s5,15
     aa0:	0000                	unimp
     aa2:	6c25                	lui	s8,0x9
     aa4:	0d00776f          	jal	a4,7b74 <__BSS_END__+0x1ef4>
     aa8:	01ed                	addi	gp,gp,27
     aaa:	0a46                	slli	s4,s4,0x11
     aac:	0000                	unimp
     aae:	1700                	addi	s0,sp,928
     ab0:	0668                	addi	a0,sp,780
     ab2:	0000                	unimp
     ab4:	ed0d                	bnez	a0,aee <main+0x2a>
     ab6:	4601                	li	a2,0
     ab8:	000a                	0xa
     aba:	0400                	addi	s0,sp,512
     abc:	1b00                	addi	s0,sp,432
     abe:	0d08                	addi	a0,sp,656
     ac0:	01f4                	addi	a3,sp,204
     ac2:	0adc                	addi	a5,sp,340
     ac4:	0000                	unimp
     ac6:	7326                	flw	ft6,104(sp)
     ac8:	0d00                	addi	s0,sp,656
     aca:	01f6                	slli	gp,gp,0x1d
     acc:	0a95                	addi	s5,s5,5
     ace:	0000                	unimp
     ad0:	6c26                	flw	fs8,72(sp)
     ad2:	006c                	addi	a1,sp,12
     ad4:	f70d                	bnez	a4,9fe <putchar+0x44>
     ad6:	5c01                	li	s8,-32
     ad8:	000a                	0xa
     ada:	0000                	unimp
     adc:	b705                	j	9fc <putchar+0x42>
     ade:	0d000003          	lb	zero,208(zero) # d0 <buflen.1776+0x90>
     ae2:	01f8                	addi	a4,sp,204
     ae4:	0abd                	addi	s5,s5,15
     ae6:	0000                	unimp
     ae8:	dc15                	beqz	s0,a24 <putchar+0x6a>
     aea:	000a                	0xa
     aec:	0800                	addi	s0,sp,16
     aee:	0a41                	addi	s4,s4,16
     af0:	0000                	unimp
     af2:	0afd                	addi	s5,s5,31
     af4:	0000                	unimp
     af6:	2509                	jal	10f8 <main+0x634>
     af8:	0000                	unimp
     afa:	ff00                	fsw	fs0,56(a4)
     afc:	1500                	addi	s0,sp,672
     afe:	0aed                	addi	s5,s5,27
     b00:	0000                	unimp
     b02:	1b1f 0007 0d00      	0xd0000071b1f
     b08:	01fc                	addi	a5,sp,204
     b0a:	0afd                	addi	s5,s5,31
     b0c:	0000                	unimp
     b0e:	f91f 0003 0d00      	0xd000003f91f
     b14:	0202                	slli	tp,tp,0x0
     b16:	0afd                	addi	s5,s5,31
     b18:	0000                	unimp
     b1a:	0004c927          	fsq	ft0,18(s1)
     b1e:	0100                	addi	s0,sp,128
     b20:	04e6                	slli	s1,s1,0x19
     b22:	0a5c                	addi	a5,sp,276
     b24:	0000                	unimp
     b26:	1808                	addi	a0,sp,48
     b28:	0000                	unimp
     b2a:	0458                	addi	a4,sp,516
     b2c:	0000                	unimp
     b2e:	9c01                	0x9c01
     b30:	0e75                	addi	t3,t3,29
     b32:	0000                	unimp
     b34:	7528                	flw	fa0,104(a0)
     b36:	0100                	addi	s0,sp,128
     b38:	04e6                	slli	s1,s1,0x19
     b3a:	0a5c                	addi	a5,sp,276
     b3c:	0000                	unimp
     b3e:	0000                	unimp
     b40:	0000                	unimp
     b42:	7628                	flw	fa0,104(a2)
     b44:	0100                	addi	s0,sp,128
     b46:	04e6                	slli	s1,s1,0x19
     b48:	0a5c                	addi	a5,sp,276
     b4a:	0000                	unimp
     b4c:	0028                	addi	a0,sp,8
     b4e:	0000                	unimp
     b50:	6329                	lui	t1,0xa
     b52:	0100                	addi	s0,sp,128
     b54:	04e8                	addi	a0,sp,588
     b56:	0a46                	slli	s4,s4,0x11
     b58:	0000                	unimp
     b5a:	0050                	addi	a2,sp,4
     b5c:	0000                	unimp
     b5e:	7529                	lui	a0,0xfffea
     b60:	0075                	c.addi	zero,29
     b62:	e901                	bnez	a0,b72 <main+0xae>
     b64:	dc04                	sw	s1,56(s0)
     b66:	000a                	0xa
     b68:	7c00                	flw	fs0,56(s0)
     b6a:	0000                	unimp
     b6c:	2900                	fld	fs0,16(a0)
     b6e:	7676                	flw	fa2,124(sp)
     b70:	0100                	addi	s0,sp,128
     b72:	04ea                	slli	s1,s1,0x1a
     b74:	0adc                	addi	a5,sp,340
     b76:	0000                	unimp
     b78:	00a4                	addi	s1,sp,72
     b7a:	0000                	unimp
     b7c:	7729                	lui	a4,0xfffea
     b7e:	0100                	addi	s0,sp,128
     b80:	0a5c04eb          	0xa5c04eb
     b84:	0000                	unimp
     b86:	014c                	addi	a1,sp,132
     b88:	0000                	unimp
     b8a:	752a                	flw	fa0,168(sp)
     b8c:	000e                	0xe
     b8e:	3800                	fld	fs0,48(s0)
     b90:	0018                	addi	a4,sp,0
     b92:	0000                	unimp
     b94:	0000                	unimp
     b96:	0100                	addi	s0,sp,128
     b98:	9a2b04f3          	0x9a2b04f3
     b9c:	000e                	0xe
     b9e:	8400                	0x8400
     ba0:	0001                	nop
     ba2:	2b00                	fld	fs0,16(a4)
     ba4:	0e90                	addi	a2,sp,848
     ba6:	0000                	unimp
     ba8:	01ac                	addi	a1,sp,200
     baa:	0000                	unimp
     bac:	862c                	0x862c
     bae:	000e                	0xe
     bb0:	2d00                	fld	fs0,24(a0)
     bb2:	0000                	unimp
     bb4:	0000                	unimp
     bb6:	a52e                	fsd	fa1,136(sp)
     bb8:	000e                	0xe
     bba:	2e00                	fld	fs0,24(a2)
     bbc:	0eb0                	addi	a2,sp,856
     bbe:	0000                	unimp
     bc0:	bb2e                	fsd	fa1,432(sp)
     bc2:	000e                	0xe
     bc4:	2f00                	fld	fs0,24(a4)
     bc6:	0ec6                	slli	t4,t4,0x11
     bc8:	0000                	unimp
     bca:	0244                	addi	s1,sp,260
     bcc:	0000                	unimp
     bce:	000ed12f          	0xed12f
     bd2:	8300                	0x8300
     bd4:	0002                	0x2
     bd6:	2f00                	fld	fs0,24(a4)
     bd8:	0edc                	addi	a5,sp,852
     bda:	0000                	unimp
     bdc:	02f9                	addi	t0,t0,30
     bde:	0000                	unimp
     be0:	000ee72f          	0xee72f
     be4:	6f00                	flw	fs0,24(a4)
     be6:	2f000003          	lb	zero,752(zero) # 2f0 <trap_entry+0x8c>
     bea:	0ef2                	slli	t4,t4,0x1c
     bec:	0000                	unimp
     bee:	000003cf          	fnmadd.s	ft7,ft0,ft0,ft0,rne
     bf2:	000efd2f          	0xefd2f
     bf6:	ed00                	fsw	fs0,24(a0)
     bf8:	2f000003          	lb	zero,752(zero) # 2f0 <trap_entry+0x8c>
     bfc:	0f08                	addi	a0,sp,912
     bfe:	0000                	unimp
     c00:	0401                	addi	s0,s0,0
     c02:	0000                	unimp
     c04:	000f132f          	0xf132f
     c08:	2100                	fld	fs0,0(a0)
     c0a:	0004                	addi	s1,sp,0
     c0c:	2f00                	fld	fs0,24(a4)
     c0e:	0f1d                	addi	t5,t5,7
     c10:	0000                	unimp
     c12:	0000043f 000f282e 	0xf282e0000043f
     c1a:	3000                	fld	fs0,32(s0)
     c1c:	00000f33          	add	t5,zero,zero
     c20:	0018                	addi	a4,sp,0
     c22:	0000                	unimp
     c24:	00000c3b          	0xc3b
     c28:	000f382f          	0xf382f
     c2c:	7e00                	flw	fs0,56(a2)
     c2e:	0004                	addi	s1,sp,0
     c30:	2f00                	fld	fs0,24(a4)
     c32:	0f44                	addi	s1,sp,916
     c34:	0000                	unimp
     c36:	049c                	addi	a5,sp,576
     c38:	0000                	unimp
     c3a:	3100                	fld	fs0,32(a0)
     c3c:	0f51                	addi	t5,t5,20
     c3e:	0000                	unimp
     c40:	189c                	addi	a5,sp,112
     c42:	0000                	unimp
     c44:	0070                	addi	a2,sp,12
     c46:	0000                	unimp
     c48:	0c88                	addi	a0,sp,592
     c4a:	0000                	unimp
     c4c:	000f562f          	0xf562f
     c50:	af00                	fsd	fs0,24(a4)
     c52:	0004                	addi	s1,sp,0
     c54:	2f00                	fld	fs0,24(a4)
     c56:	0f62                	slli	t5,t5,0x18
     c58:	0000                	unimp
     c5a:	04c2                	slli	s1,s1,0x10
     c5c:	0000                	unimp
     c5e:	6e2e                	flw	ft8,200(sp)
     c60:	2f00000f          	0x2f00000f
     c64:	0f7a                	slli	t5,t5,0x1e
     c66:	0000                	unimp
     c68:	04e6                	slli	s1,s1,0x19
     c6a:	0000                	unimp
     c6c:	000f862f          	0xf862f
     c70:	f900                	fsw	fs0,48(a0)
     c72:	0004                	addi	s1,sp,0
     c74:	2f00                	fld	fs0,24(a4)
     c76:	0f92                	slli	t6,t6,0x4
     c78:	0000                	unimp
     c7a:	00000517          	auipc	a0,0x0
     c7e:	000f9e2f          	0xf9e2f
     c82:	3500                	fld	fs0,40(a0)
     c84:	0005                	c.addi	zero,1
     c86:	0000                	unimp
     c88:	ab30                	fsd	fa2,80(a4)
     c8a:	3000000f          	0x3000000f
     c8e:	0000                	unimp
     c90:	a800                	fsd	fs0,16(s0)
     c92:	000c                	addi	a1,sp,0
     c94:	2f00                	fld	fs0,24(a4)
     c96:	0fb0                	addi	a2,sp,984
     c98:	0000                	unimp
     c9a:	00000553          	fadd.s	fa0,ft0,ft0,rne
     c9e:	000fbc2f          	0xfbc2f
     ca2:	7100                	flw	fs0,32(a0)
     ca4:	0005                	c.addi	zero,1
     ca6:	0000                	unimp
     ca8:	2331                	jal	11b4 <main+0x6f0>
     caa:	0010                	addi	a2,sp,0
     cac:	8400                	0x8400
     cae:	0019                	c.addi	zero,6
     cb0:	7400                	flw	fs0,40(s0)
     cb2:	0000                	unimp
     cb4:	f900                	fsw	fs0,48(a0)
     cb6:	000c                	addi	a1,sp,0
     cb8:	2f00                	fld	fs0,24(a4)
     cba:	1028                	addi	a0,sp,40
     cbc:	0000                	unimp
     cbe:	0584                	addi	s1,sp,704
     cc0:	0000                	unimp
     cc2:	0010342f          	0x10342f
     cc6:	9700                	0x9700
     cc8:	0005                	c.addi	zero,1
     cca:	2f00                	fld	fs0,24(a4)
     ccc:	1040                	addi	s0,sp,36
     cce:	0000                	unimp
     cd0:	000005bb          	0x5bb
     cd4:	00104c2f          	0x104c2f
     cd8:	ce00                	sw	s0,24(a2)
     cda:	0005                	c.addi	zero,1
     cdc:	2f00                	fld	fs0,24(a4)
     cde:	1058                	addi	a4,sp,36
     ce0:	0000                	unimp
     ce2:	05e1                	addi	a1,a1,24
     ce4:	0000                	unimp
     ce6:	0010642f          	0x10642f
     cea:	0a00                	addi	s0,sp,272
     cec:	0006                	0x6
     cee:	2f00                	fld	fs0,24(a4)
     cf0:	1070                	addi	a2,sp,44
     cf2:	0000                	unimp
     cf4:	0628                	addi	a0,sp,776
     cf6:	0000                	unimp
     cf8:	3000                	fld	fs0,32(s0)
     cfa:	0fc9                	addi	t6,t6,18
     cfc:	0000                	unimp
     cfe:	0048                	addi	a0,sp,4
     d00:	0000                	unimp
     d02:	0d46                	slli	s10,s10,0x11
     d04:	0000                	unimp
     d06:	000fce2f          	0xfce2f
     d0a:	4600                	lw	s0,8(a2)
     d0c:	0006                	0x6
     d0e:	2f00                	fld	fs0,24(a4)
     d10:	0fda                	slli	t6,t6,0x16
     d12:	0000                	unimp
     d14:	0659                	addi	a2,a2,22
     d16:	0000                	unimp
     d18:	000fe62f          	0xfe62f
     d1c:	7d00                	flw	fs0,56(a0)
     d1e:	0006                	0x6
     d20:	2f00                	fld	fs0,24(a4)
     d22:	0ff2                	slli	t6,t6,0x1c
     d24:	0000                	unimp
     d26:	06d6                	slli	a3,a3,0x15
     d28:	0000                	unimp
     d2a:	000ffe2f          	0xffe2f
     d2e:	e900                	fsw	fs0,16(a0)
     d30:	0006                	0x6
     d32:	2f00                	fld	fs0,24(a4)
     d34:	100a                	0x100a
     d36:	0000                	unimp
     d38:	0722                	slli	a4,a4,0x8
     d3a:	0000                	unimp
     d3c:	0010162f          	0x10162f
     d40:	4000                	lw	s0,0(s0)
     d42:	00000007          	0x7
     d46:	7d30                	flw	fa2,120(a0)
     d48:	0010                	addi	a2,sp,0
     d4a:	6000                	flw	fs0,0(s0)
     d4c:	0000                	unimp
     d4e:	6600                	flw	fs0,8(a2)
     d50:	000d                	c.addi	zero,3
     d52:	2f00                	fld	fs0,24(a4)
     d54:	1082                	slli	ra,ra,0x20
     d56:	0000                	unimp
     d58:	075e                	slli	a4,a4,0x17
     d5a:	0000                	unimp
     d5c:	00108e2f          	0x108e2f
     d60:	9200                	0x9200
     d62:	00000007          	0x7
     d66:	9b31                	andi	a4,a4,-20
     d68:	0010                	addi	a2,sp,0
     d6a:	dc00                	sw	s0,56(s0)
     d6c:	001a                	0x1a
     d6e:	1000                	addi	s0,sp,32
     d70:	0000                	unimp
     d72:	8100                	0x8100
     d74:	000d                	c.addi	zero,3
     d76:	2f00                	fld	fs0,24(a4)
     d78:	10a0                	addi	s0,sp,104
     d7a:	0000                	unimp
     d7c:	07b0                	addi	a2,sp,968
     d7e:	0000                	unimp
     d80:	3200                	fld	fs0,32(a2)
     d82:	10ad                	addi	ra,ra,-21
     d84:	0000                	unimp
     d86:	1b0c                	addi	a1,sp,432
     d88:	0000                	unimp
     d8a:	0154                	addi	a3,sp,132
     d8c:	0000                	unimp
     d8e:	0010ae2f          	amoadd.w	t3,ra,(ra)
     d92:	c300                	sw	s0,0(a4)
     d94:	2f000007          	0x2f000007
     d98:	10b9                	addi	ra,ra,-18
     d9a:	0000                	unimp
     d9c:	07e1                	addi	a5,a5,24
     d9e:	0000                	unimp
     da0:	c430                	sw	a2,72(s0)
     da2:	0010                	addi	a2,sp,0
     da4:	7800                	flw	fs0,48(s0)
     da6:	0000                	unimp
     da8:	ed00                	fsw	fs0,24(a0)
     daa:	000d                	c.addi	zero,3
     dac:	2f00                	fld	fs0,24(a4)
     dae:	10c9                	addi	ra,ra,-14
     db0:	0000                	unimp
     db2:	080a                	slli	a6,a6,0x2
     db4:	0000                	unimp
     db6:	0010d52f          	0x10d52f
     dba:	2c00                	fld	fs0,24(s0)
     dbc:	0008                	addi	a0,sp,0
     dbe:	2f00                	fld	fs0,24(a4)
     dc0:	10e1                	addi	ra,ra,-8
     dc2:	0000                	unimp
     dc4:	0850                	addi	a2,sp,20
     dc6:	0000                	unimp
     dc8:	0010ed2f          	0x10ed2f
     dcc:	6e00                	flw	fs0,24(a2)
     dce:	0008                	addi	a0,sp,0
     dd0:	2f00                	fld	fs0,24(a4)
     dd2:	10f9                	addi	ra,ra,-2
     dd4:	0000                	unimp
     dd6:	088c                	addi	a1,sp,80
     dd8:	0000                	unimp
     dda:	0011052f          	0x11052f
     dde:	b500                	fsd	fs0,40(a0)
     de0:	0008                	addi	a0,sp,0
     de2:	2f00                	fld	fs0,24(a4)
     de4:	1111                	addi	sp,sp,-28
     de6:	0000                	unimp
     de8:	08de                	slli	a7,a7,0x17
     dea:	0000                	unimp
     dec:	3000                	fld	fs0,32(s0)
     dee:	111e                	slli	sp,sp,0x27
     df0:	0000                	unimp
     df2:	00a0                	addi	s0,sp,72
     df4:	0000                	unimp
     df6:	00000e3f 0011232f 	0x11232f00000e3f
     dfe:	0c00                	addi	s0,sp,528
     e00:	0009                	c.addi	zero,2
     e02:	2f00                	fld	fs0,24(a4)
     e04:	0000112f          	0x112f
     e08:	091f 0000 3b2f      	0x3b2f0000091f
     e0e:	0011                	c.addi	zero,4
     e10:	3200                	fld	fs0,32(a2)
     e12:	0009                	c.addi	zero,2
     e14:	3300                	fld	fs0,32(a4)
     e16:	00001147          	fmsub.s	ft2,ft0,ft0,ft0,rtz
     e1a:	5601                	li	a2,-32
     e1c:	0011532f          	0x11532f
     e20:	4500                	lw	s0,8(a0)
     e22:	0009                	c.addi	zero,2
     e24:	2f00                	fld	fs0,24(a4)
     e26:	115f 0000 0958      	0x9580000115f
     e2c:	0000                	unimp
     e2e:	00116b2f          	0x116b2f
     e32:	8b00                	0x8b00
     e34:	0009                	c.addi	zero,2
     e36:	3300                	fld	fs0,32(a4)
     e38:	00001177          	0x1177
     e3c:	6001                	0x6001
     e3e:	3100                	fld	fs0,32(a0)
     e40:	1184                	addi	s1,sp,224
     e42:	0000                	unimp
     e44:	1c28                	addi	a0,sp,568
     e46:	0000                	unimp
     e48:	0014                	addi	a3,sp,0
     e4a:	0000                	unimp
     e4c:	0e5a                	slli	t3,t3,0x16
     e4e:	0000                	unimp
     e50:	0011892f          	0x11892f
     e54:	9e00                	0x9e00
     e56:	0009                	c.addi	zero,2
     e58:	0000                	unimp
     e5a:	9632                	add	a2,a2,a2
     e5c:	0011                	c.addi	zero,4
     e5e:	3c00                	fld	fs0,56(s0)
     e60:	001c                	addi	a5,sp,0
     e62:	1000                	addi	s0,sp,32
     e64:	0000                	unimp
     e66:	2f00                	fld	fs0,24(a4)
     e68:	00001197          	auipc	gp,0x1
     e6c:	09b1                	addi	s3,s3,12
     e6e:	0000                	unimp
     e70:	0000                	unimp
     e72:	0000                	unimp
     e74:	3400                	fld	fs0,40(s0)
     e76:	063e                	slli	a2,a2,0xf
     e78:	0000                	unimp
     e7a:	f601                	bnez	a2,d82 <main+0x2be>
     e7c:	000a6703          	0xa6703
     e80:	0300                	addi	s0,sp,384
     e82:	11a6                	slli	gp,gp,0x29
     e84:	0000                	unimp
     e86:	6e35                	lui	t3,0xd
     e88:	0100                	addi	s0,sp,128
     e8a:	03f6                	slli	t2,t2,0x1d
     e8c:	00000a67          	jalr	s4,zero
     e90:	6435                	lui	s0,0xd
     e92:	0100                	addi	s0,sp,128
     e94:	03f6                	slli	t2,t2,0x1d
     e96:	00000a67          	jalr	s4,zero
     e9a:	7235                	lui	tp,0xfffed
     e9c:	0070                	addi	a2,sp,12
     e9e:	f601                	bnez	a2,da6 <main+0x2e2>
     ea0:	0011a603          	lw	a2,1(gp) # 1e69 <__udivdi3+0x205>
     ea4:	3600                	fld	fs0,40(a2)
     ea6:	6e6e                	flw	ft8,216(sp)
     ea8:	0100                	addi	s0,sp,128
     eaa:	03f8                	addi	a4,sp,460
     eac:	0ae8                	addi	a0,sp,348
     eae:	0000                	unimp
     eb0:	6436                	flw	fs0,76(sp)
     eb2:	0064                	addi	s1,sp,12
     eb4:	f901                	bnez	a0,dc4 <main+0x300>
     eb6:	000ae803          	0xae803
     eba:	3600                	fld	fs0,40(a2)
     ebc:	7272                	flw	ft4,60(sp)
     ebe:	0100                	addi	s0,sp,128
     ec0:	03fa                	slli	t2,t2,0x1e
     ec2:	0adc                	addi	a5,sp,340
     ec4:	0000                	unimp
     ec6:	6436                	flw	fs0,76(sp)
     ec8:	0030                	addi	a2,sp,8
     eca:	fb01                	bnez	a4,dda <main+0x316>
     ecc:	000a5103          	lhu	sp,0(s4) # 1000 <main+0x53c>
     ed0:	3600                	fld	fs0,40(a2)
     ed2:	3164                	fld	fs1,224(a0)
     ed4:	0100                	addi	s0,sp,128
     ed6:	0a5103fb          	0xa5103fb
     eda:	0000                	unimp
     edc:	6e36                	flw	ft8,76(sp)
     ede:	0030                	addi	a2,sp,8
     ee0:	fb01                	bnez	a4,df0 <main+0x32c>
     ee2:	000a5103          	lhu	sp,0(s4)
     ee6:	3600                	fld	fs0,40(a2)
     ee8:	316e                	fld	ft2,248(sp)
     eea:	0100                	addi	s0,sp,128
     eec:	0a5103fb          	0xa5103fb
     ef0:	0000                	unimp
     ef2:	6e36                	flw	ft8,76(sp)
     ef4:	0032                	0x32
     ef6:	fb01                	bnez	a4,e06 <main+0x342>
     ef8:	000a5103          	lhu	sp,0(s4)
     efc:	3600                	fld	fs0,40(a2)
     efe:	3071                	jal	78a <vprintfmt.constprop.2+0x370>
     f00:	0100                	addi	s0,sp,128
     f02:	03fc                	addi	a5,sp,460
     f04:	0a51                	addi	s4,s4,20
     f06:	0000                	unimp
     f08:	7136                	flw	ft2,108(sp)
     f0a:	0031                	c.addi	zero,12
     f0c:	fc01                	bnez	s0,e24 <main+0x360>
     f0e:	000a5103          	lhu	sp,0(s4)
     f12:	3600                	fld	fs0,40(a2)
     f14:	0062                	0x62
     f16:	fd01                	bnez	a0,e2e <main+0x36a>
     f18:	000a5103          	lhu	sp,0(s4)
     f1c:	3600                	fld	fs0,40(a2)
     f1e:	6d62                	flw	fs10,24(sp)
     f20:	0100                	addi	s0,sp,128
     f22:	03fd                	addi	t2,t2,31
     f24:	0a51                	addi	s4,s4,20
     f26:	0000                	unimp
     f28:	7736                	flw	fa4,108(sp)
     f2a:	c6010077          	0xc6010077
     f2e:	e804                	fsw	fs1,16(s0)
     f30:	000a                	0xa
     f32:	3700                	fld	fs0,40(a4)
     f34:	0f51                	addi	t5,t5,20
     f36:	0000                	unimp
     f38:	bf38                	fsd	fa4,120(a4)
     f3a:	0006                	0x6
     f3c:	0100                	addi	s0,sp,128
     f3e:	042d                	addi	s0,s0,11
     f40:	0a51                	addi	s4,s4,20
     f42:	0000                	unimp
     f44:	5f36                	lw	t5,108(sp)
     f46:	615f 0100 042d      	0x42d0100615f
     f4c:	0a51                	addi	s4,s4,20
     f4e:	0000                	unimp
     f50:	3700                	fld	fs0,40(a4)
     f52:	00000fab          	0xfab
     f56:	3e38                	fld	fa4,120(a2)
     f58:	0001                	nop
     f5a:	0100                	addi	s0,sp,128
     f5c:	0439                	addi	s0,s0,14
     f5e:	0a51                	addi	s4,s4,20
     f60:	0000                	unimp
     f62:	3938                	fld	fa4,112(a0)
     f64:	0001                	nop
     f66:	0100                	addi	s0,sp,128
     f68:	0439                	addi	s0,s0,14
     f6a:	0a51                	addi	s4,s4,20
     f6c:	0000                	unimp
     f6e:	7238                	flw	fa4,96(a2)
     f70:	0006                	0x6
     f72:	0100                	addi	s0,sp,128
     f74:	0439                	addi	s0,s0,14
     f76:	0a51                	addi	s4,s4,20
     f78:	0000                	unimp
     f7a:	6d38                	flw	fa4,88(a0)
     f7c:	0006                	0x6
     f7e:	0100                	addi	s0,sp,128
     f80:	0439                	addi	s0,s0,14
     f82:	0a51                	addi	s4,s4,20
     f84:	0000                	unimp
     f86:	3d38                	fld	fa4,120(a0)
     f88:	01000007          	0x1000007
     f8c:	0439                	addi	s0,s0,14
     f8e:	0a51                	addi	s4,s4,20
     f90:	0000                	unimp
     f92:	3838                	fld	fa4,112(s0)
     f94:	01000007          	0x1000007
     f98:	0439                	addi	s0,s0,14
     f9a:	0a51                	addi	s4,s4,20
     f9c:	0000                	unimp
     f9e:	5f36                	lw	t5,108(sp)
     fa0:	6d5f 0100 0439      	0x43901006d5f
     fa6:	0a51                	addi	s4,s4,20
     fa8:	0000                	unimp
     faa:	3700                	fld	fs0,40(a4)
     fac:	0fc9                	addi	t6,t6,18
     fae:	0000                	unimp
     fb0:	bf38                	fsd	fa4,120(a4)
     fb2:	0006                	0x6
     fb4:	0100                	addi	s0,sp,128
     fb6:	0445                	addi	s0,s0,17
     fb8:	0a51                	addi	s4,s4,20
     fba:	0000                	unimp
     fbc:	5f36                	lw	t5,108(sp)
     fbe:	615f 0100 0445      	0x4450100615f
     fc4:	0a51                	addi	s4,s4,20
     fc6:	0000                	unimp
     fc8:	3700                	fld	fs0,40(a4)
     fca:	00001023          	sh	zero,0(zero) # 0 <buf.1775>
     fce:	3e38                	fld	fa4,120(a2)
     fd0:	0001                	nop
     fd2:	0100                	addi	s0,sp,128
     fd4:	045e                	slli	s0,s0,0x17
     fd6:	0a51                	addi	s4,s4,20
     fd8:	0000                	unimp
     fda:	3938                	fld	fa4,112(a0)
     fdc:	0001                	nop
     fde:	0100                	addi	s0,sp,128
     fe0:	045e                	slli	s0,s0,0x17
     fe2:	0a51                	addi	s4,s4,20
     fe4:	0000                	unimp
     fe6:	7238                	flw	fa4,96(a2)
     fe8:	0006                	0x6
     fea:	0100                	addi	s0,sp,128
     fec:	045e                	slli	s0,s0,0x17
     fee:	0a51                	addi	s4,s4,20
     ff0:	0000                	unimp
     ff2:	6d38                	flw	fa4,88(a0)
     ff4:	0006                	0x6
     ff6:	0100                	addi	s0,sp,128
     ff8:	045e                	slli	s0,s0,0x17
     ffa:	0a51                	addi	s4,s4,20
     ffc:	0000                	unimp
     ffe:	3d38                	fld	fa4,120(a0)
    1000:	01000007          	0x1000007
    1004:	045e                	slli	s0,s0,0x17
    1006:	0a51                	addi	s4,s4,20
    1008:	0000                	unimp
    100a:	3838                	fld	fa4,112(s0)
    100c:	01000007          	0x1000007
    1010:	045e                	slli	s0,s0,0x17
    1012:	0a51                	addi	s4,s4,20
    1014:	0000                	unimp
    1016:	5f36                	lw	t5,108(sp)
    1018:	6d5f 0100 045e      	0x45e01006d5f
    101e:	0a51                	addi	s4,s4,20
    1020:	0000                	unimp
    1022:	3700                	fld	fs0,40(a4)
    1024:	107d                	c.addi	zero,-1
    1026:	0000                	unimp
    1028:	3e38                	fld	fa4,120(a2)
    102a:	0001                	nop
    102c:	0100                	addi	s0,sp,128
    102e:	0a510463          	beq	sp,t0,10d6 <main+0x612>
    1032:	0000                	unimp
    1034:	3938                	fld	fa4,112(a0)
    1036:	0001                	nop
    1038:	0100                	addi	s0,sp,128
    103a:	0a510463          	beq	sp,t0,10e2 <main+0x61e>
    103e:	0000                	unimp
    1040:	7238                	flw	fa4,96(a2)
    1042:	0006                	0x6
    1044:	0100                	addi	s0,sp,128
    1046:	0a510463          	beq	sp,t0,10ee <main+0x62a>
    104a:	0000                	unimp
    104c:	6d38                	flw	fa4,88(a0)
    104e:	0006                	0x6
    1050:	0100                	addi	s0,sp,128
    1052:	0a510463          	beq	sp,t0,10fa <main+0x636>
    1056:	0000                	unimp
    1058:	3d38                	fld	fa4,120(a0)
    105a:	01000007          	0x1000007
    105e:	0a510463          	beq	sp,t0,1106 <main+0x642>
    1062:	0000                	unimp
    1064:	3838                	fld	fa4,112(s0)
    1066:	01000007          	0x1000007
    106a:	0a510463          	beq	sp,t0,1112 <main+0x64e>
    106e:	0000                	unimp
    1070:	5f36                	lw	t5,108(sp)
    1072:	6d5f 0100 0463      	0x46301006d5f
    1078:	0a51                	addi	s4,s4,20
    107a:	0000                	unimp
    107c:	3700                	fld	fs0,40(a4)
    107e:	0000109b          	0x109b
    1082:	bf38                	fsd	fa4,120(a4)
    1084:	0006                	0x6
    1086:	0100                	addi	s0,sp,128
    1088:	0486                	slli	s1,s1,0x1
    108a:	0a51                	addi	s4,s4,20
    108c:	0000                	unimp
    108e:	5f36                	lw	t5,108(sp)
    1090:	615f 0100 0486      	0x4860100615f
    1096:	0a51                	addi	s4,s4,20
    1098:	0000                	unimp
    109a:	3700                	fld	fs0,40(a4)
    109c:	10ad                	addi	ra,ra,-21
    109e:	0000                	unimp
    10a0:	5f36                	lw	t5,108(sp)
    10a2:	785f 0100 0494      	0x4940100785f
    10a8:	0a51                	addi	s4,s4,20
    10aa:	0000                	unimp
    10ac:	3900                	fld	fs0,48(a0)
    10ae:	6d36                	flw	fs10,76(sp)
    10b0:	0031                	c.addi	zero,12
    10b2:	a401                	j	12b2 <strnlen+0x12>
    10b4:	5104                	lw	s1,32(a0)
    10b6:	000a                	0xa
    10b8:	3600                	fld	fs0,40(a2)
    10ba:	306d                	jal	964 <vprintfmt.constprop.2+0x54a>
    10bc:	0100                	addi	s0,sp,128
    10be:	04a4                	addi	s1,sp,584
    10c0:	0a51                	addi	s4,s4,20
    10c2:	0000                	unimp
    10c4:	00111e37          	lui	t3,0x111
    10c8:	3800                	fld	fs0,48(s0)
    10ca:	013e                	slli	sp,sp,0xf
    10cc:	0000                	unimp
    10ce:	af01                	j	17de <__ascii_wctomb+0x6>
    10d0:	5104                	lw	s1,32(a0)
    10d2:	000a                	0xa
    10d4:	3800                	fld	fs0,48(s0)
    10d6:	0139                	addi	sp,sp,14
    10d8:	0000                	unimp
    10da:	af01                	j	17ea <__ascii_wctomb+0x12>
    10dc:	5104                	lw	s1,32(a0)
    10de:	000a                	0xa
    10e0:	3800                	fld	fs0,48(s0)
    10e2:	0672                	slli	a2,a2,0x1c
    10e4:	0000                	unimp
    10e6:	af01                	j	17f6 <__ascii_wctomb+0x1e>
    10e8:	5104                	lw	s1,32(a0)
    10ea:	000a                	0xa
    10ec:	3800                	fld	fs0,48(s0)
    10ee:	066d                	addi	a2,a2,27
    10f0:	0000                	unimp
    10f2:	af01                	j	1802 <__ascii_wctomb+0x2a>
    10f4:	5104                	lw	s1,32(a0)
    10f6:	000a                	0xa
    10f8:	3800                	fld	fs0,48(s0)
    10fa:	073d                	addi	a4,a4,15
    10fc:	0000                	unimp
    10fe:	af01                	j	180e <__moddi3+0x6>
    1100:	5104                	lw	s1,32(a0)
    1102:	000a                	0xa
    1104:	3800                	fld	fs0,48(s0)
    1106:	0738                	addi	a4,sp,904
    1108:	0000                	unimp
    110a:	af01                	j	181a <__moddi3+0x12>
    110c:	5104                	lw	s1,32(a0)
    110e:	000a                	0xa
    1110:	3600                	fld	fs0,40(a2)
    1112:	5f5f 006d af01      	0xaf01006d5f5f
    1118:	5104                	lw	s1,32(a0)
    111a:	000a                	0xa
    111c:	0000                	unimp
    111e:	00118437          	lui	s0,0x118
    1122:	3800                	fld	fs0,48(s0)
    1124:	0605                	addi	a2,a2,1
    1126:	0000                	unimp
    1128:	b001                	j	928 <vprintfmt.constprop.2+0x50e>
    112a:	5104                	lw	s1,32(a0)
    112c:	000a                	0xa
    112e:	3800                	fld	fs0,48(s0)
    1130:	060a                	slli	a2,a2,0x2
    1132:	0000                	unimp
    1134:	b001                	j	934 <vprintfmt.constprop.2+0x51a>
    1136:	5104                	lw	s1,32(a0)
    1138:	000a                	0xa
    113a:	3800                	fld	fs0,48(s0)
    113c:	0000060f          	0x60f
    1140:	b001                	j	940 <vprintfmt.constprop.2+0x526>
    1142:	5104                	lw	s1,32(a0)
    1144:	000a                	0xa
    1146:	3800                	fld	fs0,48(s0)
    1148:	0614                	addi	a3,sp,768
    114a:	0000                	unimp
    114c:	b001                	j	94c <vprintfmt.constprop.2+0x532>
    114e:	5104                	lw	s1,32(a0)
    1150:	000a                	0xa
    1152:	3800                	fld	fs0,48(s0)
    1154:	045a                	slli	s0,s0,0x16
    1156:	0000                	unimp
    1158:	b001                	j	958 <vprintfmt.constprop.2+0x53e>
    115a:	5104                	lw	s1,32(a0)
    115c:	000a                	0xa
    115e:	3800                	fld	fs0,48(s0)
    1160:	051d                	addi	a0,a0,7
    1162:	0000                	unimp
    1164:	b001                	j	964 <vprintfmt.constprop.2+0x54a>
    1166:	5104                	lw	s1,32(a0)
    1168:	000a                	0xa
    116a:	3800                	fld	fs0,48(s0)
    116c:	0000044f          	fnmadd.s	fs0,ft0,ft0,ft0,rne
    1170:	b001                	j	970 <vprintfmt.constprop.2+0x556>
    1172:	5104                	lw	s1,32(a0)
    1174:	000a                	0xa
    1176:	3800                	fld	fs0,48(s0)
    1178:	0518                	addi	a4,sp,640
    117a:	0000                	unimp
    117c:	b001                	j	97c <vprintfmt.constprop.2+0x562>
    117e:	5104                	lw	s1,32(a0)
    1180:	000a                	0xa
    1182:	0000                	unimp
    1184:	00119637          	lui	a2,0x119
    1188:	3600                	fld	fs0,40(a2)
    118a:	5f5f 0078 b501      	0xb50100785f5f
    1190:	5104                	lw	s1,32(a0)
    1192:	000a                	0xa
    1194:	0000                	unimp
    1196:	3639                	jal	ca4 <main+0x1e0>
    1198:	5f5f 0078 bd01      	0xbd0100785f5f
    119e:	5104                	lw	s1,32(a0)
    11a0:	000a                	0xa
    11a2:	0000                	unimp
    11a4:	0000                	unimp
    11a6:	0a67040f          	0xa67040f
    11aa:	0000                	unimp
    11ac:	2600                	fld	fs0,8(a2)
    11ae:	0011                	c.addi	zero,4
    11b0:	0400                	addi	s0,sp,512
    11b2:	b300                	fsd	fs0,32(a4)
    11b4:	0002                	0x2
    11b6:	0400                	addi	s0,sp,512
    11b8:	6a01                	lui	s4,0x0
    11ba:	0000                	unimp
    11bc:	0c00                	addi	s0,sp,528
    11be:	000001a3          	sb	zero,3(zero) # 3 <buf.1775+0x3>
    11c2:	022c                	addi	a1,sp,264
    11c4:	0000                	unimp
    11c6:	1c64                	addi	s1,sp,572
    11c8:	0000                	unimp
    11ca:	0434                	addi	a3,sp,520
    11cc:	0000                	unimp
    11ce:	042e                	slli	s0,s0,0xb
    11d0:	0000                	unimp
    11d2:	0802                	slli	a6,a6,0x0
    11d4:	0003c607          	flq	fa2,0(t2)
    11d8:	0200                	addi	s0,sp,256
    11da:	0704                	addi	s1,sp,896
    11dc:	03d0                	addi	a2,sp,452
    11de:	0000                	unimp
    11e0:	69050403          	lb	s0,1680(a0) # 130a <_strtol_l.isra.0+0x42>
    11e4:	746e                	flw	fs0,248(sp)
    11e6:	0200                	addi	s0,sp,256
    11e8:	0508                	addi	a0,sp,640
    11ea:	02e0                	addi	s0,sp,332
    11ec:	0000                	unimp
    11ee:	1002                	0x1002
    11f0:	5b04                	lw	s1,48(a4)
    11f2:	0001                	nop
    11f4:	0200                	addi	s0,sp,256
    11f6:	0601                	addi	a2,a2,0
    11f8:	0696                	slli	a3,a3,0x5
    11fa:	0000                	unimp
    11fc:	0102                	slli	sp,sp,0x0
    11fe:	9408                	0x9408
    1200:	0006                	0x6
    1202:	0200                	addi	s0,sp,256
    1204:	0502                	slli	a0,a0,0x0
    1206:	0000                	unimp
    1208:	0000                	unimp
    120a:	0202                	slli	tp,tp,0x0
    120c:	0003e607          	0x3e607
    1210:	0200                	addi	s0,sp,256
    1212:	0504                	addi	s1,sp,640
    1214:	02e5                	addi	t0,t0,25
    1216:	0000                	unimp
    1218:	0402                	slli	s0,s0,0x0
    121a:	0003cb07          	flq	fs6,0(t2)
    121e:	0400                	addi	s0,sp,512
    1220:	0541                	addi	a0,a0,16
    1222:	0000                	unimp
    1224:	0702                	slli	a4,a4,0x0
    1226:	00000033          	add	zero,zero,zero
    122a:	1104                	addi	s1,sp,160
    122c:	0005                	c.addi	zero,1
    122e:	0300                	addi	s0,sp,384
    1230:	642c                	flw	fa1,72(s0)
    1232:	0000                	unimp
    1234:	0400                	addi	s0,sp,512
    1236:	00000627          	0x627
    123a:	00647203          	0x647203
    123e:	0000                	unimp
    1240:	fe04                	fsw	fs1,56(a2)
    1242:	0006                	0x6
    1244:	0300                	addi	s0,sp,384
    1246:	3391                	jal	f8a <main+0x4c6>
    1248:	0000                	unimp
    124a:	0500                	addi	s0,sp,640
    124c:	0442                	slli	s0,s0,0x10
    124e:	0000                	unimp
    1250:	6504                	flw	fs1,8(a0)
    1252:	2c01                	jal	1462 <_strtol_l.isra.0+0x19a>
    1254:	0000                	unimp
    1256:	0600                	addi	s0,sp,768
    1258:	0304                	addi	s1,sp,384
    125a:	c9a6                	sw	s1,208(sp)
    125c:	0000                	unimp
    125e:	0700                	addi	s0,sp,896
    1260:	042d                	addi	s0,s0,11
    1262:	0000                	unimp
    1264:	009ea803          	lw	a6,9(t4)
    1268:	0000                	unimp
    126a:	00039807          	0x39807
    126e:	0300                	addi	s0,sp,384
    1270:	c9a9                	beqz	a1,12c2 <strnlen+0x22>
    1272:	0000                	unimp
    1274:	0000                	unimp
    1276:	4f08                	lw	a0,24(a4)
    1278:	0000                	unimp
    127a:	d900                	sw	s0,48(a0)
    127c:	0000                	unimp
    127e:	0900                	addi	s0,sp,144
    1280:	002c                	addi	a1,sp,8
    1282:	0000                	unimp
    1284:	080a0003          	lb	zero,128(s4) # 80 <buflen.1776+0x40>
    1288:	00faa303          	lw	t1,15(s5)
    128c:	0000                	unimp
    128e:	0004880b          	0x4880b
    1292:	0300                	addi	s0,sp,384
    1294:	33a5                	jal	ffc <main+0x538>
    1296:	0000                	unimp
    1298:	0000                	unimp
    129a:	0006190b          	0x6190b
    129e:	0300                	addi	s0,sp,384
    12a0:	aaaa                	fsd	fa0,336(sp)
    12a2:	0000                	unimp
    12a4:	0400                	addi	s0,sp,512
    12a6:	0400                	addi	s0,sp,512
    12a8:	0536                	slli	a0,a0,0xd
    12aa:	0000                	unimp
    12ac:	00d9ab03          	lw	s6,13(s3)
    12b0:	0000                	unimp
    12b2:	9004                	0x9004
    12b4:	0005                	c.addi	zero,1
    12b6:	0300                	addi	s0,sp,384
    12b8:	000072af          	0x72af
    12bc:	0c00                	addi	s0,sp,528
    12be:	0404                	addi	s1,sp,512
    12c0:	000006a7          	0x6a7
    12c4:	1605                	addi	a2,a2,-31
    12c6:	0000006b          	0x6b
    12ca:	c10d                	beqz	a0,12ec <_strtol_l.isra.0+0x24>
    12cc:	0004                	addi	s1,sp,0
    12ce:	1800                	addi	s0,sp,48
    12d0:	2f05                	jal	1a00 <__moddi3+0x1f8>
    12d2:	0170                	addi	a2,sp,140
    12d4:	0000                	unimp
    12d6:	0007c00b          	0x7c00b
    12da:	0500                	addi	s0,sp,640
    12dc:	7031                	0x7031
    12de:	0001                	nop
    12e0:	0000                	unimp
    12e2:	5f0e                	lw	t5,224(sp)
    12e4:	3205006b          	0x3205006b
    12e8:	00000033          	add	zero,zero,zero
    12ec:	0b04                	addi	s1,sp,400
    12ee:	05f6                	slli	a1,a1,0x1d
    12f0:	0000                	unimp
    12f2:	3205                	jal	c12 <main+0x14e>
    12f4:	00000033          	add	zero,zero,zero
    12f8:	0b08                	addi	a0,sp,400
    12fa:	033c                	addi	a5,sp,392
    12fc:	0000                	unimp
    12fe:	3205                	jal	c1e <main+0x15a>
    1300:	00000033          	add	zero,zero,zero
    1304:	0b0c                	addi	a1,sp,400
    1306:	02c2                	slli	t0,t0,0x10
    1308:	0000                	unimp
    130a:	3205                	jal	c2a <main+0x166>
    130c:	00000033          	add	zero,zero,zero
    1310:	0e10                	addi	a2,sp,784
    1312:	785f 0500 7633      	0x76330500785f
    1318:	0001                	nop
    131a:	1400                	addi	s0,sp,544
    131c:	0f00                	addi	s0,sp,912
    131e:	1d04                	addi	s1,sp,688
    1320:	0001                	nop
    1322:	0800                	addi	s0,sp,16
    1324:	0112                	slli	sp,sp,0x4
    1326:	0000                	unimp
    1328:	0186                	slli	gp,gp,0x1
    132a:	0000                	unimp
    132c:	2c09                	jal	153e <_setlocale_r+0x52>
    132e:	0000                	unimp
    1330:	0000                	unimp
    1332:	0d00                	addi	s0,sp,656
    1334:	0000037b          	0x37b
    1338:	0524                	addi	s1,sp,648
    133a:	0001ff37          	lui	t5,0x1f
    133e:	0b00                	addi	s0,sp,400
    1340:	00000193          	li	gp,0
    1344:	3905                	jal	f74 <main+0x4b0>
    1346:	00000033          	add	zero,zero,zero
    134a:	0b00                	addi	s0,sp,400
    134c:	075c                	addi	a5,sp,900
    134e:	0000                	unimp
    1350:	3a05                	jal	c80 <main+0x1bc>
    1352:	00000033          	add	zero,zero,zero
    1356:	0b04                	addi	s1,sp,400
    1358:	0201                	addi	tp,tp,0
    135a:	0000                	unimp
    135c:	3b05                	jal	108c <main+0x5c8>
    135e:	00000033          	add	zero,zero,zero
    1362:	0b08                	addi	a0,sp,400
    1364:	07b1                	addi	a5,a5,12
    1366:	0000                	unimp
    1368:	3c05                	jal	d98 <main+0x2d4>
    136a:	00000033          	add	zero,zero,zero
    136e:	0b0c                	addi	a1,sp,400
    1370:	000004eb          	0x4eb
    1374:	3d05                	jal	11a4 <main+0x6e0>
    1376:	00000033          	add	zero,zero,zero
    137a:	0b10                	addi	a2,sp,400
    137c:	047e                	slli	s0,s0,0x1f
    137e:	0000                	unimp
    1380:	3e05                	jal	eb0 <main+0x3ec>
    1382:	00000033          	add	zero,zero,zero
    1386:	0b14                	addi	a3,sp,400
    1388:	000006e7          	jalr	a3,zero
    138c:	3f05                	jal	12bc <strnlen+0x1c>
    138e:	00000033          	add	zero,zero,zero
    1392:	0b18                	addi	a4,sp,400
    1394:	0798                	addi	a4,sp,960
    1396:	0000                	unimp
    1398:	4005                	0x4005
    139a:	00000033          	add	zero,zero,zero
    139e:	0b1c                	addi	a5,sp,400
    13a0:	0742                	slli	a4,a4,0x10
    13a2:	0000                	unimp
    13a4:	4105                	li	sp,1
    13a6:	00000033          	add	zero,zero,zero
    13aa:	0020                	addi	s0,sp,8
    13ac:	1e10                	addi	a2,sp,816
    13ae:	0002                	0x2
    13b0:	0800                	addi	s0,sp,16
    13b2:	0501                	addi	a0,a0,0
    13b4:	3f4a                	fld	ft10,176(sp)
    13b6:	0002                	0x2
    13b8:	0b00                	addi	s0,sp,400
    13ba:	0000032f          	0x32f
    13be:	4b05                	li	s6,1
    13c0:	0000023f 056c0b00 	0x56c0b000000023f
    13c8:	0000                	unimp
    13ca:	4c05                	li	s8,1
    13cc:	0000023f 068b1180 	0x68b11800000023f
    13d4:	0000                	unimp
    13d6:	4e05                	li	t3,1
    13d8:	0112                	slli	sp,sp,0x4
    13da:	0000                	unimp
    13dc:	0100                	addi	s0,sp,128
    13de:	ba11                	j	cf2 <main+0x22e>
    13e0:	0002                	0x2
    13e2:	0500                	addi	s0,sp,640
    13e4:	1251                	addi	tp,tp,-12
    13e6:	0001                	nop
    13e8:	0400                	addi	s0,sp,512
    13ea:	0001                	nop
    13ec:	1008                	addi	a0,sp,32
    13ee:	0001                	nop
    13f0:	4f00                	lw	s0,24(a4)
    13f2:	0002                	0x2
    13f4:	0900                	addi	s0,sp,144
    13f6:	002c                	addi	a1,sp,8
    13f8:	0000                	unimp
    13fa:	001f f410 0004      	0x4f410001f
    1400:	9000                	0x9000
    1402:	0501                	addi	a0,a0,0
    1404:	8d5d                	or	a0,a0,a5
    1406:	0002                	0x2
    1408:	0b00                	addi	s0,sp,400
    140a:	07c0                	addi	s0,sp,964
    140c:	0000                	unimp
    140e:	5e05                	li	t3,-31
    1410:	028d                	addi	t0,t0,3
    1412:	0000                	unimp
    1414:	0b00                	addi	s0,sp,400
    1416:	05df 0000 5f05      	0x5f05000005df
    141c:	00000033          	add	zero,zero,zero
    1420:	0b04                	addi	s1,sp,400
    1422:	00000337          	lui	t1,0x0
    1426:	6105                	addi	sp,sp,32
    1428:	00000293          	li	t0,0
    142c:	0b08                	addi	a0,sp,400
    142e:	021e                	slli	tp,tp,0x7
    1430:	0000                	unimp
    1432:	6205                	lui	tp,0x1
    1434:	01ff                	0x1ff
    1436:	0000                	unimp
    1438:	0088                	addi	a0,sp,64
    143a:	024f040f          	0x24f040f
    143e:	0000                	unimp
    1440:	a308                	fsd	fa0,0(a4)
    1442:	0002                	0x2
    1444:	a300                	fsd	fs0,0(a4)
    1446:	0002                	0x2
    1448:	0900                	addi	s0,sp,144
    144a:	002c                	addi	a1,sp,8
    144c:	0000                	unimp
    144e:	001f 040f 02a9      	0x2a9040f001f
    1454:	0000                	unimp
    1456:	0d12                	slli	s10,s10,0x4
    1458:	07aa                	slli	a5,a5,0xa
    145a:	0000                	unimp
    145c:	0508                	addi	a0,sp,640
    145e:	cf75                	beqz	a4,155a <_setlocale_r+0x6e>
    1460:	0002                	0x2
    1462:	0b00                	addi	s0,sp,400
    1464:	000001fb          	0x1fb
    1468:	7605                	lui	a2,0xfffe1
    146a:	000002cf          	fnmadd.s	ft5,ft0,ft0,ft0,rne
    146e:	0b00                	addi	s0,sp,400
    1470:	0638                	addi	a4,sp,776
    1472:	0000                	unimp
    1474:	7705                	lui	a4,0xfffe1
    1476:	00000033          	add	zero,zero,zero
    147a:	0004                	addi	s1,sp,0
    147c:	004f040f          	0x4f040f
    1480:	0000                	unimp
    1482:	bb0d                	j	11b4 <main+0x6f0>
    1484:	0005                	c.addi	zero,1
    1486:	6800                	flw	fs0,16(s0)
    1488:	b505                	j	12a8 <strnlen+0x8>
    148a:	03ff                	0x3ff
    148c:	0000                	unimp
    148e:	5f0e                	lw	t5,224(sp)
    1490:	0070                	addi	a2,sp,12
    1492:	b605                	j	fb2 <main+0x4ee>
    1494:	000002cf          	fnmadd.s	ft5,ft0,ft0,ft0,rne
    1498:	0e00                	addi	s0,sp,784
    149a:	725f 0500 33b7      	0x33b70500725f
    14a0:	0000                	unimp
    14a2:	0400                	addi	s0,sp,512
    14a4:	5f0e                	lw	t5,224(sp)
    14a6:	b8050077          	0xb8050077
    14aa:	00000033          	add	zero,zero,zero
    14ae:	0b08                	addi	a0,sp,400
    14b0:	000002b3          	add	t0,zero,zero
    14b4:	b905                	j	10e4 <main+0x620>
    14b6:	0056                	0x56
    14b8:	0000                	unimp
    14ba:	0b0c                	addi	a1,sp,400
    14bc:	000003a7          	0x3a7
    14c0:	ba05                	j	df0 <main+0x32c>
    14c2:	0056                	0x56
    14c4:	0000                	unimp
    14c6:	0e0e                	slli	t3,t3,0x3
    14c8:	625f 0066 bb05      	0xbb050066625f
    14ce:	02aa                	slli	t0,t0,0xa
    14d0:	0000                	unimp
    14d2:	0b10                	addi	a2,sp,400
    14d4:	00000143          	fmadd.s	ft2,ft0,ft0,ft0,rne
    14d8:	bc05                	j	f08 <main+0x444>
    14da:	00000033          	add	zero,zero,zero
    14de:	0b18                	addi	a4,sp,400
    14e0:	000002a3          	sb	zero,5(zero) # 5 <buf.1775+0x5>
    14e4:	c305                	beqz	a4,1504 <_setlocale_r+0x18>
    14e6:	0110                	addi	a2,sp,128
    14e8:	0000                	unimp
    14ea:	0b1c                	addi	a5,sp,400
    14ec:	00000553          	fadd.s	fa0,ft0,ft0,rne
    14f0:	c505                	beqz	a0,1518 <_setlocale_r+0x2c>
    14f2:	056c                	addi	a1,sp,652
    14f4:	0000                	unimp
    14f6:	0b20                	addi	s0,sp,408
    14f8:	00000477          	0x477
    14fc:	c705                	beqz	a4,1524 <_setlocale_r+0x38>
    14fe:	0000059b          	0x59b
    1502:	0b24                	addi	s1,sp,408
    1504:	0621                	addi	a2,a2,8
    1506:	0000                	unimp
    1508:	ca05                	beqz	a2,1538 <_setlocale_r+0x4c>
    150a:	000005bf 019c0b28 	0x19c0b28000005bf
    1512:	0000                	unimp
    1514:	cb05                	beqz	a4,1544 <_setlocale_r+0x58>
    1516:	05d9                	addi	a1,a1,22
    1518:	0000                	unimp
    151a:	0e2c                	addi	a1,sp,792
    151c:	755f 0062 ce05      	0xce050062755f
    1522:	02aa                	slli	t0,t0,0xa
    1524:	0000                	unimp
    1526:	0e30                	addi	a2,sp,792
    1528:	755f 0070 cf05      	0xcf050070755f
    152e:	000002cf          	fnmadd.s	ft5,ft0,ft0,ft0,rne
    1532:	0e38                	addi	a4,sp,792
    1534:	755f 0072 d005      	0xd0050072755f
    153a:	00000033          	add	zero,zero,zero
    153e:	0b3c                	addi	a5,sp,408
    1540:	01f5                	addi	gp,gp,29
    1542:	0000                	unimp
    1544:	d305                	beqz	a4,1464 <_strtol_l.isra.0+0x19c>
    1546:	05df 0000 0b40      	0xb40000005df
    154c:	072a                	slli	a4,a4,0xa
    154e:	0000                	unimp
    1550:	d405                	beqz	s0,1478 <_strtol_l.isra.0+0x1b0>
    1552:	000005ef          	jal	a1,1552 <_setlocale_r+0x66>
    1556:	6c5f0e43          	0x6c5f0e43
    155a:	0062                	0x62
    155c:	d705                	beqz	a4,1484 <_strtol_l.isra.0+0x1bc>
    155e:	02aa                	slli	t0,t0,0xa
    1560:	0000                	unimp
    1562:	0b44                	addi	s1,sp,404
    1564:	0000062f          	0x62f
    1568:	da05                	beqz	a2,1498 <_strtol_r+0x10>
    156a:	00000033          	add	zero,zero,zero
    156e:	0b4c                	addi	a1,sp,404
    1570:	04b9                	addi	s1,s1,14
    1572:	0000                	unimp
    1574:	db05                	beqz	a4,14a4 <strtol_l>
    1576:	007d                	c.addi	zero,31
    1578:	0000                	unimp
    157a:	0b50                	addi	a2,sp,404
    157c:	0055                	c.addi	zero,21
    157e:	0000                	unimp
    1580:	de05                	beqz	a2,14b8 <strtol_l+0x14>
    1582:	041d                	addi	s0,s0,7
    1584:	0000                	unimp
    1586:	0b54                	addi	a3,sp,404
    1588:	0449                	addi	s0,s0,18
    158a:	0000                	unimp
    158c:	e205                	bnez	a2,15ac <setlocale+0x4>
    158e:	0105                	addi	sp,sp,1
    1590:	0000                	unimp
    1592:	0b58                	addi	a4,sp,404
    1594:	0000038f          	0x38f
    1598:	e405                	bnez	s0,15c0 <_mbtowc_r>
    159a:	00fa                	slli	ra,ra,0x1e
    159c:	0000                	unimp
    159e:	0b5c                	addi	a5,sp,404
    15a0:	0599                	addi	a1,a1,6
    15a2:	0000                	unimp
    15a4:	e505                	bnez	a0,15cc <_mbtowc_r+0xc>
    15a6:	00000033          	add	zero,zero,zero
    15aa:	0064                	addi	s1,sp,12
    15ac:	00009313          	slli	t1,ra,0x0
    15b0:	1d00                	addi	s0,sp,688
    15b2:	0004                	addi	s1,sp,0
    15b4:	1400                	addi	s0,sp,544
    15b6:	041d                	addi	s0,s0,7
    15b8:	0000                	unimp
    15ba:	1014                	addi	a3,sp,32
    15bc:	0001                	nop
    15be:	1400                	addi	s0,sp,544
    15c0:	055a                	slli	a0,a0,0x16
    15c2:	0000                	unimp
    15c4:	3314                	fld	fa3,32(a4)
    15c6:	0000                	unimp
    15c8:	0000                	unimp
    15ca:	0428040f          	0x428040f
    15ce:	0000                	unimp
    15d0:	1d15                	addi	s10,s10,-27
    15d2:	0004                	addi	s1,sp,0
    15d4:	1600                	addi	s0,sp,800
    15d6:	05fe                	slli	a1,a1,0x1f
    15d8:	0000                	unimp
    15da:	0428                	addi	a0,sp,520
    15dc:	3905                	jal	120c <main+0x748>
    15de:	5a02                	lw	s4,32(sp)
    15e0:	0005                	c.addi	zero,1
    15e2:	1700                	addi	s0,sp,928
    15e4:	0589                	addi	a1,a1,2
    15e6:	0000                	unimp
    15e8:	3b05                	jal	1318 <_strtol_l.isra.0+0x50>
    15ea:	3302                	fld	ft6,32(sp)
    15ec:	0000                	unimp
    15ee:	0000                	unimp
    15f0:	0006f717          	auipc	a4,0x6f
    15f4:	0500                	addi	s0,sp,640
    15f6:	0240                	addi	s0,sp,260
    15f8:	0646                	slli	a2,a2,0x11
    15fa:	0000                	unimp
    15fc:	1704                	addi	s1,sp,928
    15fe:	06df 0000 4005      	0x4005000006df
    1604:	4602                	lw	a2,0(sp)
    1606:	0006                	0x6
    1608:	0800                	addi	s0,sp,16
    160a:	00034217          	auipc	tp,0x34
    160e:	0500                	addi	s0,sp,640
    1610:	0240                	addi	s0,sp,260
    1612:	0646                	slli	a2,a2,0x11
    1614:	0000                	unimp
    1616:	170c                	addi	a1,sp,928
    1618:	05da                	slli	a1,a1,0x16
    161a:	0000                	unimp
    161c:	4205                	li	tp,1
    161e:	3302                	fld	ft6,32(sp)
    1620:	0000                	unimp
    1622:	1000                	addi	s0,sp,32
    1624:	00002417          	auipc	s0,0x2
    1628:	0500                	addi	s0,sp,640
    162a:	08280243          	fmadd.s	ft4,fa6,ft2,ft1,rne
    162e:	0000                	unimp
    1630:	1714                	addi	a3,sp,928
    1632:	0362                	slli	t1,t1,0x18
    1634:	0000                	unimp
    1636:	4605                	li	a2,1
    1638:	3302                	fld	ft6,32(sp)
    163a:	0000                	unimp
    163c:	3000                	fld	fs0,32(s0)
    163e:	0005e417          	auipc	s0,0x5e
    1642:	0500                	addi	s0,sp,640
    1644:	083d0247          	fmsub.s	ft4,fs10,ft3,ft1,rne
    1648:	0000                	unimp
    164a:	1734                	addi	a3,sp,936
    164c:	0506                	slli	a0,a0,0x1
    164e:	0000                	unimp
    1650:	4905                	li	s2,1
    1652:	3302                	fld	ft6,32(sp)
    1654:	0000                	unimp
    1656:	3800                	fld	fs0,48(s0)
    1658:	0005ec17          	auipc	s8,0x5e
    165c:	0500                	addi	s0,sp,640
    165e:	084e024b          	fnmsub.s	ft4,ft8,ft4,ft1,rne
    1662:	0000                	unimp
    1664:	173c                	addi	a5,sp,936
    1666:	0425                	addi	s0,s0,9
    1668:	0000                	unimp
    166a:	4e05                	li	t3,1
    166c:	7002                	flw	ft0,32(sp)
    166e:	0001                	nop
    1670:	4000                	lw	s0,0(s0)
    1672:	0002ce17          	auipc	t3,0x2c
    1676:	0500                	addi	s0,sp,640
    1678:	0033024f          	fnmadd.s	ft4,ft6,ft3,ft0,rne
    167c:	0000                	unimp
    167e:	1744                	addi	s1,sp,932
    1680:	00000793          	li	a5,0
    1684:	5005                	0x5005
    1686:	7002                	flw	ft0,32(sp)
    1688:	0001                	nop
    168a:	4800                	lw	s0,16(s0)
    168c:	00052217          	auipc	tp,0x52
    1690:	0500                	addi	s0,sp,640
    1692:	0251                	addi	tp,tp,20
    1694:	0854                	addi	a3,sp,20
    1696:	0000                	unimp
    1698:	174c                	addi	a1,sp,932
    169a:	039f 0000 5405      	0x54050000039f
    16a0:	3302                	fld	ft6,32(sp)
    16a2:	0000                	unimp
    16a4:	5000                	lw	s0,32(s0)
    16a6:	0002fb17          	auipc	s6,0x2f
    16aa:	0500                	addi	s0,sp,640
    16ac:	0255                	addi	tp,tp,21
    16ae:	055a                	slli	a0,a0,0x16
    16b0:	0000                	unimp
    16b2:	1754                	addi	a3,sp,932
    16b4:	0582                	slli	a1,a1,0x0
    16b6:	0000                	unimp
    16b8:	7805                	lui	a6,0xfffe1
    16ba:	0602                	slli	a2,a2,0x0
    16bc:	0008                	addi	a0,sp,0
    16be:	5800                	lw	s0,48(s0)
    16c0:	f418                	fsw	fa4,40(s0)
    16c2:	0004                	addi	s1,sp,0
    16c4:	0500                	addi	s0,sp,640
    16c6:	027c                	addi	a5,sp,268
    16c8:	028d                	addi	t0,t0,3
    16ca:	0000                	unimp
    16cc:	0148                	addi	a0,sp,132
    16ce:	0318                	addi	a4,sp,384
    16d0:	0004                	addi	s1,sp,0
    16d2:	0500                	addi	s0,sp,640
    16d4:	027d                	addi	tp,tp,31
    16d6:	0000024f          	fnmadd.s	ft4,ft0,ft0,ft0,rne
    16da:	014c                	addi	a1,sp,132
    16dc:	1118                	addi	a4,sp,160
    16de:	05000007          	0x5000007
    16e2:	0281                	addi	t0,t0,0
    16e4:	0865                	addi	a6,a6,25
    16e6:	0000                	unimp
    16e8:	02dc                	addi	a5,sp,324
    16ea:	ab18                	fsd	fa4,16(a4)
    16ec:	0002                	0x2
    16ee:	0500                	addi	s0,sp,640
    16f0:	0286                	slli	t0,t0,0x1
    16f2:	0000060b          	0x60b
    16f6:	02e0                	addi	s0,sp,332
    16f8:	1918                	addi	a4,sp,176
    16fa:	0002                	0x2
    16fc:	0500                	addi	s0,sp,640
    16fe:	08710287          	0x8710287
    1702:	0000                	unimp
    1704:	02ec                	addi	a1,sp,332
    1706:	0f00                	addi	s0,sp,912
    1708:	6004                	flw	fs1,0(s0)
    170a:	0005                	c.addi	zero,1
    170c:	0200                	addi	s0,sp,256
    170e:	0801                	addi	a6,a6,0
    1710:	069d                	addi	a3,a3,7
    1712:	0000                	unimp
    1714:	6015                	0x6015
    1716:	0005                	c.addi	zero,1
    1718:	0f00                	addi	s0,sp,912
    171a:	ff04                	fsw	fs1,56(a4)
    171c:	13000003          	lb	zero,304(zero) # 130 <SIM_STOP+0x38>
    1720:	00000093          	li	ra,0
    1724:	0590                	addi	a2,sp,704
    1726:	0000                	unimp
    1728:	1d14                	addi	a3,sp,688
    172a:	0004                	addi	s1,sp,0
    172c:	1400                	addi	s0,sp,544
    172e:	0110                	addi	a2,sp,128
    1730:	0000                	unimp
    1732:	9014                	0x9014
    1734:	0005                	c.addi	zero,1
    1736:	1400                	addi	s0,sp,544
    1738:	00000033          	add	zero,zero,zero
    173c:	0f00                	addi	s0,sp,912
    173e:	6704                	flw	fs1,8(a4)
    1740:	0005                	c.addi	zero,1
    1742:	1500                	addi	s0,sp,672
    1744:	0590                	addi	a2,sp,704
    1746:	0000                	unimp
    1748:	0572040f          	0x572040f
    174c:	0000                	unimp
    174e:	00008813          	mv	a6,ra
    1752:	bf00                	fsd	fs0,56(a4)
    1754:	0005                	c.addi	zero,1
    1756:	1400                	addi	s0,sp,544
    1758:	041d                	addi	s0,s0,7
    175a:	0000                	unimp
    175c:	1014                	addi	a3,sp,32
    175e:	0001                	nop
    1760:	1400                	addi	s0,sp,544
    1762:	0088                	addi	a0,sp,64
    1764:	0000                	unimp
    1766:	3314                	fld	fa3,32(a4)
    1768:	0000                	unimp
    176a:	0000                	unimp
    176c:	05a1040f          	0x5a1040f
    1770:	0000                	unimp
    1772:	00003313          	sltiu	t1,zero,0
    1776:	d900                	sw	s0,48(a0)
    1778:	0005                	c.addi	zero,1
    177a:	1400                	addi	s0,sp,544
    177c:	041d                	addi	s0,s0,7
    177e:	0000                	unimp
    1780:	1014                	addi	a3,sp,32
    1782:	0001                	nop
    1784:	0000                	unimp
    1786:	05c5040f          	0x5c5040f
    178a:	0000                	unimp
    178c:	4f08                	lw	a0,24(a4)
    178e:	0000                	unimp
    1790:	ef00                	fsw	fs0,24(a4)
    1792:	0005                	c.addi	zero,1
    1794:	0900                	addi	s0,sp,144
    1796:	002c                	addi	a1,sp,8
    1798:	0000                	unimp
    179a:	0002                	0x2
    179c:	4f08                	lw	a0,24(a4)
    179e:	0000                	unimp
    17a0:	ff00                	fsw	fs0,56(a4)
    17a2:	0005                	c.addi	zero,1
    17a4:	0900                	addi	s0,sp,144
    17a6:	002c                	addi	a1,sp,8
    17a8:	0000                	unimp
    17aa:	0000                	unimp
    17ac:	c705                	beqz	a4,17d4 <_wctomb_r+0x1c>
    17ae:	0002                	0x2
    17b0:	0500                	addi	s0,sp,640
    17b2:	011f 02d5 0000      	0x2d5011f
    17b8:	f119                	bnez	a0,16be <strcmp+0x82>
    17ba:	0006                	0x6
    17bc:	0c00                	addi	s0,sp,528
    17be:	2305                	jal	1cde <__udivdi3+0x7a>
    17c0:	4001                	0x4001
    17c2:	0006                	0x6
    17c4:	1700                	addi	s0,sp,928
    17c6:	07c0                	addi	s0,sp,964
    17c8:	0000                	unimp
    17ca:	2505                	jal	1dea <__udivdi3+0x186>
    17cc:	4001                	0x4001
    17ce:	0006                	0x6
    17d0:	0000                	unimp
    17d2:	0003bf17          	auipc	t5,0x3b
    17d6:	0500                	addi	s0,sp,640
    17d8:	0126                	slli	sp,sp,0x9
    17da:	00000033          	add	zero,zero,zero
    17de:	1704                	addi	s1,sp,928
    17e0:	05a1                	addi	a1,a1,8
    17e2:	0000                	unimp
    17e4:	2705                	jal	1f04 <__udivdi3+0x2a0>
    17e6:	4601                	li	a2,0
    17e8:	0006                	0x6
    17ea:	0800                	addi	s0,sp,16
    17ec:	0f00                	addi	s0,sp,912
    17ee:	0b04                	addi	s1,sp,400
    17f0:	0006                	0x6
    17f2:	0f00                	addi	s0,sp,912
    17f4:	ff04                	fsw	fs1,56(a4)
    17f6:	0005                	c.addi	zero,1
    17f8:	1900                	addi	s0,sp,176
    17fa:	001c                	addi	a5,sp,0
    17fc:	0000                	unimp
    17fe:	050e                	slli	a0,a0,0x3
    1800:	0681013f 5b170000 	0x5b1700000681013f
    1808:	0006                	0x6
    180a:	0500                	addi	s0,sp,640
    180c:	0140                	addi	s0,sp,132
    180e:	0681                	addi	a3,a3,0
    1810:	0000                	unimp
    1812:	1700                	addi	s0,sp,928
    1814:	0454                	addi	a3,sp,516
    1816:	0000                	unimp
    1818:	4105                	li	sp,1
    181a:	8101                	srli	a0,a0,0x0
    181c:	0006                	0x6
    181e:	0600                	addi	s0,sp,768
    1820:	0006a217          	auipc	tp,0x6a
    1824:	0500                	addi	s0,sp,640
    1826:	0142                	slli	sp,sp,0x10
    1828:	005d                	c.addi	zero,23
    182a:	0000                	unimp
    182c:	000c                	addi	a1,sp,0
    182e:	5d08                	lw	a0,56(a0)
    1830:	0000                	unimp
    1832:	9100                	0x9100
    1834:	0006                	0x6
    1836:	0900                	addi	s0,sp,144
    1838:	002c                	addi	a1,sp,8
    183a:	0000                	unimp
    183c:	0002                	0x2
    183e:	d01a                	sw	t1,32(sp)
    1840:	5905                	li	s2,-31
    1842:	9202                	jalr	tp
    1844:	17000007          	0x17000007
    1848:	0490                	addi	a2,sp,576
    184a:	0000                	unimp
    184c:	5b05                	li	s6,-31
    184e:	2c02                	fld	fs8,0(sp)
    1850:	0000                	unimp
    1852:	0000                	unimp
    1854:	00067717          	auipc	a4,0x67
    1858:	0500                	addi	s0,sp,640
    185a:	025c                	addi	a5,sp,260
    185c:	055a                	slli	a0,a0,0x16
    185e:	0000                	unimp
    1860:	1704                	addi	s1,sp,928
    1862:	0418                	addi	a4,sp,512
    1864:	0000                	unimp
    1866:	5d05                	li	s10,-31
    1868:	9202                	jalr	tp
    186a:	08000007          	0x8000007
    186e:	00074d17          	auipc	s10,0x74
    1872:	0500                	addi	s0,sp,640
    1874:	025e                	slli	tp,tp,0x17
    1876:	0186                	slli	gp,gp,0x1
    1878:	0000                	unimp
    187a:	1724                	addi	s1,sp,936
    187c:	034a                	slli	t1,t1,0x12
    187e:	0000                	unimp
    1880:	5f05                	li	t5,-31
    1882:	3302                	fld	ft6,32(sp)
    1884:	0000                	unimp
    1886:	4800                	lw	s0,16(s0)
    1888:	0007bb17          	auipc	s6,0x7b
    188c:	0500                	addi	s0,sp,640
    188e:	0260                	addi	s0,sp,268
    1890:	0025                	c.addi	zero,9
    1892:	0000                	unimp
    1894:	1750                	addi	a2,sp,932
    1896:	0765                	addi	a4,a4,25
    1898:	0000                	unimp
    189a:	6105                	addi	sp,sp,32
    189c:	4c02                	lw	s8,0(sp)
    189e:	0006                	0x6
    18a0:	5800                	lw	s0,48(s0)
    18a2:	0005cd17          	auipc	s10,0x5c
    18a6:	0500                	addi	s0,sp,640
    18a8:	0262                	slli	tp,tp,0x18
    18aa:	00fa                	slli	ra,ra,0x1e
    18ac:	0000                	unimp
    18ae:	1768                	addi	a0,sp,940
    18b0:	0785                	addi	a5,a5,1
    18b2:	0000                	unimp
    18b4:	6305                	lui	t1,0x1
    18b6:	fa02                	fsw	ft0,52(sp)
    18b8:	0000                	unimp
    18ba:	7000                	flw	fs0,32(s0)
    18bc:	00020b17          	auipc	s6,0x20
    18c0:	0500                	addi	s0,sp,640
    18c2:	0264                	addi	s1,sp,268
    18c4:	00fa                	slli	ra,ra,0x1e
    18c6:	0000                	unimp
    18c8:	1778                	addi	a4,sp,940
    18ca:	00000707          	0x707
    18ce:	6505                	lui	a0,0x1
    18d0:	a202                	fsd	ft0,256(sp)
    18d2:	80000007          	0x80000007
    18d6:	00040c17          	auipc	s8,0x40
    18da:	0500                	addi	s0,sp,640
    18dc:	0266                	slli	tp,tp,0x19
    18de:	07b2                	slli	a5,a5,0xc
    18e0:	0000                	unimp
    18e2:	1788                	addi	a0,sp,992
    18e4:	0048                	addi	a0,sp,4
    18e6:	0000                	unimp
    18e8:	6705                	lui	a4,0x1
    18ea:	3302                	fld	ft6,32(sp)
    18ec:	0000                	unimp
    18ee:	a000                	fsd	fs0,0(s0)
    18f0:	00031417          	auipc	s0,0x31
    18f4:	0500                	addi	s0,sp,640
    18f6:	0268                	addi	a0,sp,268
    18f8:	00fa                	slli	ra,ra,0x1e
    18fa:	0000                	unimp
    18fc:	17a4                	addi	s1,sp,1000
    18fe:	017c                	addi	a5,sp,140
    1900:	0000                	unimp
    1902:	6905                	lui	s2,0x1
    1904:	fa02                	fsw	ft0,52(sp)
    1906:	0000                	unimp
    1908:	ac00                	fsd	fs0,24(s0)
    190a:	00030317          	auipc	t1,0x30
    190e:	0500                	addi	s0,sp,640
    1910:	026a                	slli	tp,tp,0x1a
    1912:	00fa                	slli	ra,ra,0x1e
    1914:	0000                	unimp
    1916:	17b4                	addi	a3,sp,1000
    1918:	0000005b          	0x5b
    191c:	6b05                	lui	s6,0x1
    191e:	fa02                	fsw	ft0,52(sp)
    1920:	0000                	unimp
    1922:	bc00                	fsd	fs0,56(s0)
    1924:	00012817          	auipc	a6,0x12
    1928:	0500                	addi	s0,sp,640
    192a:	026c                	addi	a1,sp,268
    192c:	00fa                	slli	ra,ra,0x1e
    192e:	0000                	unimp
    1930:	17c4                	addi	s1,sp,996
    1932:	00000587          	0x587
    1936:	6d05                	lui	s10,0x1
    1938:	3302                	fld	ft6,32(sp)
    193a:	0000                	unimp
    193c:	cc00                	sw	s0,24(s0)
    193e:	0800                	addi	s0,sp,16
    1940:	0560                	addi	s0,sp,652
    1942:	0000                	unimp
    1944:	07a2                	slli	a5,a5,0x8
    1946:	0000                	unimp
    1948:	2c09                	jal	1b5a <__moddi3+0x352>
    194a:	0000                	unimp
    194c:	1900                	addi	s0,sp,176
    194e:	0800                	addi	s0,sp,16
    1950:	0560                	addi	s0,sp,652
    1952:	0000                	unimp
    1954:	07b2                	slli	a5,a5,0xc
    1956:	0000                	unimp
    1958:	2c09                	jal	1b6a <__moddi3+0x362>
    195a:	0000                	unimp
    195c:	0700                	addi	s0,sp,896
    195e:	0800                	addi	s0,sp,16
    1960:	0560                	addi	s0,sp,652
    1962:	0000                	unimp
    1964:	07c2                	slli	a5,a5,0x10
    1966:	0000                	unimp
    1968:	2c09                	jal	1b7a <__moddi3+0x372>
    196a:	0000                	unimp
    196c:	1700                	addi	s0,sp,928
    196e:	1a00                	addi	s0,sp,304
    1970:	05f0                	addi	a2,sp,716
    1972:	0272                	slli	tp,tp,0x1c
    1974:	07e6                	slli	a5,a5,0x19
    1976:	0000                	unimp
    1978:	00043317          	auipc	t1,0x43
    197c:	0500                	addi	s0,sp,640
    197e:	0275                	addi	tp,tp,29
    1980:	07e6                	slli	a5,a5,0x19
    1982:	0000                	unimp
    1984:	1700                	addi	s0,sp,928
    1986:	0359                	addi	t1,t1,22
    1988:	0000                	unimp
    198a:	7605                	lui	a2,0xfffe1
    198c:	f602                	fsw	ft0,44(sp)
    198e:	78000007          	0x78000007
    1992:	0800                	addi	s0,sp,16
    1994:	000002cf          	fnmadd.s	ft5,ft0,ft0,ft0,rne
    1998:	07f6                	slli	a5,a5,0x1d
    199a:	0000                	unimp
    199c:	2c09                	jal	1bae <__moddi3+0x3a6>
    199e:	0000                	unimp
    19a0:	1d00                	addi	s0,sp,688
    19a2:	0800                	addi	s0,sp,16
    19a4:	002c                	addi	a1,sp,8
    19a6:	0000                	unimp
    19a8:	0806                	slli	a6,a6,0x1
    19aa:	0000                	unimp
    19ac:	2c09                	jal	1bbe <__moddi3+0x3b6>
    19ae:	0000                	unimp
    19b0:	1d00                	addi	s0,sp,688
    19b2:	1b00                	addi	s0,sp,432
    19b4:	05f0                	addi	a2,sp,716
    19b6:	08280257          	0x8280257
    19ba:	0000                	unimp
    19bc:	fe1c                	fsw	fa5,56(a2)
    19be:	0005                	c.addi	zero,1
    19c0:	0500                	addi	s0,sp,640
    19c2:	026e                	slli	tp,tp,0x1b
    19c4:	0691                	addi	a3,a3,4
    19c6:	0000                	unimp
    19c8:	301c                	fld	fa5,32(s0)
    19ca:	05000007          	0x5000007
    19ce:	07c20277          	0x7c20277
    19d2:	0000                	unimp
    19d4:	0800                	addi	s0,sp,16
    19d6:	0560                	addi	s0,sp,652
    19d8:	0000                	unimp
    19da:	0838                	addi	a4,sp,24
    19dc:	0000                	unimp
    19de:	2c09                	jal	1bf0 <__moddi3+0x3e8>
    19e0:	0000                	unimp
    19e2:	1800                	addi	s0,sp,48
    19e4:	1d00                	addi	s0,sp,688
    19e6:	0171                	addi	sp,sp,28
    19e8:	0000                	unimp
    19ea:	0838040f          	0x838040f
    19ee:	0000                	unimp
    19f0:	4e1e                	lw	t3,196(sp)
    19f2:	0008                	addi	a0,sp,0
    19f4:	1400                	addi	s0,sp,544
    19f6:	041d                	addi	s0,s0,7
    19f8:	0000                	unimp
    19fa:	0f00                	addi	s0,sp,912
    19fc:	4304                	lw	s1,0(a4)
    19fe:	0008                	addi	a0,sp,0
    1a00:	0f00                	addi	s0,sp,912
    1a02:	7004                	flw	fs1,32(s0)
    1a04:	0001                	nop
    1a06:	1e00                	addi	s0,sp,816
    1a08:	0865                	addi	a6,a6,25
    1a0a:	0000                	unimp
    1a0c:	3314                	fld	fa3,32(a4)
    1a0e:	0000                	unimp
    1a10:	0000                	unimp
    1a12:	086b040f          	0x86b040f
    1a16:	0000                	unimp
    1a18:	085a040f          	0x85a040f
    1a1c:	0000                	unimp
    1a1e:	ff08                	fsw	fa0,56(a4)
    1a20:	0005                	c.addi	zero,1
    1a22:	8100                	0x8100
    1a24:	0008                	addi	a0,sp,0
    1a26:	0900                	addi	s0,sp,144
    1a28:	002c                	addi	a1,sp,8
    1a2a:	0000                	unimp
    1a2c:	0002                	0x2
    1a2e:	cb1f 0006 0500      	0x5000006cb1f
    1a34:	02fe                	slli	t0,t0,0x1f
    1a36:	041d                	addi	s0,s0,7
    1a38:	0000                	unimp
    1a3a:	c41f 0006 0500      	0x5000006c41f
    1a40:	02ff                	0x2ff
    1a42:	00000423          	sb	zero,8(zero) # 8 <buf.1775+0x8>
    1a46:	9608                	0x9608
    1a48:	0005                	c.addi	zero,1
    1a4a:	a400                	fsd	fs0,8(s0)
    1a4c:	0008                	addi	a0,sp,0
    1a4e:	2000                	fld	fs0,0(s0)
    1a50:	1500                	addi	s0,sp,672
    1a52:	0899                	addi	a7,a7,6
    1a54:	0000                	unimp
    1a56:	ee21                	bnez	a2,1aae <__moddi3+0x2a6>
    1a58:	0002                	0x2
    1a5a:	0600                	addi	s0,sp,768
    1a5c:	a414                	fsd	fa3,8(s0)
    1a5e:	0008                	addi	a0,sp,0
    1a60:	2100                	fld	fs0,0(a0)
    1a62:	000005c3          	fmadd.s	fa1,ft0,ft0,ft0,rne
    1a66:	1506                	slli	a0,a0,0x21
    1a68:	00000033          	add	zero,zero,zero
    1a6c:	08c5040f          	0x8c5040f
    1a70:	0000                	unimp
    1a72:	00003313          	sltiu	t1,zero,0
    1a76:	d900                	sw	s0,48(a0)
    1a78:	0008                	addi	a0,sp,0
    1a7a:	1400                	addi	s0,sp,544
    1a7c:	08d9                	addi	a7,a7,22
    1a7e:	0000                	unimp
    1a80:	d914                	sw	a3,48(a0)
    1a82:	0008                	addi	a0,sp,0
    1a84:	0000                	unimp
    1a86:	08df040f          	0x8df040f
    1a8a:	0000                	unimp
    1a8c:	2122                	fld	ft2,8(sp)
    1a8e:	04fc                	addi	a5,sp,588
    1a90:	0000                	unimp
    1a92:	055a6307          	0x55a6307
    1a96:	0000                	unimp
    1a98:	3a21                	jal	13b0 <_strtol_l.isra.0+0xe8>
    1a9a:	0004                	addi	s1,sp,0
    1a9c:	0800                	addi	s0,sp,16
    1a9e:	f610                	fsw	fa2,40(a2)
    1aa0:	0008                	addi	a0,sp,0
    1aa2:	0f00                	addi	s0,sp,912
    1aa4:	5a04                	lw	s1,48(a2)
    1aa6:	0005                	c.addi	zero,1
    1aa8:	2100                	fld	fs0,0(a0)
    1aaa:	04ff                	0x4ff
    1aac:	0000                	unimp
    1aae:	e208                	fsw	fa0,0(a2)
    1ab0:	055a                	slli	a0,a0,0x16
    1ab2:	0000                	unimp
    1ab4:	4c21                	li	s8,8
    1ab6:	0001                	nop
    1ab8:	0800                	addi	s0,sp,16
    1aba:	000033e3          	0x33e3
    1abe:	2100                	fld	fs0,0(a0)
    1ac0:	0661                	addi	a2,a2,24
    1ac2:	0000                	unimp
    1ac4:	e308                	fsw	fa0,0(a4)
    1ac6:	00000033          	add	zero,zero,zero
    1aca:	7421                	lui	s0,0xfffe8
    1acc:	08000007          	0x8000007
    1ad0:	000033e3          	0x33e3
    1ad4:	2100                	fld	fs0,0(a0)
    1ad6:	046e                	slli	s0,s0,0x1b
    1ad8:	0000                	unimp
    1ada:	e508                	fsw	fa0,8(a0)
    1adc:	00000033          	add	zero,zero,zero
    1ae0:	2c21                	jal	1cf8 <__udivdi3+0x94>
    1ae2:	0005                	c.addi	zero,1
    1ae4:	0900                	addi	s0,sp,144
    1ae6:	649a                	flw	fs1,132(sp)
    1ae8:	0000                	unimp
    1aea:	2100                	fld	fs0,0(a0)
    1aec:	0000002f          	0x2f
    1af0:	9b09                	andi	a4,a4,-30
    1af2:	00000033          	add	zero,zero,zero
    1af6:	5a08                	lw	a0,48(a2)
    1af8:	0005                	c.addi	zero,1
    1afa:	5900                	lw	s0,48(a0)
    1afc:	0009                	c.addi	zero,2
    1afe:	0900                	addi	s0,sp,144
    1b00:	002c                	addi	a1,sp,8
    1b02:	0000                	unimp
    1b04:	0001                	nop
    1b06:	8b21                	andi	a4,a4,8
    1b08:	0001                	nop
    1b0a:	0900                	addi	s0,sp,144
    1b0c:	499e                	lw	s3,196(sp)
    1b0e:	0009                	c.addi	zero,2
    1b10:	0400                	addi	s0,sp,512
    1b12:	03ad                	addi	t2,t2,11
    1b14:	0000                	unimp
    1b16:	2a0a                	fld	fs4,128(sp)
    1b18:	002c                	addi	a1,sp,8
    1b1a:	0000                	unimp
    1b1c:	b104                	fsd	fs1,32(a0)
    1b1e:	0005                	c.addi	zero,1
    1b20:	0a00                	addi	s0,sp,272
    1b22:	00097a2f          	0x97a2f
    1b26:	0f00                	addi	s0,sp,912
    1b28:	8004                	0x8004
    1b2a:	0009                	c.addi	zero,2
    1b2c:	1300                	addi	s0,sp,416
    1b2e:	0964                	addi	s1,sp,156
    1b30:	0000                	unimp
    1b32:	0000098f          	0x98f
    1b36:	d914                	sw	a3,48(a0)
    1b38:	0008                	addi	a0,sp,0
    1b3a:	0000                	unimp
    1b3c:	c604                	sw	s1,8(a2)
    1b3e:	0a000007          	0xa000007
    1b42:	bf36                	fsd	fa3,440(sp)
    1b44:	0008                	addi	a0,sp,0
    1b46:	2100                	fld	fs0,0(a0)
    1b48:	000a                	0xa
    1b4a:	0000                	unimp
    1b4c:	bb0a                	fsd	ft2,432(sp)
    1b4e:	0000096f          	jal	s2,1b4e <__moddi3+0x346>
    1b52:	af21                	j	226a <__umoddi3+0x1ce>
    1b54:	0006                	0x6
    1b56:	0a00                	addi	s0,sp,272
    1b58:	8fbe                	mv	t6,a5
    1b5a:	0009                	c.addi	zero,2
    1b5c:	2300                	fld	fs0,0(a4)
    1b5e:	0380                	addi	s0,sp,448
    1b60:	0000                	unimp
    1b62:	002c0407          	0x2c0407
    1b66:	0000                	unimp
    1b68:	09e6180b          	0x9e6180b
    1b6c:	0000                	unimp
    1b6e:	6224                	flw	fs1,64(a2)
    1b70:	0005                	c.addi	zero,1
    1b72:	0000                	unimp
    1b74:	d224                	sw	s1,96(a2)
    1b76:	0004                	addi	s1,sp,0
    1b78:	0100                	addi	s0,sp,128
    1b7a:	9d24                	0x9d24
    1b7c:	0004                	addi	s1,sp,0
    1b7e:	0200                	addi	s0,sp,256
    1b80:	5924                	lw	s1,112(a0)
    1b82:	0005                	c.addi	zero,1
    1b84:	0300                	addi	s0,sp,384
    1b86:	7b24                	flw	fs1,112(a4)
    1b88:	04000007          	0x4000007
    1b8c:	6a24                	flw	fs1,80(a2)
    1b8e:	05000007          	0x5000007
    1b92:	2100                	fld	fs0,0(a0)
    1b94:	00000167          	jalr	sp,zero
    1b98:	09b0200b          	0x9b0200b
    1b9c:	0000                	unimp
    1b9e:	0004a823          	sw	zero,16(s1)
    1ba2:	0700                	addi	s0,sp,896
    1ba4:	2c04                	fld	fs1,24(s0)
    1ba6:	0000                	unimp
    1ba8:	0b00                	addi	s0,sp,400
    1baa:	1522                	slli	a0,a0,0x28
    1bac:	000a                	0xa
    1bae:	2400                	fld	fs0,8(s0)
    1bb0:	000005a7          	0x5a7
    1bb4:	2400                	fld	fs0,8(s0)
    1bb6:	0578                	addi	a4,sp,652
    1bb8:	0000                	unimp
    1bba:	2401                	jal	1dba <__udivdi3+0x156>
    1bbc:	0684                	addi	s1,sp,832
    1bbe:	0000                	unimp
    1bc0:	0002                	0x2
    1bc2:	2221                	jal	1cca <__udivdi3+0x66>
    1bc4:	0b000003          	lb	zero,176(zero) # b0 <buflen.1776+0x70>
    1bc8:	0009f127          	0x9f127
    1bcc:	2100                	fld	fs0,0(a0)
    1bce:	045f 0000 250c      	0x250c0000045f
    1bd4:	08a4                	addi	s1,sp,88
    1bd6:	0000                	unimp
    1bd8:	4b21                	li	s6,8
    1bda:	0006                	0x6
    1bdc:	0c00                	addi	s0,sp,528
    1bde:	a431                	j	1dea <__udivdi3+0x186>
    1be0:	0008                	addi	a0,sp,0
    1be2:	0400                	addi	s0,sp,512
    1be4:	07a2                	slli	a5,a5,0x8
    1be6:	0000                	unimp
    1be8:	7b0d                	lui	s6,0xfffe3
    1bea:	0000004f          	fnmadd.s	ft0,ft0,ft0,ft0,rne
    1bee:	3615                	jal	1712 <strcmp+0xd6>
    1bf0:	000a                	0xa
    1bf2:	0400                	addi	s0,sp,512
    1bf4:	02d9                	addi	t0,t0,22
    1bf6:	0000                	unimp
    1bf8:	800d                	srli	s0,s0,0x3
    1bfa:	00000033          	add	zero,zero,zero
    1bfe:	d804                	sw	s1,48(s0)
    1c00:	0002                	0x2
    1c02:	0d00                	addi	s0,sp,656
    1c04:	2c81                	jal	1e54 <__udivdi3+0x1f0>
    1c06:	0000                	unimp
    1c08:	0400                	addi	s0,sp,512
    1c0a:	06d8                	addi	a4,sp,836
    1c0c:	0000                	unimp
    1c0e:	840d                	srai	s0,s0,0x3
    1c10:	003a                	0x3a
    1c12:	0000                	unimp
    1c14:	d704                	sw	s1,40(a4)
    1c16:	0006                	0x6
    1c18:	0d00                	addi	s0,sp,656
    1c1a:	2585                	jal	227a <__umoddi3+0x1de>
    1c1c:	0000                	unimp
    1c1e:	0200                	addi	s0,sp,256
    1c20:	0404                	addi	s1,sp,512
    1c22:	04e5                	addi	s1,s1,25
    1c24:	0000                	unimp
    1c26:	0802                	slli	a6,a6,0x0
    1c28:	0004dd03          	lhu	s10,0(s1)
    1c2c:	0200                	addi	s0,sp,256
    1c2e:	0408                	addi	a0,sp,512
    1c30:	0160                	addi	s0,sp,140
    1c32:	0000                	unimp
    1c34:	1002                	0x1002
    1c36:	00003903          	0x3903
    1c3a:	0200                	addi	s0,sp,256
    1c3c:	0320                	addi	s0,sp,392
    1c3e:	00000153          	fadd.s	ft2,ft0,ft0,rne
    1c42:	dd19                	beqz	a0,1b60 <__moddi3+0x358>
    1c44:	08000003          	lb	zero,128(zero) # 80 <buflen.1776+0x40>
    1c48:	ed0d                	bnez	a0,1c82 <__udivdi3+0x1e>
    1c4a:	bd01                	j	1a5a <__moddi3+0x252>
    1c4c:	000a                	0xa
    1c4e:	2500                	fld	fs0,8(a0)
    1c50:	6f6c                	flw	fa1,92(a4)
    1c52:	ed0d0077          	0xed0d0077
    1c56:	4601                	li	a2,0
    1c58:	000a                	0xa
    1c5a:	0000                	unimp
    1c5c:	00066817          	auipc	a6,0x66
    1c60:	0d00                	addi	s0,sp,656
    1c62:	01ed                	addi	gp,gp,27
    1c64:	0a46                	slli	s4,s4,0x11
    1c66:	0000                	unimp
    1c68:	0004                	addi	s1,sp,0
    1c6a:	f40d081b          	0xf40d081b
    1c6e:	dc01                	beqz	s0,1b86 <__moddi3+0x37e>
    1c70:	000a                	0xa
    1c72:	2600                	fld	fs0,8(a2)
    1c74:	f60d0073          	0xf60d0073
    1c78:	9501                	srai	a0,a0,0x20
    1c7a:	000a                	0xa
    1c7c:	2600                	fld	fs0,8(a2)
    1c7e:	6c6c                	flw	fa1,92(s0)
    1c80:	0d00                	addi	s0,sp,656
    1c82:	0a5c01f7          	0xa5c01f7
    1c86:	0000                	unimp
    1c88:	0500                	addi	s0,sp,640
    1c8a:	000003b7          	lui	t2,0x0
    1c8e:	f80d                	bnez	s0,1bc0 <__moddi3+0x3b8>
    1c90:	bd01                	j	1aa0 <__moddi3+0x298>
    1c92:	000a                	0xa
    1c94:	1500                	addi	s0,sp,672
    1c96:	0adc                	addi	a5,sp,340
    1c98:	0000                	unimp
    1c9a:	4108                	lw	a0,0(a0)
    1c9c:	000a                	0xa
    1c9e:	fd00                	fsw	fs0,56(a0)
    1ca0:	000a                	0xa
    1ca2:	0900                	addi	s0,sp,144
    1ca4:	002c                	addi	a1,sp,8
    1ca6:	0000                	unimp
    1ca8:	00ff                	0xff
    1caa:	ed15                	bnez	a0,1ce6 <__udivdi3+0x82>
    1cac:	000a                	0xa
    1cae:	1f00                	addi	s0,sp,944
    1cb0:	0000071b          	0x71b
    1cb4:	fc0d                	bnez	s0,1bee <__moddi3+0x3e6>
    1cb6:	fd01                	bnez	a0,1bce <__moddi3+0x3c6>
    1cb8:	000a                	0xa
    1cba:	1f00                	addi	s0,sp,944
    1cbc:	03f9                	addi	t2,t2,30
    1cbe:	0000                	unimp
    1cc0:	020d                	addi	tp,tp,3
    1cc2:	fd02                	fsw	ft0,184(sp)
    1cc4:	000a                	0xa
    1cc6:	2700                	fld	fs0,8(a4)
    1cc8:	07ce                	slli	a5,a5,0x13
    1cca:	0000                	unimp
    1ccc:	2501                	jal	22cc <__umoddi3+0x230>
    1cce:	6705                	lui	a4,0x1
    1cd0:	000a                	0xa
    1cd2:	6400                	flw	fs0,8(s0)
    1cd4:	001c                	addi	a5,sp,0
    1cd6:	3400                	fld	fs0,40(s0)
    1cd8:	0004                	addi	s1,sp,0
    1cda:	0100                	addi	s0,sp,128
    1cdc:	f29c                	fsw	fa5,32(a3)
    1cde:	000d                	c.addi	zero,3
    1ce0:	2800                	fld	fs0,16(s0)
    1ce2:	006e                	0x6e
    1ce4:	2501                	jal	22e4 <__umoddi3+0x248>
    1ce6:	6705                	lui	a4,0x1
    1ce8:	000a                	0xa
    1cea:	c400                	sw	s0,8(s0)
    1cec:	0009                	c.addi	zero,2
    1cee:	2800                	fld	fs0,16(s0)
    1cf0:	0064                	addi	s1,sp,12
    1cf2:	2501                	jal	22f2 <__umoddi3+0x256>
    1cf4:	6705                	lui	a4,0x1
    1cf6:	000a                	0xa
    1cf8:	7c00                	flw	fs0,56(s0)
    1cfa:	000a                	0xa
    1cfc:	2900                	fld	fs0,16(a0)
    1cfe:	0df2                	slli	s11,s11,0x1c
    1d00:	0000                	unimp
    1d02:	1c68                	addi	a0,sp,572
    1d04:	0000                	unimp
    1d06:	00c0                	addi	s0,sp,68
    1d08:	0000                	unimp
    1d0a:	2701                	jal	240a <__umoddi3+0x36e>
    1d0c:	2a05                	jal	1e3c <__udivdi3+0x1d8>
    1d0e:	00000e17          	auipc	t3,0x0
    1d12:	0b14                	addi	a3,sp,400
    1d14:	0000                	unimp
    1d16:	0d2a                	slli	s10,s10,0xa
    1d18:	000e                	0xe
    1d1a:	3400                	fld	fs0,40(s0)
    1d1c:	2a00000b          	0x2a00000b
    1d20:	00000e03          	lb	t3,0(zero) # 0 <buf.1775>
    1d24:	0bcc                	addi	a1,sp,468
    1d26:	0000                	unimp
    1d28:	0000c02b          	0xc02b
    1d2c:	2c00                	fld	fs0,24(s0)
    1d2e:	0e22                	slli	t3,t3,0x8
    1d30:	0000                	unimp
    1d32:	2d2c                	fld	fa1,88(a0)
    1d34:	000e                	0xe
    1d36:	2c00                	fld	fs0,24(s0)
    1d38:	0e38                	addi	a4,sp,792
    1d3a:	0000                	unimp
    1d3c:	432d                	li	t1,11
    1d3e:	000e                	0xe
    1d40:	8400                	0x8400
    1d42:	000c                	addi	a1,sp,0
    1d44:	2d00                	fld	fs0,24(a0)
    1d46:	0e4e                	slli	t3,t3,0x13
    1d48:	0000                	unimp
    1d4a:	0d19                	addi	s10,s10,6
    1d4c:	0000                	unimp
    1d4e:	592d                	li	s2,-21
    1d50:	000e                	0xe
    1d52:	8f00                	0x8f00
    1d54:	000d                	c.addi	zero,3
    1d56:	2d00                	fld	fs0,24(a0)
    1d58:	0e64                	addi	s1,sp,796
    1d5a:	0000                	unimp
    1d5c:	0dff                	0xdff
    1d5e:	0000                	unimp
    1d60:	6f2d                	lui	t5,0xb
    1d62:	000e                	0xe
    1d64:	ac00                	fsd	fs0,24(s0)
    1d66:	000e                	0xe
    1d68:	2d00                	fld	fs0,24(a0)
    1d6a:	0e7a                	slli	t3,t3,0x1e
    1d6c:	0000                	unimp
    1d6e:	0eca                	slli	t4,t4,0x12
    1d70:	0000                	unimp
    1d72:	852d                	srai	a0,a0,0xb
    1d74:	000e                	0xe
    1d76:	e800                	fsw	fs0,16(s0)
    1d78:	000e                	0xe
    1d7a:	2d00                	fld	fs0,24(a0)
    1d7c:	0e90                	addi	a2,sp,848
    1d7e:	0000                	unimp
    1d80:	0f12                	slli	t5,t5,0x4
    1d82:	0000                	unimp
    1d84:	9a2d                	andi	a2,a2,-21
    1d86:	000e                	0xe
    1d88:	3000                	fld	fs0,32(s0)
    1d8a:	2c00000f          	0x2c00000f
    1d8e:	0ea5                	addi	t4,t4,9
    1d90:	0000                	unimp
    1d92:	b02e                	fsd	fa1,32(sp)
    1d94:	000e                	0xe
    1d96:	d800                	sw	s0,48(s0)
    1d98:	0000                	unimp
    1d9a:	0500                	addi	s0,sp,640
    1d9c:	000c                	addi	a1,sp,0
    1d9e:	2d00                	fld	fs0,24(a0)
    1da0:	0eb5                	addi	t4,t4,13
    1da2:	0000                	unimp
    1da4:	00000f6f          	jal	t5,1da4 <__udivdi3+0x140>
    1da8:	c12d                	beqz	a0,1e0a <__udivdi3+0x1a6>
    1daa:	000e                	0xe
    1dac:	a800                	fsd	fs0,16(s0)
    1dae:	0000000f          	fence	unknown,unknown
    1db2:	000ece2f          	0xece2f
    1db6:	c800                	sw	s0,16(s0)
    1db8:	001c                	addi	a5,sp,0
    1dba:	8800                	0x8800
    1dbc:	0000                	unimp
    1dbe:	5600                	lw	s0,40(a2)
    1dc0:	000c                	addi	a1,sp,0
    1dc2:	2d00                	fld	fs0,24(a0)
    1dc4:	00000ed3          	fadd.s	ft9,ft0,ft0,rne
    1dc8:	00000fbb          	0xfbb
    1dcc:	df2d                	beqz	a4,1d46 <__udivdi3+0xe2>
    1dce:	000e                	0xe
    1dd0:	dd00                	sw	s0,56(a0)
    1dd2:	2d00000f          	0x2d00000f
    1dd6:	00000eeb          	0xeeb
    1dda:	0ff0                	addi	a2,sp,988
    1ddc:	0000                	unimp
    1dde:	f72d                	bnez	a4,1d48 <__udivdi3+0xe4>
    1de0:	000e                	0xe
    1de2:	0e00                	addi	s0,sp,784
    1de4:	0010                	addi	a2,sp,0
    1de6:	2d00                	fld	fs0,24(a0)
    1de8:	00000f03          	lb	t5,0(zero) # 0 <buf.1775>
    1dec:	102c                	addi	a1,sp,40
    1dee:	0000                	unimp
    1df0:	0f2d                	addi	t5,t5,11
    1df2:	5500000f          	0x5500000f
    1df6:	0010                	addi	a2,sp,0
    1df8:	2d00                	fld	fs0,24(a0)
    1dfa:	00000f1b          	0xf1b
    1dfe:	00001073          	csrw	0x0,zero
    1e02:	2e00                	fld	fs0,24(a2)
    1e04:	102a                	0x102a
    1e06:	0000                	unimp
    1e08:	00f0                	addi	a2,sp,76
    1e0a:	0000                	unimp
    1e0c:	0d15                	addi	s10,s10,5
    1e0e:	0000                	unimp
    1e10:	2b2d                	jal	234a <__umoddi3+0x2ae>
    1e12:	0010                	addi	a2,sp,0
    1e14:	8600                	0x8600
    1e16:	0010                	addi	a2,sp,0
    1e18:	2d00                	fld	fs0,24(a0)
    1e1a:	1036                	0x1036
    1e1c:	0000                	unimp
    1e1e:	1099                	addi	ra,ra,-26
    1e20:	0000                	unimp
    1e22:	412e                	lw	sp,200(sp)
    1e24:	0010                	addi	a2,sp,0
    1e26:	0800                	addi	s0,sp,16
    1e28:	0001                	nop
    1e2a:	c200                	sw	s0,0(a2)
    1e2c:	000c                	addi	a1,sp,0
    1e2e:	2d00                	fld	fs0,24(a0)
    1e30:	1046                	0x1046
    1e32:	0000                	unimp
    1e34:	10da                	slli	ra,ra,0x36
    1e36:	0000                	unimp
    1e38:	522d                	li	tp,-21
    1e3a:	0010                	addi	a2,sp,0
    1e3c:	fc00                	fsw	fs0,56(s0)
    1e3e:	0010                	addi	a2,sp,0
    1e40:	2d00                	fld	fs0,24(a0)
    1e42:	105e                	0x105e
    1e44:	0000                	unimp
    1e46:	1120                	addi	s0,sp,168
    1e48:	0000                	unimp
    1e4a:	6a2d                	lui	s4,0xb
    1e4c:	0010                	addi	a2,sp,0
    1e4e:	3e00                	fld	fs0,56(a2)
    1e50:	0011                	c.addi	zero,4
    1e52:	2d00                	fld	fs0,24(a0)
    1e54:	1076                	0x1076
    1e56:	0000                	unimp
    1e58:	115c                	addi	a5,sp,164
    1e5a:	0000                	unimp
    1e5c:	822d                	srli	a2,a2,0xb
    1e5e:	0010                	addi	a2,sp,0
    1e60:	9700                	0x9700
    1e62:	0011                	c.addi	zero,4
    1e64:	2d00                	fld	fs0,24(a0)
    1e66:	108e                	slli	ra,ra,0x23
    1e68:	0000                	unimp
    1e6a:	11d4                	addi	a3,sp,228
    1e6c:	0000                	unimp
    1e6e:	3000                	fld	fs0,32(s0)
    1e70:	0000109b          	0x109b
    1e74:	0138                	addi	a4,sp,136
    1e76:	0000                	unimp
    1e78:	a02d                	j	1ea2 <__udivdi3+0x23e>
    1e7a:	0010                	addi	a2,sp,0
    1e7c:	0600                	addi	s0,sp,768
    1e7e:	0012                	0x12
    1e80:	2d00                	fld	fs0,24(a0)
    1e82:	10ac                	addi	a1,sp,104
    1e84:	0000                	unimp
    1e86:	1219                	addi	tp,tp,-26
    1e88:	0000                	unimp
    1e8a:	b82d                	j	16c4 <strcmp+0x88>
    1e8c:	0010                	addi	a2,sp,0
    1e8e:	6c00                	flw	fs0,24(s0)
    1e90:	0012                	0x12
    1e92:	2d00                	fld	fs0,24(a0)
    1e94:	10c4                	addi	s1,sp,100
    1e96:	0000                	unimp
    1e98:	127f                	0x127f
    1e9a:	0000                	unimp
    1e9c:	d02d                	beqz	s0,1dfe <__udivdi3+0x19a>
    1e9e:	0010                	addi	a2,sp,0
    1ea0:	9200                	0x9200
    1ea2:	0012                	0x12
    1ea4:	2d00                	fld	fs0,24(a0)
    1ea6:	10dc                	addi	a5,sp,100
    1ea8:	0000                	unimp
    1eaa:	12e5                	addi	t0,t0,-7
    1eac:	0000                	unimp
    1eae:	e82d                	bnez	s0,1f20 <__udivdi3+0x2bc>
    1eb0:	0010                	addi	a2,sp,0
    1eb2:	f800                	fsw	fs0,48(s0)
    1eb4:	0012                	0x12
    1eb6:	2d00                	fld	fs0,24(a0)
    1eb8:	10f4                	addi	a3,sp,108
    1eba:	0000                	unimp
    1ebc:	1329                	addi	t1,t1,-22
    1ebe:	0000                	unimp
    1ec0:	0000                	unimp
    1ec2:	282e                	fld	fa6,200(sp)
    1ec4:	6000000f          	0x6000000f
    1ec8:	0001                	nop
    1eca:	3500                	fld	fs0,40(a0)
    1ecc:	000d                	c.addi	zero,3
    1ece:	2d00                	fld	fs0,24(a0)
    1ed0:	0f2d                	addi	t5,t5,11
    1ed2:	0000                	unimp
    1ed4:	133c                	addi	a5,sp,424
    1ed6:	0000                	unimp
    1ed8:	392d                	jal	1b12 <__moddi3+0x30a>
    1eda:	7500000f          	0x7500000f
    1ede:	00000013          	nop
    1ee2:	000fa02f          	amoadd.w	zero,zero,(t6)
    1ee6:	b000                	fsd	fs0,32(s0)
    1ee8:	001d                	c.addi	zero,7
    1eea:	8800                	0x8800
    1eec:	0000                	unimp
    1eee:	8600                	0x8600
    1ef0:	000d                	c.addi	zero,3
    1ef2:	2d00                	fld	fs0,24(a0)
    1ef4:	0fa5                	addi	t6,t6,9
    1ef6:	0000                	unimp
    1ef8:	00001393          	slli	t2,zero,0x0
    1efc:	b12d                	j	1b26 <__moddi3+0x31e>
    1efe:	a600000f          	0xa600000f
    1f02:	2d000013          	li	zero,720
    1f06:	0fbd                	addi	t6,t6,15
    1f08:	0000                	unimp
    1f0a:	13ca                	slli	t2,t2,0x32
    1f0c:	0000                	unimp
    1f0e:	c92d                	beqz	a0,1f80 <__udivdi3+0x31c>
    1f10:	e800000f          	0xe800000f
    1f14:	2d000013          	li	zero,720
    1f18:	0fd5                	addi	t6,t6,21
    1f1a:	0000                	unimp
    1f1c:	1406                	slli	s0,s0,0x21
    1f1e:	0000                	unimp
    1f20:	e12d                	bnez	a0,1f82 <__udivdi3+0x31e>
    1f22:	2f00000f          	0x2f00000f
    1f26:	0014                	addi	a3,sp,0
    1f28:	2d00                	fld	fs0,24(a0)
    1f2a:	0fed                	addi	t6,t6,27
    1f2c:	0000                	unimp
    1f2e:	144d                	addi	s0,s0,-13
    1f30:	0000                	unimp
    1f32:	2e00                	fld	fs0,24(a2)
    1f34:	0f46                	slli	t5,t5,0x11
    1f36:	0000                	unimp
    1f38:	0178                	addi	a4,sp,140
    1f3a:	0000                	unimp
    1f3c:	00000dd3          	fadd.s	fs11,ft0,ft0,rne
    1f40:	4b2d                	li	s6,11
    1f42:	6b00000f          	0x6b00000f
    1f46:	0014                	addi	a3,sp,0
    1f48:	2d00                	fld	fs0,24(a0)
    1f4a:	00000f57          	0xf57
    1f4e:	147e                	slli	s0,s0,0x3f
    1f50:	0000                	unimp
    1f52:	632d                	lui	t1,0xb
    1f54:	a200000f          	0xa200000f
    1f58:	0014                	addi	a3,sp,0
    1f5a:	2d00                	fld	fs0,24(a0)
    1f5c:	00000f6f          	jal	t5,1f5c <__udivdi3+0x2f8>
    1f60:	14c0                	addi	s0,sp,612
    1f62:	0000                	unimp
    1f64:	7b2d                	lui	s6,0xfffeb
    1f66:	de00000f          	0xde00000f
    1f6a:	0014                	addi	a3,sp,0
    1f6c:	2d00                	fld	fs0,24(a0)
    1f6e:	00000f87          	0xf87
    1f72:	1512                	slli	a0,a0,0x24
    1f74:	0000                	unimp
    1f76:	932d                	srli	a4,a4,0x2b
    1f78:	3b00000f          	0x3b00000f
    1f7c:	0015                	c.addi	zero,5
    1f7e:	0000                	unimp
    1f80:	fa30                	fsw	fa2,112(a2)
    1f82:	9800000f          	0x9800000f
    1f86:	0001                	nop
    1f88:	2d00                	fld	fs0,24(a0)
    1f8a:	0fff                	0xfff
    1f8c:	0000                	unimp
    1f8e:	157d                	addi	a0,a0,-1
    1f90:	0000                	unimp
    1f92:	0b2d                	addi	s6,s6,11
    1f94:	0010                	addi	a2,sp,0
    1f96:	9b00                	0x9b00
    1f98:	0015                	c.addi	zero,5
    1f9a:	0000                	unimp
    1f9c:	0000                	unimp
    1f9e:	3100                	fld	fs0,32(a0)
    1fa0:	063e                	slli	a2,a2,0xf
    1fa2:	0000                	unimp
    1fa4:	f601                	bnez	a2,1eac <__udivdi3+0x248>
    1fa6:	000a6703          	0xa6703
    1faa:	0300                	addi	s0,sp,384
    1fac:	00001123          	sh	zero,2(zero) # 2 <buf.1775+0x2>
    1fb0:	6e32                	flw	ft8,12(sp)
    1fb2:	0100                	addi	s0,sp,128
    1fb4:	03f6                	slli	t2,t2,0x1d
    1fb6:	00000a67          	jalr	s4,zero
    1fba:	6432                	flw	fs0,12(sp)
    1fbc:	0100                	addi	s0,sp,128
    1fbe:	03f6                	slli	t2,t2,0x1d
    1fc0:	00000a67          	jalr	s4,zero
    1fc4:	7232                	flw	ft4,44(sp)
    1fc6:	0070                	addi	a2,sp,12
    1fc8:	f601                	bnez	a2,1ed0 <__udivdi3+0x26c>
    1fca:	00112303          	lw	t1,1(sp)
    1fce:	3300                	fld	fs0,32(a4)
    1fd0:	6e6e                	flw	ft8,216(sp)
    1fd2:	0100                	addi	s0,sp,128
    1fd4:	03f8                	addi	a4,sp,460
    1fd6:	0ae8                	addi	a0,sp,348
    1fd8:	0000                	unimp
    1fda:	00646433          	or	s0,s0,t1
    1fde:	f901                	bnez	a0,1eee <__udivdi3+0x28a>
    1fe0:	000ae803          	0xae803
    1fe4:	3300                	fld	fs0,32(a4)
    1fe6:	7272                	flw	ft4,60(sp)
    1fe8:	0100                	addi	s0,sp,128
    1fea:	03fa                	slli	t2,t2,0x1e
    1fec:	0adc                	addi	a5,sp,340
    1fee:	0000                	unimp
    1ff0:	00306433          	or	s0,zero,gp
    1ff4:	fb01                	bnez	a4,1f04 <__udivdi3+0x2a0>
    1ff6:	000a5103          	lhu	sp,0(s4) # b000 <__BSS_END__+0x5380>
    1ffa:	3300                	fld	fs0,32(a4)
    1ffc:	3164                	fld	fs1,224(a0)
    1ffe:	0100                	addi	s0,sp,128
    2000:	0a5103fb          	0xa5103fb
    2004:	0000                	unimp
    2006:	00306e33          	or	t3,zero,gp
    200a:	fb01                	bnez	a4,1f1a <__udivdi3+0x2b6>
    200c:	000a5103          	lhu	sp,0(s4)
    2010:	3300                	fld	fs0,32(a4)
    2012:	316e                	fld	ft2,248(sp)
    2014:	0100                	addi	s0,sp,128
    2016:	0a5103fb          	0xa5103fb
    201a:	0000                	unimp
    201c:	00326e33          	or	t3,tp,gp
    2020:	fb01                	bnez	a4,1f30 <__udivdi3+0x2cc>
    2022:	000a5103          	lhu	sp,0(s4)
    2026:	3300                	fld	fs0,32(a4)
    2028:	3071                	jal	18b4 <__moddi3+0xac>
    202a:	0100                	addi	s0,sp,128
    202c:	03fc                	addi	a5,sp,460
    202e:	0a51                	addi	s4,s4,20
    2030:	0000                	unimp
    2032:	00317133          	and	sp,sp,gp
    2036:	fc01                	bnez	s0,1f4e <__udivdi3+0x2ea>
    2038:	000a5103          	lhu	sp,0(s4)
    203c:	3300                	fld	fs0,32(a4)
    203e:	0062                	0x62
    2040:	fd01                	bnez	a0,1f58 <__udivdi3+0x2f4>
    2042:	000a5103          	lhu	sp,0(s4)
    2046:	3300                	fld	fs0,32(a4)
    2048:	6d62                	flw	fs10,24(sp)
    204a:	0100                	addi	s0,sp,128
    204c:	03fd                	addi	t2,t2,31
    204e:	0a51                	addi	s4,s4,20
    2050:	0000                	unimp
    2052:	00777733          	and	a4,a4,t2
    2056:	c601                	beqz	a2,205e <__udivdi3+0x3fa>
    2058:	e804                	fsw	fs1,16(s0)
    205a:	000a                	0xa
    205c:	3400                	fld	fs0,40(s0)
    205e:	0ece                	slli	t4,t4,0x13
    2060:	0000                	unimp
    2062:	bf35                	j	1f9e <__udivdi3+0x33a>
    2064:	0006                	0x6
    2066:	0100                	addi	s0,sp,128
    2068:	042d                	addi	s0,s0,11
    206a:	0a51                	addi	s4,s4,20
    206c:	0000                	unimp
    206e:	615f5f33          	0x615f5f33
    2072:	0100                	addi	s0,sp,128
    2074:	042d                	addi	s0,s0,11
    2076:	0a51                	addi	s4,s4,20
    2078:	0000                	unimp
    207a:	3400                	fld	fs0,40(s0)
    207c:	0f28                	addi	a0,sp,920
    207e:	0000                	unimp
    2080:	3e35                	jal	1bbc <__moddi3+0x3b4>
    2082:	0001                	nop
    2084:	0100                	addi	s0,sp,128
    2086:	0439                	addi	s0,s0,14
    2088:	0a51                	addi	s4,s4,20
    208a:	0000                	unimp
    208c:	3935                	jal	1cc8 <__udivdi3+0x64>
    208e:	0001                	nop
    2090:	0100                	addi	s0,sp,128
    2092:	0439                	addi	s0,s0,14
    2094:	0a51                	addi	s4,s4,20
    2096:	0000                	unimp
    2098:	7235                	lui	tp,0xfffed
    209a:	0006                	0x6
    209c:	0100                	addi	s0,sp,128
    209e:	0439                	addi	s0,s0,14
    20a0:	0a51                	addi	s4,s4,20
    20a2:	0000                	unimp
    20a4:	6d35                	lui	s10,0xd
    20a6:	0006                	0x6
    20a8:	0100                	addi	s0,sp,128
    20aa:	0439                	addi	s0,s0,14
    20ac:	0a51                	addi	s4,s4,20
    20ae:	0000                	unimp
    20b0:	3d35                	jal	1eec <__udivdi3+0x288>
    20b2:	01000007          	0x1000007
    20b6:	0439                	addi	s0,s0,14
    20b8:	0a51                	addi	s4,s4,20
    20ba:	0000                	unimp
    20bc:	3835                	jal	18f8 <__moddi3+0xf0>
    20be:	01000007          	0x1000007
    20c2:	0439                	addi	s0,s0,14
    20c4:	0a51                	addi	s4,s4,20
    20c6:	0000                	unimp
    20c8:	6d5f5f33          	0x6d5f5f33
    20cc:	0100                	addi	s0,sp,128
    20ce:	0439                	addi	s0,s0,14
    20d0:	0a51                	addi	s4,s4,20
    20d2:	0000                	unimp
    20d4:	3400                	fld	fs0,40(s0)
    20d6:	0f46                	slli	t5,t5,0x11
    20d8:	0000                	unimp
    20da:	bf35                	j	2016 <__udivdi3+0x3b2>
    20dc:	0006                	0x6
    20de:	0100                	addi	s0,sp,128
    20e0:	0445                	addi	s0,s0,17
    20e2:	0a51                	addi	s4,s4,20
    20e4:	0000                	unimp
    20e6:	615f5f33          	0x615f5f33
    20ea:	0100                	addi	s0,sp,128
    20ec:	0445                	addi	s0,s0,17
    20ee:	0a51                	addi	s4,s4,20
    20f0:	0000                	unimp
    20f2:	3400                	fld	fs0,40(s0)
    20f4:	0fa0                	addi	s0,sp,984
    20f6:	0000                	unimp
    20f8:	3e35                	jal	1c34 <__moddi3+0x42c>
    20fa:	0001                	nop
    20fc:	0100                	addi	s0,sp,128
    20fe:	045e                	slli	s0,s0,0x17
    2100:	0a51                	addi	s4,s4,20
    2102:	0000                	unimp
    2104:	3935                	jal	1d40 <__udivdi3+0xdc>
    2106:	0001                	nop
    2108:	0100                	addi	s0,sp,128
    210a:	045e                	slli	s0,s0,0x17
    210c:	0a51                	addi	s4,s4,20
    210e:	0000                	unimp
    2110:	7235                	lui	tp,0xfffed
    2112:	0006                	0x6
    2114:	0100                	addi	s0,sp,128
    2116:	045e                	slli	s0,s0,0x17
    2118:	0a51                	addi	s4,s4,20
    211a:	0000                	unimp
    211c:	6d35                	lui	s10,0xd
    211e:	0006                	0x6
    2120:	0100                	addi	s0,sp,128
    2122:	045e                	slli	s0,s0,0x17
    2124:	0a51                	addi	s4,s4,20
    2126:	0000                	unimp
    2128:	3d35                	jal	1f64 <__udivdi3+0x300>
    212a:	01000007          	0x1000007
    212e:	045e                	slli	s0,s0,0x17
    2130:	0a51                	addi	s4,s4,20
    2132:	0000                	unimp
    2134:	3835                	jal	1970 <__moddi3+0x168>
    2136:	01000007          	0x1000007
    213a:	045e                	slli	s0,s0,0x17
    213c:	0a51                	addi	s4,s4,20
    213e:	0000                	unimp
    2140:	6d5f5f33          	0x6d5f5f33
    2144:	0100                	addi	s0,sp,128
    2146:	045e                	slli	s0,s0,0x17
    2148:	0a51                	addi	s4,s4,20
    214a:	0000                	unimp
    214c:	3400                	fld	fs0,40(s0)
    214e:	0ffa                	slli	t6,t6,0x1e
    2150:	0000                	unimp
    2152:	3e35                	jal	1c8e <__udivdi3+0x2a>
    2154:	0001                	nop
    2156:	0100                	addi	s0,sp,128
    2158:	0a510463          	beq	sp,t0,2200 <__umoddi3+0x164>
    215c:	0000                	unimp
    215e:	3935                	jal	1d9a <__udivdi3+0x136>
    2160:	0001                	nop
    2162:	0100                	addi	s0,sp,128
    2164:	0a510463          	beq	sp,t0,220c <__umoddi3+0x170>
    2168:	0000                	unimp
    216a:	7235                	lui	tp,0xfffed
    216c:	0006                	0x6
    216e:	0100                	addi	s0,sp,128
    2170:	0a510463          	beq	sp,t0,2218 <__umoddi3+0x17c>
    2174:	0000                	unimp
    2176:	6d35                	lui	s10,0xd
    2178:	0006                	0x6
    217a:	0100                	addi	s0,sp,128
    217c:	0a510463          	beq	sp,t0,2224 <__umoddi3+0x188>
    2180:	0000                	unimp
    2182:	3d35                	jal	1fbe <__udivdi3+0x35a>
    2184:	01000007          	0x1000007
    2188:	0a510463          	beq	sp,t0,2230 <__umoddi3+0x194>
    218c:	0000                	unimp
    218e:	3835                	jal	19ca <__moddi3+0x1c2>
    2190:	01000007          	0x1000007
    2194:	0a510463          	beq	sp,t0,223c <__umoddi3+0x1a0>
    2198:	0000                	unimp
    219a:	6d5f5f33          	0x6d5f5f33
    219e:	0100                	addi	s0,sp,128
    21a0:	0a510463          	beq	sp,t0,2248 <__umoddi3+0x1ac>
    21a4:	0000                	unimp
    21a6:	3400                	fld	fs0,40(s0)
    21a8:	1018                	addi	a4,sp,32
    21aa:	0000                	unimp
    21ac:	bf35                	j	20e8 <__umoddi3+0x4c>
    21ae:	0006                	0x6
    21b0:	0100                	addi	s0,sp,128
    21b2:	0486                	slli	s1,s1,0x1
    21b4:	0a51                	addi	s4,s4,20
    21b6:	0000                	unimp
    21b8:	615f5f33          	0x615f5f33
    21bc:	0100                	addi	s0,sp,128
    21be:	0486                	slli	s1,s1,0x1
    21c0:	0a51                	addi	s4,s4,20
    21c2:	0000                	unimp
    21c4:	3400                	fld	fs0,40(s0)
    21c6:	102a                	0x102a
    21c8:	0000                	unimp
    21ca:	785f5f33          	0x785f5f33
    21ce:	0100                	addi	s0,sp,128
    21d0:	0494                	addi	a3,sp,576
    21d2:	0a51                	addi	s4,s4,20
    21d4:	0000                	unimp
    21d6:	3600                	fld	fs0,40(a2)
    21d8:	00316d33          	or	s10,sp,gp
    21dc:	a401                	j	23dc <__umoddi3+0x340>
    21de:	5104                	lw	s1,32(a0)
    21e0:	000a                	0xa
    21e2:	3300                	fld	fs0,32(a4)
    21e4:	306d                	jal	1a8e <__moddi3+0x286>
    21e6:	0100                	addi	s0,sp,128
    21e8:	04a4                	addi	s1,sp,584
    21ea:	0a51                	addi	s4,s4,20
    21ec:	0000                	unimp
    21ee:	9b34                	0x9b34
    21f0:	0010                	addi	a2,sp,0
    21f2:	3500                	fld	fs0,40(a0)
    21f4:	013e                	slli	sp,sp,0xf
    21f6:	0000                	unimp
    21f8:	af01                	j	2908 <__clz_tab+0x1ec>
    21fa:	5104                	lw	s1,32(a0)
    21fc:	000a                	0xa
    21fe:	3500                	fld	fs0,40(a0)
    2200:	0139                	addi	sp,sp,14
    2202:	0000                	unimp
    2204:	af01                	j	2914 <__clz_tab+0x1f8>
    2206:	5104                	lw	s1,32(a0)
    2208:	000a                	0xa
    220a:	3500                	fld	fs0,40(a0)
    220c:	0672                	slli	a2,a2,0x1c
    220e:	0000                	unimp
    2210:	af01                	j	2920 <__clz_tab+0x204>
    2212:	5104                	lw	s1,32(a0)
    2214:	000a                	0xa
    2216:	3500                	fld	fs0,40(a0)
    2218:	066d                	addi	a2,a2,27
    221a:	0000                	unimp
    221c:	af01                	j	292c <__clz_tab+0x210>
    221e:	5104                	lw	s1,32(a0)
    2220:	000a                	0xa
    2222:	3500                	fld	fs0,40(a0)
    2224:	073d                	addi	a4,a4,15
    2226:	0000                	unimp
    2228:	af01                	j	2938 <__clz_tab+0x21c>
    222a:	5104                	lw	s1,32(a0)
    222c:	000a                	0xa
    222e:	3500                	fld	fs0,40(a0)
    2230:	0738                	addi	a4,sp,904
    2232:	0000                	unimp
    2234:	af01                	j	2944 <__clz_tab+0x228>
    2236:	5104                	lw	s1,32(a0)
    2238:	000a                	0xa
    223a:	3300                	fld	fs0,32(a4)
    223c:	5f5f 006d af01      	0xaf01006d5f5f
    2242:	5104                	lw	s1,32(a0)
    2244:	000a                	0xa
    2246:	0000                	unimp
    2248:	0134                	addi	a3,sp,136
    224a:	0011                	c.addi	zero,4
    224c:	3500                	fld	fs0,40(a0)
    224e:	0605                	addi	a2,a2,1
    2250:	0000                	unimp
    2252:	b001                	j	1a52 <__moddi3+0x24a>
    2254:	5104                	lw	s1,32(a0)
    2256:	000a                	0xa
    2258:	3500                	fld	fs0,40(a0)
    225a:	060a                	slli	a2,a2,0x2
    225c:	0000                	unimp
    225e:	b001                	j	1a5e <__moddi3+0x256>
    2260:	5104                	lw	s1,32(a0)
    2262:	000a                	0xa
    2264:	3500                	fld	fs0,40(a0)
    2266:	0000060f          	0x60f
    226a:	b001                	j	1a6a <__moddi3+0x262>
    226c:	5104                	lw	s1,32(a0)
    226e:	000a                	0xa
    2270:	3500                	fld	fs0,40(a0)
    2272:	0614                	addi	a3,sp,768
    2274:	0000                	unimp
    2276:	b001                	j	1a76 <__moddi3+0x26e>
    2278:	5104                	lw	s1,32(a0)
    227a:	000a                	0xa
    227c:	3500                	fld	fs0,40(a0)
    227e:	045a                	slli	s0,s0,0x16
    2280:	0000                	unimp
    2282:	b001                	j	1a82 <__moddi3+0x27a>
    2284:	5104                	lw	s1,32(a0)
    2286:	000a                	0xa
    2288:	3500                	fld	fs0,40(a0)
    228a:	051d                	addi	a0,a0,7
    228c:	0000                	unimp
    228e:	b001                	j	1a8e <__moddi3+0x286>
    2290:	5104                	lw	s1,32(a0)
    2292:	000a                	0xa
    2294:	3500                	fld	fs0,40(a0)
    2296:	0000044f          	fnmadd.s	fs0,ft0,ft0,ft0,rne
    229a:	b001                	j	1a9a <__moddi3+0x292>
    229c:	5104                	lw	s1,32(a0)
    229e:	000a                	0xa
    22a0:	3500                	fld	fs0,40(a0)
    22a2:	0518                	addi	a4,sp,640
    22a4:	0000                	unimp
    22a6:	b001                	j	1aa6 <__moddi3+0x29e>
    22a8:	5104                	lw	s1,32(a0)
    22aa:	000a                	0xa
    22ac:	0000                	unimp
    22ae:	1334                	addi	a3,sp,424
    22b0:	0011                	c.addi	zero,4
    22b2:	3300                	fld	fs0,32(a4)
    22b4:	5f5f 0078 b501      	0xb50100785f5f
    22ba:	5104                	lw	s1,32(a0)
    22bc:	000a                	0xa
    22be:	0000                	unimp
    22c0:	3336                	fld	ft6,360(sp)
    22c2:	5f5f 0078 bd01      	0xbd0100785f5f
    22c8:	5104                	lw	s1,32(a0)
    22ca:	000a                	0xa
    22cc:	0000                	unimp
    22ce:	0000                	unimp
    22d0:	0a67040f          	0xa67040f
    22d4:	0000                	unimp
    22d6:	8300                	0x8300
    22d8:	0011                	c.addi	zero,4
    22da:	0400                	addi	s0,sp,512
    22dc:	4500                	lw	s0,8(a0)
    22de:	0005                	c.addi	zero,1
    22e0:	0400                	addi	s0,sp,512
    22e2:	6a01                	lui	s4,0x0
    22e4:	0000                	unimp
    22e6:	0c00                	addi	s0,sp,528
    22e8:	000001a3          	sb	zero,3(zero) # 3 <buf.1775+0x3>
    22ec:	022c                	addi	a1,sp,264
    22ee:	0000                	unimp
    22f0:	209c                	fld	fa5,0(s1)
    22f2:	0000                	unimp
    22f4:	0410                	addi	a2,sp,512
    22f6:	0000                	unimp
    22f8:	0846                	slli	a6,a6,0x11
    22fa:	0000                	unimp
    22fc:	0802                	slli	a6,a6,0x0
    22fe:	0003c607          	flq	fa2,0(t2) # 0 <buf.1775>
    2302:	0300                	addi	s0,sp,384
    2304:	0504                	addi	s1,sp,640
    2306:	6e69                	lui	t3,0x1a
    2308:	0074                	addi	a3,sp,12
    230a:	0402                	slli	s0,s0,0x0
    230c:	0003d007          	0x3d007
    2310:	0200                	addi	s0,sp,256
    2312:	0508                	addi	a0,sp,640
    2314:	02e0                	addi	s0,sp,332
    2316:	0000                	unimp
    2318:	1002                	0x1002
    231a:	5b04                	lw	s1,48(a4)
    231c:	0001                	nop
    231e:	0200                	addi	s0,sp,256
    2320:	0601                	addi	a2,a2,0
    2322:	0696                	slli	a3,a3,0x5
    2324:	0000                	unimp
    2326:	0102                	slli	sp,sp,0x0
    2328:	9408                	0x9408
    232a:	0006                	0x6
    232c:	0200                	addi	s0,sp,256
    232e:	0502                	slli	a0,a0,0x0
    2330:	0000                	unimp
    2332:	0000                	unimp
    2334:	0202                	slli	tp,tp,0x0
    2336:	0003e607          	0x3e607
    233a:	0200                	addi	s0,sp,256
    233c:	0504                	addi	s1,sp,640
    233e:	02e5                	addi	t0,t0,25
    2340:	0000                	unimp
    2342:	0402                	slli	s0,s0,0x0
    2344:	0003cb07          	flq	fs6,0(t2)
    2348:	0400                	addi	s0,sp,512
    234a:	0541                	addi	a0,a0,16
    234c:	0000                	unimp
    234e:	0702                	slli	a4,a4,0x0
    2350:	002c                	addi	a1,sp,8
    2352:	0000                	unimp
    2354:	1104                	addi	s1,sp,160
    2356:	0005                	c.addi	zero,1
    2358:	0300                	addi	s0,sp,384
    235a:	642c                	flw	fa1,72(s0)
    235c:	0000                	unimp
    235e:	0400                	addi	s0,sp,512
    2360:	00000627          	0x627
    2364:	00647203          	0x647203
    2368:	0000                	unimp
    236a:	fe04                	fsw	fs1,56(a2)
    236c:	0006                	0x6
    236e:	0300                	addi	s0,sp,384
    2370:	2c91                	jal	25c4 <__umoddi3+0x528>
    2372:	0000                	unimp
    2374:	0500                	addi	s0,sp,640
    2376:	0442                	slli	s0,s0,0x10
    2378:	0000                	unimp
    237a:	6504                	flw	fs1,8(a0)
    237c:	3301                	jal	207c <__udivdi3+0x418>
    237e:	0000                	unimp
    2380:	0600                	addi	s0,sp,768
    2382:	0304                	addi	s1,sp,384
    2384:	c9a6                	sw	s1,208(sp)
    2386:	0000                	unimp
    2388:	0700                	addi	s0,sp,896
    238a:	042d                	addi	s0,s0,11
    238c:	0000                	unimp
    238e:	009ea803          	lw	a6,9(t4)
    2392:	0000                	unimp
    2394:	00039807          	0x39807
    2398:	0300                	addi	s0,sp,384
    239a:	c9a9                	beqz	a1,23ec <__umoddi3+0x350>
    239c:	0000                	unimp
    239e:	0000                	unimp
    23a0:	4f08                	lw	a0,24(a4)
    23a2:	0000                	unimp
    23a4:	d900                	sw	s0,48(a0)
    23a6:	0000                	unimp
    23a8:	0900                	addi	s0,sp,144
    23aa:	00000033          	add	zero,zero,zero
    23ae:	080a0003          	lb	zero,128(s4) # 80 <buflen.1776+0x40>
    23b2:	00faa303          	lw	t1,15(s5)
    23b6:	0000                	unimp
    23b8:	0004880b          	0x4880b
    23bc:	0300                	addi	s0,sp,384
    23be:	2ca5                	jal	2636 <_ctype_+0x1e>
    23c0:	0000                	unimp
    23c2:	0000                	unimp
    23c4:	0006190b          	0x6190b
    23c8:	0300                	addi	s0,sp,384
    23ca:	aaaa                	fsd	fa0,336(sp)
    23cc:	0000                	unimp
    23ce:	0400                	addi	s0,sp,512
    23d0:	0400                	addi	s0,sp,512
    23d2:	0536                	slli	a0,a0,0xd
    23d4:	0000                	unimp
    23d6:	00d9ab03          	lw	s6,13(s3)
    23da:	0000                	unimp
    23dc:	9004                	0x9004
    23de:	0005                	c.addi	zero,1
    23e0:	0300                	addi	s0,sp,384
    23e2:	000072af          	0x72af
    23e6:	0c00                	addi	s0,sp,528
    23e8:	0404                	addi	s1,sp,512
    23ea:	000006a7          	0x6a7
    23ee:	1605                	addi	a2,a2,-31
    23f0:	0000006b          	0x6b
    23f4:	c10d                	beqz	a0,2416 <__umoddi3+0x37a>
    23f6:	0004                	addi	s1,sp,0
    23f8:	1800                	addi	s0,sp,48
    23fa:	2f05                	jal	2b2a <__clz_tab+0x40e>
    23fc:	0170                	addi	a2,sp,140
    23fe:	0000                	unimp
    2400:	0007c00b          	0x7c00b
    2404:	0500                	addi	s0,sp,640
    2406:	7031                	0x7031
    2408:	0001                	nop
    240a:	0000                	unimp
    240c:	5f0e                	lw	t5,224(sp)
    240e:	3205006b          	0x3205006b
    2412:	002c                	addi	a1,sp,8
    2414:	0000                	unimp
    2416:	0b04                	addi	s1,sp,400
    2418:	05f6                	slli	a1,a1,0x1d
    241a:	0000                	unimp
    241c:	3205                	jal	1d3c <__udivdi3+0xd8>
    241e:	002c                	addi	a1,sp,8
    2420:	0000                	unimp
    2422:	0b08                	addi	a0,sp,400
    2424:	033c                	addi	a5,sp,392
    2426:	0000                	unimp
    2428:	3205                	jal	1d48 <__udivdi3+0xe4>
    242a:	002c                	addi	a1,sp,8
    242c:	0000                	unimp
    242e:	0b0c                	addi	a1,sp,400
    2430:	02c2                	slli	t0,t0,0x10
    2432:	0000                	unimp
    2434:	3205                	jal	1d54 <__udivdi3+0xf0>
    2436:	002c                	addi	a1,sp,8
    2438:	0000                	unimp
    243a:	0e10                	addi	a2,sp,784
    243c:	785f 0500 7633      	0x76330500785f
    2442:	0001                	nop
    2444:	1400                	addi	s0,sp,544
    2446:	0f00                	addi	s0,sp,912
    2448:	1d04                	addi	s1,sp,688
    244a:	0001                	nop
    244c:	0800                	addi	s0,sp,16
    244e:	0112                	slli	sp,sp,0x4
    2450:	0000                	unimp
    2452:	0186                	slli	gp,gp,0x1
    2454:	0000                	unimp
    2456:	3309                	jal	2158 <__umoddi3+0xbc>
    2458:	0000                	unimp
    245a:	0000                	unimp
    245c:	0d00                	addi	s0,sp,656
    245e:	0000037b          	0x37b
    2462:	0524                	addi	s1,sp,648
    2464:	0001ff37          	lui	t5,0x1f
    2468:	0b00                	addi	s0,sp,400
    246a:	00000193          	li	gp,0
    246e:	3905                	jal	209e <__umoddi3+0x2>
    2470:	002c                	addi	a1,sp,8
    2472:	0000                	unimp
    2474:	0b00                	addi	s0,sp,400
    2476:	075c                	addi	a5,sp,900
    2478:	0000                	unimp
    247a:	3a05                	jal	1daa <__udivdi3+0x146>
    247c:	002c                	addi	a1,sp,8
    247e:	0000                	unimp
    2480:	0b04                	addi	s1,sp,400
    2482:	0201                	addi	tp,tp,0
    2484:	0000                	unimp
    2486:	3b05                	jal	21b6 <__umoddi3+0x11a>
    2488:	002c                	addi	a1,sp,8
    248a:	0000                	unimp
    248c:	0b08                	addi	a0,sp,400
    248e:	07b1                	addi	a5,a5,12
    2490:	0000                	unimp
    2492:	3c05                	jal	1ec2 <__udivdi3+0x25e>
    2494:	002c                	addi	a1,sp,8
    2496:	0000                	unimp
    2498:	0b0c                	addi	a1,sp,400
    249a:	000004eb          	0x4eb
    249e:	3d05                	jal	22ce <__umoddi3+0x232>
    24a0:	002c                	addi	a1,sp,8
    24a2:	0000                	unimp
    24a4:	0b10                	addi	a2,sp,400
    24a6:	047e                	slli	s0,s0,0x1f
    24a8:	0000                	unimp
    24aa:	3e05                	jal	1fda <__udivdi3+0x376>
    24ac:	002c                	addi	a1,sp,8
    24ae:	0000                	unimp
    24b0:	0b14                	addi	a3,sp,400
    24b2:	000006e7          	jalr	a3,zero
    24b6:	3f05                	jal	23e6 <__umoddi3+0x34a>
    24b8:	002c                	addi	a1,sp,8
    24ba:	0000                	unimp
    24bc:	0b18                	addi	a4,sp,400
    24be:	0798                	addi	a4,sp,960
    24c0:	0000                	unimp
    24c2:	4005                	0x4005
    24c4:	002c                	addi	a1,sp,8
    24c6:	0000                	unimp
    24c8:	0b1c                	addi	a5,sp,400
    24ca:	0742                	slli	a4,a4,0x10
    24cc:	0000                	unimp
    24ce:	4105                	li	sp,1
    24d0:	002c                	addi	a1,sp,8
    24d2:	0000                	unimp
    24d4:	0020                	addi	s0,sp,8
    24d6:	1e10                	addi	a2,sp,816
    24d8:	0002                	0x2
    24da:	0800                	addi	s0,sp,16
    24dc:	0501                	addi	a0,a0,0
    24de:	3f4a                	fld	ft10,176(sp)
    24e0:	0002                	0x2
    24e2:	0b00                	addi	s0,sp,400
    24e4:	0000032f          	0x32f
    24e8:	4b05                	li	s6,1
    24ea:	0000023f 056c0b00 	0x56c0b000000023f
    24f2:	0000                	unimp
    24f4:	4c05                	li	s8,1
    24f6:	0000023f 068b1180 	0x68b11800000023f
    24fe:	0000                	unimp
    2500:	4e05                	li	t3,1
    2502:	0112                	slli	sp,sp,0x4
    2504:	0000                	unimp
    2506:	0100                	addi	s0,sp,128
    2508:	ba11                	j	1e1c <__udivdi3+0x1b8>
    250a:	0002                	0x2
    250c:	0500                	addi	s0,sp,640
    250e:	1251                	addi	tp,tp,-12
    2510:	0001                	nop
    2512:	0400                	addi	s0,sp,512
    2514:	0001                	nop
    2516:	1008                	addi	a0,sp,32
    2518:	0001                	nop
    251a:	4f00                	lw	s0,24(a4)
    251c:	0002                	0x2
    251e:	0900                	addi	s0,sp,144
    2520:	00000033          	add	zero,zero,zero
    2524:	001f f410 0004      	0x4f410001f
    252a:	9000                	0x9000
    252c:	0501                	addi	a0,a0,0
    252e:	8d5d                	or	a0,a0,a5
    2530:	0002                	0x2
    2532:	0b00                	addi	s0,sp,400
    2534:	07c0                	addi	s0,sp,964
    2536:	0000                	unimp
    2538:	5e05                	li	t3,-31
    253a:	028d                	addi	t0,t0,3
    253c:	0000                	unimp
    253e:	0b00                	addi	s0,sp,400
    2540:	05df 0000 5f05      	0x5f05000005df
    2546:	002c                	addi	a1,sp,8
    2548:	0000                	unimp
    254a:	0b04                	addi	s1,sp,400
    254c:	00000337          	lui	t1,0x0
    2550:	6105                	addi	sp,sp,32
    2552:	00000293          	li	t0,0
    2556:	0b08                	addi	a0,sp,400
    2558:	021e                	slli	tp,tp,0x7
    255a:	0000                	unimp
    255c:	6205                	lui	tp,0x1
    255e:	01ff                	0x1ff
    2560:	0000                	unimp
    2562:	0088                	addi	a0,sp,64
    2564:	024f040f          	0x24f040f
    2568:	0000                	unimp
    256a:	a308                	fsd	fa0,0(a4)
    256c:	0002                	0x2
    256e:	a300                	fsd	fs0,0(a4)
    2570:	0002                	0x2
    2572:	0900                	addi	s0,sp,144
    2574:	00000033          	add	zero,zero,zero
    2578:	001f 040f 02a9      	0x2a9040f001f
    257e:	0000                	unimp
    2580:	0d12                	slli	s10,s10,0x4
    2582:	07aa                	slli	a5,a5,0xa
    2584:	0000                	unimp
    2586:	0508                	addi	a0,sp,640
    2588:	cf75                	beqz	a4,2684 <_ctype_+0x6c>
    258a:	0002                	0x2
    258c:	0b00                	addi	s0,sp,400
    258e:	000001fb          	0x1fb
    2592:	7605                	lui	a2,0xfffe1
    2594:	000002cf          	fnmadd.s	ft5,ft0,ft0,ft0,rne
    2598:	0b00                	addi	s0,sp,400
    259a:	0638                	addi	a4,sp,776
    259c:	0000                	unimp
    259e:	7705                	lui	a4,0xfffe1
    25a0:	002c                	addi	a1,sp,8
    25a2:	0000                	unimp
    25a4:	0004                	addi	s1,sp,0
    25a6:	004f040f          	0x4f040f
    25aa:	0000                	unimp
    25ac:	bb0d                	j	22de <__umoddi3+0x242>
    25ae:	0005                	c.addi	zero,1
    25b0:	6800                	flw	fs0,16(s0)
    25b2:	b505                	j	23d2 <__umoddi3+0x336>
    25b4:	03ff                	0x3ff
    25b6:	0000                	unimp
    25b8:	5f0e                	lw	t5,224(sp)
    25ba:	0070                	addi	a2,sp,12
    25bc:	b605                	j	20dc <__umoddi3+0x40>
    25be:	000002cf          	fnmadd.s	ft5,ft0,ft0,ft0,rne
    25c2:	0e00                	addi	s0,sp,784
    25c4:	725f 0500 2cb7      	0x2cb70500725f
    25ca:	0000                	unimp
    25cc:	0400                	addi	s0,sp,512
    25ce:	5f0e                	lw	t5,224(sp)
    25d0:	b8050077          	0xb8050077
    25d4:	002c                	addi	a1,sp,8
    25d6:	0000                	unimp
    25d8:	0b08                	addi	a0,sp,400
    25da:	000002b3          	add	t0,zero,zero
    25de:	b905                	j	220e <__umoddi3+0x172>
    25e0:	0056                	0x56
    25e2:	0000                	unimp
    25e4:	0b0c                	addi	a1,sp,400
    25e6:	000003a7          	0x3a7
    25ea:	ba05                	j	1f1a <__udivdi3+0x2b6>
    25ec:	0056                	0x56
    25ee:	0000                	unimp
    25f0:	0e0e                	slli	t3,t3,0x3
    25f2:	625f 0066 bb05      	0xbb050066625f
    25f8:	02aa                	slli	t0,t0,0xa
    25fa:	0000                	unimp
    25fc:	0b10                	addi	a2,sp,400
    25fe:	00000143          	fmadd.s	ft2,ft0,ft0,ft0,rne
    2602:	bc05                	j	2032 <__udivdi3+0x3ce>
    2604:	002c                	addi	a1,sp,8
    2606:	0000                	unimp
    2608:	0b18                	addi	a4,sp,400
    260a:	000002a3          	sb	zero,5(zero) # 5 <buf.1775+0x5>
    260e:	c305                	beqz	a4,262e <_ctype_+0x16>
    2610:	0110                	addi	a2,sp,128
    2612:	0000                	unimp
    2614:	0b1c                	addi	a5,sp,400
    2616:	00000553          	fadd.s	fa0,ft0,ft0,rne
    261a:	c505                	beqz	a0,2642 <_ctype_+0x2a>
    261c:	056c                	addi	a1,sp,652
    261e:	0000                	unimp
    2620:	0b20                	addi	s0,sp,408
    2622:	00000477          	0x477
    2626:	c705                	beqz	a4,264e <_ctype_+0x36>
    2628:	0000059b          	0x59b
    262c:	0b24                	addi	s1,sp,408
    262e:	0621                	addi	a2,a2,8
    2630:	0000                	unimp
    2632:	ca05                	beqz	a2,2662 <_ctype_+0x4a>
    2634:	000005bf 019c0b28 	0x19c0b28000005bf
    263c:	0000                	unimp
    263e:	cb05                	beqz	a4,266e <_ctype_+0x56>
    2640:	05d9                	addi	a1,a1,22
    2642:	0000                	unimp
    2644:	0e2c                	addi	a1,sp,792
    2646:	755f 0062 ce05      	0xce050062755f
    264c:	02aa                	slli	t0,t0,0xa
    264e:	0000                	unimp
    2650:	0e30                	addi	a2,sp,792
    2652:	755f 0070 cf05      	0xcf050070755f
    2658:	000002cf          	fnmadd.s	ft5,ft0,ft0,ft0,rne
    265c:	0e38                	addi	a4,sp,792
    265e:	755f 0072 d005      	0xd0050072755f
    2664:	002c                	addi	a1,sp,8
    2666:	0000                	unimp
    2668:	0b3c                	addi	a5,sp,408
    266a:	01f5                	addi	gp,gp,29
    266c:	0000                	unimp
    266e:	d305                	beqz	a4,258e <__umoddi3+0x4f2>
    2670:	05df 0000 0b40      	0xb40000005df
    2676:	072a                	slli	a4,a4,0xa
    2678:	0000                	unimp
    267a:	d405                	beqz	s0,25a2 <__umoddi3+0x506>
    267c:	000005ef          	jal	a1,267c <_ctype_+0x64>
    2680:	6c5f0e43          	0x6c5f0e43
    2684:	0062                	0x62
    2686:	d705                	beqz	a4,25ae <__umoddi3+0x512>
    2688:	02aa                	slli	t0,t0,0xa
    268a:	0000                	unimp
    268c:	0b44                	addi	s1,sp,404
    268e:	0000062f          	0x62f
    2692:	da05                	beqz	a2,25c2 <__umoddi3+0x526>
    2694:	002c                	addi	a1,sp,8
    2696:	0000                	unimp
    2698:	0b4c                	addi	a1,sp,404
    269a:	04b9                	addi	s1,s1,14
    269c:	0000                	unimp
    269e:	db05                	beqz	a4,25ce <__umoddi3+0x532>
    26a0:	007d                	c.addi	zero,31
    26a2:	0000                	unimp
    26a4:	0b50                	addi	a2,sp,404
    26a6:	0055                	c.addi	zero,21
    26a8:	0000                	unimp
    26aa:	de05                	beqz	a2,25e2 <__umoddi3+0x546>
    26ac:	041d                	addi	s0,s0,7
    26ae:	0000                	unimp
    26b0:	0b54                	addi	a3,sp,404
    26b2:	0449                	addi	s0,s0,18
    26b4:	0000                	unimp
    26b6:	e205                	bnez	a2,26d6 <_ctype_+0xbe>
    26b8:	0105                	addi	sp,sp,1
    26ba:	0000                	unimp
    26bc:	0b58                	addi	a4,sp,404
    26be:	0000038f          	0x38f
    26c2:	e405                	bnez	s0,26ea <_ctype_+0xd2>
    26c4:	00fa                	slli	ra,ra,0x1e
    26c6:	0000                	unimp
    26c8:	0b5c                	addi	a5,sp,404
    26ca:	0599                	addi	a1,a1,6
    26cc:	0000                	unimp
    26ce:	e505                	bnez	a0,26f6 <_ctype_+0xde>
    26d0:	002c                	addi	a1,sp,8
    26d2:	0000                	unimp
    26d4:	0064                	addi	s1,sp,12
    26d6:	00009313          	slli	t1,ra,0x0
    26da:	1d00                	addi	s0,sp,688
    26dc:	0004                	addi	s1,sp,0
    26de:	1400                	addi	s0,sp,544
    26e0:	041d                	addi	s0,s0,7
    26e2:	0000                	unimp
    26e4:	1014                	addi	a3,sp,32
    26e6:	0001                	nop
    26e8:	1400                	addi	s0,sp,544
    26ea:	055a                	slli	a0,a0,0x16
    26ec:	0000                	unimp
    26ee:	2c14                	fld	fa3,24(s0)
    26f0:	0000                	unimp
    26f2:	0000                	unimp
    26f4:	0428040f          	0x428040f
    26f8:	0000                	unimp
    26fa:	1d15                	addi	s10,s10,-27
    26fc:	0004                	addi	s1,sp,0
    26fe:	1600                	addi	s0,sp,800
    2700:	05fe                	slli	a1,a1,0x1f
    2702:	0000                	unimp
    2704:	0428                	addi	a0,sp,520
    2706:	3905                	jal	2336 <__umoddi3+0x29a>
    2708:	5a02                	lw	s4,32(sp)
    270a:	0005                	c.addi	zero,1
    270c:	1700                	addi	s0,sp,928
    270e:	0589                	addi	a1,a1,2
    2710:	0000                	unimp
    2712:	3b05                	jal	2442 <__umoddi3+0x3a6>
    2714:	2c02                	fld	fs8,0(sp)
    2716:	0000                	unimp
    2718:	0000                	unimp
    271a:	0006f717          	auipc	a4,0x6f
    271e:	0500                	addi	s0,sp,640
    2720:	0240                	addi	s0,sp,260
    2722:	0646                	slli	a2,a2,0x11
    2724:	0000                	unimp
    2726:	1704                	addi	s1,sp,928
    2728:	06df 0000 4005      	0x4005000006df
    272e:	4602                	lw	a2,0(sp)
    2730:	0006                	0x6
    2732:	0800                	addi	s0,sp,16
    2734:	00034217          	auipc	tp,0x34
    2738:	0500                	addi	s0,sp,640
    273a:	0240                	addi	s0,sp,260
    273c:	0646                	slli	a2,a2,0x11
    273e:	0000                	unimp
    2740:	170c                	addi	a1,sp,928
    2742:	05da                	slli	a1,a1,0x16
    2744:	0000                	unimp
    2746:	4205                	li	tp,1
    2748:	2c02                	fld	fs8,0(sp)
    274a:	0000                	unimp
    274c:	1000                	addi	s0,sp,32
    274e:	00002417          	auipc	s0,0x2
    2752:	0500                	addi	s0,sp,640
    2754:	08280243          	fmadd.s	ft4,fa6,ft2,ft1,rne
    2758:	0000                	unimp
    275a:	1714                	addi	a3,sp,928
    275c:	0362                	slli	t1,t1,0x18
    275e:	0000                	unimp
    2760:	4605                	li	a2,1
    2762:	2c02                	fld	fs8,0(sp)
    2764:	0000                	unimp
    2766:	3000                	fld	fs0,32(s0)
    2768:	0005e417          	auipc	s0,0x5e
    276c:	0500                	addi	s0,sp,640
    276e:	083d0247          	fmsub.s	ft4,fs10,ft3,ft1,rne
    2772:	0000                	unimp
    2774:	1734                	addi	a3,sp,936
    2776:	0506                	slli	a0,a0,0x1
    2778:	0000                	unimp
    277a:	4905                	li	s2,1
    277c:	2c02                	fld	fs8,0(sp)
    277e:	0000                	unimp
    2780:	3800                	fld	fs0,48(s0)
    2782:	0005ec17          	auipc	s8,0x5e
    2786:	0500                	addi	s0,sp,640
    2788:	084e024b          	fnmsub.s	ft4,ft8,ft4,ft1,rne
    278c:	0000                	unimp
    278e:	173c                	addi	a5,sp,936
    2790:	0425                	addi	s0,s0,9
    2792:	0000                	unimp
    2794:	4e05                	li	t3,1
    2796:	7002                	flw	ft0,32(sp)
    2798:	0001                	nop
    279a:	4000                	lw	s0,0(s0)
    279c:	0002ce17          	auipc	t3,0x2c
    27a0:	0500                	addi	s0,sp,640
    27a2:	002c024f          	fnmadd.s	ft4,fs8,ft2,ft0,rne
    27a6:	0000                	unimp
    27a8:	1744                	addi	s1,sp,932
    27aa:	00000793          	li	a5,0
    27ae:	5005                	0x5005
    27b0:	7002                	flw	ft0,32(sp)
    27b2:	0001                	nop
    27b4:	4800                	lw	s0,16(s0)
    27b6:	00052217          	auipc	tp,0x52
    27ba:	0500                	addi	s0,sp,640
    27bc:	0251                	addi	tp,tp,20
    27be:	0854                	addi	a3,sp,20
    27c0:	0000                	unimp
    27c2:	174c                	addi	a1,sp,932
    27c4:	039f 0000 5405      	0x54050000039f
    27ca:	2c02                	fld	fs8,0(sp)
    27cc:	0000                	unimp
    27ce:	5000                	lw	s0,32(s0)
    27d0:	0002fb17          	auipc	s6,0x2f
    27d4:	0500                	addi	s0,sp,640
    27d6:	0255                	addi	tp,tp,21
    27d8:	055a                	slli	a0,a0,0x16
    27da:	0000                	unimp
    27dc:	1754                	addi	a3,sp,932
    27de:	0582                	slli	a1,a1,0x0
    27e0:	0000                	unimp
    27e2:	7805                	lui	a6,0xfffe1
    27e4:	0602                	slli	a2,a2,0x0
    27e6:	0008                	addi	a0,sp,0
    27e8:	5800                	lw	s0,48(s0)
    27ea:	f418                	fsw	fa4,40(s0)
    27ec:	0004                	addi	s1,sp,0
    27ee:	0500                	addi	s0,sp,640
    27f0:	027c                	addi	a5,sp,268
    27f2:	028d                	addi	t0,t0,3
    27f4:	0000                	unimp
    27f6:	0148                	addi	a0,sp,132
    27f8:	0318                	addi	a4,sp,384
    27fa:	0004                	addi	s1,sp,0
    27fc:	0500                	addi	s0,sp,640
    27fe:	027d                	addi	tp,tp,31
    2800:	0000024f          	fnmadd.s	ft4,ft0,ft0,ft0,rne
    2804:	014c                	addi	a1,sp,132
    2806:	1118                	addi	a4,sp,160
    2808:	05000007          	0x5000007
    280c:	0281                	addi	t0,t0,0
    280e:	0865                	addi	a6,a6,25
    2810:	0000                	unimp
    2812:	02dc                	addi	a5,sp,324
    2814:	ab18                	fsd	fa4,16(a4)
    2816:	0002                	0x2
    2818:	0500                	addi	s0,sp,640
    281a:	0286                	slli	t0,t0,0x1
    281c:	0000060b          	0x60b
    2820:	02e0                	addi	s0,sp,332
    2822:	1918                	addi	a4,sp,176
    2824:	0002                	0x2
    2826:	0500                	addi	s0,sp,640
    2828:	08710287          	0x8710287
    282c:	0000                	unimp
    282e:	02ec                	addi	a1,sp,332
    2830:	0f00                	addi	s0,sp,912
    2832:	6004                	flw	fs1,0(s0)
    2834:	0005                	c.addi	zero,1
    2836:	0200                	addi	s0,sp,256
    2838:	0801                	addi	a6,a6,0
    283a:	069d                	addi	a3,a3,7
    283c:	0000                	unimp
    283e:	6015                	0x6015
    2840:	0005                	c.addi	zero,1
    2842:	0f00                	addi	s0,sp,912
    2844:	ff04                	fsw	fs1,56(a4)
    2846:	13000003          	lb	zero,304(zero) # 130 <SIM_STOP+0x38>
    284a:	00000093          	li	ra,0
    284e:	0590                	addi	a2,sp,704
    2850:	0000                	unimp
    2852:	1d14                	addi	a3,sp,688
    2854:	0004                	addi	s1,sp,0
    2856:	1400                	addi	s0,sp,544
    2858:	0110                	addi	a2,sp,128
    285a:	0000                	unimp
    285c:	9014                	0x9014
    285e:	0005                	c.addi	zero,1
    2860:	1400                	addi	s0,sp,544
    2862:	002c                	addi	a1,sp,8
    2864:	0000                	unimp
    2866:	0f00                	addi	s0,sp,912
    2868:	6704                	flw	fs1,8(a4)
    286a:	0005                	c.addi	zero,1
    286c:	1500                	addi	s0,sp,672
    286e:	0590                	addi	a2,sp,704
    2870:	0000                	unimp
    2872:	0572040f          	0x572040f
    2876:	0000                	unimp
    2878:	00008813          	mv	a6,ra
    287c:	bf00                	fsd	fs0,56(a4)
    287e:	0005                	c.addi	zero,1
    2880:	1400                	addi	s0,sp,544
    2882:	041d                	addi	s0,s0,7
    2884:	0000                	unimp
    2886:	1014                	addi	a3,sp,32
    2888:	0001                	nop
    288a:	1400                	addi	s0,sp,544
    288c:	0088                	addi	a0,sp,64
    288e:	0000                	unimp
    2890:	2c14                	fld	fa3,24(s0)
    2892:	0000                	unimp
    2894:	0000                	unimp
    2896:	05a1040f          	0x5a1040f
    289a:	0000                	unimp
    289c:	00002c13          	slti	s8,zero,0
    28a0:	d900                	sw	s0,48(a0)
    28a2:	0005                	c.addi	zero,1
    28a4:	1400                	addi	s0,sp,544
    28a6:	041d                	addi	s0,s0,7
    28a8:	0000                	unimp
    28aa:	1014                	addi	a3,sp,32
    28ac:	0001                	nop
    28ae:	0000                	unimp
    28b0:	05c5040f          	0x5c5040f
    28b4:	0000                	unimp
    28b6:	4f08                	lw	a0,24(a4)
    28b8:	0000                	unimp
    28ba:	ef00                	fsw	fs0,24(a4)
    28bc:	0005                	c.addi	zero,1
    28be:	0900                	addi	s0,sp,144
    28c0:	00000033          	add	zero,zero,zero
    28c4:	0002                	0x2
    28c6:	4f08                	lw	a0,24(a4)
    28c8:	0000                	unimp
    28ca:	ff00                	fsw	fs0,56(a4)
    28cc:	0005                	c.addi	zero,1
    28ce:	0900                	addi	s0,sp,144
    28d0:	00000033          	add	zero,zero,zero
    28d4:	0000                	unimp
    28d6:	c705                	beqz	a4,28fe <__clz_tab+0x1e2>
    28d8:	0002                	0x2
    28da:	0500                	addi	s0,sp,640
    28dc:	011f 02d5 0000      	0x2d5011f
    28e2:	f119                	bnez	a0,27e8 <__clz_tab+0xcc>
    28e4:	0006                	0x6
    28e6:	0c00                	addi	s0,sp,528
    28e8:	2305                	jal	2e08 <__clz_tab+0x6ec>
    28ea:	4001                	0x4001
    28ec:	0006                	0x6
    28ee:	1700                	addi	s0,sp,928
    28f0:	07c0                	addi	s0,sp,964
    28f2:	0000                	unimp
    28f4:	2505                	jal	2f14 <impure_data+0x104>
    28f6:	4001                	0x4001
    28f8:	0006                	0x6
    28fa:	0000                	unimp
    28fc:	0003bf17          	auipc	t5,0x3b
    2900:	0500                	addi	s0,sp,640
    2902:	0126                	slli	sp,sp,0x9
    2904:	002c                	addi	a1,sp,8
    2906:	0000                	unimp
    2908:	1704                	addi	s1,sp,928
    290a:	05a1                	addi	a1,a1,8
    290c:	0000                	unimp
    290e:	2705                	jal	302e <impure_data+0x21e>
    2910:	4601                	li	a2,0
    2912:	0006                	0x6
    2914:	0800                	addi	s0,sp,16
    2916:	0f00                	addi	s0,sp,912
    2918:	0b04                	addi	s1,sp,400
    291a:	0006                	0x6
    291c:	0f00                	addi	s0,sp,912
    291e:	ff04                	fsw	fs1,56(a4)
    2920:	0005                	c.addi	zero,1
    2922:	1900                	addi	s0,sp,176
    2924:	001c                	addi	a5,sp,0
    2926:	0000                	unimp
    2928:	050e                	slli	a0,a0,0x3
    292a:	0681013f 5b170000 	0x5b1700000681013f
    2932:	0006                	0x6
    2934:	0500                	addi	s0,sp,640
    2936:	0140                	addi	s0,sp,132
    2938:	0681                	addi	a3,a3,0
    293a:	0000                	unimp
    293c:	1700                	addi	s0,sp,928
    293e:	0454                	addi	a3,sp,516
    2940:	0000                	unimp
    2942:	4105                	li	sp,1
    2944:	8101                	srli	a0,a0,0x0
    2946:	0006                	0x6
    2948:	0600                	addi	s0,sp,768
    294a:	0006a217          	auipc	tp,0x6a
    294e:	0500                	addi	s0,sp,640
    2950:	0142                	slli	sp,sp,0x10
    2952:	005d                	c.addi	zero,23
    2954:	0000                	unimp
    2956:	000c                	addi	a1,sp,0
    2958:	5d08                	lw	a0,56(a0)
    295a:	0000                	unimp
    295c:	9100                	0x9100
    295e:	0006                	0x6
    2960:	0900                	addi	s0,sp,144
    2962:	00000033          	add	zero,zero,zero
    2966:	0002                	0x2
    2968:	d01a                	sw	t1,32(sp)
    296a:	5905                	li	s2,-31
    296c:	9202                	jalr	tp
    296e:	17000007          	0x17000007
    2972:	0490                	addi	a2,sp,576
    2974:	0000                	unimp
    2976:	5b05                	li	s6,-31
    2978:	3302                	fld	ft6,32(sp)
    297a:	0000                	unimp
    297c:	0000                	unimp
    297e:	00067717          	auipc	a4,0x67
    2982:	0500                	addi	s0,sp,640
    2984:	025c                	addi	a5,sp,260
    2986:	055a                	slli	a0,a0,0x16
    2988:	0000                	unimp
    298a:	1704                	addi	s1,sp,928
    298c:	0418                	addi	a4,sp,512
    298e:	0000                	unimp
    2990:	5d05                	li	s10,-31
    2992:	9202                	jalr	tp
    2994:	08000007          	0x8000007
    2998:	00074d17          	auipc	s10,0x74
    299c:	0500                	addi	s0,sp,640
    299e:	025e                	slli	tp,tp,0x17
    29a0:	0186                	slli	gp,gp,0x1
    29a2:	0000                	unimp
    29a4:	1724                	addi	s1,sp,936
    29a6:	034a                	slli	t1,t1,0x12
    29a8:	0000                	unimp
    29aa:	5f05                	li	t5,-31
    29ac:	2c02                	fld	fs8,0(sp)
    29ae:	0000                	unimp
    29b0:	4800                	lw	s0,16(s0)
    29b2:	0007bb17          	auipc	s6,0x7b
    29b6:	0500                	addi	s0,sp,640
    29b8:	0260                	addi	s0,sp,268
    29ba:	0025                	c.addi	zero,9
    29bc:	0000                	unimp
    29be:	1750                	addi	a2,sp,932
    29c0:	0765                	addi	a4,a4,25
    29c2:	0000                	unimp
    29c4:	6105                	addi	sp,sp,32
    29c6:	4c02                	lw	s8,0(sp)
    29c8:	0006                	0x6
    29ca:	5800                	lw	s0,48(s0)
    29cc:	0005cd17          	auipc	s10,0x5c
    29d0:	0500                	addi	s0,sp,640
    29d2:	0262                	slli	tp,tp,0x18
    29d4:	00fa                	slli	ra,ra,0x1e
    29d6:	0000                	unimp
    29d8:	1768                	addi	a0,sp,940
    29da:	0785                	addi	a5,a5,1
    29dc:	0000                	unimp
    29de:	6305                	lui	t1,0x1
    29e0:	fa02                	fsw	ft0,52(sp)
    29e2:	0000                	unimp
    29e4:	7000                	flw	fs0,32(s0)
    29e6:	00020b17          	auipc	s6,0x20
    29ea:	0500                	addi	s0,sp,640
    29ec:	0264                	addi	s1,sp,268
    29ee:	00fa                	slli	ra,ra,0x1e
    29f0:	0000                	unimp
    29f2:	1778                	addi	a4,sp,940
    29f4:	00000707          	0x707
    29f8:	6505                	lui	a0,0x1
    29fa:	a202                	fsd	ft0,256(sp)
    29fc:	80000007          	0x80000007
    2a00:	00040c17          	auipc	s8,0x40
    2a04:	0500                	addi	s0,sp,640
    2a06:	0266                	slli	tp,tp,0x19
    2a08:	07b2                	slli	a5,a5,0xc
    2a0a:	0000                	unimp
    2a0c:	1788                	addi	a0,sp,992
    2a0e:	0048                	addi	a0,sp,4
    2a10:	0000                	unimp
    2a12:	6705                	lui	a4,0x1
    2a14:	2c02                	fld	fs8,0(sp)
    2a16:	0000                	unimp
    2a18:	a000                	fsd	fs0,0(s0)
    2a1a:	00031417          	auipc	s0,0x31
    2a1e:	0500                	addi	s0,sp,640
    2a20:	0268                	addi	a0,sp,268
    2a22:	00fa                	slli	ra,ra,0x1e
    2a24:	0000                	unimp
    2a26:	17a4                	addi	s1,sp,1000
    2a28:	017c                	addi	a5,sp,140
    2a2a:	0000                	unimp
    2a2c:	6905                	lui	s2,0x1
    2a2e:	fa02                	fsw	ft0,52(sp)
    2a30:	0000                	unimp
    2a32:	ac00                	fsd	fs0,24(s0)
    2a34:	00030317          	auipc	t1,0x30
    2a38:	0500                	addi	s0,sp,640
    2a3a:	026a                	slli	tp,tp,0x1a
    2a3c:	00fa                	slli	ra,ra,0x1e
    2a3e:	0000                	unimp
    2a40:	17b4                	addi	a3,sp,1000
    2a42:	0000005b          	0x5b
    2a46:	6b05                	lui	s6,0x1
    2a48:	fa02                	fsw	ft0,52(sp)
    2a4a:	0000                	unimp
    2a4c:	bc00                	fsd	fs0,56(s0)
    2a4e:	00012817          	auipc	a6,0x12
    2a52:	0500                	addi	s0,sp,640
    2a54:	026c                	addi	a1,sp,268
    2a56:	00fa                	slli	ra,ra,0x1e
    2a58:	0000                	unimp
    2a5a:	17c4                	addi	s1,sp,996
    2a5c:	00000587          	0x587
    2a60:	6d05                	lui	s10,0x1
    2a62:	2c02                	fld	fs8,0(sp)
    2a64:	0000                	unimp
    2a66:	cc00                	sw	s0,24(s0)
    2a68:	0800                	addi	s0,sp,16
    2a6a:	0560                	addi	s0,sp,652
    2a6c:	0000                	unimp
    2a6e:	07a2                	slli	a5,a5,0x8
    2a70:	0000                	unimp
    2a72:	3309                	jal	2774 <__clz_tab+0x58>
    2a74:	0000                	unimp
    2a76:	1900                	addi	s0,sp,176
    2a78:	0800                	addi	s0,sp,16
    2a7a:	0560                	addi	s0,sp,652
    2a7c:	0000                	unimp
    2a7e:	07b2                	slli	a5,a5,0xc
    2a80:	0000                	unimp
    2a82:	3309                	jal	2784 <__clz_tab+0x68>
    2a84:	0000                	unimp
    2a86:	0700                	addi	s0,sp,896
    2a88:	0800                	addi	s0,sp,16
    2a8a:	0560                	addi	s0,sp,652
    2a8c:	0000                	unimp
    2a8e:	07c2                	slli	a5,a5,0x10
    2a90:	0000                	unimp
    2a92:	3309                	jal	2794 <__clz_tab+0x78>
    2a94:	0000                	unimp
    2a96:	1700                	addi	s0,sp,928
    2a98:	1a00                	addi	s0,sp,304
    2a9a:	05f0                	addi	a2,sp,716
    2a9c:	0272                	slli	tp,tp,0x1c
    2a9e:	07e6                	slli	a5,a5,0x19
    2aa0:	0000                	unimp
    2aa2:	00043317          	auipc	t1,0x43
    2aa6:	0500                	addi	s0,sp,640
    2aa8:	0275                	addi	tp,tp,29
    2aaa:	07e6                	slli	a5,a5,0x19
    2aac:	0000                	unimp
    2aae:	1700                	addi	s0,sp,928
    2ab0:	0359                	addi	t1,t1,22
    2ab2:	0000                	unimp
    2ab4:	7605                	lui	a2,0xfffe1
    2ab6:	f602                	fsw	ft0,44(sp)
    2ab8:	78000007          	0x78000007
    2abc:	0800                	addi	s0,sp,16
    2abe:	000002cf          	fnmadd.s	ft5,ft0,ft0,ft0,rne
    2ac2:	07f6                	slli	a5,a5,0x1d
    2ac4:	0000                	unimp
    2ac6:	3309                	jal	27c8 <__clz_tab+0xac>
    2ac8:	0000                	unimp
    2aca:	1d00                	addi	s0,sp,688
    2acc:	0800                	addi	s0,sp,16
    2ace:	00000033          	add	zero,zero,zero
    2ad2:	0806                	slli	a6,a6,0x1
    2ad4:	0000                	unimp
    2ad6:	3309                	jal	27d8 <__clz_tab+0xbc>
    2ad8:	0000                	unimp
    2ada:	1d00                	addi	s0,sp,688
    2adc:	1b00                	addi	s0,sp,432
    2ade:	05f0                	addi	a2,sp,716
    2ae0:	08280257          	0x8280257
    2ae4:	0000                	unimp
    2ae6:	fe1c                	fsw	fa5,56(a2)
    2ae8:	0005                	c.addi	zero,1
    2aea:	0500                	addi	s0,sp,640
    2aec:	026e                	slli	tp,tp,0x1b
    2aee:	0691                	addi	a3,a3,4
    2af0:	0000                	unimp
    2af2:	301c                	fld	fa5,32(s0)
    2af4:	05000007          	0x5000007
    2af8:	07c20277          	0x7c20277
    2afc:	0000                	unimp
    2afe:	0800                	addi	s0,sp,16
    2b00:	0560                	addi	s0,sp,652
    2b02:	0000                	unimp
    2b04:	0838                	addi	a4,sp,24
    2b06:	0000                	unimp
    2b08:	3309                	jal	280a <__clz_tab+0xee>
    2b0a:	0000                	unimp
    2b0c:	1800                	addi	s0,sp,48
    2b0e:	1d00                	addi	s0,sp,688
    2b10:	0171                	addi	sp,sp,28
    2b12:	0000                	unimp
    2b14:	0838040f          	0x838040f
    2b18:	0000                	unimp
    2b1a:	4e1e                	lw	t3,196(sp)
    2b1c:	0008                	addi	a0,sp,0
    2b1e:	1400                	addi	s0,sp,544
    2b20:	041d                	addi	s0,s0,7
    2b22:	0000                	unimp
    2b24:	0f00                	addi	s0,sp,912
    2b26:	4304                	lw	s1,0(a4)
    2b28:	0008                	addi	a0,sp,0
    2b2a:	0f00                	addi	s0,sp,912
    2b2c:	7004                	flw	fs1,32(s0)
    2b2e:	0001                	nop
    2b30:	1e00                	addi	s0,sp,816
    2b32:	0865                	addi	a6,a6,25
    2b34:	0000                	unimp
    2b36:	2c14                	fld	fa3,24(s0)
    2b38:	0000                	unimp
    2b3a:	0000                	unimp
    2b3c:	086b040f          	0x86b040f
    2b40:	0000                	unimp
    2b42:	085a040f          	0x85a040f
    2b46:	0000                	unimp
    2b48:	ff08                	fsw	fa0,56(a4)
    2b4a:	0005                	c.addi	zero,1
    2b4c:	8100                	0x8100
    2b4e:	0008                	addi	a0,sp,0
    2b50:	0900                	addi	s0,sp,144
    2b52:	00000033          	add	zero,zero,zero
    2b56:	0002                	0x2
    2b58:	cb1f 0006 0500      	0x5000006cb1f
    2b5e:	02fe                	slli	t0,t0,0x1f
    2b60:	041d                	addi	s0,s0,7
    2b62:	0000                	unimp
    2b64:	c41f 0006 0500      	0x5000006c41f
    2b6a:	02ff                	0x2ff
    2b6c:	00000423          	sb	zero,8(zero) # 8 <buf.1775+0x8>
    2b70:	9608                	0x9608
    2b72:	0005                	c.addi	zero,1
    2b74:	a400                	fsd	fs0,8(s0)
    2b76:	0008                	addi	a0,sp,0
    2b78:	2000                	fld	fs0,0(s0)
    2b7a:	1500                	addi	s0,sp,672
    2b7c:	0899                	addi	a7,a7,6
    2b7e:	0000                	unimp
    2b80:	ee21                	bnez	a2,2bd8 <__clz_tab+0x4bc>
    2b82:	0002                	0x2
    2b84:	0600                	addi	s0,sp,768
    2b86:	a414                	fsd	fa3,8(s0)
    2b88:	0008                	addi	a0,sp,0
    2b8a:	2100                	fld	fs0,0(a0)
    2b8c:	000005c3          	fmadd.s	fa1,ft0,ft0,ft0,rne
    2b90:	1506                	slli	a0,a0,0x21
    2b92:	002c                	addi	a1,sp,8
    2b94:	0000                	unimp
    2b96:	08c5040f          	0x8c5040f
    2b9a:	0000                	unimp
    2b9c:	00002c13          	slti	s8,zero,0
    2ba0:	d900                	sw	s0,48(a0)
    2ba2:	0008                	addi	a0,sp,0
    2ba4:	1400                	addi	s0,sp,544
    2ba6:	08d9                	addi	a7,a7,22
    2ba8:	0000                	unimp
    2baa:	d914                	sw	a3,48(a0)
    2bac:	0008                	addi	a0,sp,0
    2bae:	0000                	unimp
    2bb0:	08df040f          	0x8df040f
    2bb4:	0000                	unimp
    2bb6:	2122                	fld	ft2,8(sp)
    2bb8:	04fc                	addi	a5,sp,588
    2bba:	0000                	unimp
    2bbc:	055a6307          	0x55a6307
    2bc0:	0000                	unimp
    2bc2:	3a21                	jal	24da <__umoddi3+0x43e>
    2bc4:	0004                	addi	s1,sp,0
    2bc6:	0800                	addi	s0,sp,16
    2bc8:	f610                	fsw	fa2,40(a2)
    2bca:	0008                	addi	a0,sp,0
    2bcc:	0f00                	addi	s0,sp,912
    2bce:	5a04                	lw	s1,48(a2)
    2bd0:	0005                	c.addi	zero,1
    2bd2:	2100                	fld	fs0,0(a0)
    2bd4:	04ff                	0x4ff
    2bd6:	0000                	unimp
    2bd8:	e208                	fsw	fa0,0(a2)
    2bda:	055a                	slli	a0,a0,0x16
    2bdc:	0000                	unimp
    2bde:	4c21                	li	s8,8
    2be0:	0001                	nop
    2be2:	0800                	addi	s0,sp,16
    2be4:	00002ce3          	0x2ce3
    2be8:	2100                	fld	fs0,0(a0)
    2bea:	0661                	addi	a2,a2,24
    2bec:	0000                	unimp
    2bee:	e308                	fsw	fa0,0(a4)
    2bf0:	002c                	addi	a1,sp,8
    2bf2:	0000                	unimp
    2bf4:	7421                	lui	s0,0xfffe8
    2bf6:	08000007          	0x8000007
    2bfa:	00002ce3          	0x2ce3
    2bfe:	2100                	fld	fs0,0(a0)
    2c00:	046e                	slli	s0,s0,0x1b
    2c02:	0000                	unimp
    2c04:	e508                	fsw	fa0,8(a0)
    2c06:	002c                	addi	a1,sp,8
    2c08:	0000                	unimp
    2c0a:	2c21                	jal	2e22 <impure_data+0x12>
    2c0c:	0005                	c.addi	zero,1
    2c0e:	0900                	addi	s0,sp,144
    2c10:	649a                	flw	fs1,132(sp)
    2c12:	0000                	unimp
    2c14:	2100                	fld	fs0,0(a0)
    2c16:	0000002f          	0x2f
    2c1a:	9b09                	andi	a4,a4,-30
    2c1c:	002c                	addi	a1,sp,8
    2c1e:	0000                	unimp
    2c20:	5a08                	lw	a0,48(a2)
    2c22:	0005                	c.addi	zero,1
    2c24:	5900                	lw	s0,48(a0)
    2c26:	0009                	c.addi	zero,2
    2c28:	0900                	addi	s0,sp,144
    2c2a:	00000033          	add	zero,zero,zero
    2c2e:	0001                	nop
    2c30:	8b21                	andi	a4,a4,8
    2c32:	0001                	nop
    2c34:	0900                	addi	s0,sp,144
    2c36:	499e                	lw	s3,196(sp)
    2c38:	0009                	c.addi	zero,2
    2c3a:	0400                	addi	s0,sp,512
    2c3c:	03ad                	addi	t2,t2,11
    2c3e:	0000                	unimp
    2c40:	2a0a                	fld	fs4,128(sp)
    2c42:	00000033          	add	zero,zero,zero
    2c46:	b104                	fsd	fs1,32(a0)
    2c48:	0005                	c.addi	zero,1
    2c4a:	0a00                	addi	s0,sp,272
    2c4c:	00097a2f          	0x97a2f
    2c50:	0f00                	addi	s0,sp,912
    2c52:	8004                	0x8004
    2c54:	0009                	c.addi	zero,2
    2c56:	1300                	addi	s0,sp,416
    2c58:	0964                	addi	s1,sp,156
    2c5a:	0000                	unimp
    2c5c:	0000098f          	0x98f
    2c60:	d914                	sw	a3,48(a0)
    2c62:	0008                	addi	a0,sp,0
    2c64:	0000                	unimp
    2c66:	c604                	sw	s1,8(a2)
    2c68:	0a000007          	0xa000007
    2c6c:	bf36                	fsd	fa3,440(sp)
    2c6e:	0008                	addi	a0,sp,0
    2c70:	2100                	fld	fs0,0(a0)
    2c72:	000a                	0xa
    2c74:	0000                	unimp
    2c76:	bb0a                	fsd	ft2,432(sp)
    2c78:	0000096f          	jal	s2,2c78 <__clz_tab+0x55c>
    2c7c:	af21                	j	3394 <__global_locale+0x15c>
    2c7e:	0006                	0x6
    2c80:	0a00                	addi	s0,sp,272
    2c82:	8fbe                	mv	t6,a5
    2c84:	0009                	c.addi	zero,2
    2c86:	2300                	fld	fs0,0(a4)
    2c88:	0380                	addi	s0,sp,448
    2c8a:	0000                	unimp
    2c8c:	00330407          	0x330407
    2c90:	0000                	unimp
    2c92:	09e6180b          	0x9e6180b
    2c96:	0000                	unimp
    2c98:	6224                	flw	fs1,64(a2)
    2c9a:	0005                	c.addi	zero,1
    2c9c:	0000                	unimp
    2c9e:	d224                	sw	s1,96(a2)
    2ca0:	0004                	addi	s1,sp,0
    2ca2:	0100                	addi	s0,sp,128
    2ca4:	9d24                	0x9d24
    2ca6:	0004                	addi	s1,sp,0
    2ca8:	0200                	addi	s0,sp,256
    2caa:	5924                	lw	s1,112(a0)
    2cac:	0005                	c.addi	zero,1
    2cae:	0300                	addi	s0,sp,384
    2cb0:	7b24                	flw	fs1,112(a4)
    2cb2:	04000007          	0x4000007
    2cb6:	6a24                	flw	fs1,80(a2)
    2cb8:	05000007          	0x5000007
    2cbc:	2100                	fld	fs0,0(a0)
    2cbe:	00000167          	jalr	sp,zero
    2cc2:	09b0200b          	0x9b0200b
    2cc6:	0000                	unimp
    2cc8:	0004a823          	sw	zero,16(s1)
    2ccc:	0700                	addi	s0,sp,896
    2cce:	3304                	fld	fs1,32(a4)
    2cd0:	0000                	unimp
    2cd2:	0b00                	addi	s0,sp,400
    2cd4:	1522                	slli	a0,a0,0x28
    2cd6:	000a                	0xa
    2cd8:	2400                	fld	fs0,8(s0)
    2cda:	000005a7          	0x5a7
    2cde:	2400                	fld	fs0,8(s0)
    2ce0:	0578                	addi	a4,sp,652
    2ce2:	0000                	unimp
    2ce4:	2401                	jal	2ee4 <impure_data+0xd4>
    2ce6:	0684                	addi	s1,sp,832
    2ce8:	0000                	unimp
    2cea:	0002                	0x2
    2cec:	2221                	jal	2df4 <__clz_tab+0x6d8>
    2cee:	0b000003          	lb	zero,176(zero) # b0 <buflen.1776+0x70>
    2cf2:	0009f127          	0x9f127
    2cf6:	2100                	fld	fs0,0(a0)
    2cf8:	045f 0000 250c      	0x250c0000045f
    2cfe:	08a4                	addi	s1,sp,88
    2d00:	0000                	unimp
    2d02:	4b21                	li	s6,8
    2d04:	0006                	0x6
    2d06:	0c00                	addi	s0,sp,528
    2d08:	a431                	j	2f14 <impure_data+0x104>
    2d0a:	0008                	addi	a0,sp,0
    2d0c:	0400                	addi	s0,sp,512
    2d0e:	07a2                	slli	a5,a5,0x8
    2d10:	0000                	unimp
    2d12:	7b0d                	lui	s6,0xfffe3
    2d14:	0000004f          	fnmadd.s	ft0,ft0,ft0,ft0,rne
    2d18:	3615                	jal	283c <__clz_tab+0x120>
    2d1a:	000a                	0xa
    2d1c:	0400                	addi	s0,sp,512
    2d1e:	02d9                	addi	t0,t0,22
    2d20:	0000                	unimp
    2d22:	800d                	srli	s0,s0,0x3
    2d24:	002c                	addi	a1,sp,8
    2d26:	0000                	unimp
    2d28:	d804                	sw	s1,48(s0)
    2d2a:	0002                	0x2
    2d2c:	0d00                	addi	s0,sp,656
    2d2e:	3381                	jal	2a6e <__clz_tab+0x352>
    2d30:	0000                	unimp
    2d32:	0400                	addi	s0,sp,512
    2d34:	06d8                	addi	a4,sp,836
    2d36:	0000                	unimp
    2d38:	840d                	srai	s0,s0,0x3
    2d3a:	003a                	0x3a
    2d3c:	0000                	unimp
    2d3e:	d704                	sw	s1,40(a4)
    2d40:	0006                	0x6
    2d42:	0d00                	addi	s0,sp,656
    2d44:	2585                	jal	33a4 <__global_locale+0x16c>
    2d46:	0000                	unimp
    2d48:	0200                	addi	s0,sp,256
    2d4a:	0404                	addi	s1,sp,512
    2d4c:	04e5                	addi	s1,s1,25
    2d4e:	0000                	unimp
    2d50:	0802                	slli	a6,a6,0x0
    2d52:	0004dd03          	lhu	s10,0(s1)
    2d56:	0200                	addi	s0,sp,256
    2d58:	0408                	addi	a0,sp,512
    2d5a:	0160                	addi	s0,sp,140
    2d5c:	0000                	unimp
    2d5e:	1002                	0x1002
    2d60:	00003903          	0x3903
    2d64:	0200                	addi	s0,sp,256
    2d66:	0320                	addi	s0,sp,392
    2d68:	00000153          	fadd.s	ft2,ft0,ft0,rne
    2d6c:	dd19                	beqz	a0,2c8a <__clz_tab+0x56e>
    2d6e:	08000003          	lb	zero,128(zero) # 80 <buflen.1776+0x40>
    2d72:	ed0d                	bnez	a0,2dac <__clz_tab+0x690>
    2d74:	bd01                	j	2b84 <__clz_tab+0x468>
    2d76:	000a                	0xa
    2d78:	2500                	fld	fs0,8(a0)
    2d7a:	6f6c                	flw	fa1,92(a4)
    2d7c:	ed0d0077          	0xed0d0077
    2d80:	4601                	li	a2,0
    2d82:	000a                	0xa
    2d84:	0000                	unimp
    2d86:	00066817          	auipc	a6,0x66
    2d8a:	0d00                	addi	s0,sp,656
    2d8c:	01ed                	addi	gp,gp,27
    2d8e:	0a46                	slli	s4,s4,0x11
    2d90:	0000                	unimp
    2d92:	0004                	addi	s1,sp,0
    2d94:	f40d081b          	0xf40d081b
    2d98:	dc01                	beqz	s0,2cb0 <__clz_tab+0x594>
    2d9a:	000a                	0xa
    2d9c:	2600                	fld	fs0,8(a2)
    2d9e:	f60d0073          	0xf60d0073
    2da2:	9501                	srai	a0,a0,0x20
    2da4:	000a                	0xa
    2da6:	2600                	fld	fs0,8(a2)
    2da8:	6c6c                	flw	fa1,92(s0)
    2daa:	0d00                	addi	s0,sp,656
    2dac:	0a5c01f7          	0xa5c01f7
    2db0:	0000                	unimp
    2db2:	0500                	addi	s0,sp,640
    2db4:	000003b7          	lui	t2,0x0
    2db8:	f80d                	bnez	s0,2cea <__clz_tab+0x5ce>
    2dba:	bd01                	j	2bca <__clz_tab+0x4ae>
    2dbc:	000a                	0xa
    2dbe:	1500                	addi	s0,sp,672
    2dc0:	0adc                	addi	a5,sp,340
    2dc2:	0000                	unimp
    2dc4:	4108                	lw	a0,0(a0)
    2dc6:	000a                	0xa
    2dc8:	fd00                	fsw	fs0,56(a0)
    2dca:	000a                	0xa
    2dcc:	0900                	addi	s0,sp,144
    2dce:	00000033          	add	zero,zero,zero
    2dd2:	00ff                	0xff
    2dd4:	ed15                	bnez	a0,2e10 <impure_data>
    2dd6:	000a                	0xa
    2dd8:	1f00                	addi	s0,sp,944
    2dda:	0000071b          	0x71b
    2dde:	fc0d                	bnez	s0,2d18 <__clz_tab+0x5fc>
    2de0:	fd01                	bnez	a0,2cf8 <__clz_tab+0x5dc>
    2de2:	000a                	0xa
    2de4:	1f00                	addi	s0,sp,944
    2de6:	03f9                	addi	t2,t2,30
    2de8:	0000                	unimp
    2dea:	020d                	addi	tp,tp,3
    2dec:	fd02                	fsw	ft0,184(sp)
    2dee:	000a                	0xa
    2df0:	2700                	fld	fs0,8(a4)
    2df2:	07d8                	addi	a4,sp,964
    2df4:	0000                	unimp
    2df6:	1901                	addi	s2,s2,-32
    2df8:	6705                	lui	a4,0x1
    2dfa:	000a                	0xa
    2dfc:	9c00                	0x9c00
    2dfe:	0020                	addi	s0,sp,8
    2e00:	1000                	addi	s0,sp,32
    2e02:	0004                	addi	s1,sp,0
    2e04:	0100                	addi	s0,sp,128
    2e06:	4f9c                	lw	a5,24(a5)
    2e08:	000e                	0xe
    2e0a:	2800                	fld	fs0,16(s0)
    2e0c:	0075                	c.addi	zero,29
    2e0e:	1901                	addi	s2,s2,-32
    2e10:	6705                	lui	a4,0x1
    2e12:	000a                	0xa
    2e14:	b900                	fsd	fs0,48(a0)
    2e16:	0015                	c.addi	zero,5
    2e18:	2800                	fld	fs0,16(s0)
    2e1a:	0076                	0x76
    2e1c:	1901                	addi	s2,s2,-32
    2e1e:	6705                	lui	a4,0x1
    2e20:	000a                	0xa
    2e22:	6100                	flw	fs0,0(a0)
    2e24:	0016                	0x16
    2e26:	2900                	fld	fs0,16(a0)
    2e28:	1b010077          	0x1b010077
    2e2c:	6705                	lui	a4,0x1
    2e2e:	000a                	0xa
    2e30:	c900                	sw	s0,16(a0)
    2e32:	0016                	0x16
    2e34:	2a00                	fld	fs0,16(a2)
    2e36:	00000e4f          	fnmadd.s	ft8,ft0,ft0,ft0,rne
    2e3a:	209c                	fld	fa5,0(s1)
    2e3c:	0000                	unimp
    2e3e:	01b0                	addi	a2,sp,200
    2e40:	0000                	unimp
    2e42:	1d01                	addi	s10,s10,-32
    2e44:	2b05                	jal	3374 <__global_locale+0x13c>
    2e46:	0e74                	addi	a3,sp,796
    2e48:	0000                	unimp
    2e4a:	16e1                	addi	a3,a3,-8
    2e4c:	0000                	unimp
    2e4e:	000e6a2b          	0xe6a2b
    2e52:	0900                	addi	s0,sp,144
    2e54:	2b000017          	auipc	zero,0x2b000
    2e58:	0e60                	addi	s0,sp,796
    2e5a:	0000                	unimp
    2e5c:	1771                	addi	a4,a4,-4
    2e5e:	0000                	unimp
    2e60:	b02c                	fsd	fa1,96(s0)
    2e62:	0001                	nop
    2e64:	2d00                	fld	fs0,24(a0)
    2e66:	0e7f                	0xe7f
    2e68:	0000                	unimp
    2e6a:	8a2d                	andi	a2,a2,11
    2e6c:	000e                	0xe
    2e6e:	2d00                	fld	fs0,24(a0)
    2e70:	0e95                	addi	t4,t4,5
    2e72:	0000                	unimp
    2e74:	a02e                	fsd	fa1,0(sp)
    2e76:	000e                	0xe
    2e78:	f900                	fsw	fs0,48(a0)
    2e7a:	2e000017          	auipc	zero,0x2e000
    2e7e:	00000eab          	0xeab
    2e82:	1838                	addi	a4,sp,56
    2e84:	0000                	unimp
    2e86:	b62e                	fsd	fa1,296(sp)
    2e88:	000e                	0xe
    2e8a:	8d00                	0x8d00
    2e8c:	0018                	addi	a4,sp,0
    2e8e:	2e00                	fld	fs0,24(a2)
    2e90:	0ec1                	addi	t4,t4,16
    2e92:	0000                	unimp
    2e94:	00001903          	lh	s2,0(zero) # 2e002e7a <__C_STACK_TOP__+0x2dff2e7a>
    2e98:	cc2e                	sw	a1,24(sp)
    2e9a:	000e                	0xe
    2e9c:	9a00                	0x9a00
    2e9e:	0019                	c.addi	zero,6
    2ea0:	2e00                	fld	fs0,24(a2)
    2ea2:	00000ed7          	0xed7
    2ea6:	19c8                	addi	a0,sp,244
    2ea8:	0000                	unimp
    2eaa:	e22e                	fsw	fa1,4(sp)
    2eac:	000e                	0xe
    2eae:	dc00                	sw	s0,56(s0)
    2eb0:	0019                	c.addi	zero,6
    2eb2:	2e00                	fld	fs0,24(a2)
    2eb4:	0eed                	addi	t4,t4,27
    2eb6:	0000                	unimp
    2eb8:	19fc                	addi	a5,sp,252
    2eba:	0000                	unimp
    2ebc:	f72e                	fsw	fa1,172(sp)
    2ebe:	000e                	0xe
    2ec0:	1a00                	addi	s0,sp,304
    2ec2:	001a                	0x1a
    2ec4:	2d00                	fld	fs0,24(a0)
    2ec6:	0f02                	slli	t5,t5,0x0
    2ec8:	0000                	unimp
    2eca:	000f0d2f          	0xf0d2f
    2ece:	c800                	sw	s0,16(s0)
    2ed0:	0001                	nop
    2ed2:	1300                	addi	s0,sp,416
    2ed4:	000c                	addi	a1,sp,0
    2ed6:	2e00                	fld	fs0,24(a2)
    2ed8:	0f12                	slli	t5,t5,0x4
    2eda:	0000                	unimp
    2edc:	1a59                	addi	s4,s4,-10
    2ede:	0000                	unimp
    2ee0:	1e2e                	slli	t3,t3,0x2b
    2ee2:	7700000f          	0x7700000f
    2ee6:	001a                	0x1a
    2ee8:	0000                	unimp
    2eea:	2b30                	fld	fa2,80(a4)
    2eec:	0000000f          	fence	unknown,unknown
    2ef0:	0021                	c.addi	zero,8
    2ef2:	7000                	flw	fs0,32(s0)
    2ef4:	0000                	unimp
    2ef6:	6000                	flw	fs0,0(s0)
    2ef8:	000c                	addi	a1,sp,0
    2efa:	2e00                	fld	fs0,24(a2)
    2efc:	0f30                	addi	a2,sp,920
    2efe:	0000                	unimp
    2f00:	1a8a                	slli	s5,s5,0x22
    2f02:	0000                	unimp
    2f04:	3c2e                	fld	fs8,232(sp)
    2f06:	9d00000f          	0x9d00000f
    2f0a:	001a                	0x1a
    2f0c:	2d00                	fld	fs0,24(a0)
    2f0e:	0f48                	addi	a0,sp,916
    2f10:	0000                	unimp
    2f12:	542e                	lw	s0,232(sp)
    2f14:	c100000f          	0xc100000f
    2f18:	001a                	0x1a
    2f1a:	2e00                	fld	fs0,24(a2)
    2f1c:	0f60                	addi	s0,sp,924
    2f1e:	0000                	unimp
    2f20:	1ad4                	addi	a3,sp,372
    2f22:	0000                	unimp
    2f24:	6c2e                	flw	fs8,200(sp)
    2f26:	f200000f          	0xf200000f
    2f2a:	001a                	0x1a
    2f2c:	2e00                	fld	fs0,24(a2)
    2f2e:	0f78                	addi	a4,sp,924
    2f30:	0000                	unimp
    2f32:	1b10                	addi	a2,sp,432
    2f34:	0000                	unimp
    2f36:	2f00                	fld	fs0,24(a4)
    2f38:	0f85                	addi	t6,t6,1
    2f3a:	0000                	unimp
    2f3c:	01e0                	addi	s0,sp,204
    2f3e:	0000                	unimp
    2f40:	0c80                	addi	s0,sp,592
    2f42:	0000                	unimp
    2f44:	8a2e                	mv	s4,a1
    2f46:	2e00000f          	0x2e00000f
    2f4a:	2e00001b          	0x2e00001b
    2f4e:	0f96                	slli	t6,t6,0x5
    2f50:	0000                	unimp
    2f52:	1b4c                	addi	a1,sp,436
    2f54:	0000                	unimp
    2f56:	3000                	fld	fs0,32(s0)
    2f58:	0ffd                	addi	t6,t6,31
    2f5a:	0000                	unimp
    2f5c:	21d0                	fld	fa2,128(a1)
    2f5e:	0000                	unimp
    2f60:	0074                	addi	a3,sp,12
    2f62:	0000                	unimp
    2f64:	0cd1                	addi	s9,s9,20
    2f66:	0000                	unimp
    2f68:	022e                	slli	tp,tp,0xb
    2f6a:	0010                	addi	a2,sp,0
    2f6c:	6a00                	flw	fs0,16(a2)
    2f6e:	2e00001b          	0x2e00001b
    2f72:	100e                	0x100e
    2f74:	0000                	unimp
    2f76:	1b7d                	addi	s6,s6,-1
    2f78:	0000                	unimp
    2f7a:	1a2e                	slli	s4,s4,0x2b
    2f7c:	0010                	addi	a2,sp,0
    2f7e:	a100                	fsd	fs0,0(a0)
    2f80:	2e00001b          	0x2e00001b
    2f84:	1026                	0x1026
    2f86:	0000                	unimp
    2f88:	1bb4                	addi	a3,sp,504
    2f8a:	0000                	unimp
    2f8c:	322e                	fld	ft4,232(sp)
    2f8e:	0010                	addi	a2,sp,0
    2f90:	c700                	sw	s0,8(a4)
    2f92:	2e00001b          	0x2e00001b
    2f96:	103e                	0x103e
    2f98:	0000                	unimp
    2f9a:	1bf0                	addi	a2,sp,508
    2f9c:	0000                	unimp
    2f9e:	4a2e                	lw	s4,200(sp)
    2fa0:	0010                	addi	a2,sp,0
    2fa2:	0e00                	addi	s0,sp,784
    2fa4:	001c                	addi	a5,sp,0
    2fa6:	0000                	unimp
    2fa8:	000fa32f          	amoadd.w	t1,zero,(t6)
    2fac:	f800                	fsw	fs0,48(s0)
    2fae:	0001                	nop
    2fb0:	1e00                	addi	s0,sp,816
    2fb2:	000d                	c.addi	zero,3
    2fb4:	2e00                	fld	fs0,24(a2)
    2fb6:	0fa8                	addi	a0,sp,984
    2fb8:	0000                	unimp
    2fba:	1c2c                	addi	a1,sp,568
    2fbc:	0000                	unimp
    2fbe:	b42e                	fsd	fa1,40(sp)
    2fc0:	3f00000f          	0x3f00000f
    2fc4:	001c                	addi	a5,sp,0
    2fc6:	2e00                	fld	fs0,24(a2)
    2fc8:	0fc0                	addi	s0,sp,980
    2fca:	0000                	unimp
    2fcc:	00001c63          	bnez	zero,2fe4 <impure_data+0x1d4>
    2fd0:	cc2e                	sw	a1,24(sp)
    2fd2:	7600000f          	0x7600000f
    2fd6:	001c                	addi	a5,sp,0
    2fd8:	2e00                	fld	fs0,24(a2)
    2fda:	0fd8                	addi	a4,sp,980
    2fdc:	0000                	unimp
    2fde:	1c89                	addi	s9,s9,-30
    2fe0:	0000                	unimp
    2fe2:	e42e                	fsw	fa1,8(sp)
    2fe4:	b200000f          	0xb200000f
    2fe8:	001c                	addi	a5,sp,0
    2fea:	2e00                	fld	fs0,24(a2)
    2fec:	0ff0                	addi	a2,sp,988
    2fee:	0000                	unimp
    2ff0:	1cd0                	addi	a2,sp,628
    2ff2:	0000                	unimp
    2ff4:	2f00                	fld	fs0,24(a4)
    2ff6:	00001057          	0x1057
    2ffa:	0210                	addi	a2,sp,256
    2ffc:	0000                	unimp
    2ffe:	0d3e                	slli	s10,s10,0xf
    3000:	0000                	unimp
    3002:	5c2e                	lw	s8,232(sp)
    3004:	0010                	addi	a2,sp,0
    3006:	ee00                	fsw	fs0,24(a2)
    3008:	001c                	addi	a5,sp,0
    300a:	2e00                	fld	fs0,24(a2)
    300c:	1068                	addi	a0,sp,44
    300e:	0000                	unimp
    3010:	1d01                	addi	s10,s10,-32
    3012:	0000                	unimp
    3014:	3000                	fld	fs0,32(s0)
    3016:	1075                	c.addi	zero,-3
    3018:	0000                	unimp
    301a:	2328                	fld	fa0,64(a4)
    301c:	0000                	unimp
    301e:	0010                	addi	a2,sp,0
    3020:	0000                	unimp
    3022:	0d59                	addi	s10,s10,22
    3024:	0000                	unimp
    3026:	7a2e                	flw	fs4,232(sp)
    3028:	0010                	addi	a2,sp,0
    302a:	1f00                	addi	s0,sp,944
    302c:	001d                	c.addi	zero,7
    302e:	0000                	unimp
    3030:	8731                	srai	a4,a4,0xc
    3032:	0010                	addi	a2,sp,0
    3034:	5800                	lw	s0,48(s0)
    3036:	50000023          	sb	zero,1280(zero) # 500 <vprintfmt.constprop.2+0xe6>
    303a:	0001                	nop
    303c:	2e00                	fld	fs0,24(a2)
    303e:	1088                	addi	a0,sp,96
    3040:	0000                	unimp
    3042:	1d32                	slli	s10,s10,0x2c
    3044:	0000                	unimp
    3046:	932e                	add	t1,t1,a1
    3048:	0010                	addi	a2,sp,0
    304a:	5000                	lw	s0,32(s0)
    304c:	001d                	c.addi	zero,7
    304e:	2f00                	fld	fs0,24(a4)
    3050:	109e                	slli	ra,ra,0x27
    3052:	0000                	unimp
    3054:	0228                	addi	a0,sp,264
    3056:	0000                	unimp
    3058:	0dc5                	addi	s11,s11,17
    305a:	0000                	unimp
    305c:	a32e                	fsd	fa1,384(sp)
    305e:	0010                	addi	a2,sp,0
    3060:	7900                	flw	fs0,48(a0)
    3062:	001d                	c.addi	zero,7
    3064:	2e00                	fld	fs0,24(a2)
    3066:	000010af          	0x10af
    306a:	00001d9b          	0x1d9b
    306e:	bb2e                	fsd	fa1,432(sp)
    3070:	0010                	addi	a2,sp,0
    3072:	bf00                	fsd	fs0,56(a4)
    3074:	001d                	c.addi	zero,7
    3076:	2e00                	fld	fs0,24(a2)
    3078:	000010c7          	fmsub.s	ft1,ft0,ft0,ft0,rtz
    307c:	1ddd                	addi	s11,s11,-9
    307e:	0000                	unimp
    3080:	d32e                	sw	a1,164(sp)
    3082:	0010                	addi	a2,sp,0
    3084:	fb00                	fsw	fs0,48(a4)
    3086:	001d                	c.addi	zero,7
    3088:	2e00                	fld	fs0,24(a2)
    308a:	10df 0000 1e37      	0x1e37000010df
    3090:	0000                	unimp
    3092:	eb2e                	fsw	fa1,148(sp)
    3094:	0010                	addi	a2,sp,0
    3096:	7400                	flw	fs0,40(s0)
    3098:	001e                	0x1e
    309a:	0000                	unimp
    309c:	0010f82f          	0x10f82f
    30a0:	5000                	lw	s0,32(s0)
    30a2:	0002                	0x2
    30a4:	1900                	addi	s0,sp,176
    30a6:	000e                	0xe
    30a8:	2e00                	fld	fs0,24(a2)
    30aa:	10fd                	addi	ra,ra,-1
    30ac:	0000                	unimp
    30ae:	1e92                	slli	t4,t4,0x24
    30b0:	0000                	unimp
    30b2:	092e                	slli	s2,s2,0xb
    30b4:	0011                	c.addi	zero,4
    30b6:	a500                	fsd	fs0,8(a0)
    30b8:	001e                	0x1e
    30ba:	2e00                	fld	fs0,24(a2)
    30bc:	1115                	addi	sp,sp,-27
    30be:	0000                	unimp
    30c0:	1eb8                	addi	a4,sp,888
    30c2:	0000                	unimp
    30c4:	212e                	fld	ft2,200(sp)
    30c6:	0011                	c.addi	zero,4
    30c8:	cb00                	sw	s0,16(a4)
    30ca:	001e                	0x1e
    30cc:	2e00                	fld	fs0,24(a2)
    30ce:	112d                	addi	sp,sp,-21
    30d0:	0000                	unimp
    30d2:	1ede                	slli	t4,t4,0x37
    30d4:	0000                	unimp
    30d6:	392e                	fld	fs2,232(sp)
    30d8:	0011                	c.addi	zero,4
    30da:	f100                	fsw	fs0,32(a0)
    30dc:	001e                	0x1e
    30de:	2e00                	fld	fs0,24(a2)
    30e0:	1145                	addi	sp,sp,-15
    30e2:	0000                	unimp
    30e4:	1f24                	addi	s1,sp,952
    30e6:	0000                	unimp
    30e8:	5132                	lw	sp,44(sp)
    30ea:	0011                	c.addi	zero,4
    30ec:	0100                	addi	s0,sp,128
    30ee:	0060                	addi	s0,sp,12
    30f0:	5e30                	lw	a2,120(a2)
    30f2:	0011                	c.addi	zero,4
    30f4:	7400                	flw	fs0,40(s0)
    30f6:	0024                	addi	s1,sp,8
    30f8:	1400                	addi	s0,sp,544
    30fa:	0000                	unimp
    30fc:	3400                	fld	fs0,40(s0)
    30fe:	000e                	0xe
    3100:	2e00                	fld	fs0,24(a2)
    3102:	00001163          	bnez	zero,3104 <impure_data+0x2f4>
    3106:	00001f37          	lui	t5,0x1
    310a:	3100                	fld	fs0,32(a0)
    310c:	1170                	addi	a2,sp,172
    310e:	0000                	unimp
    3110:	2488                	fld	fa0,8(s1)
    3112:	0000                	unimp
    3114:	0010                	addi	a2,sp,0
    3116:	0000                	unimp
    3118:	712e                	flw	ft2,232(sp)
    311a:	0011                	c.addi	zero,4
    311c:	4a00                	lw	s0,16(a2)
    311e:	001f 0000 0000      	0x1f
    3124:	0000                	unimp
    3126:	00063e33          	sltu	t3,a2,zero
    312a:	0100                	addi	s0,sp,128
    312c:	03f6                	slli	t2,t2,0x1d
    312e:	00000a67          	jalr	s4,zero
    3132:	00118003          	lb	zero,1(gp) # 3bc1 <__global_pointer$+0x1>
    3136:	3400                	fld	fs0,40(s0)
    3138:	006e                	0x6e
    313a:	f601                	bnez	a2,3042 <impure_data+0x232>
    313c:	000a6703          	0xa6703
    3140:	3400                	fld	fs0,40(s0)
    3142:	0064                	addi	s1,sp,12
    3144:	f601                	bnez	a2,304c <impure_data+0x23c>
    3146:	000a6703          	0xa6703
    314a:	3400                	fld	fs0,40(s0)
    314c:	7072                	flw	ft0,60(sp)
    314e:	0100                	addi	s0,sp,128
    3150:	03f6                	slli	t2,t2,0x1d
    3152:	1180                	addi	s0,sp,224
    3154:	0000                	unimp
    3156:	6e35                	lui	t3,0xd
    3158:	006e                	0x6e
    315a:	f801                	bnez	s0,306a <impure_data+0x25a>
    315c:	000ae803          	0xae803
    3160:	3500                	fld	fs0,40(a0)
    3162:	6464                	flw	fs1,76(s0)
    3164:	0100                	addi	s0,sp,128
    3166:	03f9                	addi	t2,t2,30
    3168:	0ae8                	addi	a0,sp,348
    316a:	0000                	unimp
    316c:	7235                	lui	tp,0xfffed
    316e:	0072                	0x72
    3170:	fa01                	bnez	a2,3080 <impure_data+0x270>
    3172:	000adc03          	lhu	s8,0(s5)
    3176:	3500                	fld	fs0,40(a0)
    3178:	3064                	fld	fs1,224(s0)
    317a:	0100                	addi	s0,sp,128
    317c:	0a5103fb          	0xa5103fb
    3180:	0000                	unimp
    3182:	6435                	lui	s0,0xd
    3184:	0031                	c.addi	zero,12
    3186:	fb01                	bnez	a4,3096 <impure_data+0x286>
    3188:	000a5103          	lhu	sp,0(s4)
    318c:	3500                	fld	fs0,40(a0)
    318e:	306e                	fld	ft0,248(sp)
    3190:	0100                	addi	s0,sp,128
    3192:	0a5103fb          	0xa5103fb
    3196:	0000                	unimp
    3198:	6e35                	lui	t3,0xd
    319a:	0031                	c.addi	zero,12
    319c:	fb01                	bnez	a4,30ac <impure_data+0x29c>
    319e:	000a5103          	lhu	sp,0(s4)
    31a2:	3500                	fld	fs0,40(a0)
    31a4:	326e                	fld	ft4,248(sp)
    31a6:	0100                	addi	s0,sp,128
    31a8:	0a5103fb          	0xa5103fb
    31ac:	0000                	unimp
    31ae:	7135                	addi	sp,sp,-160
    31b0:	0030                	addi	a2,sp,8
    31b2:	fc01                	bnez	s0,30ca <impure_data+0x2ba>
    31b4:	000a5103          	lhu	sp,0(s4)
    31b8:	3500                	fld	fs0,40(a0)
    31ba:	3171                	jal	2e46 <impure_data+0x36>
    31bc:	0100                	addi	s0,sp,128
    31be:	03fc                	addi	a5,sp,460
    31c0:	0a51                	addi	s4,s4,20
    31c2:	0000                	unimp
    31c4:	6235                	lui	tp,0xd
    31c6:	0100                	addi	s0,sp,128
    31c8:	03fd                	addi	t2,t2,31
    31ca:	0a51                	addi	s4,s4,20
    31cc:	0000                	unimp
    31ce:	6235                	lui	tp,0xd
    31d0:	006d                	c.addi	zero,27
    31d2:	fd01                	bnez	a0,30ea <impure_data+0x2da>
    31d4:	000a5103          	lhu	sp,0(s4)
    31d8:	3500                	fld	fs0,40(a0)
    31da:	01007777          	0x1007777
    31de:	04c6                	slli	s1,s1,0x11
    31e0:	0ae8                	addi	a0,sp,348
    31e2:	0000                	unimp
    31e4:	2b36                	fld	fs6,328(sp)
    31e6:	3700000f          	0x3700000f
    31ea:	000006bf 51042d01 	0x51042d01000006bf
    31f2:	000a                	0xa
    31f4:	3500                	fld	fs0,40(a0)
    31f6:	5f5f 0061 2d01      	0x2d0100615f5f
    31fc:	5104                	lw	s1,32(a0)
    31fe:	000a                	0xa
    3200:	0000                	unimp
    3202:	8536                	mv	a0,a3
    3204:	3700000f          	0x3700000f
    3208:	013e                	slli	sp,sp,0xf
    320a:	0000                	unimp
    320c:	3901                	jal	2e1c <impure_data+0xc>
    320e:	5104                	lw	s1,32(a0)
    3210:	000a                	0xa
    3212:	3700                	fld	fs0,40(a4)
    3214:	0139                	addi	sp,sp,14
    3216:	0000                	unimp
    3218:	3901                	jal	2e28 <impure_data+0x18>
    321a:	5104                	lw	s1,32(a0)
    321c:	000a                	0xa
    321e:	3700                	fld	fs0,40(a4)
    3220:	0672                	slli	a2,a2,0x1c
    3222:	0000                	unimp
    3224:	3901                	jal	2e34 <impure_data+0x24>
    3226:	5104                	lw	s1,32(a0)
    3228:	000a                	0xa
    322a:	3700                	fld	fs0,40(a4)
    322c:	066d                	addi	a2,a2,27
    322e:	0000                	unimp
    3230:	3901                	jal	2e40 <impure_data+0x30>
    3232:	5104                	lw	s1,32(a0)
    3234:	000a                	0xa
    3236:	3700                	fld	fs0,40(a4)
    3238:	073d                	addi	a4,a4,15
    323a:	0000                	unimp
    323c:	3901                	jal	2e4c <impure_data+0x3c>
    323e:	5104                	lw	s1,32(a0)
    3240:	000a                	0xa
    3242:	3700                	fld	fs0,40(a4)
    3244:	0738                	addi	a4,sp,904
    3246:	0000                	unimp
    3248:	3901                	jal	2e58 <impure_data+0x48>
    324a:	5104                	lw	s1,32(a0)
    324c:	000a                	0xa
    324e:	3500                	fld	fs0,40(a0)
    3250:	5f5f 006d 3901      	0x3901006d5f5f
    3256:	5104                	lw	s1,32(a0)
    3258:	000a                	0xa
    325a:	0000                	unimp
    325c:	a336                	fsd	fa3,384(sp)
    325e:	3700000f          	0x3700000f
    3262:	000006bf 51044501 	0x51044501000006bf
    326a:	000a                	0xa
    326c:	3500                	fld	fs0,40(a0)
    326e:	5f5f 0061 4501      	0x450100615f5f
    3274:	5104                	lw	s1,32(a0)
    3276:	000a                	0xa
    3278:	0000                	unimp
    327a:	fd36                	fsw	fa3,184(sp)
    327c:	3700000f          	0x3700000f
    3280:	013e                	slli	sp,sp,0xf
    3282:	0000                	unimp
    3284:	5e01                	li	t3,-32
    3286:	5104                	lw	s1,32(a0)
    3288:	000a                	0xa
    328a:	3700                	fld	fs0,40(a4)
    328c:	0139                	addi	sp,sp,14
    328e:	0000                	unimp
    3290:	5e01                	li	t3,-32
    3292:	5104                	lw	s1,32(a0)
    3294:	000a                	0xa
    3296:	3700                	fld	fs0,40(a4)
    3298:	0672                	slli	a2,a2,0x1c
    329a:	0000                	unimp
    329c:	5e01                	li	t3,-32
    329e:	5104                	lw	s1,32(a0)
    32a0:	000a                	0xa
    32a2:	3700                	fld	fs0,40(a4)
    32a4:	066d                	addi	a2,a2,27
    32a6:	0000                	unimp
    32a8:	5e01                	li	t3,-32
    32aa:	5104                	lw	s1,32(a0)
    32ac:	000a                	0xa
    32ae:	3700                	fld	fs0,40(a4)
    32b0:	073d                	addi	a4,a4,15
    32b2:	0000                	unimp
    32b4:	5e01                	li	t3,-32
    32b6:	5104                	lw	s1,32(a0)
    32b8:	000a                	0xa
    32ba:	3700                	fld	fs0,40(a4)
    32bc:	0738                	addi	a4,sp,904
    32be:	0000                	unimp
    32c0:	5e01                	li	t3,-32
    32c2:	5104                	lw	s1,32(a0)
    32c4:	000a                	0xa
    32c6:	3500                	fld	fs0,40(a0)
    32c8:	5f5f 006d 5e01      	0x5e01006d5f5f
    32ce:	5104                	lw	s1,32(a0)
    32d0:	000a                	0xa
    32d2:	0000                	unimp
    32d4:	5736                	lw	a4,108(sp)
    32d6:	0010                	addi	a2,sp,0
    32d8:	3700                	fld	fs0,40(a4)
    32da:	013e                	slli	sp,sp,0xf
    32dc:	0000                	unimp
    32de:	6301                	lui	t1,0x0
    32e0:	5104                	lw	s1,32(a0)
    32e2:	000a                	0xa
    32e4:	3700                	fld	fs0,40(a4)
    32e6:	0139                	addi	sp,sp,14
    32e8:	0000                	unimp
    32ea:	6301                	lui	t1,0x0
    32ec:	5104                	lw	s1,32(a0)
    32ee:	000a                	0xa
    32f0:	3700                	fld	fs0,40(a4)
    32f2:	0672                	slli	a2,a2,0x1c
    32f4:	0000                	unimp
    32f6:	6301                	lui	t1,0x0
    32f8:	5104                	lw	s1,32(a0)
    32fa:	000a                	0xa
    32fc:	3700                	fld	fs0,40(a4)
    32fe:	066d                	addi	a2,a2,27
    3300:	0000                	unimp
    3302:	6301                	lui	t1,0x0
    3304:	5104                	lw	s1,32(a0)
    3306:	000a                	0xa
    3308:	3700                	fld	fs0,40(a4)
    330a:	073d                	addi	a4,a4,15
    330c:	0000                	unimp
    330e:	6301                	lui	t1,0x0
    3310:	5104                	lw	s1,32(a0)
    3312:	000a                	0xa
    3314:	3700                	fld	fs0,40(a4)
    3316:	0738                	addi	a4,sp,904
    3318:	0000                	unimp
    331a:	6301                	lui	t1,0x0
    331c:	5104                	lw	s1,32(a0)
    331e:	000a                	0xa
    3320:	3500                	fld	fs0,40(a0)
    3322:	5f5f 006d 6301      	0x6301006d5f5f
    3328:	5104                	lw	s1,32(a0)
    332a:	000a                	0xa
    332c:	0000                	unimp
    332e:	7536                	flw	fa0,108(sp)
    3330:	0010                	addi	a2,sp,0
    3332:	3700                	fld	fs0,40(a4)
    3334:	000006bf 51048601 	0x51048601000006bf
    333c:	000a                	0xa
    333e:	3500                	fld	fs0,40(a0)
    3340:	5f5f 0061 8601      	0x860100615f5f
    3346:	5104                	lw	s1,32(a0)
    3348:	000a                	0xa
    334a:	0000                	unimp
    334c:	8736                	mv	a4,a3
    334e:	0010                	addi	a2,sp,0
    3350:	3500                	fld	fs0,40(a0)
    3352:	5f5f 0078 9401      	0x940100785f5f
    3358:	5104                	lw	s1,32(a0)
    335a:	000a                	0xa
    335c:	0000                	unimp
    335e:	3538                	fld	fa4,104(a0)
    3360:	316d                	jal	300a <impure_data+0x1fa>
    3362:	0100                	addi	s0,sp,128
    3364:	04a4                	addi	s1,sp,584
    3366:	0a51                	addi	s4,s4,20
    3368:	0000                	unimp
    336a:	6d35                	lui	s10,0xd
    336c:	0030                	addi	a2,sp,8
    336e:	a401                	j	356e <Arr_2_Glob+0x12>
    3370:	5104                	lw	s1,32(a0)
    3372:	000a                	0xa
    3374:	3600                	fld	fs0,40(a2)
    3376:	10f8                	addi	a4,sp,108
    3378:	0000                	unimp
    337a:	00013e37          	lui	t3,0x13
    337e:	0100                	addi	s0,sp,128
    3380:	0a5104af          	0xa5104af
    3384:	0000                	unimp
    3386:	00013937          	lui	s2,0x13
    338a:	0100                	addi	s0,sp,128
    338c:	0a5104af          	0xa5104af
    3390:	0000                	unimp
    3392:	00067237          	lui	tp,0x67
    3396:	0100                	addi	s0,sp,128
    3398:	0a5104af          	0xa5104af
    339c:	0000                	unimp
    339e:	00066d37          	lui	s10,0x66
    33a2:	0100                	addi	s0,sp,128
    33a4:	0a5104af          	0xa5104af
    33a8:	0000                	unimp
    33aa:	00073d37          	lui	s10,0x73
    33ae:	0100                	addi	s0,sp,128
    33b0:	0a5104af          	0xa5104af
    33b4:	0000                	unimp
    33b6:	00073837          	lui	a6,0x73
    33ba:	0100                	addi	s0,sp,128
    33bc:	0a5104af          	0xa5104af
    33c0:	0000                	unimp
    33c2:	5f35                	li	t5,-19
    33c4:	6d5f 0100 04af      	0x4af01006d5f
    33ca:	0a51                	addi	s4,s4,20
    33cc:	0000                	unimp
    33ce:	3600                	fld	fs0,40(a2)
    33d0:	115e                	slli	sp,sp,0x37
    33d2:	0000                	unimp
    33d4:	00060537          	lui	a0,0x60
    33d8:	0100                	addi	s0,sp,128
    33da:	04b0                	addi	a2,sp,584
    33dc:	0a51                	addi	s4,s4,20
    33de:	0000                	unimp
    33e0:	00060a37          	lui	s4,0x60
    33e4:	0100                	addi	s0,sp,128
    33e6:	04b0                	addi	a2,sp,584
    33e8:	0a51                	addi	s4,s4,20
    33ea:	0000                	unimp
    33ec:	00060f37          	lui	t5,0x60
    33f0:	0100                	addi	s0,sp,128
    33f2:	04b0                	addi	a2,sp,584
    33f4:	0a51                	addi	s4,s4,20
    33f6:	0000                	unimp
    33f8:	00061437          	lui	s0,0x61
    33fc:	0100                	addi	s0,sp,128
    33fe:	04b0                	addi	a2,sp,584
    3400:	0a51                	addi	s4,s4,20
    3402:	0000                	unimp
    3404:	00045a37          	lui	s4,0x45
    3408:	0100                	addi	s0,sp,128
    340a:	04b0                	addi	a2,sp,584
    340c:	0a51                	addi	s4,s4,20
    340e:	0000                	unimp
    3410:	00051d37          	lui	s10,0x51
    3414:	0100                	addi	s0,sp,128
    3416:	04b0                	addi	a2,sp,584
    3418:	0a51                	addi	s4,s4,20
    341a:	0000                	unimp
    341c:	00044f37          	lui	t5,0x44
    3420:	0100                	addi	s0,sp,128
    3422:	04b0                	addi	a2,sp,584
    3424:	0a51                	addi	s4,s4,20
    3426:	0000                	unimp
    3428:	00051837          	lui	a6,0x51
    342c:	0100                	addi	s0,sp,128
    342e:	04b0                	addi	a2,sp,584
    3430:	0a51                	addi	s4,s4,20
    3432:	0000                	unimp
    3434:	3600                	fld	fs0,40(a2)
    3436:	1170                	addi	a2,sp,172
    3438:	0000                	unimp
    343a:	5f35                	li	t5,-19
    343c:	785f 0100 04b5      	0x4b50100785f
    3442:	0a51                	addi	s4,s4,20
    3444:	0000                	unimp
    3446:	3800                	fld	fs0,48(s0)
    3448:	5f35                	li	t5,-19
    344a:	785f 0100 04bd      	0x4bd0100785f
    3450:	0a51                	addi	s4,s4,20
    3452:	0000                	unimp
    3454:	0000                	unimp
    3456:	0f00                	addi	s0,sp,912
    3458:	6704                	flw	fs1,8(a4)
    345a:	000a                	0xa
    345c:	0000                	unimp
    345e:	0a99                	addi	s5,s5,6
    3460:	0000                	unimp
    3462:	0004                	addi	s1,sp,0
    3464:	07f1                	addi	a5,a5,28
    3466:	0000                	unimp
    3468:	0104                	addi	s1,sp,128
    346a:	07e2                	slli	a5,a5,0x18
    346c:	0000                	unimp
    346e:	a30c                	fsd	fa1,0(a4)
    3470:	0001                	nop
    3472:	2c00                	fld	fs0,24(s0)
    3474:	0002                	0x2
    3476:	5100                	lw	s0,32(a0)
    3478:	000c                	addi	a1,sp,0
    347a:	0200                	addi	s0,sp,256
    347c:	0504                	addi	s1,sp,640
    347e:	6e69                	lui	t3,0x1a
    3480:	0074                	addi	a3,sp,12
    3482:	d0070403          	lb	s0,-768(a4) # d00 <main+0x23c>
    3486:	03000003          	lb	zero,48(zero) # 30 <CL_SIZE+0x10>
    348a:	0508                	addi	a0,sp,640
    348c:	02e0                	addi	s0,sp,332
    348e:	0000                	unimp
    3490:	5b041003          	lh	zero,1456(s0) # 615b0 <__C_STACK_TOP__+0x515b0>
    3494:	0001                	nop
    3496:	0300                	addi	s0,sp,384
    3498:	0601                	addi	a2,a2,0
    349a:	0696                	slli	a3,a3,0x5
    349c:	0000                	unimp
    349e:	94080103          	lb	sp,-1728(a6) # 50940 <__C_STACK_TOP__+0x40940>
    34a2:	0006                	0x6
    34a4:	0300                	addi	s0,sp,384
    34a6:	0502                	slli	a0,a0,0x0
    34a8:	0000                	unimp
    34aa:	0000                	unimp
    34ac:	e6070203          	lb	tp,-416(a4)
    34b0:	03000003          	lb	zero,48(zero) # 30 <CL_SIZE+0x10>
    34b4:	0504                	addi	s1,sp,640
    34b6:	02e5                	addi	t0,t0,25
    34b8:	0000                	unimp
    34ba:	cb070403          	lb	s0,-848(a4)
    34be:	03000003          	lb	zero,48(zero) # 30 <CL_SIZE+0x10>
    34c2:	0708                	addi	a0,sp,896
    34c4:	03c6                	slli	t2,t2,0x11
    34c6:	0000                	unimp
    34c8:	4104                	lw	s1,0(a0)
    34ca:	0005                	c.addi	zero,1
    34cc:	0100                	addi	s0,sp,128
    34ce:	00001d07          	0x1d07
    34d2:	0400                	addi	s0,sp,512
    34d4:	0511                	addi	a0,a0,4
    34d6:	0000                	unimp
    34d8:	2c02                	fld	fs8,0(sp)
    34da:	0055                	c.addi	zero,21
    34dc:	0000                	unimp
    34de:	2704                	fld	fs1,8(a4)
    34e0:	0006                	0x6
    34e2:	0200                	addi	s0,sp,256
    34e4:	5572                	lw	a0,60(sp)
    34e6:	0000                	unimp
    34e8:	0400                	addi	s0,sp,512
    34ea:	06fe                	slli	a3,a3,0x1f
    34ec:	0000                	unimp
    34ee:	9102                	jalr	sp
    34f0:	001d                	c.addi	zero,7
    34f2:	0000                	unimp
    34f4:	4205                	li	tp,1
    34f6:	0004                	addi	s1,sp,0
    34f8:	0300                	addi	s0,sp,384
    34fa:	0165                	addi	sp,sp,25
    34fc:	0024                	addi	s1,sp,8
    34fe:	0000                	unimp
    3500:	0406                	slli	s0,s0,0x1
    3502:	a602                	fsd	ft0,264(sp)
    3504:	00c1                	addi	ra,ra,16
    3506:	0000                	unimp
    3508:	00042d07          	flw	fs10,0(s0)
    350c:	0200                	addi	s0,sp,256
    350e:	96a8                	0x96a8
    3510:	0000                	unimp
    3512:	0700                	addi	s0,sp,896
    3514:	0398                	addi	a4,sp,448
    3516:	0000                	unimp
    3518:	a902                	fsd	ft0,144(sp)
    351a:	00c1                	addi	ra,ra,16
    351c:	0000                	unimp
    351e:	0800                	addi	s0,sp,16
    3520:	0040                	addi	s0,sp,4
    3522:	0000                	unimp
    3524:	00d1                	addi	ra,ra,20
    3526:	0000                	unimp
    3528:	2409                	jal	372a <Arr_2_Glob+0x1ce>
    352a:	0000                	unimp
    352c:	0300                	addi	s0,sp,384
    352e:	0a00                	addi	s0,sp,272
    3530:	0208                	addi	a0,sp,256
    3532:	0000f2a3          	0xf2a3
    3536:	0b00                	addi	s0,sp,400
    3538:	0488                	addi	a0,sp,576
    353a:	0000                	unimp
    353c:	a502                	fsd	ft0,136(sp)
    353e:	001d                	c.addi	zero,7
    3540:	0000                	unimp
    3542:	0b00                	addi	s0,sp,400
    3544:	0619                	addi	a2,a2,6
    3546:	0000                	unimp
    3548:	aa02                	fsd	ft0,272(sp)
    354a:	00a2                	slli	ra,ra,0x8
    354c:	0000                	unimp
    354e:	0004                	addi	s1,sp,0
    3550:	3604                	fld	fs1,40(a2)
    3552:	0005                	c.addi	zero,1
    3554:	0200                	addi	s0,sp,256
    3556:	0000d1ab          	0xd1ab
    355a:	0400                	addi	s0,sp,512
    355c:	0590                	addi	a2,sp,704
    355e:	0000                	unimp
    3560:	af02                	fsd	ft0,408(sp)
    3562:	006a                	0x6a
    3564:	0000                	unimp
    3566:	040c                	addi	a1,sp,512
    3568:	a704                	fsd	fs1,8(a4)
    356a:	0006                	0x6
    356c:	0400                	addi	s0,sp,512
    356e:	5c16                	lw	s8,100(sp)
    3570:	0000                	unimp
    3572:	0d00                	addi	s0,sp,656
    3574:	04c1                	addi	s1,s1,16
    3576:	0000                	unimp
    3578:	0418                	addi	a4,sp,512
    357a:	0001682f          	0x1682f
    357e:	0b00                	addi	s0,sp,400
    3580:	07c0                	addi	s0,sp,964
    3582:	0000                	unimp
    3584:	3104                	fld	fs1,32(a0)
    3586:	0168                	addi	a0,sp,140
    3588:	0000                	unimp
    358a:	0e00                	addi	s0,sp,784
    358c:	6b5f 0400 1d32      	0x1d3204006b5f
    3592:	0000                	unimp
    3594:	0400                	addi	s0,sp,512
    3596:	0005f60b          	0x5f60b
    359a:	0400                	addi	s0,sp,512
    359c:	1d32                	slli	s10,s10,0x2c
    359e:	0000                	unimp
    35a0:	0800                	addi	s0,sp,16
    35a2:	00033c0b          	0x33c0b
    35a6:	0400                	addi	s0,sp,512
    35a8:	1d32                	slli	s10,s10,0x2c
    35aa:	0000                	unimp
    35ac:	0c00                	addi	s0,sp,528
    35ae:	0002c20b          	0x2c20b
    35b2:	0400                	addi	s0,sp,512
    35b4:	1d32                	slli	s10,s10,0x2c
    35b6:	0000                	unimp
    35b8:	1000                	addi	s0,sp,32
    35ba:	5f0e                	lw	t5,224(sp)
    35bc:	0078                	addi	a4,sp,12
    35be:	3304                	fld	fs1,32(a4)
    35c0:	016e                	slli	sp,sp,0x1b
    35c2:	0000                	unimp
    35c4:	0014                	addi	a3,sp,0
    35c6:	0115040f          	0x115040f
    35ca:	0000                	unimp
    35cc:	0a08                	addi	a0,sp,272
    35ce:	0001                	nop
    35d0:	7e00                	flw	fs0,56(a2)
    35d2:	0001                	nop
    35d4:	0900                	addi	s0,sp,144
    35d6:	0024                	addi	s1,sp,8
    35d8:	0000                	unimp
    35da:	0000                	unimp
    35dc:	7b0d                	lui	s6,0xfffe3
    35de:	24000003          	lb	zero,576(zero) # 240 <_start+0x40>
    35e2:	3704                	fld	fs1,40(a4)
    35e4:	000001f7          	0x1f7
    35e8:	0001930b          	0x1930b
    35ec:	0400                	addi	s0,sp,512
    35ee:	1d39                	addi	s10,s10,-18
    35f0:	0000                	unimp
    35f2:	0000                	unimp
    35f4:	00075c0b          	0x75c0b
    35f8:	0400                	addi	s0,sp,512
    35fa:	1d3a                	slli	s10,s10,0x2e
    35fc:	0000                	unimp
    35fe:	0400                	addi	s0,sp,512
    3600:	0002010b          	0x2010b
    3604:	0400                	addi	s0,sp,512
    3606:	00001d3b          	0x1d3b
    360a:	0800                	addi	s0,sp,16
    360c:	0007b10b          	0x7b10b
    3610:	0400                	addi	s0,sp,512
    3612:	1d3c                	addi	a5,sp,696
    3614:	0000                	unimp
    3616:	0c00                	addi	s0,sp,528
    3618:	0004eb0b          	0x4eb0b
    361c:	0400                	addi	s0,sp,512
    361e:	1d3d                	addi	s10,s10,-17
    3620:	0000                	unimp
    3622:	1000                	addi	s0,sp,32
    3624:	00047e0b          	0x47e0b
    3628:	0400                	addi	s0,sp,512
    362a:	1d3e                	slli	s10,s10,0x2f
    362c:	0000                	unimp
    362e:	1400                	addi	s0,sp,544
    3630:	0006e70b          	0x6e70b
    3634:	0400                	addi	s0,sp,512
    3636:	00001d3f 980b1800 	0x980b180000001d3f
    363e:	04000007          	0x4000007
    3642:	1d40                	addi	s0,sp,692
    3644:	0000                	unimp
    3646:	1c00                	addi	s0,sp,560
    3648:	0007420b          	0x7420b
    364c:	0400                	addi	s0,sp,512
    364e:	1d41                	addi	s10,s10,-16
    3650:	0000                	unimp
    3652:	2000                	fld	fs0,0(s0)
    3654:	1000                	addi	s0,sp,32
    3656:	021e                	slli	tp,tp,0x7
    3658:	0000                	unimp
    365a:	0108                	addi	a0,sp,128
    365c:	4a04                	lw	s1,16(a2)
    365e:	00000237          	lui	tp,0x0
    3662:	00032f0b          	0x32f0b
    3666:	0400                	addi	s0,sp,512
    3668:	0002374b          	fnmsub.s	fa4,ft4,ft0,ft0,rup
    366c:	0000                	unimp
    366e:	00056c0b          	0x56c0b
    3672:	0400                	addi	s0,sp,512
    3674:	374c                	fld	fa1,168(a4)
    3676:	0002                	0x2
    3678:	8000                	0x8000
    367a:	8b11                	andi	a4,a4,4
    367c:	0006                	0x6
    367e:	0400                	addi	s0,sp,512
    3680:	0a4e                	slli	s4,s4,0x13
    3682:	0001                	nop
    3684:	0000                	unimp
    3686:	1101                	addi	sp,sp,-32
    3688:	02ba                	slli	t0,t0,0xe
    368a:	0000                	unimp
    368c:	5104                	lw	s1,32(a0)
    368e:	010a                	slli	sp,sp,0x2
    3690:	0000                	unimp
    3692:	0104                	addi	s1,sp,128
    3694:	0800                	addi	s0,sp,16
    3696:	0108                	addi	a0,sp,128
    3698:	0000                	unimp
    369a:	00000247          	fmsub.s	ft4,ft0,ft0,ft0,rne
    369e:	2409                	jal	38a0 <Arr_2_Glob+0x344>
    36a0:	0000                	unimp
    36a2:	1f00                	addi	s0,sp,944
    36a4:	1000                	addi	s0,sp,32
    36a6:	04f4                	addi	a3,sp,588
    36a8:	0000                	unimp
    36aa:	0190                	addi	a2,sp,192
    36ac:	5d04                	lw	s1,56(a0)
    36ae:	0285                	addi	t0,t0,1
    36b0:	0000                	unimp
    36b2:	0007c00b          	0x7c00b
    36b6:	0400                	addi	s0,sp,512
    36b8:	855e                	mv	a0,s7
    36ba:	0002                	0x2
    36bc:	0000                	unimp
    36be:	0005df0b          	0x5df0b
    36c2:	0400                	addi	s0,sp,512
    36c4:	1d5f 0000 0400      	0x40000001d5f
    36ca:	0003370b          	0x3370b
    36ce:	0400                	addi	s0,sp,512
    36d0:	8b61                	andi	a4,a4,24
    36d2:	0002                	0x2
    36d4:	0800                	addi	s0,sp,16
    36d6:	00021e0b          	0x21e0b
    36da:	0400                	addi	s0,sp,512
    36dc:	f762                	fsw	fs8,172(sp)
    36de:	0001                	nop
    36e0:	8800                	0x8800
    36e2:	0f00                	addi	s0,sp,912
    36e4:	4704                	lw	s1,8(a4)
    36e6:	0002                	0x2
    36e8:	0800                	addi	s0,sp,16
    36ea:	0000029b          	0x29b
    36ee:	0000029b          	0x29b
    36f2:	2409                	jal	38f4 <Arr_2_Glob+0x398>
    36f4:	0000                	unimp
    36f6:	1f00                	addi	s0,sp,944
    36f8:	0f00                	addi	s0,sp,912
    36fa:	a104                	fsd	fs1,0(a0)
    36fc:	0002                	0x2
    36fe:	1200                	addi	s0,sp,288
    3700:	aa0d                	j	3832 <Arr_2_Glob+0x2d6>
    3702:	08000007          	0x8000007
    3706:	7504                	flw	fs1,40(a0)
    3708:	000002c7          	fmsub.s	ft5,ft0,ft0,ft0,rne
    370c:	0001fb0b          	0x1fb0b
    3710:	0400                	addi	s0,sp,512
    3712:	c776                	sw	t4,140(sp)
    3714:	0002                	0x2
    3716:	0000                	unimp
    3718:	0006380b          	0x6380b
    371c:	0400                	addi	s0,sp,512
    371e:	00001d77          	0x1d77
    3722:	0400                	addi	s0,sp,512
    3724:	0f00                	addi	s0,sp,912
    3726:	4004                	lw	s1,0(s0)
    3728:	0000                	unimp
    372a:	0d00                	addi	s0,sp,656
    372c:	000005bb          	0x5bb
    3730:	0468                	addi	a0,sp,524
    3732:	f7b5                	bnez	a5,369e <Arr_2_Glob+0x142>
    3734:	0e000003          	lb	zero,224(zero) # e0 <buflen.1776+0xa0>
    3738:	705f 0400 c7b6      	0xc7b60400705f
    373e:	0002                	0x2
    3740:	0000                	unimp
    3742:	5f0e                	lw	t5,224(sp)
    3744:	0072                	0x72
    3746:	b704                	fsd	fs1,40(a4)
    3748:	001d                	c.addi	zero,7
    374a:	0000                	unimp
    374c:	0e04                	addi	s1,sp,784
    374e:	775f 0400 1db8      	0x1db80400775f
    3754:	0000                	unimp
    3756:	0800                	addi	s0,sp,16
    3758:	0002b30b          	0x2b30b
    375c:	0400                	addi	s0,sp,512
    375e:	47b9                	li	a5,14
    3760:	0000                	unimp
    3762:	0c00                	addi	s0,sp,528
    3764:	0003a70b          	0x3a70b
    3768:	0400                	addi	s0,sp,512
    376a:	47ba                	lw	a5,140(sp)
    376c:	0000                	unimp
    376e:	0e00                	addi	s0,sp,784
    3770:	5f0e                	lw	t5,224(sp)
    3772:	6662                	flw	fa2,24(sp)
    3774:	0400                	addi	s0,sp,512
    3776:	0002a2bb          	0x2a2bb
    377a:	1000                	addi	s0,sp,32
    377c:	0001430b          	0x1430b
    3780:	0400                	addi	s0,sp,512
    3782:	1dbc                	addi	a5,sp,760
    3784:	0000                	unimp
    3786:	1800                	addi	s0,sp,48
    3788:	0002a30b          	0x2a30b
    378c:	0400                	addi	s0,sp,512
    378e:	000108c3          	fmadd.s	fa7,ft2,ft0,ft0,rne
    3792:	1c00                	addi	s0,sp,560
    3794:	0005530b          	0x5530b
    3798:	0400                	addi	s0,sp,512
    379a:	64c5                	lui	s1,0x11
    379c:	0005                	c.addi	zero,1
    379e:	2000                	fld	fs0,0(s0)
    37a0:	0004770b          	0x4770b
    37a4:	0400                	addi	s0,sp,512
    37a6:	000593c7          	fmsub.s	ft7,fa1,ft0,ft0,rtz
    37aa:	2400                	fld	fs0,8(s0)
    37ac:	0006210b          	0x6210b
    37b0:	0400                	addi	s0,sp,512
    37b2:	b7ca                	fsd	fs2,488(sp)
    37b4:	0005                	c.addi	zero,1
    37b6:	2800                	fld	fs0,16(s0)
    37b8:	00019c0b          	0x19c0b
    37bc:	0400                	addi	s0,sp,512
    37be:	0005d1cb          	fnmsub.s	ft3,fa1,ft0,ft0,unknown
    37c2:	2c00                	fld	fs0,24(s0)
    37c4:	5f0e                	lw	t5,224(sp)
    37c6:	6275                	lui	tp,0x1d
    37c8:	0400                	addi	s0,sp,512
    37ca:	a2ce                	fsd	fs3,320(sp)
    37cc:	0002                	0x2
    37ce:	3000                	fld	fs0,32(s0)
    37d0:	5f0e                	lw	t5,224(sp)
    37d2:	7075                	0x7075
    37d4:	0400                	addi	s0,sp,512
    37d6:	0002c7cf          	fnmadd.s	fa5,ft5,ft0,ft0,rmm
    37da:	3800                	fld	fs0,48(s0)
    37dc:	5f0e                	lw	t5,224(sp)
    37de:	7275                	lui	tp,0xffffd
    37e0:	0400                	addi	s0,sp,512
    37e2:	1dd0                	addi	a2,sp,756
    37e4:	0000                	unimp
    37e6:	3c00                	fld	fs0,56(s0)
    37e8:	0001f50b          	0x1f50b
    37ec:	0400                	addi	s0,sp,512
    37ee:	0005d7d3          	fadd.s	fa5,fa1,ft0,unknown
    37f2:	4000                	lw	s0,0(s0)
    37f4:	00072a0b          	0x72a0b
    37f8:	0400                	addi	s0,sp,512
    37fa:	e7d4                	fsw	fa3,12(a5)
    37fc:	0005                	c.addi	zero,1
    37fe:	4300                	lw	s0,0(a4)
    3800:	5f0e                	lw	t5,224(sp)
    3802:	626c                	flw	fa1,68(a2)
    3804:	0400                	addi	s0,sp,512
    3806:	0002a2d7          	0x2a2d7
    380a:	4400                	lw	s0,8(s0)
    380c:	00062f0b          	0x62f0b
    3810:	0400                	addi	s0,sp,512
    3812:	1dda                	slli	s11,s11,0x36
    3814:	0000                	unimp
    3816:	4c00                	lw	s0,24(s0)
    3818:	0004b90b          	0x4b90b
    381c:	0400                	addi	s0,sp,512
    381e:	000075db          	0x75db
    3822:	5000                	lw	s0,32(s0)
    3824:	0000550b          	0x550b
    3828:	0400                	addi	s0,sp,512
    382a:	15de                	slli	a1,a1,0x37
    382c:	0004                	addi	s1,sp,0
    382e:	5400                	lw	s0,40(s0)
    3830:	0004490b          	0x4490b
    3834:	0400                	addi	s0,sp,512
    3836:	fde2                	fsw	fs8,248(sp)
    3838:	0000                	unimp
    383a:	5800                	lw	s0,48(s0)
    383c:	00038f0b          	0x38f0b
    3840:	0400                	addi	s0,sp,512
    3842:	f2e4                	fsw	fs1,100(a3)
    3844:	0000                	unimp
    3846:	5c00                	lw	s0,56(s0)
    3848:	0005990b          	0x5990b
    384c:	0400                	addi	s0,sp,512
    384e:	1de5                	addi	s11,s11,-7
    3850:	0000                	unimp
    3852:	6400                	flw	fs0,8(s0)
    3854:	1300                	addi	s0,sp,416
    3856:	0000008b          	0x8b
    385a:	0415                	addi	s0,s0,5
    385c:	0000                	unimp
    385e:	1514                	addi	a3,sp,672
    3860:	0004                	addi	s1,sp,0
    3862:	1400                	addi	s0,sp,544
    3864:	0108                	addi	a0,sp,128
    3866:	0000                	unimp
    3868:	5214                	lw	a3,32(a2)
    386a:	0005                	c.addi	zero,1
    386c:	1400                	addi	s0,sp,544
    386e:	001d                	c.addi	zero,7
    3870:	0000                	unimp
    3872:	0f00                	addi	s0,sp,912
    3874:	2004                	fld	fs1,0(s0)
    3876:	0004                	addi	s1,sp,0
    3878:	1500                	addi	s0,sp,672
    387a:	0415                	addi	s0,s0,5
    387c:	0000                	unimp
    387e:	fe16                	fsw	ft5,60(sp)
    3880:	0005                	c.addi	zero,1
    3882:	2800                	fld	fs0,16(s0)
    3884:	0404                	addi	s1,sp,512
    3886:	0239                	addi	tp,tp,14
    3888:	0552                	slli	a0,a0,0x14
    388a:	0000                	unimp
    388c:	00058917          	auipc	s2,0x58
    3890:	0400                	addi	s0,sp,512
    3892:	001d023b          	0x1d023b
    3896:	0000                	unimp
    3898:	1700                	addi	s0,sp,928
    389a:	000006f7          	0x6f7
    389e:	4004                	lw	s1,0(s0)
    38a0:	3e02                	fld	ft8,32(sp)
    38a2:	0006                	0x6
    38a4:	0400                	addi	s0,sp,512
    38a6:	0006df17          	auipc	t5,0x6d
    38aa:	0400                	addi	s0,sp,512
    38ac:	0240                	addi	s0,sp,260
    38ae:	063e                	slli	a2,a2,0xf
    38b0:	0000                	unimp
    38b2:	1708                	addi	a0,sp,928
    38b4:	0342                	slli	t1,t1,0x10
    38b6:	0000                	unimp
    38b8:	4004                	lw	s1,0(s0)
    38ba:	3e02                	fld	ft8,32(sp)
    38bc:	0006                	0x6
    38be:	0c00                	addi	s0,sp,528
    38c0:	0005da17          	auipc	s4,0x5d
    38c4:	0400                	addi	s0,sp,512
    38c6:	0242                	slli	tp,tp,0x10
    38c8:	001d                	c.addi	zero,7
    38ca:	0000                	unimp
    38cc:	1710                	addi	a2,sp,928
    38ce:	0024                	addi	s1,sp,8
    38d0:	0000                	unimp
    38d2:	4304                	lw	s1,0(a4)
    38d4:	2002                	fld	ft0,0(sp)
    38d6:	0008                	addi	a0,sp,0
    38d8:	1400                	addi	s0,sp,544
    38da:	00036217          	auipc	tp,0x36
    38de:	0400                	addi	s0,sp,512
    38e0:	0246                	slli	tp,tp,0x11
    38e2:	001d                	c.addi	zero,7
    38e4:	0000                	unimp
    38e6:	1730                	addi	a2,sp,936
    38e8:	05e4                	addi	s1,sp,716
    38ea:	0000                	unimp
    38ec:	4704                	lw	s1,8(a4)
    38ee:	3502                	fld	fa0,32(sp)
    38f0:	0008                	addi	a0,sp,0
    38f2:	3400                	fld	fs0,40(s0)
    38f4:	00050617          	auipc	a2,0x50
    38f8:	0400                	addi	s0,sp,512
    38fa:	0249                	addi	tp,tp,18
    38fc:	001d                	c.addi	zero,7
    38fe:	0000                	unimp
    3900:	1738                	addi	a4,sp,936
    3902:	05ec                	addi	a1,sp,716
    3904:	0000                	unimp
    3906:	4b04                	lw	s1,16(a4)
    3908:	4602                	lw	a2,0(sp)
    390a:	0008                	addi	a0,sp,0
    390c:	3c00                	fld	fs0,56(s0)
    390e:	00042517          	auipc	a0,0x42
    3912:	0400                	addi	s0,sp,512
    3914:	024e                	slli	tp,tp,0x13
    3916:	0168                	addi	a0,sp,140
    3918:	0000                	unimp
    391a:	1740                	addi	s0,sp,932
    391c:	02ce                	slli	t0,t0,0x13
    391e:	0000                	unimp
    3920:	4f04                	lw	s1,24(a4)
    3922:	1d02                	slli	s10,s10,0x20
    3924:	0000                	unimp
    3926:	4400                	lw	s0,8(s0)
    3928:	00079317          	auipc	t1,0x79
    392c:	0400                	addi	s0,sp,512
    392e:	0250                	addi	a2,sp,260
    3930:	0168                	addi	a0,sp,140
    3932:	0000                	unimp
    3934:	1748                	addi	a0,sp,932
    3936:	0522                	slli	a0,a0,0x8
    3938:	0000                	unimp
    393a:	5104                	lw	s1,32(a0)
    393c:	4c02                	lw	s8,0(sp)
    393e:	0008                	addi	a0,sp,0
    3940:	4c00                	lw	s0,24(s0)
    3942:	00039f17          	auipc	t5,0x39
    3946:	0400                	addi	s0,sp,512
    3948:	0254                	addi	a3,sp,260
    394a:	001d                	c.addi	zero,7
    394c:	0000                	unimp
    394e:	1750                	addi	a2,sp,932
    3950:	000002fb          	0x2fb
    3954:	5504                	lw	s1,40(a0)
    3956:	5202                	lw	tp,32(sp)
    3958:	0005                	c.addi	zero,1
    395a:	5400                	lw	s0,40(s0)
    395c:	00058217          	auipc	tp,0x58
    3960:	0400                	addi	s0,sp,512
    3962:	0278                	addi	a4,sp,268
    3964:	07fe                	slli	a5,a5,0x1f
    3966:	0000                	unimp
    3968:	1858                	addi	a4,sp,52
    396a:	04f4                	addi	a3,sp,588
    396c:	0000                	unimp
    396e:	7c04                	flw	fs1,56(s0)
    3970:	8502                	jr	a0
    3972:	0002                	0x2
    3974:	4800                	lw	s0,16(s0)
    3976:	1801                	addi	a6,a6,-32
    3978:	00000403          	lb	s0,0(zero) # 0 <buf.1775>
    397c:	7d04                	flw	fs1,56(a0)
    397e:	4702                	lw	a4,0(sp)
    3980:	0002                	0x2
    3982:	4c00                	lw	s0,24(s0)
    3984:	1801                	addi	a6,a6,-32
    3986:	0711                	addi	a4,a4,4
    3988:	0000                	unimp
    398a:	8104                	0x8104
    398c:	5d02                	lw	s10,32(sp)
    398e:	0008                	addi	a0,sp,0
    3990:	dc00                	sw	s0,56(s0)
    3992:	1802                	slli	a6,a6,0x20
    3994:	000002ab          	0x2ab
    3998:	8604                	0x8604
    399a:	0302                	slli	t1,t1,0x0
    399c:	0006                	0x6
    399e:	e000                	fsw	fs0,0(s0)
    39a0:	1802                	slli	a6,a6,0x20
    39a2:	0219                	addi	tp,tp,6
    39a4:	0000                	unimp
    39a6:	8704                	0x8704
    39a8:	6902                	flw	fs2,0(sp)
    39aa:	0008                	addi	a0,sp,0
    39ac:	ec00                	fsw	fs0,24(s0)
    39ae:	0002                	0x2
    39b0:	0558040f          	0x558040f
    39b4:	0000                	unimp
    39b6:	9d080103          	lb	sp,-1584(a6)
    39ba:	0006                	0x6
    39bc:	1500                	addi	s0,sp,672
    39be:	0558                	addi	a4,sp,644
    39c0:	0000                	unimp
    39c2:	03f7040f          	0x3f7040f
    39c6:	0000                	unimp
    39c8:	00008b13          	mv	s6,ra
    39cc:	8800                	0x8800
    39ce:	0005                	c.addi	zero,1
    39d0:	1400                	addi	s0,sp,544
    39d2:	0415                	addi	s0,s0,5
    39d4:	0000                	unimp
    39d6:	0814                	addi	a3,sp,16
    39d8:	0001                	nop
    39da:	1400                	addi	s0,sp,544
    39dc:	0588                	addi	a0,sp,704
    39de:	0000                	unimp
    39e0:	1d14                	addi	a3,sp,688
    39e2:	0000                	unimp
    39e4:	0000                	unimp
    39e6:	055f040f          	0x55f040f
    39ea:	0000                	unimp
    39ec:	8815                	andi	s0,s0,5
    39ee:	0005                	c.addi	zero,1
    39f0:	0f00                	addi	s0,sp,912
    39f2:	6a04                	flw	fs1,16(a2)
    39f4:	0005                	c.addi	zero,1
    39f6:	1300                	addi	s0,sp,416
    39f8:	0080                	addi	s0,sp,64
    39fa:	0000                	unimp
    39fc:	000005b7          	lui	a1,0x0
    3a00:	1514                	addi	a3,sp,672
    3a02:	0004                	addi	s1,sp,0
    3a04:	1400                	addi	s0,sp,544
    3a06:	0108                	addi	a0,sp,128
    3a08:	0000                	unimp
    3a0a:	8014                	0x8014
    3a0c:	0000                	unimp
    3a0e:	1400                	addi	s0,sp,544
    3a10:	001d                	c.addi	zero,7
    3a12:	0000                	unimp
    3a14:	0f00                	addi	s0,sp,912
    3a16:	9904                	0x9904
    3a18:	0005                	c.addi	zero,1
    3a1a:	1300                	addi	s0,sp,416
    3a1c:	001d                	c.addi	zero,7
    3a1e:	0000                	unimp
    3a20:	05d1                	addi	a1,a1,20
    3a22:	0000                	unimp
    3a24:	1514                	addi	a3,sp,672
    3a26:	0004                	addi	s1,sp,0
    3a28:	1400                	addi	s0,sp,544
    3a2a:	0108                	addi	a0,sp,128
    3a2c:	0000                	unimp
    3a2e:	0f00                	addi	s0,sp,912
    3a30:	bd04                	fsd	fs1,56(a0)
    3a32:	0005                	c.addi	zero,1
    3a34:	0800                	addi	s0,sp,16
    3a36:	0040                	addi	s0,sp,4
    3a38:	0000                	unimp
    3a3a:	000005e7          	jalr	a1,zero
    3a3e:	2409                	jal	3c40 <__global_pointer$+0x80>
    3a40:	0000                	unimp
    3a42:	0200                	addi	s0,sp,256
    3a44:	0800                	addi	s0,sp,16
    3a46:	0040                	addi	s0,sp,4
    3a48:	0000                	unimp
    3a4a:	000005f7          	0x5f7
    3a4e:	2409                	jal	3c50 <__global_pointer$+0x90>
    3a50:	0000                	unimp
    3a52:	0000                	unimp
    3a54:	0500                	addi	s0,sp,640
    3a56:	000002c7          	fmsub.s	ft5,ft0,ft0,ft0,rne
    3a5a:	1f04                	addi	s1,sp,944
    3a5c:	cd01                	beqz	a0,3a74 <Arr_2_Glob+0x518>
    3a5e:	0002                	0x2
    3a60:	1900                	addi	s0,sp,176
    3a62:	06f1                	addi	a3,a3,28
    3a64:	0000                	unimp
    3a66:	040c                	addi	a1,sp,512
    3a68:	06380123          	sb	gp,98(a6)
    3a6c:	0000                	unimp
    3a6e:	0007c017          	auipc	zero,0x7c
    3a72:	0400                	addi	s0,sp,512
    3a74:	0125                	addi	sp,sp,9
    3a76:	0638                	addi	a4,sp,776
    3a78:	0000                	unimp
    3a7a:	1700                	addi	s0,sp,928
    3a7c:	000003bf 1d012604 	0x1d012604000003bf
    3a84:	0000                	unimp
    3a86:	0400                	addi	s0,sp,512
    3a88:	0005a117          	auipc	sp,0x5a
    3a8c:	0400                	addi	s0,sp,512
    3a8e:	063e0127          	0x63e0127
    3a92:	0000                	unimp
    3a94:	0008                	addi	a0,sp,0
    3a96:	0603040f          	0x603040f
    3a9a:	0000                	unimp
    3a9c:	05f7040f          	0x5f7040f
    3aa0:	0000                	unimp
    3aa2:	1c19                	addi	s8,s8,-26
    3aa4:	0000                	unimp
    3aa6:	0e00                	addi	s0,sp,784
    3aa8:	3f04                	fld	fs1,56(a4)
    3aaa:	7901                	lui	s2,0xfffe0
    3aac:	0006                	0x6
    3aae:	1700                	addi	s0,sp,928
    3ab0:	0000065b          	0x65b
    3ab4:	4004                	lw	s1,0(s0)
    3ab6:	7901                	lui	s2,0xfffe0
    3ab8:	0006                	0x6
    3aba:	0000                	unimp
    3abc:	00045417          	auipc	s0,0x45
    3ac0:	0400                	addi	s0,sp,512
    3ac2:	0141                	addi	sp,sp,16
    3ac4:	0679                	addi	a2,a2,30
    3ac6:	0000                	unimp
    3ac8:	1706                	slli	a4,a4,0x21
    3aca:	06a2                	slli	a3,a3,0x8
    3acc:	0000                	unimp
    3ace:	4204                	lw	s1,0(a2)
    3ad0:	4e01                	li	t3,0
    3ad2:	0000                	unimp
    3ad4:	0c00                	addi	s0,sp,528
    3ad6:	0800                	addi	s0,sp,16
    3ad8:	004e                	0x4e
    3ada:	0000                	unimp
    3adc:	0689                	addi	a3,a3,2
    3ade:	0000                	unimp
    3ae0:	2409                	jal	3ce2 <__global_pointer$+0x122>
    3ae2:	0000                	unimp
    3ae4:	0200                	addi	s0,sp,256
    3ae6:	1a00                	addi	s0,sp,304
    3ae8:	04d0                	addi	a2,sp,580
    3aea:	0259                	addi	tp,tp,22
    3aec:	078a                	slli	a5,a5,0x2
    3aee:	0000                	unimp
    3af0:	00049017          	auipc	zero,0x49
    3af4:	0400                	addi	s0,sp,512
    3af6:	0024025b          	0x24025b
    3afa:	0000                	unimp
    3afc:	1700                	addi	s0,sp,928
    3afe:	00000677          	0x677
    3b02:	5c04                	lw	s1,56(s0)
    3b04:	5202                	lw	tp,32(sp)
    3b06:	0005                	c.addi	zero,1
    3b08:	0400                	addi	s0,sp,512
    3b0a:	00041817          	auipc	a6,0x41
    3b0e:	0400                	addi	s0,sp,512
    3b10:	025d                	addi	tp,tp,23
    3b12:	078a                	slli	a5,a5,0x2
    3b14:	0000                	unimp
    3b16:	1708                	addi	a0,sp,928
    3b18:	074d                	addi	a4,a4,19
    3b1a:	0000                	unimp
    3b1c:	5e04                	lw	s1,56(a2)
    3b1e:	7e02                	flw	ft8,32(sp)
    3b20:	0001                	nop
    3b22:	2400                	fld	fs0,8(s0)
    3b24:	00034a17          	auipc	s4,0x34
    3b28:	0400                	addi	s0,sp,512
    3b2a:	025f 001d 0000      	0x1d025f
    3b30:	1748                	addi	a0,sp,932
    3b32:	000007bb          	0x7bb
    3b36:	6004                	flw	fs1,0(s0)
    3b38:	6302                	flw	ft6,0(sp)
    3b3a:	0000                	unimp
    3b3c:	5000                	lw	s0,32(s0)
    3b3e:	00076517          	auipc	a0,0x76
    3b42:	0400                	addi	s0,sp,512
    3b44:	0261                	addi	tp,tp,24
    3b46:	0644                	addi	s1,sp,772
    3b48:	0000                	unimp
    3b4a:	1758                	addi	a4,sp,932
    3b4c:	05cd                	addi	a1,a1,19
    3b4e:	0000                	unimp
    3b50:	6204                	flw	fs1,0(a2)
    3b52:	f202                	fsw	ft0,36(sp)
    3b54:	0000                	unimp
    3b56:	6800                	flw	fs0,16(s0)
    3b58:	00078517          	auipc	a0,0x78
    3b5c:	0400                	addi	s0,sp,512
    3b5e:	00f20263          	beq	tp,a5,3b62 <Arr_2_Glob+0x606>
    3b62:	0000                	unimp
    3b64:	1770                	addi	a2,sp,940
    3b66:	0000020b          	0x20b
    3b6a:	6404                	flw	fs1,8(s0)
    3b6c:	f202                	fsw	ft0,36(sp)
    3b6e:	0000                	unimp
    3b70:	7800                	flw	fs0,48(s0)
    3b72:	00070717          	auipc	a4,0x70
    3b76:	0400                	addi	s0,sp,512
    3b78:	0265                	addi	tp,tp,25
    3b7a:	079a                	slli	a5,a5,0x6
    3b7c:	0000                	unimp
    3b7e:	1780                	addi	s0,sp,992
    3b80:	040c                	addi	a1,sp,512
    3b82:	0000                	unimp
    3b84:	6604                	flw	fs1,8(a2)
    3b86:	aa02                	fsd	ft0,272(sp)
    3b88:	88000007          	0x88000007
    3b8c:	00004817          	auipc	a6,0x4
    3b90:	0400                	addi	s0,sp,512
    3b92:	001d0267          	jalr	tp,1(s10) # 51001 <__C_STACK_TOP__+0x41001>
    3b96:	0000                	unimp
    3b98:	17a0                	addi	s0,sp,1000
    3b9a:	0314                	addi	a3,sp,384
    3b9c:	0000                	unimp
    3b9e:	6804                	flw	fs1,16(s0)
    3ba0:	f202                	fsw	ft0,36(sp)
    3ba2:	0000                	unimp
    3ba4:	a400                	fsd	fs0,8(s0)
    3ba6:	00017c17          	auipc	s8,0x17
    3baa:	0400                	addi	s0,sp,512
    3bac:	0269                	addi	tp,tp,26
    3bae:	00f2                	slli	ra,ra,0x1c
    3bb0:	0000                	unimp
    3bb2:	17ac                	addi	a1,sp,1000
    3bb4:	00000303          	lb	t1,0(zero) # 4caf0 <__C_STACK_TOP__+0x3caf0>
    3bb8:	6a04                	flw	fs1,16(a2)
    3bba:	f202                	fsw	ft0,36(sp)
    3bbc:	0000                	unimp
    3bbe:	b400                	fsd	fs0,40(s0)
    3bc0:	00005b17          	auipc	s6,0x5
    3bc4:	0400                	addi	s0,sp,512
    3bc6:	00f2026b          	0xf2026b
    3bca:	0000                	unimp
    3bcc:	17bc                	addi	a5,sp,1000
    3bce:	0128                	addi	a0,sp,136
    3bd0:	0000                	unimp
    3bd2:	6c04                	flw	fs1,24(s0)
    3bd4:	f202                	fsw	ft0,36(sp)
    3bd6:	0000                	unimp
    3bd8:	c400                	sw	s0,8(s0)
    3bda:	00058717          	auipc	a4,0x58
    3bde:	0400                	addi	s0,sp,512
    3be0:	026d                	addi	tp,tp,27
    3be2:	001d                	c.addi	zero,7
    3be4:	0000                	unimp
    3be6:	00cc                	addi	a1,sp,68
    3be8:	5808                	lw	a0,48(s0)
    3bea:	0005                	c.addi	zero,1
    3bec:	9a00                	0x9a00
    3bee:	09000007          	0x9000007
    3bf2:	0024                	addi	s1,sp,8
    3bf4:	0000                	unimp
    3bf6:	0019                	c.addi	zero,6
    3bf8:	5808                	lw	a0,48(s0)
    3bfa:	0005                	c.addi	zero,1
    3bfc:	aa00                	fsd	fs0,16(a2)
    3bfe:	09000007          	0x9000007
    3c02:	0024                	addi	s1,sp,8
    3c04:	0000                	unimp
    3c06:	58080007          	0x58080007
    3c0a:	0005                	c.addi	zero,1
    3c0c:	ba00                	fsd	fs0,48(a2)
    3c0e:	09000007          	0x9000007
    3c12:	0024                	addi	s1,sp,8
    3c14:	0000                	unimp
    3c16:	f01a0017          	auipc	zero,0xf01a0
    3c1a:	7204                	flw	fs1,32(a2)
    3c1c:	de02                	sw	zero,60(sp)
    3c1e:	17000007          	0x17000007
    3c22:	00000433          	add	s0,zero,zero
    3c26:	7504                	flw	fs1,40(a0)
    3c28:	de02                	sw	zero,60(sp)
    3c2a:	00000007          	0x7
    3c2e:	00035917          	auipc	s2,0x35
    3c32:	0400                	addi	s0,sp,512
    3c34:	0276                	slli	tp,tp,0x1d
    3c36:	07ee                	slli	a5,a5,0x1b
    3c38:	0000                	unimp
    3c3a:	0078                	addi	a4,sp,12
    3c3c:	c708                	sw	a0,8(a4)
    3c3e:	0002                	0x2
    3c40:	ee00                	fsw	fs0,24(a2)
    3c42:	09000007          	0x9000007
    3c46:	0024                	addi	s1,sp,8
    3c48:	0000                	unimp
    3c4a:	001d                	c.addi	zero,7
    3c4c:	2408                	fld	fa0,8(s0)
    3c4e:	0000                	unimp
    3c50:	fe00                	fsw	fs0,56(a2)
    3c52:	09000007          	0x9000007
    3c56:	0024                	addi	s1,sp,8
    3c58:	0000                	unimp
    3c5a:	001d                	c.addi	zero,7
    3c5c:	5704f01b          	0x5704f01b
    3c60:	2002                	fld	ft0,0(sp)
    3c62:	0008                	addi	a0,sp,0
    3c64:	1c00                	addi	s0,sp,560
    3c66:	05fe                	slli	a1,a1,0x1f
    3c68:	0000                	unimp
    3c6a:	6e04                	flw	fs1,24(a2)
    3c6c:	8902                	jr	s2
    3c6e:	0006                	0x6
    3c70:	1c00                	addi	s0,sp,560
    3c72:	0730                	addi	a2,sp,904
    3c74:	0000                	unimp
    3c76:	7704                	flw	fs1,40(a4)
    3c78:	ba02                	fsd	ft0,304(sp)
    3c7a:	00000007          	0x7
    3c7e:	5808                	lw	a0,48(s0)
    3c80:	0005                	c.addi	zero,1
    3c82:	3000                	fld	fs0,32(s0)
    3c84:	0008                	addi	a0,sp,0
    3c86:	0900                	addi	s0,sp,144
    3c88:	0024                	addi	s1,sp,8
    3c8a:	0000                	unimp
    3c8c:	0018                	addi	a4,sp,0
    3c8e:	711d                	addi	sp,sp,-96
    3c90:	0001                	nop
    3c92:	0f00                	addi	s0,sp,912
    3c94:	3004                	fld	fs1,32(s0)
    3c96:	0008                	addi	a0,sp,0
    3c98:	1e00                	addi	s0,sp,816
    3c9a:	0846                	slli	a6,a6,0x11
    3c9c:	0000                	unimp
    3c9e:	1514                	addi	a3,sp,672
    3ca0:	0004                	addi	s1,sp,0
    3ca2:	0000                	unimp
    3ca4:	083b040f          	0x83b040f
    3ca8:	0000                	unimp
    3caa:	0168040f          	0x168040f
    3cae:	0000                	unimp
    3cb0:	5d1e                	lw	s10,228(sp)
    3cb2:	0008                	addi	a0,sp,0
    3cb4:	1400                	addi	s0,sp,544
    3cb6:	001d                	c.addi	zero,7
    3cb8:	0000                	unimp
    3cba:	0f00                	addi	s0,sp,912
    3cbc:	6304                	flw	fs1,0(a4)
    3cbe:	0008                	addi	a0,sp,0
    3cc0:	0f00                	addi	s0,sp,912
    3cc2:	5204                	lw	s1,32(a2)
    3cc4:	0008                	addi	a0,sp,0
    3cc6:	0800                	addi	s0,sp,16
    3cc8:	000005f7          	0x5f7
    3ccc:	0879                	addi	a6,a6,30
    3cce:	0000                	unimp
    3cd0:	2409                	jal	3ed2 <__global_pointer$+0x312>
    3cd2:	0000                	unimp
    3cd4:	0200                	addi	s0,sp,256
    3cd6:	1f00                	addi	s0,sp,944
    3cd8:	000006cb          	fnmsub.s	fa3,ft0,ft0,ft0,rne
    3cdc:	fe04                	fsw	fs1,56(a2)
    3cde:	1502                	slli	a0,a0,0x20
    3ce0:	0004                	addi	s1,sp,0
    3ce2:	1f00                	addi	s0,sp,944
    3ce4:	06c4                	addi	s1,sp,836
    3ce6:	0000                	unimp
    3ce8:	ff04                	fsw	fs1,56(a4)
    3cea:	1b02                	slli	s6,s6,0x20
    3cec:	0004                	addi	s1,sp,0
    3cee:	0800                	addi	s0,sp,16
    3cf0:	058e                	slli	a1,a1,0x3
    3cf2:	0000                	unimp
    3cf4:	089c                	addi	a5,sp,80
    3cf6:	0000                	unimp
    3cf8:	0020                	addi	s0,sp,8
    3cfa:	9115                	srli	a0,a0,0x25
    3cfc:	0008                	addi	a0,sp,0
    3cfe:	2100                	fld	fs0,0(a0)
    3d00:	02ee                	slli	t0,t0,0x1b
    3d02:	0000                	unimp
    3d04:	1405                	addi	s0,s0,-31
    3d06:	089c                	addi	a5,sp,80
    3d08:	0000                	unimp
    3d0a:	c321                	beqz	a4,3d4a <__global_pointer$+0x18a>
    3d0c:	0005                	c.addi	zero,1
    3d0e:	0500                	addi	s0,sp,640
    3d10:	1d15                	addi	s10,s10,-27
    3d12:	0000                	unimp
    3d14:	0f00                	addi	s0,sp,912
    3d16:	bd04                	fsd	fs1,56(a0)
    3d18:	0008                	addi	a0,sp,0
    3d1a:	1300                	addi	s0,sp,416
    3d1c:	001d                	c.addi	zero,7
    3d1e:	0000                	unimp
    3d20:	08d1                	addi	a7,a7,20
    3d22:	0000                	unimp
    3d24:	d114                	sw	a3,32(a0)
    3d26:	0008                	addi	a0,sp,0
    3d28:	1400                	addi	s0,sp,544
    3d2a:	08d1                	addi	a7,a7,20
    3d2c:	0000                	unimp
    3d2e:	0f00                	addi	s0,sp,912
    3d30:	d704                	sw	s1,40(a4)
    3d32:	0008                	addi	a0,sp,0
    3d34:	2200                	fld	fs0,0(a2)
    3d36:	fc21                	bnez	s0,3c8e <__global_pointer$+0xce>
    3d38:	0004                	addi	s1,sp,0
    3d3a:	0600                	addi	s0,sp,768
    3d3c:	00055263          	bgez	a0,3d40 <__global_pointer$+0x180>
    3d40:	2100                	fld	fs0,0(a0)
    3d42:	043a                	slli	s0,s0,0xe
    3d44:	0000                	unimp
    3d46:	08ee1007          	0x8ee1007
    3d4a:	0000                	unimp
    3d4c:	0552040f          	0x552040f
    3d50:	0000                	unimp
    3d52:	ff21                	bnez	a4,3caa <__global_pointer$+0xea>
    3d54:	0004                	addi	s1,sp,0
    3d56:	0700                	addi	s0,sp,896
    3d58:	52e2                	lw	t0,56(sp)
    3d5a:	0005                	c.addi	zero,1
    3d5c:	2100                	fld	fs0,0(a0)
    3d5e:	014c                	addi	a1,sp,132
    3d60:	0000                	unimp
    3d62:	001de307          	0x1de307
    3d66:	0000                	unimp
    3d68:	6121                	addi	sp,sp,64
    3d6a:	0006                	0x6
    3d6c:	0700                	addi	s0,sp,896
    3d6e:	00001de3          	bnez	zero,4588 <__global_pointer$+0x9c8>
    3d72:	2100                	fld	fs0,0(a0)
    3d74:	0774                	addi	a3,sp,908
    3d76:	0000                	unimp
    3d78:	001de307          	0x1de307
    3d7c:	0000                	unimp
    3d7e:	6e21                	lui	t3,0x8
    3d80:	0004                	addi	s1,sp,0
    3d82:	0700                	addi	s0,sp,896
    3d84:	1de5                	addi	s11,s11,-7
    3d86:	0000                	unimp
    3d88:	2100                	fld	fs0,0(a0)
    3d8a:	052c                	addi	a1,sp,648
    3d8c:	0000                	unimp
    3d8e:	9a08                	0x9a08
    3d90:	0055                	c.addi	zero,21
    3d92:	0000                	unimp
    3d94:	2f21                	jal	44ac <__global_pointer$+0x8ec>
    3d96:	0000                	unimp
    3d98:	0800                	addi	s0,sp,16
    3d9a:	00001d9b          	0x1d9b
    3d9e:	0800                	addi	s0,sp,16
    3da0:	0552                	slli	a0,a0,0x14
    3da2:	0000                	unimp
    3da4:	0951                	addi	s2,s2,20
    3da6:	0000                	unimp
    3da8:	2409                	jal	3faa <__global_pointer$+0x3ea>
    3daa:	0000                	unimp
    3dac:	0100                	addi	s0,sp,128
    3dae:	2100                	fld	fs0,0(a0)
    3db0:	0000018b          	0x18b
    3db4:	9e08                	0x9e08
    3db6:	0941                	addi	s2,s2,16
    3db8:	0000                	unimp
    3dba:	ad04                	fsd	fs1,24(a0)
    3dbc:	09000003          	lb	zero,144(zero) # f01a3ca6 <__C_STACK_TOP__+0xf0193ca6>
    3dc0:	242a                	fld	fs0,136(sp)
    3dc2:	0000                	unimp
    3dc4:	0400                	addi	s0,sp,512
    3dc6:	05b1                	addi	a1,a1,12
    3dc8:	0000                	unimp
    3dca:	2f09                	jal	44dc <__global_pointer$+0x91c>
    3dcc:	0972                	slli	s2,s2,0x1c
    3dce:	0000                	unimp
    3dd0:	0978040f          	0x978040f
    3dd4:	0000                	unimp
    3dd6:	00095c13          	srli	s8,s2,0x0
    3dda:	8700                	0x8700
    3ddc:	0009                	c.addi	zero,2
    3dde:	1400                	addi	s0,sp,544
    3de0:	08d1                	addi	a7,a7,20
    3de2:	0000                	unimp
    3de4:	0400                	addi	s0,sp,512
    3de6:	07c6                	slli	a5,a5,0x11
    3de8:	0000                	unimp
    3dea:	3609                	jal	38ec <Arr_2_Glob+0x390>
    3dec:	000008b7          	lui	a7,0x0
    3df0:	0a21                	addi	s4,s4,8
    3df2:	0000                	unimp
    3df4:	0900                	addi	s0,sp,144
    3df6:	000967bb          	0x967bb
    3dfa:	2100                	fld	fs0,0(a0)
    3dfc:	000006af          	0x6af
    3e00:	be09                	j	3912 <Arr_2_Glob+0x3b6>
    3e02:	00000987          	0x987
    3e06:	00038023          	sb	zero,0(t2) # 0 <buf.1775>
    3e0a:	0700                	addi	s0,sp,896
    3e0c:	2404                	fld	fs1,8(s0)
    3e0e:	0000                	unimp
    3e10:	0a00                	addi	s0,sp,272
    3e12:	de18                	sw	a4,56(a2)
    3e14:	0009                	c.addi	zero,2
    3e16:	2400                	fld	fs0,8(s0)
    3e18:	0562                	slli	a0,a0,0x18
    3e1a:	0000                	unimp
    3e1c:	2400                	fld	fs0,8(s0)
    3e1e:	04d2                	slli	s1,s1,0x14
    3e20:	0000                	unimp
    3e22:	2401                	jal	4022 <__global_pointer$+0x462>
    3e24:	049d                	addi	s1,s1,7
    3e26:	0000                	unimp
    3e28:	2402                	fld	fs0,0(sp)
    3e2a:	0559                	addi	a0,a0,22
    3e2c:	0000                	unimp
    3e2e:	077b2403          	lw	s0,119(s6) # 8c37 <__BSS_END__+0x2fb7>
    3e32:	0000                	unimp
    3e34:	2404                	fld	fs1,8(s0)
    3e36:	076a                	slli	a4,a4,0x1a
    3e38:	0000                	unimp
    3e3a:	0005                	c.addi	zero,1
    3e3c:	6721                	lui	a4,0x8
    3e3e:	0001                	nop
    3e40:	0a00                	addi	s0,sp,272
    3e42:	a820                	fsd	fs0,80(s0)
    3e44:	0009                	c.addi	zero,2
    3e46:	2300                	fld	fs0,0(a4)
    3e48:	04a8                	addi	a0,sp,584
    3e4a:	0000                	unimp
    3e4c:	00240407          	0x240407
    3e50:	0000                	unimp
    3e52:	220a                	fld	ft4,128(sp)
    3e54:	0a0d                	addi	s4,s4,3
    3e56:	0000                	unimp
    3e58:	a724                	fsd	fs1,72(a4)
    3e5a:	0005                	c.addi	zero,1
    3e5c:	0000                	unimp
    3e5e:	7824                	flw	fs1,112(s0)
    3e60:	0005                	c.addi	zero,1
    3e62:	0100                	addi	s0,sp,128
    3e64:	8424                	0x8424
    3e66:	0006                	0x6
    3e68:	0200                	addi	s0,sp,256
    3e6a:	2100                	fld	fs0,0(a0)
    3e6c:	0322                	slli	t1,t1,0x8
    3e6e:	0000                	unimp
    3e70:	270a                	fld	fa4,128(sp)
    3e72:	09e9                	addi	s3,s3,26
    3e74:	0000                	unimp
    3e76:	5f21                	li	t5,-24
    3e78:	0004                	addi	s1,sp,0
    3e7a:	0b00                	addi	s0,sp,400
    3e7c:	9c25                	0x9c25
    3e7e:	0008                	addi	a0,sp,0
    3e80:	2100                	fld	fs0,0(a0)
    3e82:	0000064b          	fnmsub.s	fa2,ft0,ft0,ft0,rne
    3e86:	089c310b          	0x89c310b
    3e8a:	0000                	unimp
    3e8c:	a204                	fsd	fs1,0(a2)
    3e8e:	0c000007          	0xc000007
    3e92:	0000407b          	0x407b
    3e96:	1500                	addi	s0,sp,672
    3e98:	0a2e                	slli	s4,s4,0xb
    3e9a:	0000                	unimp
    3e9c:	e5040403          	lb	s0,-432(s0) # 4890c <__C_STACK_TOP__+0x3890c>
    3ea0:	0004                	addi	s1,sp,0
    3ea2:	0300                	addi	s0,sp,384
    3ea4:	0308                	addi	a0,sp,384
    3ea6:	04dd                	addi	s1,s1,23
    3ea8:	0000                	unimp
    3eaa:	60040803          	lb	a6,1536(s0)
    3eae:	0001                	nop
    3eb0:	0300                	addi	s0,sp,384
    3eb2:	0310                	addi	a2,sp,384
    3eb4:	0039                	c.addi	zero,14
    3eb6:	0000                	unimp
    3eb8:	53032003          	lw	zero,1328(t1) # 7ce58 <__C_STACK_TOP__+0x6ce58>
    3ebc:	0001                	nop
    3ebe:	0800                	addi	s0,sp,16
    3ec0:	0a39                	addi	s4,s4,14
    3ec2:	0000                	unimp
    3ec4:	0a71                	addi	s4,s4,28
    3ec6:	0000                	unimp
    3ec8:	2409                	jal	40ca <__global_pointer$+0x50a>
    3eca:	0000                	unimp
    3ecc:	ff00                	fsw	fs0,56(a4)
    3ece:	1500                	addi	s0,sp,672
    3ed0:	0a61                	addi	s4,s4,24
    3ed2:	0000                	unimp
    3ed4:	1b1f 0007 0c00      	0xc0000071b1f
    3eda:	01fc                	addi	a5,sp,204
    3edc:	0a71                	addi	s4,s4,28
    3ede:	0000                	unimp
    3ee0:	f91f 0003 0c00      	0xc000003f91f
    3ee6:	0202                	slli	tp,tp,0x0
    3ee8:	0a71                	addi	s4,s4,28
    3eea:	0000                	unimp
    3eec:	8225                	srli	a2,a2,0x9
    3eee:	000a                	0xa
    3ef0:	0d00                	addi	s0,sp,656
    3ef2:	02b1                	addi	t0,t0,12
    3ef4:	0305                	addi	t1,t1,1
    3ef6:	271c                	fld	fa5,8(a4)
    3ef8:	0000                	unimp
	...

Дизассемблирование раздела .debug_abbrev:

00000000 <.debug_abbrev>:
   0:	1101                	addi	sp,sp,-32
   2:	2501                	jal	602 <vprintfmt.constprop.2+0x1e8>
   4:	130e                	slli	t1,t1,0x23
   6:	1b0e030b          	0x1b0e030b
   a:	110e                	slli	sp,sp,0x23
   c:	1201                	addi	tp,tp,-32
   e:	1006                	0x1006
  10:	02000017          	auipc	zero,0x2000
  14:	0024                	addi	s1,sp,8
  16:	0b3e0b0b          	0xb3e0b0b
  1a:	00000e03          	lb	t3,0(zero) # 2000010 <__C_STACK_TOP__+0x1ff0010>
  1e:	0b002403          	lw	s0,176(zero) # b0 <buflen.1776+0x70>
  22:	030b3e0b          	0x30b3e0b
  26:	0008                	addi	a0,sp,0
  28:	0400                	addi	s0,sp,512
  2a:	0016                	0x16
  2c:	0b3a0e03          	lb	t3,179(s4) # 37bd7 <__C_STACK_TOP__+0x27bd7>
  30:	13490b3b          	0x13490b3b
  34:	0000                	unimp
  36:	1605                	addi	a2,a2,-31
  38:	0300                	addi	s0,sp,384
  3a:	3a0e                	fld	fs4,224(sp)
  3c:	49053b0b          	0x49053b0b
  40:	06000013          	li	zero,96
  44:	0b0b0117          	auipc	sp,0xb0b0
  48:	0b3a                	slli	s6,s6,0xe
  4a:	13010b3b          	0x13010b3b
  4e:	0000                	unimp
  50:	03000d07          	0x3000d07
  54:	3a0e                	fld	fs4,224(sp)
  56:	490b3b0b          	0x490b3b0b
  5a:	08000013          	li	zero,128
  5e:	0101                	addi	sp,sp,0
  60:	1349                	addi	t1,t1,-14
  62:	1301                	addi	t1,t1,-32
  64:	0000                	unimp
  66:	2109                	jal	468 <vprintfmt.constprop.2+0x4e>
  68:	4900                	lw	s0,16(a0)
  6a:	000b2f13          	slti	t5,s6,0
  6e:	0a00                	addi	s0,sp,272
  70:	0b0b0113          	addi	sp,s6,176
  74:	0b3a                	slli	s6,s6,0xe
  76:	13010b3b          	0x13010b3b
  7a:	0000                	unimp
  7c:	03000d0b          	0x3000d0b
  80:	3a0e                	fld	fs4,224(sp)
  82:	490b3b0b          	0x490b3b0b
  86:	000b3813          	sltiu	a6,s6,0
  8a:	0c00                	addi	s0,sp,528
  8c:	0b0b000f          	0xb0b000f
  90:	0000                	unimp
  92:	130d                	addi	t1,t1,-29
  94:	0301                	addi	t1,t1,0
  96:	0b0e                	slli	s6,s6,0x3
  98:	3b0b3a0b          	0x3b0b3a0b
  9c:	0013010b          	0x13010b
  a0:	0e00                	addi	s0,sp,784
  a2:	000d                	c.addi	zero,3
  a4:	0b3a0803          	lb	a6,179(s4)
  a8:	13490b3b          	0x13490b3b
  ac:	0b38                	addi	a4,sp,408
  ae:	0000                	unimp
  b0:	0b000f0f          	0xb000f0f
  b4:	0013490b          	0x13490b
  b8:	1000                	addi	s0,sp,32
  ba:	0e030113          	addi	sp,t1,224
  be:	0b3a050b          	0xb3a050b
  c2:	13010b3b          	0x13010b3b
  c6:	0000                	unimp
  c8:	0d11                	addi	s10,s10,4
  ca:	0300                	addi	s0,sp,384
  cc:	3a0e                	fld	fs4,224(sp)
  ce:	490b3b0b          	0x490b3b0b
  d2:	00053813          	sltiu	a6,a0,0
  d6:	1200                	addi	s0,sp,288
  d8:	0015                	c.addi	zero,5
  da:	00001927          	0x1927
  de:	27011513          	0x27011513
  e2:	4919                	li	s2,6
  e4:	00130113          	addi	sp,t1,1
  e8:	1400                	addi	s0,sp,544
  ea:	0005                	c.addi	zero,1
  ec:	1349                	addi	t1,t1,-14
  ee:	0000                	unimp
  f0:	2615                	jal	414 <STACK_SIZE+0x14>
  f2:	4900                	lw	s0,16(a0)
  f4:	16000013          	li	zero,352
  f8:	0e030113          	addi	sp,t1,224
  fc:	0b3a050b          	0xb3a050b
 100:	1301053b          	0x1301053b
 104:	0000                	unimp
 106:	03000d17          	auipc	s10,0x3000
 10a:	3a0e                	fld	fs4,224(sp)
 10c:	49053b0b          	0x49053b0b
 110:	000b3813          	sltiu	a6,s6,0
 114:	1800                	addi	s0,sp,48
 116:	000d                	c.addi	zero,3
 118:	0b3a0e03          	lb	t3,179(s4)
 11c:	1349053b          	0x1349053b
 120:	0538                	addi	a4,sp,648
 122:	0000                	unimp
 124:	1319                	addi	t1,t1,-26
 126:	0301                	addi	t1,t1,0
 128:	0b0e                	slli	s6,s6,0x3
 12a:	3b0b3a0b          	0x3b0b3a0b
 12e:	0105                	addi	sp,sp,1
 130:	1a000013          	li	zero,416
 134:	0b0b0113          	addi	sp,s6,176
 138:	0b3a                	slli	s6,s6,0xe
 13a:	1301053b          	0x1301053b
 13e:	0000                	unimp
 140:	0b01171b          	0xb01171b
 144:	3b0b3a0b          	0x3b0b3a0b
 148:	0105                	addi	sp,sp,1
 14a:	1c000013          	li	zero,448
 14e:	000d                	c.addi	zero,3
 150:	0b3a0e03          	lb	t3,179(s4)
 154:	1349053b          	0x1349053b
 158:	0000                	unimp
 15a:	131d                	addi	t1,t1,-25
 15c:	0300                	addi	s0,sp,384
 15e:	3c0e                	fld	fs8,224(sp)
 160:	0019                	c.addi	zero,6
 162:	1e00                	addi	s0,sp,816
 164:	0115                	addi	sp,sp,5
 166:	13011927          	0x13011927
 16a:	0000                	unimp
 16c:	341f 0300 3a0e      	0x3a0e0300341f
 172:	49053b0b          	0x49053b0b
 176:	3c193f13          	sltiu	t5,s2,961
 17a:	0019                	c.addi	zero,6
 17c:	2000                	fld	fs0,0(s0)
 17e:	0021                	c.addi	zero,8
 180:	0000                	unimp
 182:	3421                	jal	fffffb8a <__C_STACK_TOP__+0xfffefb8a>
 184:	0300                	addi	s0,sp,384
 186:	3a0e                	fld	fs4,224(sp)
 188:	490b3b0b          	0x490b3b0b
 18c:	3c193f13          	sltiu	t5,s2,961
 190:	0019                	c.addi	zero,6
 192:	2200                	fld	fs0,0(a2)
 194:	0026                	0x26
 196:	0000                	unimp
 198:	03010423          	sb	a6,40(sp) # b0b006c <__C_STACK_TOP__+0xb0a006c>
 19c:	3e0e                	fld	ft8,224(sp)
 19e:	490b0b0b          	0x490b0b0b
 1a2:	3b0b3a13          	sltiu	s4,s6,944
 1a6:	0013010b          	0x13010b
 1aa:	2400                	fld	fs0,8(s0)
 1ac:	0028                	addi	a0,sp,8
 1ae:	0b1c0e03          	lb	t3,177(s8) # 1ac57 <__C_STACK_TOP__+0xac57>
 1b2:	0000                	unimp
 1b4:	0d25                	addi	s10,s10,9
 1b6:	0300                	addi	s0,sp,384
 1b8:	3a08                	fld	fa0,48(a2)
 1ba:	49053b0b          	0x49053b0b
 1be:	000b3813          	sltiu	a6,s6,0
 1c2:	2600                	fld	fs0,8(a2)
 1c4:	000d                	c.addi	zero,3
 1c6:	0b3a0803          	lb	a6,179(s4)
 1ca:	1349053b          	0x1349053b
 1ce:	0000                	unimp
 1d0:	3f012e27          	fsw	fa6,1020(sp)
 1d4:	0319                	addi	t1,t1,6
 1d6:	3a0e                	fld	fs4,224(sp)
 1d8:	27053b0b          	0x27053b0b
 1dc:	4919                	li	s2,6
 1de:	12011113          	0x12011113
 1e2:	4006                	0x4006
 1e4:	9718                	0x9718
 1e6:	1942                	slli	s2,s2,0x30
 1e8:	1301                	addi	t1,t1,-32
 1ea:	0000                	unimp
 1ec:	0528                	addi	a0,sp,648
 1ee:	0300                	addi	s0,sp,384
 1f0:	3a08                	fld	fa0,48(a2)
 1f2:	49053b0b          	0x49053b0b
 1f6:	00170213          	addi	tp,a4,1 # 8001 <__BSS_END__+0x2381>
 1fa:	2900                	fld	fs0,16(a0)
 1fc:	0034                	addi	a3,sp,8
 1fe:	0b3a0803          	lb	a6,179(s4)
 202:	1349053b          	0x1349053b
 206:	1702                	slli	a4,a4,0x20
 208:	0000                	unimp
 20a:	1d2a                	slli	s10,s10,0x2a
 20c:	3101                	jal	fffffe0c <__C_STACK_TOP__+0xfffefe0c>
 20e:	55015213          	0x55015213
 212:	590b5817          	auipc	a6,0x590b5
 216:	0005                	c.addi	zero,1
 218:	2b00                	fld	fs0,16(a4)
 21a:	0005                	c.addi	zero,1
 21c:	1331                	addi	t1,t1,-20
 21e:	1702                	slli	a4,a4,0x20
 220:	0000                	unimp
 222:	052c                	addi	a1,sp,648
 224:	3100                	fld	fs0,32(a0)
 226:	2d000013          	li	zero,720
 22a:	1755010b          	0x1755010b
 22e:	0000                	unimp
 230:	342e                	fld	fs0,232(sp)
 232:	3100                	fld	fs0,32(a0)
 234:	2f000013          	li	zero,752
 238:	0034                	addi	a3,sp,8
 23a:	1331                	addi	t1,t1,-20
 23c:	1702                	slli	a4,a4,0x20
 23e:	0000                	unimp
 240:	0b30                	addi	a2,sp,408
 242:	3101                	jal	fffffe42 <__C_STACK_TOP__+0xfffefe42>
 244:	01175513          	srli	a0,a4,0x11
 248:	31000013          	li	zero,784
 24c:	1331010b          	0x1331010b
 250:	0111                	addi	sp,sp,4
 252:	0612                	slli	a2,a2,0x4
 254:	1301                	addi	t1,t1,-32
 256:	0000                	unimp
 258:	0b32                	slli	s6,s6,0xc
 25a:	3101                	jal	fffffe5a <__C_STACK_TOP__+0xfffefe5a>
 25c:	12011113          	0x12011113
 260:	0006                	0x6
 262:	3300                	fld	fs0,32(a4)
 264:	0034                	addi	a3,sp,8
 266:	1331                	addi	t1,t1,-20
 268:	1802                	slli	a6,a6,0x20
 26a:	0000                	unimp
 26c:	2e34                	fld	fa3,88(a2)
 26e:	0301                	addi	t1,t1,0
 270:	3a0e                	fld	fs4,224(sp)
 272:	27053b0b          	0x27053b0b
 276:	4919                	li	s2,6
 278:	010b2013          	slti	zero,s6,16
 27c:	35000013          	li	zero,848
 280:	0005                	c.addi	zero,1
 282:	0b3a0803          	lb	a6,179(s4)
 286:	1349053b          	0x1349053b
 28a:	0000                	unimp
 28c:	3436                	fld	fs0,360(sp)
 28e:	0300                	addi	s0,sp,384
 290:	3a08                	fld	fa0,48(a2)
 292:	49053b0b          	0x49053b0b
 296:	37000013          	li	zero,880
 29a:	1301010b          	0x1301010b
 29e:	0000                	unimp
 2a0:	3438                	fld	fa4,104(s0)
 2a2:	0300                	addi	s0,sp,384
 2a4:	3a0e                	fld	fs4,224(sp)
 2a6:	49053b0b          	0x49053b0b
 2aa:	39000013          	li	zero,912
 2ae:	0000010b          	0x10b
 2b2:	0100                	addi	s0,sp,128
 2b4:	0111                	addi	sp,sp,4
 2b6:	0e25                	addi	t3,t3,9
 2b8:	0e030b13          	addi	s6,t1,224
 2bc:	01110e1b          	0x1110e1b
 2c0:	0612                	slli	a2,a2,0x4
 2c2:	1710                	addi	a2,sp,928
 2c4:	0000                	unimp
 2c6:	2402                	fld	fs0,0(sp)
 2c8:	0b00                	addi	s0,sp,400
 2ca:	030b3e0b          	0x30b3e0b
 2ce:	000e                	0xe
 2d0:	0300                	addi	s0,sp,384
 2d2:	0024                	addi	s1,sp,8
 2d4:	0b3e0b0b          	0xb3e0b0b
 2d8:	00000803          	lb	a6,0(zero) # 0 <buf.1775>
 2dc:	1604                	addi	s1,sp,800
 2de:	0300                	addi	s0,sp,384
 2e0:	3a0e                	fld	fs4,224(sp)
 2e2:	490b3b0b          	0x490b3b0b
 2e6:	05000013          	li	zero,80
 2ea:	0016                	0x16
 2ec:	0b3a0e03          	lb	t3,179(s4)
 2f0:	1349053b          	0x1349053b
 2f4:	0000                	unimp
 2f6:	1706                	slli	a4,a4,0x21
 2f8:	0b01                	addi	s6,s6,0
 2fa:	3b0b3a0b          	0x3b0b3a0b
 2fe:	0013010b          	0x13010b
 302:	0700                	addi	s0,sp,896
 304:	000d                	c.addi	zero,3
 306:	0b3a0e03          	lb	t3,179(s4)
 30a:	13490b3b          	0x13490b3b
 30e:	0000                	unimp
 310:	0108                	addi	a0,sp,128
 312:	4901                	li	s2,0
 314:	00130113          	addi	sp,t1,1
 318:	0900                	addi	s0,sp,144
 31a:	0021                	c.addi	zero,8
 31c:	1349                	addi	t1,t1,-14
 31e:	00000b2f          	0xb2f
 322:	130a                	slli	t1,t1,0x22
 324:	0b01                	addi	s6,s6,0
 326:	3b0b3a0b          	0x3b0b3a0b
 32a:	0013010b          	0x13010b
 32e:	0b00                	addi	s0,sp,400
 330:	000d                	c.addi	zero,3
 332:	0b3a0e03          	lb	t3,179(s4)
 336:	13490b3b          	0x13490b3b
 33a:	0b38                	addi	a4,sp,408
 33c:	0000                	unimp
 33e:	0f0c                	addi	a1,sp,912
 340:	0b00                	addi	s0,sp,400
 342:	0d00000b          	0xd00000b
 346:	0e030113          	addi	sp,t1,224
 34a:	0b3a0b0b          	0xb3a0b0b
 34e:	13010b3b          	0x13010b3b
 352:	0000                	unimp
 354:	0d0e                	slli	s10,s10,0x3
 356:	0300                	addi	s0,sp,384
 358:	3a08                	fld	fa0,48(a2)
 35a:	490b3b0b          	0x490b3b0b
 35e:	000b3813          	sltiu	a6,s6,0
 362:	0f00                	addi	s0,sp,912
 364:	0b0b000f          	0xb0b000f
 368:	1349                	addi	t1,t1,-14
 36a:	0000                	unimp
 36c:	1310                	addi	a2,sp,416
 36e:	0301                	addi	t1,t1,0
 370:	0b0e                	slli	s6,s6,0x3
 372:	3a05                	jal	fffffca2 <__C_STACK_TOP__+0xfffefca2>
 374:	010b3b0b          	0x10b3b0b
 378:	11000013          	li	zero,272
 37c:	000d                	c.addi	zero,3
 37e:	0b3a0e03          	lb	t3,179(s4)
 382:	13490b3b          	0x13490b3b
 386:	0538                	addi	a4,sp,648
 388:	0000                	unimp
 38a:	1512                	slli	a0,a0,0x24
 38c:	2700                	fld	fs0,8(a4)
 38e:	0019                	c.addi	zero,6
 390:	1300                	addi	s0,sp,416
 392:	0115                	addi	sp,sp,5
 394:	13491927          	0x13491927
 398:	1301                	addi	t1,t1,-32
 39a:	0000                	unimp
 39c:	0514                	addi	a3,sp,640
 39e:	4900                	lw	s0,16(a0)
 3a0:	15000013          	li	zero,336
 3a4:	0026                	0x26
 3a6:	1349                	addi	t1,t1,-14
 3a8:	0000                	unimp
 3aa:	1316                	slli	t1,t1,0x25
 3ac:	0301                	addi	t1,t1,0
 3ae:	0b0e                	slli	s6,s6,0x3
 3b0:	3a05                	jal	fffffce0 <__C_STACK_TOP__+0xfffefce0>
 3b2:	01053b0b          	0x1053b0b
 3b6:	17000013          	li	zero,368
 3ba:	000d                	c.addi	zero,3
 3bc:	0b3a0e03          	lb	t3,179(s4)
 3c0:	1349053b          	0x1349053b
 3c4:	0b38                	addi	a4,sp,408
 3c6:	0000                	unimp
 3c8:	0d18                	addi	a4,sp,656
 3ca:	0300                	addi	s0,sp,384
 3cc:	3a0e                	fld	fs4,224(sp)
 3ce:	49053b0b          	0x49053b0b
 3d2:	00053813          	sltiu	a6,a0,0
 3d6:	1900                	addi	s0,sp,176
 3d8:	0e030113          	addi	sp,t1,224
 3dc:	0b3a0b0b          	0xb3a0b0b
 3e0:	1301053b          	0x1301053b
 3e4:	0000                	unimp
 3e6:	131a                	slli	t1,t1,0x26
 3e8:	0b01                	addi	s6,s6,0
 3ea:	3b0b3a0b          	0x3b0b3a0b
 3ee:	0105                	addi	sp,sp,1
 3f0:	1b000013          	li	zero,432
 3f4:	0b0b0117          	auipc	sp,0xb0b0
 3f8:	0b3a                	slli	s6,s6,0xe
 3fa:	1301053b          	0x1301053b
 3fe:	0000                	unimp
 400:	0d1c                	addi	a5,sp,656
 402:	0300                	addi	s0,sp,384
 404:	3a0e                	fld	fs4,224(sp)
 406:	49053b0b          	0x49053b0b
 40a:	1d000013          	li	zero,464
 40e:	0e030013          	addi	zero,t1,224
 412:	193c                	addi	a5,sp,184
 414:	0000                	unimp
 416:	151e                	slli	a0,a0,0x27
 418:	2701                	jal	b18 <main+0x54>
 41a:	0119                	addi	sp,sp,6
 41c:	1f000013          	li	zero,496
 420:	0034                	addi	a3,sp,8
 422:	0b3a0e03          	lb	t3,179(s4)
 426:	1349053b          	0x1349053b
 42a:	193c193f 21200000 	0x21200000193c193f
 432:	0000                	unimp
 434:	2100                	fld	fs0,0(a0)
 436:	0034                	addi	a3,sp,8
 438:	0b3a0e03          	lb	t3,179(s4)
 43c:	13490b3b          	0x13490b3b
 440:	193c193f 26220000 	0x26220000193c193f
 448:	0000                	unimp
 44a:	2300                	fld	fs0,0(a4)
 44c:	0104                	addi	s1,sp,128
 44e:	0b3e0e03          	lb	t3,179(t3) # 80b3 <__BSS_END__+0x2433>
 452:	13490b0b          	0x13490b0b
 456:	0b3a                	slli	s6,s6,0xe
 458:	13010b3b          	0x13010b3b
 45c:	0000                	unimp
 45e:	2824                	fld	fs1,80(s0)
 460:	0300                	addi	s0,sp,384
 462:	1c0e                	slli	s8,s8,0x23
 464:	2500000b          	0x2500000b
 468:	000d                	c.addi	zero,3
 46a:	0b3a0803          	lb	a6,179(s4)
 46e:	1349053b          	0x1349053b
 472:	0b38                	addi	a4,sp,408
 474:	0000                	unimp
 476:	0d26                	slli	s10,s10,0x9
 478:	0300                	addi	s0,sp,384
 47a:	3a08                	fld	fa0,48(a2)
 47c:	49053b0b          	0x49053b0b
 480:	27000013          	li	zero,624
 484:	012e                	slli	sp,sp,0xb
 486:	0e03193f 053b0b3a 	0x53b0b3a0e03193f
 48e:	13491927          	0x13491927
 492:	0111                	addi	sp,sp,4
 494:	0612                	slli	a2,a2,0x4
 496:	1840                	addi	s0,sp,52
 498:	01194297          	auipc	t0,0x1194
 49c:	28000013          	li	zero,640
 4a0:	0005                	c.addi	zero,1
 4a2:	0b3a0803          	lb	a6,179(s4)
 4a6:	1349053b          	0x1349053b
 4aa:	1702                	slli	a4,a4,0x20
 4ac:	0000                	unimp
 4ae:	1d29                	addi	s10,s10,-22
 4b0:	3101                	jal	b0 <buflen.1776+0x70>
 4b2:	55015213          	0x55015213
 4b6:	590b5817          	auipc	a6,0x590b5
 4ba:	0005                	c.addi	zero,1
 4bc:	2a00                	fld	fs0,16(a2)
 4be:	0005                	c.addi	zero,1
 4c0:	1331                	addi	t1,t1,-20
 4c2:	1702                	slli	a4,a4,0x20
 4c4:	0000                	unimp
 4c6:	55010b2b          	0x55010b2b
 4ca:	2c000017          	auipc	zero,0x2c000
 4ce:	0034                	addi	a3,sp,8
 4d0:	1331                	addi	t1,t1,-20
 4d2:	0000                	unimp
 4d4:	342d                	jal	fffffefe <__C_STACK_TOP__+0xfffefefe>
 4d6:	3100                	fld	fs0,32(a0)
 4d8:	00170213          	addi	tp,a4,1
 4dc:	2e00                	fld	fs0,24(a2)
 4de:	1331010b          	0x1331010b
 4e2:	1755                	addi	a4,a4,-11
 4e4:	1301                	addi	t1,t1,-32
 4e6:	0000                	unimp
 4e8:	31010b2f          	0x31010b2f
 4ec:	12011113          	0x12011113
 4f0:	0106                	slli	sp,sp,0x1
 4f2:	30000013          	li	zero,768
 4f6:	1331010b          	0x1331010b
 4fa:	1755                	addi	a4,a4,-11
 4fc:	0000                	unimp
 4fe:	2e31                	jal	81a <vprintfmt.constprop.2+0x400>
 500:	0301                	addi	t1,t1,0
 502:	3a0e                	fld	fs4,224(sp)
 504:	27053b0b          	0x27053b0b
 508:	4919                	li	s2,6
 50a:	010b2013          	slti	zero,s6,16
 50e:	32000013          	li	zero,800
 512:	0005                	c.addi	zero,1
 514:	0b3a0803          	lb	a6,179(s4)
 518:	1349053b          	0x1349053b
 51c:	0000                	unimp
 51e:	03003433          	mulhu	s0,zero,a6
 522:	3a08                	fld	fa0,48(a2)
 524:	49053b0b          	0x49053b0b
 528:	34000013          	li	zero,832
 52c:	1301010b          	0x1301010b
 530:	0000                	unimp
 532:	3435                	jal	ffffff5e <__C_STACK_TOP__+0xfffeff5e>
 534:	0300                	addi	s0,sp,384
 536:	3a0e                	fld	fs4,224(sp)
 538:	49053b0b          	0x49053b0b
 53c:	36000013          	li	zero,864
 540:	0000010b          	0x10b
 544:	0100                	addi	s0,sp,128
 546:	0111                	addi	sp,sp,4
 548:	0e25                	addi	t3,t3,9
 54a:	0e030b13          	addi	s6,t1,224
 54e:	01110e1b          	0x1110e1b
 552:	0612                	slli	a2,a2,0x4
 554:	1710                	addi	a2,sp,928
 556:	0000                	unimp
 558:	2402                	fld	fs0,0(sp)
 55a:	0b00                	addi	s0,sp,400
 55c:	030b3e0b          	0x30b3e0b
 560:	000e                	0xe
 562:	0300                	addi	s0,sp,384
 564:	0024                	addi	s1,sp,8
 566:	0b3e0b0b          	0xb3e0b0b
 56a:	00000803          	lb	a6,0(zero) # 2c0004ca <__C_STACK_TOP__+0x2bff04ca>
 56e:	1604                	addi	s1,sp,800
 570:	0300                	addi	s0,sp,384
 572:	3a0e                	fld	fs4,224(sp)
 574:	490b3b0b          	0x490b3b0b
 578:	05000013          	li	zero,80
 57c:	0016                	0x16
 57e:	0b3a0e03          	lb	t3,179(s4)
 582:	1349053b          	0x1349053b
 586:	0000                	unimp
 588:	1706                	slli	a4,a4,0x21
 58a:	0b01                	addi	s6,s6,0
 58c:	3b0b3a0b          	0x3b0b3a0b
 590:	0013010b          	0x13010b
 594:	0700                	addi	s0,sp,896
 596:	000d                	c.addi	zero,3
 598:	0b3a0e03          	lb	t3,179(s4)
 59c:	13490b3b          	0x13490b3b
 5a0:	0000                	unimp
 5a2:	0108                	addi	a0,sp,128
 5a4:	4901                	li	s2,0
 5a6:	00130113          	addi	sp,t1,1
 5aa:	0900                	addi	s0,sp,144
 5ac:	0021                	c.addi	zero,8
 5ae:	1349                	addi	t1,t1,-14
 5b0:	00000b2f          	0xb2f
 5b4:	130a                	slli	t1,t1,0x22
 5b6:	0b01                	addi	s6,s6,0
 5b8:	3b0b3a0b          	0x3b0b3a0b
 5bc:	0013010b          	0x13010b
 5c0:	0b00                	addi	s0,sp,400
 5c2:	000d                	c.addi	zero,3
 5c4:	0b3a0e03          	lb	t3,179(s4)
 5c8:	13490b3b          	0x13490b3b
 5cc:	0b38                	addi	a4,sp,408
 5ce:	0000                	unimp
 5d0:	0f0c                	addi	a1,sp,912
 5d2:	0b00                	addi	s0,sp,400
 5d4:	0d00000b          	0xd00000b
 5d8:	0e030113          	addi	sp,t1,224
 5dc:	0b3a0b0b          	0xb3a0b0b
 5e0:	13010b3b          	0x13010b3b
 5e4:	0000                	unimp
 5e6:	0d0e                	slli	s10,s10,0x3
 5e8:	0300                	addi	s0,sp,384
 5ea:	3a08                	fld	fa0,48(a2)
 5ec:	490b3b0b          	0x490b3b0b
 5f0:	000b3813          	sltiu	a6,s6,0
 5f4:	0f00                	addi	s0,sp,912
 5f6:	0b0b000f          	0xb0b000f
 5fa:	1349                	addi	t1,t1,-14
 5fc:	0000                	unimp
 5fe:	1310                	addi	a2,sp,416
 600:	0301                	addi	t1,t1,0
 602:	0b0e                	slli	s6,s6,0x3
 604:	3a05                	jal	ffffff34 <__C_STACK_TOP__+0xfffeff34>
 606:	010b3b0b          	0x10b3b0b
 60a:	11000013          	li	zero,272
 60e:	000d                	c.addi	zero,3
 610:	0b3a0e03          	lb	t3,179(s4)
 614:	13490b3b          	0x13490b3b
 618:	0538                	addi	a4,sp,648
 61a:	0000                	unimp
 61c:	1512                	slli	a0,a0,0x24
 61e:	2700                	fld	fs0,8(a4)
 620:	0019                	c.addi	zero,6
 622:	1300                	addi	s0,sp,416
 624:	0115                	addi	sp,sp,5
 626:	13491927          	0x13491927
 62a:	1301                	addi	t1,t1,-32
 62c:	0000                	unimp
 62e:	0514                	addi	a3,sp,640
 630:	4900                	lw	s0,16(a0)
 632:	15000013          	li	zero,336
 636:	0026                	0x26
 638:	1349                	addi	t1,t1,-14
 63a:	0000                	unimp
 63c:	1316                	slli	t1,t1,0x25
 63e:	0301                	addi	t1,t1,0
 640:	0b0e                	slli	s6,s6,0x3
 642:	3a05                	jal	ffffff72 <__C_STACK_TOP__+0xfffeff72>
 644:	01053b0b          	0x1053b0b
 648:	17000013          	li	zero,368
 64c:	000d                	c.addi	zero,3
 64e:	0b3a0e03          	lb	t3,179(s4)
 652:	1349053b          	0x1349053b
 656:	0b38                	addi	a4,sp,408
 658:	0000                	unimp
 65a:	0d18                	addi	a4,sp,656
 65c:	0300                	addi	s0,sp,384
 65e:	3a0e                	fld	fs4,224(sp)
 660:	49053b0b          	0x49053b0b
 664:	00053813          	sltiu	a6,a0,0
 668:	1900                	addi	s0,sp,176
 66a:	0e030113          	addi	sp,t1,224
 66e:	0b3a0b0b          	0xb3a0b0b
 672:	1301053b          	0x1301053b
 676:	0000                	unimp
 678:	131a                	slli	t1,t1,0x26
 67a:	0b01                	addi	s6,s6,0
 67c:	3b0b3a0b          	0x3b0b3a0b
 680:	0105                	addi	sp,sp,1
 682:	1b000013          	li	zero,432
 686:	0b0b0117          	auipc	sp,0xb0b0
 68a:	0b3a                	slli	s6,s6,0xe
 68c:	1301053b          	0x1301053b
 690:	0000                	unimp
 692:	0d1c                	addi	a5,sp,656
 694:	0300                	addi	s0,sp,384
 696:	3a0e                	fld	fs4,224(sp)
 698:	49053b0b          	0x49053b0b
 69c:	1d000013          	li	zero,464
 6a0:	0e030013          	addi	zero,t1,224
 6a4:	193c                	addi	a5,sp,184
 6a6:	0000                	unimp
 6a8:	151e                	slli	a0,a0,0x27
 6aa:	2701                	jal	daa <main+0x2e6>
 6ac:	0119                	addi	sp,sp,6
 6ae:	1f000013          	li	zero,496
 6b2:	0034                	addi	a3,sp,8
 6b4:	0b3a0e03          	lb	t3,179(s4)
 6b8:	1349053b          	0x1349053b
 6bc:	193c193f 21200000 	0x21200000193c193f
 6c4:	0000                	unimp
 6c6:	2100                	fld	fs0,0(a0)
 6c8:	0034                	addi	a3,sp,8
 6ca:	0b3a0e03          	lb	t3,179(s4)
 6ce:	13490b3b          	0x13490b3b
 6d2:	193c193f 26220000 	0x26220000193c193f
 6da:	0000                	unimp
 6dc:	2300                	fld	fs0,0(a4)
 6de:	0104                	addi	s1,sp,128
 6e0:	0b3e0e03          	lb	t3,179(t3)
 6e4:	13490b0b          	0x13490b0b
 6e8:	0b3a                	slli	s6,s6,0xe
 6ea:	13010b3b          	0x13010b3b
 6ee:	0000                	unimp
 6f0:	2824                	fld	fs1,80(s0)
 6f2:	0300                	addi	s0,sp,384
 6f4:	1c0e                	slli	s8,s8,0x23
 6f6:	2500000b          	0x2500000b
 6fa:	000d                	c.addi	zero,3
 6fc:	0b3a0803          	lb	a6,179(s4)
 700:	1349053b          	0x1349053b
 704:	0b38                	addi	a4,sp,408
 706:	0000                	unimp
 708:	0d26                	slli	s10,s10,0x9
 70a:	0300                	addi	s0,sp,384
 70c:	3a08                	fld	fa0,48(a2)
 70e:	49053b0b          	0x49053b0b
 712:	27000013          	li	zero,624
 716:	012e                	slli	sp,sp,0xb
 718:	0e03193f 053b0b3a 	0x53b0b3a0e03193f
 720:	13491927          	0x13491927
 724:	0111                	addi	sp,sp,4
 726:	0612                	slli	a2,a2,0x4
 728:	1840                	addi	s0,sp,52
 72a:	01194297          	auipc	t0,0x1194
 72e:	28000013          	li	zero,640
 732:	0005                	c.addi	zero,1
 734:	0b3a0803          	lb	a6,179(s4)
 738:	1349053b          	0x1349053b
 73c:	1702                	slli	a4,a4,0x20
 73e:	0000                	unimp
 740:	3429                	jal	14a <SIM_STOP+0x52>
 742:	0300                	addi	s0,sp,384
 744:	3a08                	fld	fa0,48(a2)
 746:	49053b0b          	0x49053b0b
 74a:	00170213          	addi	tp,a4,1
 74e:	2a00                	fld	fs0,16(a2)
 750:	011d                	addi	sp,sp,7
 752:	1331                	addi	t1,t1,-20
 754:	0152                	slli	sp,sp,0x14
 756:	1755                	addi	a4,a4,-11
 758:	0b58                	addi	a4,sp,404
 75a:	0559                	addi	a0,a0,22
 75c:	0000                	unimp
 75e:	3100052b          	0x3100052b
 762:	00170213          	addi	tp,a4,1
 766:	2c00                	fld	fs0,24(s0)
 768:	1755010b          	0x1755010b
 76c:	0000                	unimp
 76e:	342d                	jal	198 <SIM_STOP+0xa0>
 770:	3100                	fld	fs0,32(a0)
 772:	2e000013          	li	zero,736
 776:	0034                	addi	a3,sp,8
 778:	1331                	addi	t1,t1,-20
 77a:	1702                	slli	a4,a4,0x20
 77c:	0000                	unimp
 77e:	31010b2f          	0x31010b2f
 782:	01175513          	srli	a0,a4,0x11
 786:	30000013          	li	zero,768
 78a:	1331010b          	0x1331010b
 78e:	0111                	addi	sp,sp,4
 790:	0612                	slli	a2,a2,0x4
 792:	1301                	addi	t1,t1,-32
 794:	0000                	unimp
 796:	0b31                	addi	s6,s6,12
 798:	3101                	jal	398 <printf_putch+0x84>
 79a:	12011113          	0x12011113
 79e:	0006                	0x6
 7a0:	3200                	fld	fs0,32(a2)
 7a2:	0034                	addi	a3,sp,8
 7a4:	1331                	addi	t1,t1,-20
 7a6:	1802                	slli	a6,a6,0x20
 7a8:	0000                	unimp
 7aa:	03012e33          	mulhsu	t3,sp,a6
 7ae:	3a0e                	fld	fs4,224(sp)
 7b0:	27053b0b          	0x27053b0b
 7b4:	4919                	li	s2,6
 7b6:	010b2013          	slti	zero,s6,16
 7ba:	34000013          	li	zero,832
 7be:	0005                	c.addi	zero,1
 7c0:	0b3a0803          	lb	a6,179(s4)
 7c4:	1349053b          	0x1349053b
 7c8:	0000                	unimp
 7ca:	3435                	jal	1f6 <machine_trap_entry+0x36>
 7cc:	0300                	addi	s0,sp,384
 7ce:	3a08                	fld	fa0,48(a2)
 7d0:	49053b0b          	0x49053b0b
 7d4:	36000013          	li	zero,864
 7d8:	1301010b          	0x1301010b
 7dc:	0000                	unimp
 7de:	03003437          	lui	s0,0x3003
 7e2:	3a0e                	fld	fs4,224(sp)
 7e4:	49053b0b          	0x49053b0b
 7e8:	38000013          	li	zero,896
 7ec:	0000010b          	0x10b
 7f0:	0100                	addi	s0,sp,128
 7f2:	0111                	addi	sp,sp,4
 7f4:	0e25                	addi	t3,t3,9
 7f6:	0e030b13          	addi	s6,t1,224
 7fa:	17100e1b          	0x17100e1b
 7fe:	0000                	unimp
 800:	2402                	fld	fs0,0(sp)
 802:	0b00                	addi	s0,sp,400
 804:	030b3e0b          	0x30b3e0b
 808:	0008                	addi	a0,sp,0
 80a:	0300                	addi	s0,sp,384
 80c:	0024                	addi	s1,sp,8
 80e:	0b3e0b0b          	0xb3e0b0b
 812:	00000e03          	lb	t3,0(zero) # 0 <buf.1775>
 816:	1604                	addi	s1,sp,800
 818:	0300                	addi	s0,sp,384
 81a:	3a0e                	fld	fs4,224(sp)
 81c:	490b3b0b          	0x490b3b0b
 820:	05000013          	li	zero,80
 824:	0016                	0x16
 826:	0b3a0e03          	lb	t3,179(s4)
 82a:	1349053b          	0x1349053b
 82e:	0000                	unimp
 830:	1706                	slli	a4,a4,0x21
 832:	0b01                	addi	s6,s6,0
 834:	3b0b3a0b          	0x3b0b3a0b
 838:	0013010b          	0x13010b
 83c:	0700                	addi	s0,sp,896
 83e:	000d                	c.addi	zero,3
 840:	0b3a0e03          	lb	t3,179(s4)
 844:	13490b3b          	0x13490b3b
 848:	0000                	unimp
 84a:	0108                	addi	a0,sp,128
 84c:	4901                	li	s2,0
 84e:	00130113          	addi	sp,t1,1
 852:	0900                	addi	s0,sp,144
 854:	0021                	c.addi	zero,8
 856:	1349                	addi	t1,t1,-14
 858:	00000b2f          	0xb2f
 85c:	130a                	slli	t1,t1,0x22
 85e:	0b01                	addi	s6,s6,0
 860:	3b0b3a0b          	0x3b0b3a0b
 864:	0013010b          	0x13010b
 868:	0b00                	addi	s0,sp,400
 86a:	000d                	c.addi	zero,3
 86c:	0b3a0e03          	lb	t3,179(s4)
 870:	13490b3b          	0x13490b3b
 874:	0b38                	addi	a4,sp,408
 876:	0000                	unimp
 878:	0f0c                	addi	a1,sp,912
 87a:	0b00                	addi	s0,sp,400
 87c:	0d00000b          	0xd00000b
 880:	0e030113          	addi	sp,t1,224
 884:	0b3a0b0b          	0xb3a0b0b
 888:	13010b3b          	0x13010b3b
 88c:	0000                	unimp
 88e:	0d0e                	slli	s10,s10,0x3
 890:	0300                	addi	s0,sp,384
 892:	3a08                	fld	fa0,48(a2)
 894:	490b3b0b          	0x490b3b0b
 898:	000b3813          	sltiu	a6,s6,0
 89c:	0f00                	addi	s0,sp,912
 89e:	0b0b000f          	0xb0b000f
 8a2:	1349                	addi	t1,t1,-14
 8a4:	0000                	unimp
 8a6:	1310                	addi	a2,sp,416
 8a8:	0301                	addi	t1,t1,0
 8aa:	0b0e                	slli	s6,s6,0x3
 8ac:	3a05                	jal	1dc <machine_trap_entry+0x1c>
 8ae:	010b3b0b          	0x10b3b0b
 8b2:	11000013          	li	zero,272
 8b6:	000d                	c.addi	zero,3
 8b8:	0b3a0e03          	lb	t3,179(s4)
 8bc:	13490b3b          	0x13490b3b
 8c0:	0538                	addi	a4,sp,648
 8c2:	0000                	unimp
 8c4:	1512                	slli	a0,a0,0x24
 8c6:	2700                	fld	fs0,8(a4)
 8c8:	0019                	c.addi	zero,6
 8ca:	1300                	addi	s0,sp,416
 8cc:	0115                	addi	sp,sp,5
 8ce:	13491927          	0x13491927
 8d2:	1301                	addi	t1,t1,-32
 8d4:	0000                	unimp
 8d6:	0514                	addi	a3,sp,640
 8d8:	4900                	lw	s0,16(a0)
 8da:	15000013          	li	zero,336
 8de:	0026                	0x26
 8e0:	1349                	addi	t1,t1,-14
 8e2:	0000                	unimp
 8e4:	1316                	slli	t1,t1,0x25
 8e6:	0301                	addi	t1,t1,0
 8e8:	0b0e                	slli	s6,s6,0x3
 8ea:	3a05                	jal	21a <_start+0x1a>
 8ec:	01053b0b          	0x1053b0b
 8f0:	17000013          	li	zero,368
 8f4:	000d                	c.addi	zero,3
 8f6:	0b3a0e03          	lb	t3,179(s4)
 8fa:	1349053b          	0x1349053b
 8fe:	0b38                	addi	a4,sp,408
 900:	0000                	unimp
 902:	0d18                	addi	a4,sp,656
 904:	0300                	addi	s0,sp,384
 906:	3a0e                	fld	fs4,224(sp)
 908:	49053b0b          	0x49053b0b
 90c:	00053813          	sltiu	a6,a0,0
 910:	1900                	addi	s0,sp,176
 912:	0e030113          	addi	sp,t1,224
 916:	0b3a0b0b          	0xb3a0b0b
 91a:	1301053b          	0x1301053b
 91e:	0000                	unimp
 920:	131a                	slli	t1,t1,0x26
 922:	0b01                	addi	s6,s6,0
 924:	3b0b3a0b          	0x3b0b3a0b
 928:	0105                	addi	sp,sp,1
 92a:	1b000013          	li	zero,432
 92e:	0b0b0117          	auipc	sp,0xb0b0
 932:	0b3a                	slli	s6,s6,0xe
 934:	1301053b          	0x1301053b
 938:	0000                	unimp
 93a:	0d1c                	addi	a5,sp,656
 93c:	0300                	addi	s0,sp,384
 93e:	3a0e                	fld	fs4,224(sp)
 940:	49053b0b          	0x49053b0b
 944:	1d000013          	li	zero,464
 948:	0e030013          	addi	zero,t1,224
 94c:	193c                	addi	a5,sp,184
 94e:	0000                	unimp
 950:	151e                	slli	a0,a0,0x27
 952:	2701                	jal	1052 <main+0x58e>
 954:	0119                	addi	sp,sp,6
 956:	1f000013          	li	zero,496
 95a:	0034                	addi	a3,sp,8
 95c:	0b3a0e03          	lb	t3,179(s4)
 960:	1349053b          	0x1349053b
 964:	193c193f 21200000 	0x21200000193c193f
 96c:	0000                	unimp
 96e:	2100                	fld	fs0,0(a0)
 970:	0034                	addi	a3,sp,8
 972:	0b3a0e03          	lb	t3,179(s4)
 976:	13490b3b          	0x13490b3b
 97a:	193c193f 26220000 	0x26220000193c193f
 982:	0000                	unimp
 984:	2300                	fld	fs0,0(a4)
 986:	0104                	addi	s1,sp,128
 988:	0b3e0e03          	lb	t3,179(t3)
 98c:	13490b0b          	0x13490b0b
 990:	0b3a                	slli	s6,s6,0xe
 992:	13010b3b          	0x13010b3b
 996:	0000                	unimp
 998:	2824                	fld	fs1,80(s0)
 99a:	0300                	addi	s0,sp,384
 99c:	1c0e                	slli	s8,s8,0x23
 99e:	2500000b          	0x2500000b
 9a2:	0034                	addi	a3,sp,8
 9a4:	0b3a1347          	fmsub.d	ft6,fs4,fs3,ft1,rtz
 9a8:	1802053b          	0x1802053b
 9ac:	0000                	unimp
	...

Дизассемблирование раздела .debug_loc:

00000000 <.debug_loc>:
       0:	0000                	unimp
       2:	0000                	unimp
       4:	000c                	addi	a1,sp,0
       6:	0000                	unimp
       8:	0006                	0x6
       a:	935a                	add	t1,t1,s6
       c:	5b04                	lw	s1,48(a4)
       e:	000c0493          	mv	s1,s8
      12:	0000                	unimp
      14:	0458                	addi	a4,sp,516
      16:	0000                	unimp
      18:	0006                	0x6
      1a:	0af503f3          	0xaf503f3
      1e:	9f2c                	0x9f2c
	...
      2c:	0024                	addi	s1,sp,8
      2e:	0000                	unimp
      30:	0006                	0x6
      32:	935c                	0x935c
      34:	5d04                	lw	s1,56(a0)
      36:	00240493          	addi	s1,s0,2 # 3003002 <__C_STACK_TOP__+0x2ff3002>
      3a:	0000                	unimp
      3c:	0458                	addi	a4,sp,516
      3e:	0000                	unimp
      40:	0006                	0x6
      42:	0cf503f3          	0xcf503f3
      46:	9f2c                	0x9f2c
	...
      54:	0008                	addi	a0,sp,0
      56:	0000                	unimp
      58:	0002                	0x2
      5a:	9f30                	0x9f30
      5c:	0008                	addi	a0,sp,0
      5e:	0000                	unimp
      60:	001c                	addi	a5,sp,0
      62:	0000                	unimp
      64:	ff090003          	lb	zero,-16(s2) # 38c1e <__C_STACK_TOP__+0x28c1e>
      68:	1c9f 0000 5800      	0x580000001c9f
      6e:	0004                	addi	s1,sp,0
      70:	0100                	addi	s0,sp,128
      72:	6100                	flw	fs0,0(a0)
	...
      80:	000c                	addi	a1,sp,0
      82:	0000                	unimp
      84:	0006                	0x6
      86:	935a                	add	t1,t1,s6
      88:	5b04                	lw	s1,48(a4)
      8a:	00180493          	addi	s1,a6,1 # 590b54b7 <__C_STACK_TOP__+0x590a54b7>
      8e:	0000                	unimp
      90:	001c                	addi	a5,sp,0
      92:	0000                	unimp
      94:	0006                	0x6
      96:	935a                	add	t1,t1,s6
      98:	5b04                	lw	s1,48(a4)
      9a:	00000493          	li	s1,0
	...
      a6:	0000                	unimp
      a8:	0024                	addi	s1,sp,8
      aa:	0000                	unimp
      ac:	0006                	0x6
      ae:	935c                	0x935c
      b0:	5d04                	lw	s1,56(a0)
      b2:	00300493          	li	s1,3
      b6:	0000                	unimp
      b8:	0048                	addi	a0,sp,4
      ba:	0000                	unimp
      bc:	0006                	0x6
      be:	935c                	0x935c
      c0:	5d04                	lw	s1,56(a0)
      c2:	00480493          	addi	s1,a6,4
      c6:	0000                	unimp
      c8:	0064                	addi	s1,sp,12
      ca:	0000                	unimp
      cc:	0006                	0x6
      ce:	935c                	0x935c
      d0:	5604                	lw	s1,40(a2)
      d2:	01280493          	addi	s1,a6,18
      d6:	0000                	unimp
      d8:	0130                	addi	a2,sp,136
      da:	0000                	unimp
      dc:	0006                	0x6
      de:	935c                	0x935c
      e0:	5604                	lw	s1,40(a2)
      e2:	013c0493          	addi	s1,s8,19
      e6:	0000                	unimp
      e8:	015c                	addi	a5,sp,132
      ea:	0000                	unimp
      ec:	0006                	0x6
      ee:	935c                	0x935c
      f0:	5604                	lw	s1,40(a2)
      f2:	01f00493          	li	s1,31
      f6:	0000                	unimp
      f8:	01f8                	addi	a4,sp,204
      fa:	0000                	unimp
      fc:	0006                	0x6
      fe:	935c                	0x935c
     100:	5604                	lw	s1,40(a2)
     102:	02900493          	li	s1,41
     106:	0000                	unimp
     108:	02a8                	addi	a0,sp,328
     10a:	0000                	unimp
     10c:	0006                	0x6
     10e:	935c                	0x935c
     110:	5604                	lw	s1,40(a2)
     112:	02a80493          	addi	s1,a6,42
     116:	0000                	unimp
     118:	02dc                	addi	a5,sp,324
     11a:	0000                	unimp
     11c:	0006                	0x6
     11e:	935c                	0x935c
     120:	5d04                	lw	s1,56(a0)
     122:	02f00493          	li	s1,47
     126:	0000                	unimp
     128:	02f4                	addi	a3,sp,332
     12a:	0000                	unimp
     12c:	0006                	0x6
     12e:	935c                	0x935c
     130:	5604                	lw	s1,40(a2)
     132:	02f40493          	addi	s1,s0,47
     136:	0000                	unimp
     138:	030c                	addi	a1,sp,384
     13a:	0000                	unimp
     13c:	0006                	0x6
     13e:	935c                	0x935c
     140:	5d04                	lw	s1,56(a0)
     142:	00000493          	li	s1,0
     146:	0000                	unimp
     148:	0000                	unimp
     14a:	0000                	unimp
     14c:	010c                	addi	a1,sp,128
     14e:	0000                	unimp
     150:	011c                	addi	a5,sp,128
     152:	0000                	unimp
     154:	0006                	0x6
     156:	935a                	add	t1,t1,s6
     158:	5b04                	lw	s1,48(a4)
     15a:	02ec0493          	addi	s1,s8,46
     15e:	0000                	unimp
     160:	02f0                	addi	a2,sp,332
     162:	0000                	unimp
     164:	0006                	0x6
     166:	935f 5e04 0493      	0x4935e04935f
     16c:	0454                	addi	a3,sp,516
     16e:	0000                	unimp
     170:	0458                	addi	a4,sp,516
     172:	0000                	unimp
     174:	0006                	0x6
     176:	935a                	add	t1,t1,s6
     178:	5b04                	lw	s1,48(a4)
     17a:	00000493          	li	s1,0
     17e:	0000                	unimp
     180:	0000                	unimp
     182:	0000                	unimp
     184:	0030                	addi	a2,sp,8
     186:	0000                	unimp
     188:	010c                	addi	a1,sp,128
     18a:	0000                	unimp
     18c:	0006                	0x6
     18e:	7cf2                	flw	fs9,60(sp)
     190:	0000000b          	0xb
     194:	0128                	addi	a0,sp,136
     196:	0000                	unimp
     198:	0458                	addi	a4,sp,516
     19a:	0000                	unimp
     19c:	0006                	0x6
     19e:	7cf2                	flw	fs9,60(sp)
     1a0:	0000000b          	0xb
	...
     1ac:	0030                	addi	a2,sp,8
     1ae:	0000                	unimp
     1b0:	0048                	addi	a0,sp,4
     1b2:	0000                	unimp
     1b4:	0006                	0x6
     1b6:	935c                	0x935c
     1b8:	5d04                	lw	s1,56(a0)
     1ba:	00480493          	addi	s1,a6,4
     1be:	0000                	unimp
     1c0:	0064                	addi	s1,sp,12
     1c2:	0000                	unimp
     1c4:	0006                	0x6
     1c6:	935c                	0x935c
     1c8:	5604                	lw	s1,40(a2)
     1ca:	01280493          	addi	s1,a6,18
     1ce:	0000                	unimp
     1d0:	0130                	addi	a2,sp,136
     1d2:	0000                	unimp
     1d4:	0006                	0x6
     1d6:	935c                	0x935c
     1d8:	5604                	lw	s1,40(a2)
     1da:	013c0493          	addi	s1,s8,19
     1de:	0000                	unimp
     1e0:	015c                	addi	a5,sp,132
     1e2:	0000                	unimp
     1e4:	0006                	0x6
     1e6:	935c                	0x935c
     1e8:	5604                	lw	s1,40(a2)
     1ea:	01f00493          	li	s1,31
     1ee:	0000                	unimp
     1f0:	01f8                	addi	a4,sp,204
     1f2:	0000                	unimp
     1f4:	0006                	0x6
     1f6:	935c                	0x935c
     1f8:	5604                	lw	s1,40(a2)
     1fa:	02900493          	li	s1,41
     1fe:	0000                	unimp
     200:	02a8                	addi	a0,sp,328
     202:	0000                	unimp
     204:	0006                	0x6
     206:	935c                	0x935c
     208:	5604                	lw	s1,40(a2)
     20a:	02a80493          	addi	s1,a6,42
     20e:	0000                	unimp
     210:	02dc                	addi	a5,sp,324
     212:	0000                	unimp
     214:	0006                	0x6
     216:	935c                	0x935c
     218:	5d04                	lw	s1,56(a0)
     21a:	02f00493          	li	s1,47
     21e:	0000                	unimp
     220:	02f4                	addi	a3,sp,332
     222:	0000                	unimp
     224:	0006                	0x6
     226:	935c                	0x935c
     228:	5604                	lw	s1,40(a2)
     22a:	02f40493          	addi	s1,s0,47
     22e:	0000                	unimp
     230:	030c                	addi	a1,sp,384
     232:	0000                	unimp
     234:	0006                	0x6
     236:	935c                	0x935c
     238:	5d04                	lw	s1,56(a0)
     23a:	00000493          	li	s1,0
     23e:	0000                	unimp
     240:	0000                	unimp
     242:	0000                	unimp
     244:	0034                	addi	a3,sp,8
     246:	0000                	unimp
     248:	008c                	addi	a1,sp,64
     24a:	0000                	unimp
     24c:	0001                	nop
     24e:	8c5c                	0x8c5c
     250:	0000                	unimp
     252:	0c00                	addi	s0,sp,528
     254:	0001                	nop
     256:	0100                	addi	s0,sp,128
     258:	6000                	flw	fs0,0(s0)
     25a:	0128                	addi	a0,sp,136
     25c:	0000                	unimp
     25e:	0148                	addi	a0,sp,132
     260:	0000                	unimp
     262:	0001                	nop
     264:	485c                	lw	a5,20(s0)
     266:	0001                	nop
     268:	9000                	0x9000
     26a:	0002                	0x2
     26c:	0100                	addi	s0,sp,128
     26e:	6000                	flw	fs0,0(s0)
     270:	0290                	addi	a2,sp,320
     272:	0000                	unimp
     274:	0424                	addi	s1,sp,520
     276:	0000                	unimp
     278:	0001                	nop
     27a:	005c                	addi	a5,sp,4
     27c:	0000                	unimp
     27e:	0000                	unimp
     280:	0000                	unimp
     282:	3800                	fld	fs0,48(s0)
     284:	0000                	unimp
     286:	4800                	lw	s0,16(s0)
     288:	0000                	unimp
     28a:	0100                	addi	s0,sp,128
     28c:	5d00                	lw	s0,56(a0)
     28e:	0048                	addi	a0,sp,4
     290:	0000                	unimp
     292:	0064                	addi	s1,sp,12
     294:	0000                	unimp
     296:	0001                	nop
     298:	2856                	fld	fa6,336(sp)
     29a:	0001                	nop
     29c:	3000                	fld	fs0,32(s0)
     29e:	0001                	nop
     2a0:	0100                	addi	s0,sp,128
     2a2:	5600                	lw	s0,40(a2)
     2a4:	013c                	addi	a5,sp,136
     2a6:	0000                	unimp
     2a8:	015c                	addi	a5,sp,132
     2aa:	0000                	unimp
     2ac:	0001                	nop
     2ae:	f056                	fsw	fs5,32(sp)
     2b0:	0001                	nop
     2b2:	f800                	fsw	fs0,48(s0)
     2b4:	0001                	nop
     2b6:	0100                	addi	s0,sp,128
     2b8:	5600                	lw	s0,40(a2)
     2ba:	0290                	addi	a2,sp,320
     2bc:	0000                	unimp
     2be:	02a8                	addi	a0,sp,328
     2c0:	0000                	unimp
     2c2:	0001                	nop
     2c4:	a856                	fsd	fs5,16(sp)
     2c6:	0002                	0x2
     2c8:	dc00                	sw	s0,56(s0)
     2ca:	0002                	0x2
     2cc:	0100                	addi	s0,sp,128
     2ce:	5d00                	lw	s0,56(a0)
     2d0:	02f0                	addi	a2,sp,332
     2d2:	0000                	unimp
     2d4:	02f4                	addi	a3,sp,332
     2d6:	0000                	unimp
     2d8:	0001                	nop
     2da:	f456                	fsw	fs5,40(sp)
     2dc:	0002                	0x2
     2de:	0c00                	addi	s0,sp,528
     2e0:	01000003          	lb	zero,16(zero) # 10 <buf.1775+0x10>
     2e4:	5d00                	lw	s0,56(a0)
     2e6:	0310                	addi	a2,sp,384
     2e8:	0000                	unimp
     2ea:	0458                	addi	a4,sp,516
     2ec:	0000                	unimp
     2ee:	0001                	nop
     2f0:	005d                	c.addi	zero,23
     2f2:	0000                	unimp
     2f4:	0000                	unimp
     2f6:	0000                	unimp
     2f8:	3c00                	fld	fs0,56(s0)
     2fa:	0000                	unimp
     2fc:	9400                	0x9400
     2fe:	0000                	unimp
     300:	0100                	addi	s0,sp,128
     302:	5a00                	lw	s0,48(a2)
     304:	0094                	addi	a3,sp,64
     306:	0000                	unimp
     308:	00d8                	addi	a4,sp,68
     30a:	0000                	unimp
     30c:	0001                	nop
     30e:	045f 0001 0c00      	0xc000001045f
     314:	0001                	nop
     316:	0100                	addi	s0,sp,128
     318:	5f00                	lw	s0,56(a4)
     31a:	0128                	addi	a0,sp,136
     31c:	0000                	unimp
     31e:	017c                	addi	a5,sp,140
     320:	0000                	unimp
     322:	0001                	nop
     324:	ec5a                	fsw	fs6,24(sp)
     326:	0001                	nop
     328:	f000                	fsw	fs0,32(s0)
     32a:	0001                	nop
     32c:	0100                	addi	s0,sp,128
     32e:	5f00                	lw	s0,56(a4)
     330:	01f0                	addi	a2,sp,204
     332:	0000                	unimp
     334:	0218                	addi	a4,sp,256
     336:	0000                	unimp
     338:	0001                	nop
     33a:	905a                	0x905a
     33c:	0002                	0x2
     33e:	e000                	fsw	fs0,0(s0)
     340:	0002                	0x2
     342:	0100                	addi	s0,sp,128
     344:	5a00                	lw	s0,48(a2)
     346:	02e4                	addi	s1,sp,332
     348:	0000                	unimp
     34a:	02f0                	addi	a2,sp,332
     34c:	0000                	unimp
     34e:	0001                	nop
     350:	f05f 0002 3c00      	0x3c000002f05f
     356:	0004                	addi	s1,sp,0
     358:	0100                	addi	s0,sp,128
     35a:	5a00                	lw	s0,48(a2)
     35c:	0444                	addi	s1,sp,516
     35e:	0000                	unimp
     360:	044c                	addi	a1,sp,516
     362:	0000                	unimp
     364:	0001                	nop
     366:	005e                	0x5e
     368:	0000                	unimp
     36a:	0000                	unimp
     36c:	0000                	unimp
     36e:	9000                	0x9000
     370:	0000                	unimp
     372:	ac00                	fsd	fs0,24(s0)
     374:	0000                	unimp
     376:	0100                	addi	s0,sp,128
     378:	5e00                	lw	s0,56(a2)
     37a:	017c                	addi	a5,sp,140
     37c:	0000                	unimp
     37e:	0194                	addi	a3,sp,192
     380:	0000                	unimp
     382:	0001                	nop
     384:	0002245b          	0x2245b
     388:	6000                	flw	fs0,0(s0)
     38a:	0002                	0x2
     38c:	0100                	addi	s0,sp,128
     38e:	6c00                	flw	fs0,24(s0)
     390:	028c                	addi	a1,sp,320
     392:	0000                	unimp
     394:	0290                	addi	a2,sp,320
     396:	0000                	unimp
     398:	0001                	nop
     39a:	0002e45b          	0x2e45b
     39e:	f000                	fsw	fs0,32(s0)
     3a0:	0002                	0x2
     3a2:	0100                	addi	s0,sp,128
     3a4:	5e00                	lw	s0,56(a2)
     3a6:	0338                	addi	a4,sp,392
     3a8:	0000                	unimp
     3aa:	0390                	addi	a2,sp,448
     3ac:	0000                	unimp
     3ae:	0001                	nop
     3b0:	c45e                	sw	s7,8(sp)
     3b2:	44000003          	lb	zero,1088(zero) # 440 <vprintfmt.constprop.2+0x26>
     3b6:	0004                	addi	s1,sp,0
     3b8:	0100                	addi	s0,sp,128
     3ba:	6e00                	flw	fs0,24(a2)
     3bc:	0444                	addi	s1,sp,516
     3be:	0000                	unimp
     3c0:	0454                	addi	a3,sp,516
     3c2:	0000                	unimp
     3c4:	0001                	nop
     3c6:	0000005b          	0x5b
     3ca:	0000                	unimp
     3cc:	0000                	unimp
     3ce:	0c00                	addi	s0,sp,528
     3d0:	0002                	0x2
     3d2:	9000                	0x9000
     3d4:	0002                	0x2
     3d6:	0100                	addi	s0,sp,128
     3d8:	6d00                	flw	fs0,24(a0)
     3da:	0338                	addi	a4,sp,392
     3dc:	0000                	unimp
     3de:	0340                	addi	s0,sp,388
     3e0:	0000                	unimp
     3e2:	0001                	nop
     3e4:	005f 0000 0000      	0x5f
     3ea:	0000                	unimp
     3ec:	d400                	sw	s0,40(s0)
     3ee:	0002                	0x2
     3f0:	e400                	fsw	fs0,8(s0)
     3f2:	0002                	0x2
     3f4:	0200                	addi	s0,sp,256
     3f6:	3100                	fld	fs0,32(a0)
     3f8:	009f 0000 0000      	0x9f
     3fe:	0000                	unimp
     400:	e400                	fsw	fs0,8(s0)
     402:	0002                	0x2
     404:	f000                	fsw	fs0,32(s0)
     406:	0002                	0x2
     408:	0200                	addi	s0,sp,256
     40a:	3000                	fld	fs0,32(s0)
     40c:	349f 0004 5800      	0x58000004349f
     412:	0004                	addi	s1,sp,0
     414:	0200                	addi	s0,sp,256
     416:	3000                	fld	fs0,32(s0)
     418:	009f 0000 0000      	0x9f
     41e:	0000                	unimp
     420:	0400                	addi	s0,sp,512
     422:	0002                	0x2
     424:	1400                	addi	s0,sp,544
     426:	0002                	0x2
     428:	0100                	addi	s0,sp,128
     42a:	6c00                	flw	fs0,24(s0)
     42c:	0304                	addi	s1,sp,384
     42e:	0000                	unimp
     430:	0458                	addi	a4,sp,516
     432:	0000                	unimp
     434:	0001                	nop
     436:	006d                	c.addi	zero,27
     438:	0000                	unimp
     43a:	0000                	unimp
     43c:	0000                	unimp
     43e:	7c00                	flw	fs0,56(s0)
     440:	0000                	unimp
     442:	0c00                	addi	s0,sp,528
     444:	0001                	nop
     446:	0100                	addi	s0,sp,128
     448:	5600                	lw	s0,40(a2)
     44a:	0174                	addi	a3,sp,140
     44c:	0000                	unimp
     44e:	01f0                	addi	a2,sp,204
     450:	0000                	unimp
     452:	0001                	nop
     454:	0456                	slli	s0,s0,0x15
     456:	0002                	0x2
     458:	9000                	0x9000
     45a:	0002                	0x2
     45c:	0100                	addi	s0,sp,128
     45e:	5600                	lw	s0,40(a2)
     460:	02c8                	addi	a0,sp,324
     462:	0000                	unimp
     464:	02f0                	addi	a2,sp,332
     466:	0000                	unimp
     468:	0001                	nop
     46a:	046c                	addi	a1,sp,524
     46c:	58000003          	lb	zero,1408(zero) # 580 <vprintfmt.constprop.2+0x166>
     470:	0004                	addi	s1,sp,0
     472:	0100                	addi	s0,sp,128
     474:	6c00                	flw	fs0,24(s0)
	...
     47e:	0050                	addi	a2,sp,4
     480:	0000                	unimp
     482:	009c                	addi	a5,sp,64
     484:	0000                	unimp
     486:	0001                	nop
     488:	285c                	fld	fa5,144(s0)
     48a:	0001                	nop
     48c:	3c00                	fld	fs0,56(s0)
     48e:	0001                	nop
     490:	0100                	addi	s0,sp,128
     492:	5c00                	lw	s0,56(s0)
	...
     49c:	0064                	addi	s1,sp,12
     49e:	0000                	unimp
     4a0:	0078                	addi	a4,sp,12
     4a2:	0000                	unimp
     4a4:	0001                	nop
     4a6:	0056                	0x56
     4a8:	0000                	unimp
     4aa:	0000                	unimp
     4ac:	0000                	unimp
     4ae:	9800                	0x9800
     4b0:	0000                	unimp
     4b2:	0400                	addi	s0,sp,512
     4b4:	0001                	nop
     4b6:	0100                	addi	s0,sp,128
     4b8:	5b00                	lw	s0,48(a4)
	...
     4c2:	00a4                	addi	s1,sp,72
     4c4:	0000                	unimp
     4c6:	00e8                	addi	a0,sp,76
     4c8:	0000                	unimp
     4ca:	0001                	nop
     4cc:	e85a                	fsw	fs6,16(sp)
     4ce:	0000                	unimp
     4d0:	0400                	addi	s0,sp,512
     4d2:	0001                	nop
     4d4:	0700                	addi	s0,sp,896
     4d6:	8000                	0x8000
     4d8:	4000                	lw	s0,0(s0)
     4da:	4024                	lw	s1,64(s0)
     4dc:	9f25                	0x9f25
	...
     4e6:	00e0                	addi	s0,sp,76
     4e8:	0000                	unimp
     4ea:	00e4                	addi	s1,sp,76
     4ec:	0000                	unimp
     4ee:	0001                	nop
     4f0:	005d                	c.addi	zero,23
     4f2:	0000                	unimp
     4f4:	0000                	unimp
     4f6:	0000                	unimp
     4f8:	a400                	fsd	fs0,8(s0)
     4fa:	0000                	unimp
     4fc:	b000                	fsd	fs0,32(s0)
     4fe:	0000                	unimp
     500:	0100                	addi	s0,sp,128
     502:	5c00                	lw	s0,56(s0)
     504:	00b8                	addi	a4,sp,72
     506:	0000                	unimp
     508:	00e0                	addi	s0,sp,76
     50a:	0000                	unimp
     50c:	0001                	nop
     50e:	005d                	c.addi	zero,23
     510:	0000                	unimp
     512:	0000                	unimp
     514:	0000                	unimp
     516:	d400                	sw	s0,40(s0)
     518:	0000                	unimp
     51a:	ec00                	fsw	fs0,24(s0)
     51c:	0000                	unimp
     51e:	0100                	addi	s0,sp,128
     520:	5e00                	lw	s0,56(a2)
     522:	00ec                	addi	a1,sp,76
     524:	0000                	unimp
     526:	0104                	addi	s1,sp,128
     528:	0000                	unimp
     52a:	0001                	nop
     52c:	005f 0000 0000      	0x5f
     532:	0000                	unimp
     534:	b800                	fsd	fs0,48(s0)
     536:	0000                	unimp
     538:	d400                	sw	s0,40(s0)
     53a:	0000                	unimp
     53c:	0100                	addi	s0,sp,128
     53e:	5e00                	lw	s0,56(a2)
     540:	00e4                	addi	s1,sp,76
     542:	0000                	unimp
     544:	0104                	addi	s1,sp,128
     546:	0000                	unimp
     548:	0001                	nop
     54a:	005d                	c.addi	zero,23
     54c:	0000                	unimp
     54e:	0000                	unimp
     550:	0000                	unimp
     552:	4800                	lw	s0,16(s0)
     554:	0001                	nop
     556:	7c00                	flw	fs0,56(s0)
     558:	0001                	nop
     55a:	0100                	addi	s0,sp,128
     55c:	6000                	flw	fs0,0(s0)
     55e:	01f0                	addi	a2,sp,204
     560:	0000                	unimp
     562:	0208                	addi	a0,sp,256
     564:	0000                	unimp
     566:	0001                	nop
     568:	0060                	addi	s0,sp,12
     56a:	0000                	unimp
     56c:	0000                	unimp
     56e:	0000                	unimp
     570:	5c00                	lw	s0,56(s0)
     572:	0001                	nop
     574:	7000                	flw	fs0,32(s0)
     576:	0001                	nop
     578:	0100                	addi	s0,sp,128
     57a:	5600                	lw	s0,40(a2)
	...
     584:	0180                	addi	s0,sp,192
     586:	0000                	unimp
     588:	01f0                	addi	a2,sp,204
     58a:	0000                	unimp
     58c:	0001                	nop
     58e:	005d                	c.addi	zero,23
     590:	0000                	unimp
     592:	0000                	unimp
     594:	0000                	unimp
     596:	8800                	0x8800
     598:	0001                	nop
     59a:	d000                	sw	s0,32(s0)
     59c:	0001                	nop
     59e:	0100                	addi	s0,sp,128
     5a0:	5a00                	lw	s0,48(a2)
     5a2:	01d0                	addi	a2,sp,196
     5a4:	0000                	unimp
     5a6:	01f0                	addi	a2,sp,204
     5a8:	0000                	unimp
     5aa:	00800007          	0x800007
     5ae:	2440                	fld	fs0,136(s0)
     5b0:	2540                	fld	fs0,136(a0)
     5b2:	009f 0000 0000      	0x9f
     5b8:	0000                	unimp
     5ba:	9400                	0x9400
     5bc:	0001                	nop
     5be:	a000                	fsd	fs0,0(s0)
     5c0:	0001                	nop
     5c2:	0100                	addi	s0,sp,128
     5c4:	5b00                	lw	s0,48(a4)
	...
     5ce:	01c8                	addi	a0,sp,196
     5d0:	0000                	unimp
     5d2:	01cc                	addi	a1,sp,196
     5d4:	0000                	unimp
     5d6:	0001                	nop
     5d8:	0000005b          	0x5b
     5dc:	0000                	unimp
     5de:	0000                	unimp
     5e0:	9000                	0x9000
     5e2:	0001                	nop
     5e4:	9800                	0x9800
     5e6:	0001                	nop
     5e8:	0100                	addi	s0,sp,128
     5ea:	5e00                	lw	s0,56(a2)
     5ec:	01a0                	addi	s0,sp,200
     5ee:	0000                	unimp
     5f0:	01b8                	addi	a4,sp,200
     5f2:	0000                	unimp
     5f4:	0001                	nop
     5f6:	b85e                	fsd	fs7,48(sp)
     5f8:	0001                	nop
     5fa:	c800                	sw	s0,16(s0)
     5fc:	0001                	nop
     5fe:	0100                	addi	s0,sp,128
     600:	5b00                	lw	s0,48(a4)
	...
     60a:	01bc                	addi	a5,sp,200
     60c:	0000                	unimp
     60e:	01d4                	addi	a3,sp,196
     610:	0000                	unimp
     612:	0001                	nop
     614:	d45e                	sw	s7,40(sp)
     616:	0001                	nop
     618:	f000                	fsw	fs0,32(s0)
     61a:	0001                	nop
     61c:	0100                	addi	s0,sp,128
     61e:	5f00                	lw	s0,56(a4)
	...
     628:	01a0                	addi	s0,sp,200
     62a:	0000                	unimp
     62c:	01b8                	addi	a4,sp,200
     62e:	0000                	unimp
     630:	0001                	nop
     632:	0001cc5b          	0x1cc5b
     636:	f000                	fsw	fs0,32(s0)
     638:	0001                	nop
     63a:	0100                	addi	s0,sp,128
     63c:	5b00                	lw	s0,48(a4)
	...
     646:	0224                	addi	s1,sp,264
     648:	0000                	unimp
     64a:	0290                	addi	a2,sp,320
     64c:	0000                	unimp
     64e:	0001                	nop
     650:	005a                	0x5a
     652:	0000                	unimp
     654:	0000                	unimp
     656:	0000                	unimp
     658:	2c00                	fld	fs0,24(s0)
     65a:	0002                	0x2
     65c:	7400                	flw	fs0,40(s0)
     65e:	0002                	0x2
     660:	0100                	addi	s0,sp,128
     662:	5b00                	lw	s0,48(a4)
     664:	0274                	addi	a3,sp,268
     666:	0000                	unimp
     668:	0290                	addi	a2,sp,320
     66a:	0000                	unimp
     66c:	00800007          	0x800007
     670:	2440                	fld	fs0,136(s0)
     672:	2540                	fld	fs0,136(a0)
     674:	009f 0000 0000      	0x9f
     67a:	0000                	unimp
     67c:	3400                	fld	fs0,40(s0)
     67e:	0002                	0x2
     680:	3800                	fld	fs0,48(s0)
     682:	0002                	0x2
     684:	0100                	addi	s0,sp,128
     686:	5d00                	lw	s0,56(a0)
     688:	0238                	addi	a4,sp,264
     68a:	0000                	unimp
     68c:	0244                	addi	s1,sp,260
     68e:	0000                	unimp
     690:	000c                	addi	a1,sp,0
     692:	008d                	addi	ra,ra,3
     694:	007a25f7          	0x7a25f7
     698:	f71b25f7          	0xf71b25f7
     69c:	9f00                	0x9f00
     69e:	0244                	addi	s1,sp,260
     6a0:	0000                	unimp
     6a2:	0250                	addi	a2,sp,260
     6a4:	0000                	unimp
     6a6:	000e                	0xe
     6a8:	008d                	addi	ra,ra,3
     6aa:	007a25f7          	0x7a25f7
     6ae:	f71b25f7          	0xf71b25f7
     6b2:	3100                	fld	fs0,32(a0)
     6b4:	9f1c                	0x9f1c
     6b6:	0250                	addi	a2,sp,260
     6b8:	0000                	unimp
     6ba:	0254                	addi	a3,sp,260
     6bc:	0000                	unimp
     6be:	000e                	0xe
     6c0:	008d                	addi	ra,ra,3
     6c2:	007a25f7          	0x7a25f7
     6c6:	f71b25f7          	0xf71b25f7
     6ca:	3200                	fld	fs0,32(a2)
     6cc:	9f1c                	0x9f1c
	...
     6d6:	0268                	addi	a0,sp,268
     6d8:	0000                	unimp
     6da:	0270                	addi	a2,sp,268
     6dc:	0000                	unimp
     6de:	0001                	nop
     6e0:	005c                	addi	a5,sp,4
     6e2:	0000                	unimp
     6e4:	0000                	unimp
     6e6:	0000                	unimp
     6e8:	3400                	fld	fs0,40(s0)
     6ea:	0002                	0x2
     6ec:	3c00                	fld	fs0,56(s0)
     6ee:	0002                	0x2
     6f0:	0100                	addi	s0,sp,128
     6f2:	5e00                	lw	s0,56(a2)
     6f4:	023c                	addi	a5,sp,264
     6f6:	0000                	unimp
     6f8:	0240                	addi	s0,sp,260
     6fa:	0000                	unimp
     6fc:	0006                	0x6
     6fe:	008d                	addi	ra,ra,3
     700:	007a                	0x7a
     702:	9f1d                	0x9f1d
     704:	0240                	addi	s0,sp,260
     706:	0000                	unimp
     708:	0258                	addi	a4,sp,260
     70a:	0000                	unimp
     70c:	0001                	nop
     70e:	585e                	lw	a6,244(sp)
     710:	0002                	0x2
     712:	6800                	flw	fs0,16(s0)
     714:	0002                	0x2
     716:	0100                	addi	s0,sp,128
     718:	5c00                	lw	s0,56(s0)
	...
     722:	025c                	addi	a5,sp,260
     724:	0000                	unimp
     726:	026c                	addi	a1,sp,268
     728:	0000                	unimp
     72a:	0001                	nop
     72c:	745e                	flw	fs0,244(sp)
     72e:	0002                	0x2
     730:	9000                	0x9000
     732:	0002                	0x2
     734:	0100                	addi	s0,sp,128
     736:	5b00                	lw	s0,48(a4)
	...
     740:	0238                	addi	a4,sp,264
     742:	0000                	unimp
     744:	0270                	addi	a2,sp,268
     746:	0000                	unimp
     748:	0001                	nop
     74a:	705d                	0x705d
     74c:	0002                	0x2
     74e:	9000                	0x9000
     750:	0002                	0x2
     752:	0100                	addi	s0,sp,128
     754:	5c00                	lw	s0,56(s0)
	...
     75e:	0294                	addi	a3,sp,320
     760:	0000                	unimp
     762:	02a8                	addi	a0,sp,328
     764:	0000                	unimp
     766:	0001                	nop
     768:	a856                	fsd	fs5,16(sp)
     76a:	0002                	0x2
     76c:	dc00                	sw	s0,56(s0)
     76e:	0002                	0x2
     770:	0100                	addi	s0,sp,128
     772:	5d00                	lw	s0,56(a0)
     774:	02f0                	addi	a2,sp,332
     776:	0000                	unimp
     778:	02f4                	addi	a3,sp,332
     77a:	0000                	unimp
     77c:	0001                	nop
     77e:	f456                	fsw	fs5,40(sp)
     780:	0002                	0x2
     782:	0c00                	addi	s0,sp,528
     784:	01000003          	lb	zero,16(zero) # 10 <buf.1775+0x10>
     788:	5d00                	lw	s0,56(a0)
	...
     792:	02a8                	addi	a0,sp,328
     794:	0000                	unimp
     796:	02f0                	addi	a2,sp,332
     798:	0000                	unimp
     79a:	0001                	nop
     79c:	0460                	addi	s0,sp,524
     79e:	34000003          	lb	zero,832(zero) # 340 <printf_putch+0x2c>
     7a2:	01000003          	lb	zero,16(zero) # 10 <buf.1775+0x10>
     7a6:	6000                	flw	fs0,0(s0)
	...
     7b0:	02d8                	addi	a4,sp,324
     7b2:	0000                	unimp
     7b4:	02e4                	addi	s1,sp,332
     7b6:	0000                	unimp
     7b8:	0001                	nop
     7ba:	005f 0000 0000      	0x5f
     7c0:	0000                	unimp
     7c2:	1000                	addi	s0,sp,32
     7c4:	0004                	addi	s1,sp,0
     7c6:	2c00                	fld	fs0,24(s0)
     7c8:	0004                	addi	s1,sp,0
     7ca:	0100                	addi	s0,sp,128
     7cc:	5b00                	lw	s0,48(a4)
     7ce:	0430                	addi	a2,sp,520
     7d0:	0000                	unimp
     7d2:	0440                	addi	s0,sp,516
     7d4:	0000                	unimp
     7d6:	0001                	nop
     7d8:	0000005b          	0x5b
     7dc:	0000                	unimp
     7de:	0000                	unimp
     7e0:	1400                	addi	s0,sp,544
     7e2:	0004                	addi	s1,sp,0
     7e4:	2800                	fld	fs0,16(s0)
     7e6:	0004                	addi	s1,sp,0
     7e8:	0100                	addi	s0,sp,128
     7ea:	5e00                	lw	s0,56(a2)
     7ec:	0430                	addi	a2,sp,520
     7ee:	0000                	unimp
     7f0:	0434                	addi	a3,sp,520
     7f2:	0000                	unimp
     7f4:	0001                	nop
     7f6:	345c                	fld	fa5,168(s0)
     7f8:	0004                	addi	s1,sp,0
     7fa:	3800                	fld	fs0,48(s0)
     7fc:	0004                	addi	s1,sp,0
     7fe:	0100                	addi	s0,sp,128
     800:	5e00                	lw	s0,56(a2)
	...
     80a:	033c                	addi	a5,sp,392
     80c:	0000                	unimp
     80e:	0380                	addi	s0,sp,448
     810:	0000                	unimp
     812:	0001                	nop
     814:	0003805b          	0x3805b
     818:	5800                	lw	s0,48(s0)
     81a:	0004                	addi	s1,sp,0
     81c:	0500                	addi	s0,sp,640
     81e:	7d00                	flw	fs0,56(a0)
     820:	4000                	lw	s0,0(s0)
     822:	9f25                	0x9f25
	...
     82c:	033c                	addi	a5,sp,392
     82e:	0000                	unimp
     830:	0384                	addi	s1,sp,448
     832:	0000                	unimp
     834:	0001                	nop
     836:	846e                	mv	s0,s11
     838:	58000003          	lb	zero,1408(zero) # 580 <vprintfmt.constprop.2+0x166>
     83c:	0004                	addi	s1,sp,0
     83e:	0700                	addi	s0,sp,896
     840:	7d00                	flw	fs0,56(a0)
     842:	4000                	lw	s0,0(s0)
     844:	4024                	lw	s1,64(s0)
     846:	9f25                	0x9f25
	...
     850:	0340                	addi	s0,sp,388
     852:	0000                	unimp
     854:	035c                	addi	a5,sp,388
     856:	0000                	unimp
     858:	0001                	nop
     85a:	5c5f 0003 b000      	0xb00000035c5f
     860:	01000003          	lb	zero,16(zero) # 10 <buf.1775+0x10>
     864:	5600                	lw	s0,40(a2)
	...
     86e:	0378                	addi	a4,sp,396
     870:	0000                	unimp
     872:	039c                	addi	a5,sp,448
     874:	0000                	unimp
     876:	0001                	nop
     878:	9c60                	0x9c60
     87a:	d4000003          	lb	zero,-704(zero) # fffffd40 <__C_STACK_TOP__+0xfffefd40>
     87e:	01000003          	lb	zero,16(zero) # 10 <buf.1775+0x10>
     882:	5e00                	lw	s0,56(a2)
	...
     88c:	033c                	addi	a5,sp,392
     88e:	0000                	unimp
     890:	0344                	addi	s1,sp,388
     892:	0000                	unimp
     894:	0001                	nop
     896:	4c56                	lw	s8,84(sp)
     898:	58000003          	lb	zero,1408(zero) # 580 <vprintfmt.constprop.2+0x166>
     89c:	01000003          	lb	zero,16(zero) # 10 <buf.1775+0x10>
     8a0:	6000                	flw	fs0,0(s0)
     8a2:	035c                	addi	a5,sp,388
     8a4:	0000                	unimp
     8a6:	0378                	addi	a4,sp,396
     8a8:	0000                	unimp
     8aa:	0001                	nop
     8ac:	0060                	addi	s0,sp,12
     8ae:	0000                	unimp
     8b0:	0000                	unimp
     8b2:	0000                	unimp
     8b4:	7400                	flw	fs0,40(s0)
     8b6:	7c000003          	lb	zero,1984(zero) # 7c0 <vprintfmt.constprop.2+0x3a6>
     8ba:	01000003          	lb	zero,16(zero) # 10 <buf.1775+0x10>
     8be:	6f00                	flw	fs0,24(a4)
     8c0:	038c                	addi	a1,sp,448
     8c2:	0000                	unimp
     8c4:	0398                	addi	a4,sp,448
     8c6:	0000                	unimp
     8c8:	0001                	nop
     8ca:	9c6e                	add	s8,s8,s11
     8cc:	58000003          	lb	zero,1408(zero) # 580 <vprintfmt.constprop.2+0x166>
     8d0:	0004                	addi	s1,sp,0
     8d2:	0100                	addi	s0,sp,128
     8d4:	6e00                	flw	fs0,24(a2)
	...
     8de:	034c                	addi	a1,sp,388
     8e0:	0000                	unimp
     8e2:	0374                	addi	a3,sp,396
     8e4:	0000                	unimp
     8e6:	0001                	nop
     8e8:	0003746f          	jal	s0,378e8 <__C_STACK_TOP__+0x278e8>
     8ec:	8000                	0x8000
     8ee:	06000003          	lb	zero,96(zero) # 60 <buflen.1776+0x20>
     8f2:	8e00                	0x8e00
     8f4:	7f00                	flw	fs0,56(a4)
     8f6:	1e00                	addi	s0,sp,816
     8f8:	809f 0003 c800      	0xc8000003809f
     8fe:	01000003          	lb	zero,16(zero) # 10 <buf.1775+0x10>
     902:	5b00                	lw	s0,48(a4)
	...
     90c:	03d4                	addi	a3,sp,452
     90e:	0000                	unimp
     910:	040c                	addi	a1,sp,512
     912:	0000                	unimp
     914:	0001                	nop
     916:	005e                	0x5e
     918:	0000                	unimp
     91a:	0000                	unimp
     91c:	0000                	unimp
     91e:	ec00                	fsw	fs0,24(s0)
     920:	04000003          	lb	zero,64(zero) # 40 <buflen.1776>
     924:	0004                	addi	s1,sp,0
     926:	0100                	addi	s0,sp,128
     928:	6000                	flw	fs0,0(s0)
	...
     932:	03d8                	addi	a4,sp,452
     934:	0000                	unimp
     936:	03f8                	addi	a4,sp,460
     938:	0000                	unimp
     93a:	0001                	nop
     93c:	005f 0000 0000      	0x5f
     942:	0000                	unimp
     944:	c800                	sw	s0,16(s0)
     946:	dc000003          	lb	zero,-576(zero) # fffffdc0 <__C_STACK_TOP__+0xfffefdc0>
     94a:	01000003          	lb	zero,16(zero) # 10 <buf.1775+0x10>
     94e:	5b00                	lw	s0,48(a4)
	...
     958:	03d0                	addi	a2,sp,452
     95a:	0000                	unimp
     95c:	03d8                	addi	a4,sp,452
     95e:	0000                	unimp
     960:	0001                	nop
     962:	d85f 0003 fc00      	0xfc000003d85f
     968:	06000003          	lb	zero,96(zero) # 60 <buflen.1776+0x20>
     96c:	8f00                	0x8f00
     96e:	7c7f                	0x7c7f
     970:	1a00                	addi	s0,sp,304
     972:	fc9f 0003 2400      	0x24000003fc9f
     978:	0004                	addi	s1,sp,0
     97a:	0600                	addi	s0,sp,768
     97c:	7c00                	flw	fs0,56(s0)
     97e:	7f00                	flw	fs0,56(a4)
     980:	1a00                	addi	s0,sp,304
     982:	009f 0000 0000      	0x9f
     988:	0000                	unimp
     98a:	cc00                	sw	s0,24(s0)
     98c:	e0000003          	lb	zero,-512(zero) # fffffe00 <__C_STACK_TOP__+0xfffefe00>
     990:	01000003          	lb	zero,16(zero) # 10 <buf.1775+0x10>
     994:	5600                	lw	s0,40(a2)
	...
     99e:	0424                	addi	s1,sp,520
     9a0:	0000                	unimp
     9a2:	0434                	addi	a3,sp,520
     9a4:	0000                	unimp
     9a6:	0001                	nop
     9a8:	005c                	addi	a5,sp,4
     9aa:	0000                	unimp
     9ac:	0000                	unimp
     9ae:	0000                	unimp
     9b0:	3800                	fld	fs0,48(s0)
     9b2:	0004                	addi	s1,sp,0
     9b4:	4c00                	lw	s0,24(s0)
     9b6:	0004                	addi	s1,sp,0
     9b8:	0100                	addi	s0,sp,128
     9ba:	5e00                	lw	s0,56(a2)
	...
     9c8:	0068                	addi	a0,sp,12
     9ca:	0000                	unimp
     9cc:	0006                	0x6
     9ce:	935a                	add	t1,t1,s6
     9d0:	5b04                	lw	s1,48(a4)
     9d2:	00680493          	addi	s1,a6,6
     9d6:	0000                	unimp
     9d8:	00f4                	addi	a3,sp,76
     9da:	0000                	unimp
     9dc:	0006                	0x6
     9de:	0af503f3          	0xaf503f3
     9e2:	9f25                	0x9f25
     9e4:	00f4                	addi	a3,sp,76
     9e6:	0000                	unimp
     9e8:	014c                	addi	a1,sp,132
     9ea:	0000                	unimp
     9ec:	0006                	0x6
     9ee:	935a                	add	t1,t1,s6
     9f0:	5b04                	lw	s1,48(a4)
     9f2:	014c0493          	addi	s1,s8,20
     9f6:	0000                	unimp
     9f8:	01dc                	addi	a5,sp,196
     9fa:	0000                	unimp
     9fc:	0006                	0x6
     9fe:	0af503f3          	0xaf503f3
     a02:	9f25                	0x9f25
     a04:	01dc                	addi	a5,sp,196
     a06:	0000                	unimp
     a08:	0204                	addi	s1,sp,256
     a0a:	0000                	unimp
     a0c:	0006                	0x6
     a0e:	935a                	add	t1,t1,s6
     a10:	5b04                	lw	s1,48(a4)
     a12:	02040493          	addi	s1,s0,32
     a16:	0000                	unimp
     a18:	029c                	addi	a5,sp,320
     a1a:	0000                	unimp
     a1c:	0006                	0x6
     a1e:	0af503f3          	0xaf503f3
     a22:	9f25                	0x9f25
     a24:	029c                	addi	a5,sp,320
     a26:	0000                	unimp
     a28:	02e4                	addi	s1,sp,332
     a2a:	0000                	unimp
     a2c:	0006                	0x6
     a2e:	935a                	add	t1,t1,s6
     a30:	5b04                	lw	s1,48(a4)
     a32:	02e40493          	addi	s1,s0,46
     a36:	0000                	unimp
     a38:	02ec                	addi	a1,sp,332
     a3a:	0000                	unimp
     a3c:	0006                	0x6
     a3e:	0af503f3          	0xaf503f3
     a42:	9f25                	0x9f25
     a44:	02ec                	addi	a1,sp,332
     a46:	0000                	unimp
     a48:	0414                	addi	a3,sp,512
     a4a:	0000                	unimp
     a4c:	0006                	0x6
     a4e:	935a                	add	t1,t1,s6
     a50:	5b04                	lw	s1,48(a4)
     a52:	04140493          	addi	s1,s0,65
     a56:	0000                	unimp
     a58:	0428                	addi	a0,sp,520
     a5a:	0000                	unimp
     a5c:	0006                	0x6
     a5e:	0af503f3          	0xaf503f3
     a62:	9f25                	0x9f25
     a64:	0428                	addi	a0,sp,520
     a66:	0000                	unimp
     a68:	0434                	addi	a3,sp,520
     a6a:	0000                	unimp
     a6c:	0006                	0x6
     a6e:	935a                	add	t1,t1,s6
     a70:	5b04                	lw	s1,48(a4)
     a72:	00000493          	li	s1,0
	...
     a7e:	0000                	unimp
     a80:	0070                	addi	a2,sp,12
     a82:	0000                	unimp
     a84:	0006                	0x6
     a86:	935c                	0x935c
     a88:	5d04                	lw	s1,56(a0)
     a8a:	00700493          	li	s1,7
     a8e:	0000                	unimp
     a90:	00f4                	addi	a3,sp,76
     a92:	0000                	unimp
     a94:	0006                	0x6
     a96:	0cf503f3          	0xcf503f3
     a9a:	9f25                	0x9f25
     a9c:	00f4                	addi	a3,sp,76
     a9e:	0000                	unimp
     aa0:	014c                	addi	a1,sp,132
     aa2:	0000                	unimp
     aa4:	0006                	0x6
     aa6:	935c                	0x935c
     aa8:	5d04                	lw	s1,56(a0)
     aaa:	014c0493          	addi	s1,s8,20
     aae:	0000                	unimp
     ab0:	01dc                	addi	a5,sp,196
     ab2:	0000                	unimp
     ab4:	0006                	0x6
     ab6:	0cf503f3          	0xcf503f3
     aba:	9f25                	0x9f25
     abc:	01dc                	addi	a5,sp,196
     abe:	0000                	unimp
     ac0:	021c                	addi	a5,sp,256
     ac2:	0000                	unimp
     ac4:	0006                	0x6
     ac6:	935c                	0x935c
     ac8:	5d04                	lw	s1,56(a0)
     aca:	021c0493          	addi	s1,s8,33
     ace:	0000                	unimp
     ad0:	029c                	addi	a5,sp,320
     ad2:	0000                	unimp
     ad4:	0006                	0x6
     ad6:	0cf503f3          	0xcf503f3
     ada:	9f25                	0x9f25
     adc:	029c                	addi	a5,sp,320
     ade:	0000                	unimp
     ae0:	0334                	addi	a3,sp,392
     ae2:	0000                	unimp
     ae4:	0006                	0x6
     ae6:	935c                	0x935c
     ae8:	5d04                	lw	s1,56(a0)
     aea:	03340493          	addi	s1,s0,51
     aee:	0000                	unimp
     af0:	0428                	addi	a0,sp,520
     af2:	0000                	unimp
     af4:	0006                	0x6
     af6:	0cf503f3          	0xcf503f3
     afa:	9f25                	0x9f25
     afc:	0428                	addi	a0,sp,520
     afe:	0000                	unimp
     b00:	0434                	addi	a3,sp,520
     b02:	0000                	unimp
     b04:	0006                	0x6
     b06:	935c                	0x935c
     b08:	5d04                	lw	s1,56(a0)
     b0a:	00000493          	li	s1,0
	...
     b16:	0000                	unimp
     b18:	01d4                	addi	a3,sp,196
     b1a:	0000                	unimp
     b1c:	0002                	0x2
     b1e:	9f30                	0x9f30
     b20:	01dc                	addi	a5,sp,196
     b22:	0000                	unimp
     b24:	0434                	addi	a3,sp,520
     b26:	0000                	unimp
     b28:	0002                	0x2
     b2a:	9f30                	0x9f30
	...
     b38:	0024                	addi	s1,sp,8
     b3a:	0000                	unimp
     b3c:	0006                	0x6
     b3e:	935c                	0x935c
     b40:	5d04                	lw	s1,56(a0)
     b42:	00240493          	addi	s1,s0,2
     b46:	0000                	unimp
     b48:	0034                	addi	a3,sp,8
     b4a:	0000                	unimp
     b4c:	0006                	0x6
     b4e:	935c                	0x935c
     b50:	6104                	flw	fs1,0(a0)
     b52:	00f40493          	addi	s1,s0,15
     b56:	0000                	unimp
     b58:	00f8                	addi	a4,sp,76
     b5a:	0000                	unimp
     b5c:	0006                	0x6
     b5e:	935c                	0x935c
     b60:	6104                	flw	fs1,0(a0)
     b62:	01080493          	addi	s1,a6,16
     b66:	0000                	unimp
     b68:	0110                	addi	a2,sp,128
     b6a:	0000                	unimp
     b6c:	0006                	0x6
     b6e:	935c                	0x935c
     b70:	5d04                	lw	s1,56(a0)
     b72:	01100493          	li	s1,17
     b76:	0000                	unimp
     b78:	0128                	addi	a0,sp,136
     b7a:	0000                	unimp
     b7c:	0006                	0x6
     b7e:	935c                	0x935c
     b80:	6104                	flw	fs1,0(a0)
     b82:	01dc0493          	addi	s1,s8,29
     b86:	0000                	unimp
     b88:	01e4                	addi	s1,sp,204
     b8a:	0000                	unimp
     b8c:	0006                	0x6
     b8e:	935c                	0x935c
     b90:	6104                	flw	fs1,0(a0)
     b92:	029c0493          	addi	s1,s8,41
     b96:	0000                	unimp
     b98:	0308                	addi	a0,sp,384
     b9a:	0000                	unimp
     b9c:	0006                	0x6
     b9e:	935c                	0x935c
     ba0:	5d04                	lw	s1,56(a0)
     ba2:	03080493          	addi	s1,a6,48
     ba6:	0000                	unimp
     ba8:	0318                	addi	a4,sp,384
     baa:	0000                	unimp
     bac:	0006                	0x6
     bae:	935c                	0x935c
     bb0:	6104                	flw	fs1,0(a0)
     bb2:	04280493          	addi	s1,a6,66
     bb6:	0000                	unimp
     bb8:	0434                	addi	a3,sp,520
     bba:	0000                	unimp
     bbc:	0006                	0x6
     bbe:	935c                	0x935c
     bc0:	5d04                	lw	s1,56(a0)
     bc2:	00000493          	li	s1,0
	...
     bce:	0000                	unimp
     bd0:	0060                	addi	s0,sp,12
     bd2:	0000                	unimp
     bd4:	0006                	0x6
     bd6:	935a                	add	t1,t1,s6
     bd8:	5b04                	lw	s1,48(a4)
     bda:	00f40493          	addi	s1,s0,15
     bde:	0000                	unimp
     be0:	014c                	addi	a1,sp,132
     be2:	0000                	unimp
     be4:	0006                	0x6
     be6:	9356                	add	t1,t1,s5
     be8:	5b04                	lw	s1,48(a4)
     bea:	01dc0493          	addi	s1,s8,29
     bee:	0000                	unimp
     bf0:	01f8                	addi	a4,sp,204
     bf2:	0000                	unimp
     bf4:	0006                	0x6
     bf6:	9356                	add	t1,t1,s5
     bf8:	5b04                	lw	s1,48(a4)
     bfa:	01f80493          	addi	s1,a6,31
     bfe:	0000                	unimp
     c00:	01fc                	addi	a5,sp,204
     c02:	0000                	unimp
     c04:	0006                	0x6
     c06:	9356                	add	t1,t1,s5
     c08:	5f04                	lw	s1,56(a4)
     c0a:	01fc0493          	addi	s1,s8,31
     c0e:	0000                	unimp
     c10:	0204                	addi	s1,sp,256
     c12:	0000                	unimp
     c14:	0006                	0x6
     c16:	935a                	add	t1,t1,s6
     c18:	5f04                	lw	s1,56(a4)
     c1a:	029c0493          	addi	s1,s8,41
     c1e:	0000                	unimp
     c20:	02b4                	addi	a3,sp,328
     c22:	0000                	unimp
     c24:	0006                	0x6
     c26:	9356                	add	t1,t1,s5
     c28:	5b04                	lw	s1,48(a4)
     c2a:	02b40493          	addi	s1,s0,43
     c2e:	0000                	unimp
     c30:	02ec                	addi	a1,sp,332
     c32:	0000                	unimp
     c34:	0006                	0x6
     c36:	9356                	add	t1,t1,s5
     c38:	5f04                	lw	s1,56(a4)
     c3a:	02ec0493          	addi	s1,s8,46
     c3e:	0000                	unimp
     c40:	02f0                	addi	a2,sp,332
     c42:	0000                	unimp
     c44:	0006                	0x6
     c46:	9356                	add	t1,t1,s5
     c48:	5b04                	lw	s1,48(a4)
     c4a:	02f00493          	li	s1,47
     c4e:	0000                	unimp
     c50:	031c                	addi	a5,sp,384
     c52:	0000                	unimp
     c54:	0006                	0x6
     c56:	9356                	add	t1,t1,s5
     c58:	5f04                	lw	s1,56(a4)
     c5a:	04280493          	addi	s1,a6,66
     c5e:	0000                	unimp
     c60:	042c                	addi	a1,sp,520
     c62:	0000                	unimp
     c64:	0006                	0x6
     c66:	9356                	add	t1,t1,s5
     c68:	5b04                	lw	s1,48(a4)
     c6a:	042c0493          	addi	s1,s8,66
     c6e:	0000                	unimp
     c70:	0434                	addi	a3,sp,520
     c72:	0000                	unimp
     c74:	0006                	0x6
     c76:	9356                	add	t1,t1,s5
     c78:	5f04                	lw	s1,56(a4)
     c7a:	00000493          	li	s1,0
     c7e:	0000                	unimp
     c80:	0000                	unimp
     c82:	0000                	unimp
     c84:	0008                	addi	a0,sp,0
     c86:	0000                	unimp
     c88:	0050                	addi	a2,sp,4
     c8a:	0000                	unimp
     c8c:	0001                	nop
     c8e:	505c                	lw	a5,36(s0)
     c90:	0000                	unimp
     c92:	5c00                	lw	s0,56(s0)
     c94:	0000                	unimp
     c96:	0600                	addi	s0,sp,768
     c98:	7c00                	flw	fs0,56(s0)
     c9a:	7e00                	flw	fs0,56(a2)
     c9c:	2400                	fld	fs0,8(s0)
     c9e:	5c9f 0000 ec00      	0xec0000005c9f
     ca4:	0000                	unimp
     ca6:	0100                	addi	s0,sp,128
     ca8:	6000                	flw	fs0,0(s0)
     caa:	00f4                	addi	a3,sp,76
     cac:	0000                	unimp
     cae:	0110                	addi	a2,sp,128
     cb0:	0000                	unimp
     cb2:	0001                	nop
     cb4:	105c                	addi	a5,sp,36
     cb6:	0001                	nop
     cb8:	1400                	addi	s0,sp,544
     cba:	0001                	nop
     cbc:	0b00                	addi	s0,sp,400
     cbe:	3100                	fld	fs0,32(a0)
     cc0:	007c2cf7          	0x7c2cf7
     cc4:	f71b2cf7          	0xf71b2cf7
     cc8:	9f00                	0x9f00
     cca:	0114                	addi	a3,sp,128
     ccc:	0000                	unimp
     cce:	01d4                	addi	a3,sp,196
     cd0:	0000                	unimp
     cd2:	0001                	nop
     cd4:	dc60                	sw	s0,124(s0)
     cd6:	0001                	nop
     cd8:	f000                	fsw	fs0,32(s0)
     cda:	0001                	nop
     cdc:	0100                	addi	s0,sp,128
     cde:	6000                	flw	fs0,0(s0)
     ce0:	01f0                	addi	a2,sp,204
     ce2:	0000                	unimp
     ce4:	01f4                	addi	a3,sp,204
     ce6:	0000                	unimp
     ce8:	0006                	0x6
     cea:	0080                	addi	s0,sp,64
     cec:	007e                	0x7e
     cee:	9f24                	0x9f24
     cf0:	01f4                	addi	a3,sp,204
     cf2:	0000                	unimp
     cf4:	029c                	addi	a5,sp,320
     cf6:	0000                	unimp
     cf8:	0001                	nop
     cfa:	9c60                	0x9c60
     cfc:	0002                	0x2
     cfe:	c800                	sw	s0,16(s0)
     d00:	01000003          	lb	zero,16(zero) # 10 <buf.1775+0x10>
     d04:	5c00                	lw	s0,56(s0)
     d06:	0428                	addi	a0,sp,520
     d08:	0000                	unimp
     d0a:	0434                	addi	a3,sp,520
     d0c:	0000                	unimp
     d0e:	0001                	nop
     d10:	005c                	addi	a5,sp,4
     d12:	0000                	unimp
     d14:	0000                	unimp
     d16:	0000                	unimp
     d18:	0c00                	addi	s0,sp,528
     d1a:	0000                	unimp
     d1c:	2400                	fld	fs0,8(s0)
     d1e:	0000                	unimp
     d20:	0100                	addi	s0,sp,128
     d22:	5d00                	lw	s0,56(a0)
     d24:	0024                	addi	s1,sp,8
     d26:	0000                	unimp
     d28:	0034                	addi	a3,sp,8
     d2a:	0000                	unimp
     d2c:	0001                	nop
     d2e:	f461                	bnez	s0,cf6 <main+0x232>
     d30:	0000                	unimp
     d32:	f800                	fsw	fs0,48(s0)
     d34:	0000                	unimp
     d36:	0100                	addi	s0,sp,128
     d38:	6100                	flw	fs0,0(a0)
     d3a:	0108                	addi	a0,sp,128
     d3c:	0000                	unimp
     d3e:	0110                	addi	a2,sp,128
     d40:	0000                	unimp
     d42:	0001                	nop
     d44:	105d                	c.addi	zero,-9
     d46:	0001                	nop
     d48:	2800                	fld	fs0,16(s0)
     d4a:	0001                	nop
     d4c:	0100                	addi	s0,sp,128
     d4e:	6100                	flw	fs0,0(a0)
     d50:	01dc                	addi	a5,sp,196
     d52:	0000                	unimp
     d54:	01e4                	addi	s1,sp,204
     d56:	0000                	unimp
     d58:	0001                	nop
     d5a:	9c61                	0x9c61
     d5c:	0002                	0x2
     d5e:	0800                	addi	s0,sp,16
     d60:	01000003          	lb	zero,16(zero) # 10 <buf.1775+0x10>
     d64:	5d00                	lw	s0,56(a0)
     d66:	0308                	addi	a0,sp,384
     d68:	0000                	unimp
     d6a:	030c                	addi	a1,sp,384
     d6c:	0000                	unimp
     d6e:	0001                	nop
     d70:	0c61                	addi	s8,s8,24
     d72:	d4000003          	lb	zero,-704(zero) # fffffd40 <__C_STACK_TOP__+0xfffefd40>
     d76:	01000003          	lb	zero,16(zero) # 10 <buf.1775+0x10>
     d7a:	5d00                	lw	s0,56(a0)
     d7c:	0428                	addi	a0,sp,520
     d7e:	0000                	unimp
     d80:	0434                	addi	a3,sp,520
     d82:	0000                	unimp
     d84:	0001                	nop
     d86:	005d                	c.addi	zero,23
     d88:	0000                	unimp
     d8a:	0000                	unimp
     d8c:	0000                	unimp
     d8e:	1000                	addi	s0,sp,32
     d90:	0000                	unimp
     d92:	6400                	flw	fs0,8(s0)
     d94:	0000                	unimp
     d96:	0100                	addi	s0,sp,128
     d98:	5a00                	lw	s0,48(a2)
     d9a:	0064                	addi	s1,sp,12
     d9c:	0000                	unimp
     d9e:	00b4                	addi	a3,sp,72
     da0:	0000                	unimp
     da2:	0001                	nop
     da4:	f456                	fsw	fs5,40(sp)
     da6:	0000                	unimp
     da8:	9c00                	0x9c00
     daa:	0001                	nop
     dac:	0100                	addi	s0,sp,128
     dae:	5600                	lw	s0,40(a2)
     db0:	01dc                	addi	a5,sp,196
     db2:	0000                	unimp
     db4:	01fc                	addi	a5,sp,204
     db6:	0000                	unimp
     db8:	0001                	nop
     dba:	fc56                	fsw	fs5,56(sp)
     dbc:	0001                	nop
     dbe:	0400                	addi	s0,sp,512
     dc0:	0002                	0x2
     dc2:	0100                	addi	s0,sp,128
     dc4:	5a00                	lw	s0,48(a2)
     dc6:	0210                	addi	a2,sp,256
     dc8:	0000                	unimp
     dca:	0324                	addi	s1,sp,392
     dcc:	0000                	unimp
     dce:	0001                	nop
     dd0:	2456                	fld	fs0,336(sp)
     dd2:	34000003          	lb	zero,832(zero) # 340 <printf_putch+0x2c>
     dd6:	01000003          	lb	zero,16(zero) # 10 <buf.1775+0x10>
     dda:	5a00                	lw	s0,48(a2)
     ddc:	0334                	addi	a3,sp,392
     dde:	0000                	unimp
     de0:	0414                	addi	a3,sp,512
     de2:	0000                	unimp
     de4:	0006                	0x6
     de6:	007a                	0x7a
     de8:	9f24007b          	0x9f24007b
     dec:	0428                	addi	a0,sp,520
     dee:	0000                	unimp
     df0:	0434                	addi	a3,sp,520
     df2:	0000                	unimp
     df4:	0001                	nop
     df6:	0056                	0x56
     df8:	0000                	unimp
     dfa:	0000                	unimp
     dfc:	0000                	unimp
     dfe:	1000                	addi	s0,sp,32
     e00:	0000                	unimp
     e02:	8000                	0x8000
     e04:	0000                	unimp
     e06:	0100                	addi	s0,sp,128
     e08:	5b00                	lw	s0,48(a4)
     e0a:	00f4                	addi	a3,sp,76
     e0c:	0000                	unimp
     e0e:	0148                	addi	a0,sp,132
     e10:	0000                	unimp
     e12:	0001                	nop
     e14:	0001485b          	0x1485b
     e18:	6400                	flw	fs0,8(s0)
     e1a:	0001                	nop
     e1c:	0100                	addi	s0,sp,128
     e1e:	5f00                	lw	s0,56(a4)
     e20:	01dc                	addi	a5,sp,196
     e22:	0000                	unimp
     e24:	01f8                	addi	a4,sp,204
     e26:	0000                	unimp
     e28:	0001                	nop
     e2a:	0001f85b          	0x1f85b
     e2e:	0800                	addi	s0,sp,16
     e30:	0002                	0x2
     e32:	0100                	addi	s0,sp,128
     e34:	5f00                	lw	s0,56(a4)
     e36:	0210                	addi	a2,sp,256
     e38:	0000                	unimp
     e3a:	0258                	addi	a4,sp,260
     e3c:	0000                	unimp
     e3e:	0001                	nop
     e40:	9861                	andi	s0,s0,-8
     e42:	0002                	0x2
     e44:	9c00                	0x9c00
     e46:	0002                	0x2
     e48:	0100                	addi	s0,sp,128
     e4a:	5f00                	lw	s0,56(a4)
     e4c:	029c                	addi	a5,sp,320
     e4e:	0000                	unimp
     e50:	02b4                	addi	a3,sp,328
     e52:	0000                	unimp
     e54:	0001                	nop
     e56:	0002b45b          	0x2b45b
     e5a:	ec00                	fsw	fs0,24(s0)
     e5c:	0002                	0x2
     e5e:	0100                	addi	s0,sp,128
     e60:	5f00                	lw	s0,56(a4)
     e62:	02ec                	addi	a1,sp,332
     e64:	0000                	unimp
     e66:	02f0                	addi	a2,sp,332
     e68:	0000                	unimp
     e6a:	0001                	nop
     e6c:	0002f05b          	0x2f05b
     e70:	1c00                	addi	s0,sp,560
     e72:	01000003          	lb	zero,16(zero) # 10 <buf.1775+0x10>
     e76:	5f00                	lw	s0,56(a4)
     e78:	0334                	addi	a3,sp,392
     e7a:	0000                	unimp
     e7c:	03b4                	addi	a3,sp,456
     e7e:	0000                	unimp
     e80:	0001                	nop
     e82:	b456                	fsd	fs5,40(sp)
     e84:	00000003          	lb	zero,0(zero) # 0 <buf.1775>
     e88:	0004                	addi	s1,sp,0
     e8a:	0100                	addi	s0,sp,128
     e8c:	5f00                	lw	s0,56(a4)
     e8e:	0428                	addi	a0,sp,520
     e90:	0000                	unimp
     e92:	042c                	addi	a1,sp,520
     e94:	0000                	unimp
     e96:	0001                	nop
     e98:	00042c5b          	0x42c5b
     e9c:	3400                	fld	fs0,40(s0)
     e9e:	0004                	addi	s1,sp,0
     ea0:	0100                	addi	s0,sp,128
     ea2:	5f00                	lw	s0,56(a4)
	...
     eac:	01f8                	addi	a4,sp,204
     eae:	0000                	unimp
     eb0:	0220                	addi	s0,sp,264
     eb2:	0000                	unimp
     eb4:	0001                	nop
     eb6:	0003345b          	0x3345b
     eba:	3800                	fld	fs0,48(s0)
     ebc:	01000003          	lb	zero,16(zero) # 10 <buf.1775+0x10>
     ec0:	5e00                	lw	s0,56(a2)
	...
     eca:	00ec                	addi	a1,sp,76
     ecc:	0000                	unimp
     ece:	00f4                	addi	a3,sp,76
     ed0:	0000                	unimp
     ed2:	0001                	nop
     ed4:	b45e                	fsd	fs7,40(sp)
     ed6:	28000003          	lb	zero,640(zero) # 280 <trap_entry+0x1c>
     eda:	0004                	addi	s1,sp,0
     edc:	0100                	addi	s0,sp,128
     ede:	5e00                	lw	s0,56(a2)
	...
     ee8:	0148                	addi	a0,sp,132
     eea:	0000                	unimp
     eec:	014c                	addi	a1,sp,132
     eee:	0000                	unimp
     ef0:	0002                	0x2
     ef2:	9f31                	0x9f31
     ef4:	014c                	addi	a1,sp,132
     ef6:	0000                	unimp
     ef8:	01d4                	addi	a3,sp,196
     efa:	0000                	unimp
     efc:	0001                	nop
     efe:	0002985b          	0x2985b
     f02:	9c00                	0x9c00
     f04:	0002                	0x2
     f06:	0100                	addi	s0,sp,128
     f08:	5b00                	lw	s0,48(a4)
	...
     f12:	01f0                	addi	a2,sp,204
     f14:	0000                	unimp
     f16:	0200                	addi	s0,sp,256
     f18:	0000                	unimp
     f1a:	0001                	nop
     f1c:	005d                	c.addi	zero,23
     f1e:	20000003          	lb	zero,512(zero) # 200 <_start>
     f22:	01000003          	lb	zero,16(zero) # 10 <buf.1775+0x10>
     f26:	6000                	flw	fs0,0(s0)
	...
     f30:	004c                	addi	a1,sp,4
     f32:	0000                	unimp
     f34:	007c                	addi	a5,sp,12
     f36:	0000                	unimp
     f38:	0001                	nop
     f3a:	405e                	0x405e
     f3c:	0001                	nop
     f3e:	4c00                	lw	s0,24(s0)
     f40:	0001                	nop
     f42:	0100                	addi	s0,sp,128
     f44:	5e00                	lw	s0,56(a2)
     f46:	01f0                	addi	a2,sp,204
     f48:	0000                	unimp
     f4a:	020c                	addi	a1,sp,256
     f4c:	0000                	unimp
     f4e:	0001                	nop
     f50:	d45e                	sw	s7,40(sp)
     f52:	0002                	0x2
     f54:	ec00                	fsw	fs0,24(s0)
     f56:	0002                	0x2
     f58:	0100                	addi	s0,sp,128
     f5a:	5b00                	lw	s0,48(a4)
     f5c:	0300                	addi	s0,sp,384
     f5e:	0000                	unimp
     f60:	041c                	addi	a5,sp,512
     f62:	0000                	unimp
     f64:	0001                	nop
     f66:	0000005b          	0x5b
     f6a:	0000                	unimp
     f6c:	0000                	unimp
     f6e:	2000                	fld	fs0,0(s0)
     f70:	0000                	unimp
     f72:	5000                	lw	s0,32(s0)
     f74:	0000                	unimp
     f76:	0100                	addi	s0,sp,128
     f78:	5c00                	lw	s0,56(s0)
     f7a:	0050                	addi	a2,sp,4
     f7c:	0000                	unimp
     f7e:	005c                	addi	a5,sp,4
     f80:	0000                	unimp
     f82:	0006                	0x6
     f84:	007c                	addi	a5,sp,12
     f86:	007e                	0x7e
     f88:	9f24                	0x9f24
     f8a:	005c                	addi	a5,sp,4
     f8c:	0000                	unimp
     f8e:	00ec                	addi	a1,sp,76
     f90:	0000                	unimp
     f92:	0001                	nop
     f94:	f460                	fsw	fs0,108(s0)
     f96:	0000                	unimp
     f98:	0800                	addi	s0,sp,16
     f9a:	0001                	nop
     f9c:	0100                	addi	s0,sp,128
     f9e:	5c00                	lw	s0,56(s0)
	...
     fa8:	0034                	addi	a3,sp,8
     faa:	0000                	unimp
     fac:	0044                	addi	s1,sp,4
     fae:	0000                	unimp
     fb0:	0001                	nop
     fb2:	005d                	c.addi	zero,23
     fb4:	0000                	unimp
     fb6:	0000                	unimp
     fb8:	0000                	unimp
     fba:	6800                	flw	fs0,16(s0)
     fbc:	0000                	unimp
     fbe:	cc00                	sw	s0,24(s0)
     fc0:	0000                	unimp
     fc2:	0100                	addi	s0,sp,128
     fc4:	5a00                	lw	s0,48(a2)
     fc6:	00cc                	addi	a1,sp,68
     fc8:	0000                	unimp
     fca:	00ec                	addi	a1,sp,76
     fcc:	0000                	unimp
     fce:	0005                	c.addi	zero,1
     fd0:	0080                	addi	s0,sp,64
     fd2:	2540                	fld	fs0,136(a0)
     fd4:	009f 0000 0000      	0x9f
     fda:	0000                	unimp
     fdc:	7400                	flw	fs0,40(s0)
     fde:	0000                	unimp
     fe0:	ec00                	fsw	fs0,24(s0)
     fe2:	0000                	unimp
     fe4:	0100                	addi	s0,sp,128
     fe6:	5c00                	lw	s0,56(s0)
	...
     ff0:	007c                	addi	a5,sp,12
     ff2:	0000                	unimp
     ff4:	0098                	addi	a4,sp,64
     ff6:	0000                	unimp
     ff8:	0001                	nop
     ffa:	985f 0000 e800      	0xe8000000985f
    1000:	0000                	unimp
    1002:	0100                	addi	s0,sp,128
    1004:	5e00                	lw	s0,56(a2)
	...
    100e:	00bc                	addi	a5,sp,72
    1010:	0000                	unimp
    1012:	00d8                	addi	a4,sp,68
    1014:	0000                	unimp
    1016:	0001                	nop
    1018:	d85d                	beqz	s0,fce <main+0x50a>
    101a:	0000                	unimp
    101c:	ec00                	fsw	fs0,24(s0)
    101e:	0000                	unimp
    1020:	0100                	addi	s0,sp,128
    1022:	5a00                	lw	s0,48(a2)
	...
    102c:	007c                	addi	a5,sp,12
    102e:	0000                	unimp
    1030:	0084                	addi	s1,sp,64
    1032:	0000                	unimp
    1034:	0001                	nop
    1036:	885e                	mv	a6,s7
    1038:	0000                	unimp
    103a:	9400                	0x9400
    103c:	0000                	unimp
    103e:	0100                	addi	s0,sp,128
    1040:	5d00                	lw	s0,56(a0)
    1042:	0098                	addi	a4,sp,64
    1044:	0000                	unimp
    1046:	00bc                	addi	a5,sp,72
    1048:	0000                	unimp
    104a:	0001                	nop
    104c:	005d                	c.addi	zero,23
    104e:	0000                	unimp
    1050:	0000                	unimp
    1052:	0000                	unimp
    1054:	b000                	fsd	fs0,32(s0)
    1056:	0000                	unimp
    1058:	c000                	sw	s0,0(s0)
    105a:	0000                	unimp
    105c:	0100                	addi	s0,sp,128
    105e:	5f00                	lw	s0,56(a4)
    1060:	00c8                	addi	a0,sp,68
    1062:	0000                	unimp
    1064:	00d4                	addi	a3,sp,68
    1066:	0000                	unimp
    1068:	0001                	nop
    106a:	0056                	0x56
    106c:	0000                	unimp
    106e:	0000                	unimp
    1070:	0000                	unimp
    1072:	8000                	0x8000
    1074:	0000                	unimp
    1076:	ec00                	fsw	fs0,24(s0)
    1078:	0000                	unimp
    107a:	0100                	addi	s0,sp,128
    107c:	5b00                	lw	s0,48(a4)
	...
    1086:	03f4                	addi	a3,sp,460
    1088:	0000                	unimp
    108a:	0424                	addi	s1,sp,520
    108c:	0000                	unimp
    108e:	0001                	nop
    1090:	0061                	c.addi	zero,24
    1092:	0000                	unimp
    1094:	0000                	unimp
    1096:	0000                	unimp
    1098:	f400                	fsw	fs0,40(s0)
    109a:	08000003          	lb	zero,128(zero) # 80 <buflen.1776+0x40>
    109e:	0004                	addi	s1,sp,0
    10a0:	1000                	addi	s0,sp,32
    10a2:	8c00                	0x8c00
    10a4:	0a00                	addi	s0,sp,272
    10a6:	ffff                	0xffff
    10a8:	7d1a                	flw	fs10,164(sp)
    10aa:	0a00                	addi	s0,sp,272
    10ac:	ffff                	0xffff
    10ae:	401a                	0x401a
    10b0:	2224                	fld	fs1,64(a2)
    10b2:	089f 0004 1000      	0x10000004089f
    10b8:	0004                	addi	s1,sp,0
    10ba:	1500                	addi	s0,sp,672
    10bc:	8c00                	0x8c00
    10be:	0a00                	addi	s0,sp,272
    10c0:	ffff                	0xffff
    10c2:	8c1a                	mv	s8,t1
    10c4:	4000                	lw	s0,0(s0)
    10c6:	7625                	lui	a2,0xfffe9
    10c8:	2200                	fld	fs0,0(a2)
    10ca:	ff0a                	fsw	ft2,188(sp)
    10cc:	1aff                	0x1aff
    10ce:	2440                	fld	fs0,136(s0)
    10d0:	9f22                	add	t5,t5,s0
	...
    10da:	0334                	addi	a3,sp,392
    10dc:	0000                	unimp
    10de:	0378                	addi	a4,sp,396
    10e0:	0000                	unimp
    10e2:	0001                	nop
    10e4:	786d                	lui	a6,0xffffb
    10e6:	d4000003          	lb	zero,-704(zero) # fffffd40 <__C_STACK_TOP__+0xfffefd40>
    10ea:	05000003          	lb	zero,80(zero) # 50 <buflen.1776+0x10>
    10ee:	7d00                	flw	fs0,56(a0)
    10f0:	4000                	lw	s0,0(s0)
    10f2:	9f25                	0x9f25
	...
    10fc:	0334                	addi	a3,sp,392
    10fe:	0000                	unimp
    1100:	037c                	addi	a5,sp,396
    1102:	0000                	unimp
    1104:	0001                	nop
    1106:	7c5f 0003 d400      	0xd40000037c5f
    110c:	07000003          	lb	zero,112(zero) # 70 <buflen.1776+0x30>
    1110:	7d00                	flw	fs0,56(a0)
    1112:	4000                	lw	s0,0(s0)
    1114:	4024                	lw	s1,64(s0)
    1116:	9f25                	0x9f25
	...
    1120:	0338                	addi	a4,sp,392
    1122:	0000                	unimp
    1124:	0354                	addi	a3,sp,388
    1126:	0000                	unimp
    1128:	0001                	nop
    112a:	545e                	lw	s0,244(sp)
    112c:	a8000003          	lb	zero,-1408(zero) # fffffa80 <__C_STACK_TOP__+0xfffefa80>
    1130:	01000003          	lb	zero,16(zero) # 10 <buf.1775+0x10>
    1134:	6c00                	flw	fs0,24(s0)
	...
    113e:	0370                	addi	a2,sp,396
    1140:	0000                	unimp
    1142:	0394                	addi	a3,sp,448
    1144:	0000                	unimp
    1146:	0001                	nop
    1148:	9460                	0x9460
    114a:	b4000003          	lb	zero,-1216(zero) # fffffb40 <__C_STACK_TOP__+0xfffefb40>
    114e:	01000003          	lb	zero,16(zero) # 10 <buf.1775+0x10>
    1152:	5e00                	lw	s0,56(a2)
	...
    115c:	0334                	addi	a3,sp,392
    115e:	0000                	unimp
    1160:	033c                	addi	a5,sp,392
    1162:	0000                	unimp
    1164:	0001                	nop
    1166:	4461                	li	s0,24
    1168:	50000003          	lb	zero,1280(zero) # 500 <vprintfmt.constprop.2+0xe6>
    116c:	01000003          	lb	zero,16(zero) # 10 <buf.1775+0x10>
    1170:	6000                	flw	fs0,0(s0)
    1172:	0350                	addi	a2,sp,388
    1174:	0000                	unimp
    1176:	0354                	addi	a3,sp,388
    1178:	0000                	unimp
    117a:	0008                	addi	a0,sp,0
    117c:	0076                	0x76
    117e:	2540                	fld	fs0,136(a0)
    1180:	0081                	addi	ra,ra,0
    1182:	9f21                	0x9f21
    1184:	0354                	addi	a3,sp,388
    1186:	0000                	unimp
    1188:	0370                	addi	a2,sp,396
    118a:	0000                	unimp
    118c:	0001                	nop
    118e:	0060                	addi	s0,sp,12
    1190:	0000                	unimp
    1192:	0000                	unimp
    1194:	0000                	unimp
    1196:	6c00                	flw	fs0,24(s0)
    1198:	74000003          	lb	zero,1856(zero) # 740 <vprintfmt.constprop.2+0x326>
    119c:	01000003          	lb	zero,16(zero) # 10 <buf.1775+0x10>
    11a0:	6100                	flw	fs0,0(a0)
    11a2:	0384                	addi	s1,sp,448
    11a4:	0000                	unimp
    11a6:	0390                	addi	a2,sp,448
    11a8:	0000                	unimp
    11aa:	0001                	nop
    11ac:	905f 0003 9400      	0x94000003905f
    11b2:	0a000003          	lb	zero,160(zero) # a0 <buflen.1776+0x60>
    11b6:	7600                	flw	fs0,40(a2)
    11b8:	4000                	lw	s0,0(s0)
    11ba:	4024                	lw	s1,64(s0)
    11bc:	8125                	srli	a0,a0,0x9
    11be:	2100                	fld	fs0,0(a0)
    11c0:	949f 0003 0000      	0x3949f
    11c6:	0004                	addi	s1,sp,0
    11c8:	0100                	addi	s0,sp,128
    11ca:	5f00                	lw	s0,56(a4)
	...
    11d4:	0344                	addi	s1,sp,388
    11d6:	0000                	unimp
    11d8:	0378                	addi	a4,sp,396
    11da:	0000                	unimp
    11dc:	0001                	nop
    11de:	786e                	flw	fa6,248(sp)
    11e0:	b0000003          	lb	zero,-1280(zero) # fffffb00 <__C_STACK_TOP__+0xfffefb00>
    11e4:	01000003          	lb	zero,16(zero) # 10 <buf.1775+0x10>
    11e8:	6d00                	flw	fs0,24(a0)
    11ea:	03b0                	addi	a2,sp,456
    11ec:	0000                	unimp
    11ee:	03b8                	addi	a4,sp,456
    11f0:	0000                	unimp
    11f2:	000a                	0xa
    11f4:	007d                	c.addi	zero,31
    11f6:	2440                	fld	fs0,136(s0)
    11f8:	2540                	fld	fs0,136(a0)
    11fa:	0080                	addi	s0,sp,64
    11fc:	9f1e                	add	t5,t5,t2
	...
    1206:	03cc                	addi	a1,sp,452
    1208:	0000                	unimp
    120a:	0410                	addi	a2,sp,512
    120c:	0000                	unimp
    120e:	0001                	nop
    1210:	006c                	addi	a1,sp,12
    1212:	0000                	unimp
    1214:	0000                	unimp
    1216:	0000                	unimp
    1218:	cc00                	sw	s0,24(s0)
    121a:	d8000003          	lb	zero,-640(zero) # fffffd80 <__C_STACK_TOP__+0xfffefd80>
    121e:	06000003          	lb	zero,96(zero) # 60 <buflen.1776+0x20>
    1222:	7600                	flw	fs0,40(a2)
    1224:	7c00                	flw	fs0,56(s0)
    1226:	1e00                	addi	s0,sp,816
    1228:	d89f 0003 dc00      	0xdc000003d89f
    122e:	01000003          	lb	zero,16(zero) # 10 <buf.1775+0x10>
    1232:	5600                	lw	s0,40(a2)
    1234:	03dc                	addi	a5,sp,452
    1236:	0000                	unimp
    1238:	03e4                	addi	s1,sp,460
    123a:	0000                	unimp
    123c:	0009                	c.addi	zero,2
    123e:	7f8d                	lui	t6,0xfffe3
    1240:	007e                	0x7e
    1242:	7c1a                	flw	fs8,164(sp)
    1244:	1e00                	addi	s0,sp,816
    1246:	e49f 0003 0800      	0x8000003e49f
    124c:	0004                	addi	s1,sp,0
    124e:	0100                	addi	s0,sp,128
    1250:	5d00                	lw	s0,56(a0)
    1252:	0408                	addi	a0,sp,512
    1254:	0000                	unimp
    1256:	0410                	addi	a2,sp,512
    1258:	0000                	unimp
    125a:	0008                	addi	a0,sp,0
    125c:	008c                	addi	a1,sp,64
    125e:	2540                	fld	fs0,136(a0)
    1260:	0076                	0x76
    1262:	9f22                	add	t5,t5,s0
	...
    126c:	03d0                	addi	a2,sp,452
    126e:	0000                	unimp
    1270:	0428                	addi	a0,sp,520
    1272:	0000                	unimp
    1274:	0001                	nop
    1276:	0060                	addi	s0,sp,12
    1278:	0000                	unimp
    127a:	0000                	unimp
    127c:	0000                	unimp
    127e:	e400                	fsw	fs0,8(s0)
    1280:	f4000003          	lb	zero,-192(zero) # ffffff40 <__C_STACK_TOP__+0xfffeff40>
    1284:	01000003          	lb	zero,16(zero) # 10 <buf.1775+0x10>
    1288:	6100                	flw	fs0,0(a0)
	...
    1292:	03bc                	addi	a5,sp,456
    1294:	0000                	unimp
    1296:	03d8                	addi	a4,sp,452
    1298:	0000                	unimp
    129a:	0001                	nop
    129c:	d856                	sw	s5,48(sp)
    129e:	04000003          	lb	zero,64(zero) # 40 <buflen.1776>
    12a2:	0004                	addi	s1,sp,0
    12a4:	0600                	addi	s0,sp,768
    12a6:	8d00                	0x8d00
    12a8:	7e7f                	0x7e7f
    12aa:	1a00                	addi	s0,sp,304
    12ac:	049f 0004 2000      	0x20000004049f
    12b2:	0004                	addi	s1,sp,0
    12b4:	0600                	addi	s0,sp,768
    12b6:	7e00                	flw	fs0,56(a2)
    12b8:	7f00                	flw	fs0,56(a4)
    12ba:	1a00                	addi	s0,sp,304
    12bc:	209f 0004 2400      	0x24000004209f
    12c2:	0004                	addi	s1,sp,0
    12c4:	0600                	addi	s0,sp,768
    12c6:	8d00                	0x8d00
    12c8:	7e7f                	0x7e7f
    12ca:	1a00                	addi	s0,sp,304
    12cc:	249f 0004 2800      	0x28000004249f
    12d2:	0004                	addi	s1,sp,0
    12d4:	0600                	addi	s0,sp,768
    12d6:	7e00                	flw	fs0,56(a2)
    12d8:	8d01                	sub	a0,a0,s0
    12da:	1a7f                	0x1a7f
    12dc:	009f 0000 0000      	0x9f
    12e2:	0000                	unimp
    12e4:	c400                	sw	s0,8(s0)
    12e6:	d0000003          	lb	zero,-768(zero) # fffffd00 <__C_STACK_TOP__+0xfffefd00>
    12ea:	01000003          	lb	zero,16(zero) # 10 <buf.1775+0x10>
    12ee:	6000                	flw	fs0,0(s0)
	...
    12f8:	03c0                	addi	s0,sp,452
    12fa:	0000                	unimp
    12fc:	03e4                	addi	s1,sp,460
    12fe:	0000                	unimp
    1300:	0001                	nop
    1302:	e461                	bnez	s0,13ca <_strtol_l.isra.0+0x102>
    1304:	24000003          	lb	zero,576(zero) # 240 <_start+0x40>
    1308:	0004                	addi	s1,sp,0
    130a:	0500                	addi	s0,sp,640
    130c:	7e00                	flw	fs0,56(a2)
    130e:	4000                	lw	s0,0(s0)
    1310:	9f25                	0x9f25
    1312:	0424                	addi	s1,sp,520
    1314:	0000                	unimp
    1316:	0428                	addi	a0,sp,520
    1318:	0000                	unimp
    131a:	0005                	c.addi	zero,1
    131c:	017e                	slli	sp,sp,0x1f
    131e:	2540                	fld	fs0,136(a0)
    1320:	009f 0000 0000      	0x9f
    1326:	0000                	unimp
    1328:	c800                	sw	s0,16(s0)
    132a:	f0000003          	lb	zero,-256(zero) # ffffff00 <__C_STACK_TOP__+0xfffeff00>
    132e:	01000003          	lb	zero,16(zero) # 10 <buf.1775+0x10>
    1332:	5c00                	lw	s0,56(s0)
	...
    133c:	0114                	addi	a3,sp,128
    133e:	0000                	unimp
    1340:	01d4                	addi	a3,sp,196
    1342:	0000                	unimp
    1344:	0001                	nop
    1346:	dc60                	sw	s0,124(s0)
    1348:	0001                	nop
    134a:	f000                	fsw	fs0,32(s0)
    134c:	0001                	nop
    134e:	0100                	addi	s0,sp,128
    1350:	6000                	flw	fs0,0(s0)
    1352:	01f0                	addi	a2,sp,204
    1354:	0000                	unimp
    1356:	01f4                	addi	a3,sp,204
    1358:	0000                	unimp
    135a:	0006                	0x6
    135c:	0080                	addi	s0,sp,64
    135e:	007e                	0x7e
    1360:	9f24                	0x9f24
    1362:	01f4                	addi	a3,sp,204
    1364:	0000                	unimp
    1366:	029c                	addi	a5,sp,320
    1368:	0000                	unimp
    136a:	0001                	nop
    136c:	0060                	addi	s0,sp,12
    136e:	0000                	unimp
    1370:	0000                	unimp
    1372:	0000                	unimp
    1374:	2800                	fld	fs0,16(s0)
    1376:	0001                	nop
    1378:	4c00                	lw	s0,24(s0)
    137a:	0001                	nop
    137c:	0100                	addi	s0,sp,128
    137e:	6100                	flw	fs0,0(a0)
    1380:	01f0                	addi	a2,sp,204
    1382:	0000                	unimp
    1384:	0210                	addi	a2,sp,256
    1386:	0000                	unimp
    1388:	0001                	nop
    138a:	0061                	c.addi	zero,24
    138c:	0000                	unimp
    138e:	0000                	unimp
    1390:	0000                	unimp
    1392:	5000                	lw	s0,32(s0)
    1394:	0001                	nop
    1396:	d400                	sw	s0,40(s0)
    1398:	0001                	nop
    139a:	0100                	addi	s0,sp,128
    139c:	5c00                	lw	s0,56(s0)
	...
    13a6:	0158                	addi	a4,sp,132
    13a8:	0000                	unimp
    13aa:	01b0                	addi	a2,sp,200
    13ac:	0000                	unimp
    13ae:	0001                	nop
    13b0:	b061                	j	c38 <main+0x174>
    13b2:	0001                	nop
    13b4:	d400                	sw	s0,40(s0)
    13b6:	0001                	nop
    13b8:	0700                	addi	s0,sp,896
    13ba:	8000                	0x8000
    13bc:	4000                	lw	s0,0(s0)
    13be:	4024                	lw	s1,64(s0)
    13c0:	9f25                	0x9f25
	...
    13ca:	0164                	addi	s1,sp,140
    13cc:	0000                	unimp
    13ce:	0180                	addi	s0,sp,192
    13d0:	0000                	unimp
    13d2:	0001                	nop
    13d4:	805f 0001 d000      	0xd0000001805f
    13da:	0001                	nop
    13dc:	0100                	addi	s0,sp,128
    13de:	5e00                	lw	s0,56(a2)
	...
    13e8:	01a4                	addi	s1,sp,200
    13ea:	0000                	unimp
    13ec:	01c0                	addi	s0,sp,196
    13ee:	0000                	unimp
    13f0:	0001                	nop
    13f2:	c05d                	beqz	s0,1498 <_strtol_r+0x10>
    13f4:	0001                	nop
    13f6:	d400                	sw	s0,40(s0)
    13f8:	0001                	nop
    13fa:	0100                	addi	s0,sp,128
    13fc:	5a00                	lw	s0,48(a2)
	...
    1406:	0160                	addi	s0,sp,140
    1408:	0000                	unimp
    140a:	0168                	addi	a0,sp,140
    140c:	0000                	unimp
    140e:	0001                	nop
    1410:	705e                	flw	ft0,244(sp)
    1412:	0001                	nop
    1414:	7c00                	flw	fs0,56(s0)
    1416:	0001                	nop
    1418:	0100                	addi	s0,sp,128
    141a:	5d00                	lw	s0,56(a0)
    141c:	0180                	addi	s0,sp,192
    141e:	0000                	unimp
    1420:	01a4                	addi	s1,sp,200
    1422:	0000                	unimp
    1424:	0001                	nop
    1426:	005d                	c.addi	zero,23
    1428:	0000                	unimp
    142a:	0000                	unimp
    142c:	0000                	unimp
    142e:	9800                	0x9800
    1430:	0001                	nop
    1432:	a800                	fsd	fs0,16(s0)
    1434:	0001                	nop
    1436:	0100                	addi	s0,sp,128
    1438:	5f00                	lw	s0,56(a4)
    143a:	01b0                	addi	a2,sp,200
    143c:	0000                	unimp
    143e:	01bc                	addi	a5,sp,200
    1440:	0000                	unimp
    1442:	0001                	nop
    1444:	0056                	0x56
    1446:	0000                	unimp
    1448:	0000                	unimp
    144a:	0000                	unimp
    144c:	7000                	flw	fs0,32(s0)
    144e:	0001                	nop
    1450:	b000                	fsd	fs0,32(s0)
    1452:	0001                	nop
    1454:	0100                	addi	s0,sp,128
    1456:	5a00                	lw	s0,48(a2)
    1458:	01b0                	addi	a2,sp,200
    145a:	0000                	unimp
    145c:	01d4                	addi	a3,sp,196
    145e:	0000                	unimp
    1460:	0001                	nop
    1462:	0061                	c.addi	zero,24
    1464:	0000                	unimp
    1466:	0000                	unimp
    1468:	0000                	unimp
    146a:	1000                	addi	s0,sp,32
    146c:	0002                	0x2
    146e:	9c00                	0x9c00
    1470:	0002                	0x2
    1472:	0100                	addi	s0,sp,128
    1474:	5a00                	lw	s0,48(a2)
	...
    147e:	0218                	addi	a4,sp,256
    1480:	0000                	unimp
    1482:	026c                	addi	a1,sp,268
    1484:	0000                	unimp
    1486:	0001                	nop
    1488:	6c5f 0002 9c00      	0x9c0000026c5f
    148e:	0002                	0x2
    1490:	0700                	addi	s0,sp,896
    1492:	8000                	0x8000
    1494:	4000                	lw	s0,0(s0)
    1496:	4024                	lw	s1,64(s0)
    1498:	9f25                	0x9f25
	...
    14a2:	0220                	addi	s0,sp,264
    14a4:	0000                	unimp
    14a6:	023c                	addi	a5,sp,264
    14a8:	0000                	unimp
    14aa:	0001                	nop
    14ac:	00023c5b          	0x23c5b
    14b0:	9c00                	0x9c00
    14b2:	0002                	0x2
    14b4:	0100                	addi	s0,sp,128
    14b6:	5c00                	lw	s0,56(s0)
	...
    14c0:	0260                	addi	s0,sp,268
    14c2:	0000                	unimp
    14c4:	027c                	addi	a5,sp,268
    14c6:	0000                	unimp
    14c8:	0001                	nop
    14ca:	7c5d                	lui	s8,0xffff7
    14cc:	0002                	0x2
    14ce:	9c00                	0x9c00
    14d0:	0002                	0x2
    14d2:	0100                	addi	s0,sp,128
    14d4:	5e00                	lw	s0,56(a2)
	...
    14de:	0218                	addi	a4,sp,256
    14e0:	0000                	unimp
    14e2:	0224                	addi	s1,sp,264
    14e4:	0000                	unimp
    14e6:	0001                	nop
    14e8:	2c5e                	fld	fs8,464(sp)
    14ea:	0002                	0x2
    14ec:	3800                	fld	fs0,48(s0)
    14ee:	0002                	0x2
    14f0:	0100                	addi	s0,sp,128
    14f2:	5e00                	lw	s0,56(a2)
    14f4:	023c                	addi	a5,sp,264
    14f6:	0000                	unimp
    14f8:	0250                	addi	a2,sp,260
    14fa:	0000                	unimp
    14fc:	0001                	nop
    14fe:	505e                	0x505e
    1500:	0002                	0x2
    1502:	6000                	flw	fs0,0(s0)
    1504:	0002                	0x2
    1506:	0100                	addi	s0,sp,128
    1508:	5d00                	lw	s0,56(a0)
	...
    1512:	0254                	addi	a3,sp,260
    1514:	0000                	unimp
    1516:	0264                	addi	s1,sp,268
    1518:	0000                	unimp
    151a:	0001                	nop
    151c:	6c5e                	flw	fs8,212(sp)
    151e:	0002                	0x2
    1520:	7800                	flw	fs0,48(s0)
    1522:	0002                	0x2
    1524:	0100                	addi	s0,sp,128
    1526:	5f00                	lw	s0,56(a4)
    1528:	027c                	addi	a5,sp,268
    152a:	0000                	unimp
    152c:	029c                	addi	a5,sp,320
    152e:	0000                	unimp
    1530:	0001                	nop
    1532:	005f 0000 0000      	0x5f
    1538:	0000                	unimp
    153a:	2c00                	fld	fs0,24(s0)
    153c:	0002                	0x2
    153e:	5000                	lw	s0,32(s0)
    1540:	0002                	0x2
    1542:	0100                	addi	s0,sp,128
    1544:	5d00                	lw	s0,56(a0)
    1546:	0250                	addi	a2,sp,260
    1548:	0000                	unimp
    154a:	0268                	addi	a0,sp,268
    154c:	0000                	unimp
    154e:	0006                	0x6
    1550:	007f                	0x7f
    1552:	9f1e007b          	0x9f1e007b
    1556:	0268                	addi	a0,sp,268
    1558:	0000                	unimp
    155a:	0294                	addi	a3,sp,320
    155c:	0000                	unimp
    155e:	0001                	nop
    1560:	0002945b          	0x2945b
    1564:	9c00                	0x9c00
    1566:	0002                	0x2
    1568:	0a00                	addi	s0,sp,272
    156a:	8000                	0x8000
    156c:	4000                	lw	s0,0(s0)
    156e:	4024                	lw	s1,64(s0)
    1570:	7d25                	lui	s10,0xfffe9
    1572:	1e00                	addi	s0,sp,816
    1574:	009f 0000 0000      	0x9f
    157a:	0000                	unimp
    157c:	a000                	fsd	fs0,0(s0)
    157e:	0002                	0x2
    1580:	0800                	addi	s0,sp,16
    1582:	01000003          	lb	zero,16(zero) # 10 <buf.1775+0x10>
    1586:	5d00                	lw	s0,56(a0)
    1588:	0308                	addi	a0,sp,384
    158a:	0000                	unimp
    158c:	0318                	addi	a4,sp,384
    158e:	0000                	unimp
    1590:	0001                	nop
    1592:	0061                	c.addi	zero,24
    1594:	0000                	unimp
    1596:	0000                	unimp
    1598:	0000                	unimp
    159a:	b400                	fsd	fs0,40(s0)
    159c:	0002                	0x2
    159e:	dc00                	sw	s0,56(s0)
    15a0:	0002                	0x2
    15a2:	0100                	addi	s0,sp,128
    15a4:	5e00                	lw	s0,56(a2)
    15a6:	0300                	addi	s0,sp,384
    15a8:	0000                	unimp
    15aa:	0304                	addi	s1,sp,384
    15ac:	0000                	unimp
    15ae:	0001                	nop
    15b0:	005e                	0x5e
	...
    15ba:	0000                	unimp
    15bc:	7000                	flw	fs0,32(s0)
    15be:	0000                	unimp
    15c0:	0600                	addi	s0,sp,768
    15c2:	5a00                	lw	s0,48(a2)
    15c4:	935b0493          	addi	s1,s6,-1739
    15c8:	7004                	flw	fs1,32(s0)
    15ca:	0000                	unimp
    15cc:	e000                	fsw	fs0,0(s0)
    15ce:	0000                	unimp
    15d0:	0600                	addi	s0,sp,768
    15d2:	f300                	fsw	fs0,32(a4)
    15d4:	250af503          	0x250af503
    15d8:	e09f 0000 3400      	0x34000000e09f
    15de:	0001                	nop
    15e0:	0600                	addi	s0,sp,768
    15e2:	5a00                	lw	s0,48(a2)
    15e4:	935b0493          	addi	s1,s6,-1739
    15e8:	3404                	fld	fs1,40(s0)
    15ea:	0001                	nop
    15ec:	a800                	fsd	fs0,16(s0)
    15ee:	0001                	nop
    15f0:	0600                	addi	s0,sp,768
    15f2:	f300                	fsw	fs0,32(a4)
    15f4:	250af503          	0x250af503
    15f8:	a89f 0001 d000      	0xd0000001a89f
    15fe:	0001                	nop
    1600:	0600                	addi	s0,sp,768
    1602:	5a00                	lw	s0,48(a2)
    1604:	935b0493          	addi	s1,s6,-1739
    1608:	d004                	sw	s1,32(s0)
    160a:	0001                	nop
    160c:	4800                	lw	s0,16(s0)
    160e:	0002                	0x2
    1610:	0600                	addi	s0,sp,768
    1612:	f300                	fsw	fs0,32(a4)
    1614:	250af503          	0x250af503
    1618:	489f 0002 9800      	0x98000002489f
    161e:	0002                	0x2
    1620:	0600                	addi	s0,sp,768
    1622:	5a00                	lw	s0,48(a2)
    1624:	935b0493          	addi	s1,s6,-1739
    1628:	9804                	0x9804
    162a:	0002                	0x2
    162c:	a800                	fsd	fs0,16(s0)
    162e:	0002                	0x2
    1630:	0600                	addi	s0,sp,768
    1632:	f300                	fsw	fs0,32(a4)
    1634:	250af503          	0x250af503
    1638:	a89f 0002 f400      	0xf4000002a89f
    163e:	0002                	0x2
    1640:	0600                	addi	s0,sp,768
    1642:	5a00                	lw	s0,48(a2)
    1644:	935b0493          	addi	s1,s6,-1739
    1648:	f404                	fsw	fs1,40(s0)
    164a:	0002                	0x2
    164c:	1000                	addi	s0,sp,32
    164e:	0004                	addi	s1,sp,0
    1650:	0600                	addi	s0,sp,768
    1652:	f300                	fsw	fs0,32(a4)
    1654:	250af503          	0x250af503
    1658:	009f 0000 0000      	0x9f
    165e:	0000                	unimp
    1660:	0000                	unimp
    1662:	0000                	unimp
    1664:	6800                	flw	fs0,16(s0)
    1666:	0000                	unimp
    1668:	0600                	addi	s0,sp,768
    166a:	5c00                	lw	s0,56(s0)
    166c:	935d0493          	addi	s1,s10,-1739 # fffe8935 <__C_STACK_TOP__+0xfffd8935>
    1670:	6804                	flw	fs1,16(s0)
    1672:	0000                	unimp
    1674:	e000                	fsw	fs0,0(s0)
    1676:	0000                	unimp
    1678:	0600                	addi	s0,sp,768
    167a:	f300                	fsw	fs0,32(a4)
    167c:	250cf503          	0x250cf503
    1680:	e09f 0000 fc00      	0xfc000000e09f
    1686:	0000                	unimp
    1688:	0600                	addi	s0,sp,768
    168a:	5c00                	lw	s0,56(s0)
    168c:	935d0493          	addi	s1,s10,-1739
    1690:	fc04                	fsw	fs1,56(s0)
    1692:	0000                	unimp
    1694:	4800                	lw	s0,16(s0)
    1696:	0002                	0x2
    1698:	0600                	addi	s0,sp,768
    169a:	f300                	fsw	fs0,32(a4)
    169c:	250cf503          	0x250cf503
    16a0:	489f 0002 f000      	0xf0000002489f
    16a6:	0002                	0x2
    16a8:	0600                	addi	s0,sp,768
    16aa:	5c00                	lw	s0,56(s0)
    16ac:	935d0493          	addi	s1,s10,-1739
    16b0:	f004                	fsw	fs1,32(s0)
    16b2:	0002                	0x2
    16b4:	1000                	addi	s0,sp,32
    16b6:	0004                	addi	s1,sp,0
    16b8:	0600                	addi	s0,sp,768
    16ba:	f300                	fsw	fs0,32(a4)
    16bc:	250cf503          	0x250cf503
    16c0:	009f 0000 0000      	0x9f
    16c6:	0000                	unimp
    16c8:	a400                	fsd	fs0,8(s0)
    16ca:	0002                	0x2
    16cc:	a800                	fsd	fs0,16(s0)
    16ce:	0002                	0x2
    16d0:	0600                	addi	s0,sp,768
    16d2:	5f00                	lw	s0,56(a4)
    16d4:	93600493          	li	s1,-1738
    16d8:	0004                	addi	s1,sp,0
	...
    16e2:	0000                	unimp
    16e4:	dc00                	sw	s0,56(s0)
    16e6:	0000                	unimp
    16e8:	0600                	addi	s0,sp,768
    16ea:	f200                	fsw	fs0,32(a2)
    16ec:	00002e27          	fsw	ft0,28(zero) # 1c <buf.1775+0x1c>
    16f0:	e000                	fsw	fs0,0(s0)
    16f2:	0000                	unimp
    16f4:	0c00                	addi	s0,sp,528
    16f6:	0004                	addi	s1,sp,0
    16f8:	0600                	addi	s0,sp,768
    16fa:	f200                	fsw	fs0,32(a2)
    16fc:	00002e27          	fsw	ft0,28(zero) # 1c <buf.1775+0x1c>
	...
    170c:	1800                	addi	s0,sp,48
    170e:	0000                	unimp
    1710:	0600                	addi	s0,sp,768
    1712:	5c00                	lw	s0,56(s0)
    1714:	935d0493          	addi	s1,s10,-1739
    1718:	1804                	addi	s1,sp,48
    171a:	0000                	unimp
    171c:	3400                	fld	fs0,40(s0)
    171e:	0000                	unimp
    1720:	0600                	addi	s0,sp,768
    1722:	5c00                	lw	s0,56(s0)
    1724:	935e0493          	addi	s1,t3,-1739
    1728:	e004                	fsw	fs1,0(s0)
    172a:	0000                	unimp
    172c:	e800                	fsw	fs0,16(s0)
    172e:	0000                	unimp
    1730:	0600                	addi	s0,sp,768
    1732:	5c00                	lw	s0,56(s0)
    1734:	935e0493          	addi	s1,t3,-1739
    1738:	f404                	fsw	fs1,40(s0)
    173a:	0000                	unimp
    173c:	fc00                	fsw	fs0,56(s0)
    173e:	0000                	unimp
    1740:	0600                	addi	s0,sp,768
    1742:	5c00                	lw	s0,56(s0)
    1744:	935e0493          	addi	s1,t3,-1739
    1748:	fc04                	fsw	fs1,56(s0)
    174a:	0000                	unimp
    174c:	0000                	unimp
    174e:	0001                	nop
    1750:	0600                	addi	s0,sp,768
    1752:	6100                	flw	fs0,0(a0)
    1754:	935e0493          	addi	s1,t3,-1739
    1758:	4804                	lw	s1,16(s0)
    175a:	0002                	0x2
    175c:	c400                	sw	s0,8(s0)
    175e:	0002                	0x2
    1760:	0600                	addi	s0,sp,768
    1762:	5c00                	lw	s0,56(s0)
    1764:	935d0493          	addi	s1,s10,-1739
    1768:	0004                	addi	s1,sp,0
	...
    1772:	0000                	unimp
    1774:	5400                	lw	s0,40(s0)
    1776:	0000                	unimp
    1778:	0600                	addi	s0,sp,768
    177a:	5a00                	lw	s0,48(a2)
    177c:	935b0493          	addi	s1,s6,-1739
    1780:	5404                	lw	s1,40(s0)
    1782:	0000                	unimp
    1784:	6000                	flw	fs0,0(s0)
    1786:	0000                	unimp
    1788:	0600                	addi	s0,sp,768
    178a:	5a00                	lw	s0,48(a2)
    178c:	93600493          	li	s1,-1738
    1790:	e004                	fsw	fs1,0(s0)
    1792:	0000                	unimp
    1794:	3400                	fld	fs0,40(s0)
    1796:	0001                	nop
    1798:	0600                	addi	s0,sp,768
    179a:	5a00                	lw	s0,48(a2)
    179c:	935b0493          	addi	s1,s6,-1739
    17a0:	a804                	fsd	fs1,16(s0)
    17a2:	0001                	nop
    17a4:	d000                	sw	s0,32(s0)
    17a6:	0001                	nop
    17a8:	0600                	addi	s0,sp,768
    17aa:	5a00                	lw	s0,48(a2)
    17ac:	935b0493          	addi	s1,s6,-1739
    17b0:	4804                	lw	s1,16(s0)
    17b2:	0002                	0x2
    17b4:	9400                	0x9400
    17b6:	0002                	0x2
    17b8:	0600                	addi	s0,sp,768
    17ba:	5a00                	lw	s0,48(a2)
    17bc:	935b0493          	addi	s1,s6,-1739
    17c0:	9404                	0x9404
    17c2:	0002                	0x2
    17c4:	9800                	0x9800
    17c6:	0002                	0x2
    17c8:	0600                	addi	s0,sp,768
    17ca:	5a00                	lw	s0,48(a2)
    17cc:	93600493          	li	s1,-1738
    17d0:	a804                	fsd	fs1,16(s0)
    17d2:	0002                	0x2
    17d4:	d400                	sw	s0,40(s0)
    17d6:	0002                	0x2
    17d8:	0600                	addi	s0,sp,768
    17da:	5a00                	lw	s0,48(a2)
    17dc:	935b0493          	addi	s1,s6,-1739
    17e0:	d404                	sw	s1,40(s0)
    17e2:	0002                	0x2
    17e4:	f400                	fsw	fs0,40(s0)
    17e6:	0002                	0x2
    17e8:	0600                	addi	s0,sp,768
    17ea:	5a00                	lw	s0,48(a2)
    17ec:	93600493          	li	s1,-1738
    17f0:	0004                	addi	s1,sp,0
    17f2:	0000                	unimp
    17f4:	0000                	unimp
    17f6:	0000                	unimp
    17f8:	0400                	addi	s0,sp,512
    17fa:	0000                	unimp
    17fc:	5c00                	lw	s0,56(s0)
    17fe:	0000                	unimp
    1800:	0100                	addi	s0,sp,128
    1802:	5c00                	lw	s0,56(s0)
    1804:	005c                	addi	a5,sp,4
    1806:	0000                	unimp
    1808:	00dc                	addi	a5,sp,68
    180a:	0000                	unimp
    180c:	0001                	nop
    180e:	e061                	bnez	s0,18ce <__moddi3+0xc6>
    1810:	0000                	unimp
    1812:	fc00                	fsw	fs0,56(s0)
    1814:	0000                	unimp
    1816:	0100                	addi	s0,sp,128
    1818:	5c00                	lw	s0,56(s0)
    181a:	00fc                	addi	a5,sp,76
    181c:	0000                	unimp
    181e:	0248                	addi	a0,sp,260
    1820:	0000                	unimp
    1822:	0001                	nop
    1824:	4861                	li	a6,24
    1826:	0002                	0x2
    1828:	dc00                	sw	s0,56(s0)
    182a:	01000003          	lb	zero,16(zero) # 10 <buf.1775+0x10>
    182e:	5c00                	lw	s0,56(s0)
	...
    1838:	0008                	addi	a0,sp,0
    183a:	0000                	unimp
    183c:	0018                	addi	a4,sp,0
    183e:	0000                	unimp
    1840:	0001                	nop
    1842:	185d                	addi	a6,a6,-9
    1844:	0000                	unimp
    1846:	3400                	fld	fs0,40(s0)
    1848:	0000                	unimp
    184a:	0100                	addi	s0,sp,128
    184c:	5e00                	lw	s0,56(a2)
    184e:	00e0                	addi	s0,sp,76
    1850:	0000                	unimp
    1852:	00e8                	addi	a0,sp,76
    1854:	0000                	unimp
    1856:	0001                	nop
    1858:	f45e                	fsw	fs7,40(sp)
    185a:	0000                	unimp
    185c:	1400                	addi	s0,sp,544
    185e:	0001                	nop
    1860:	0100                	addi	s0,sp,128
    1862:	5e00                	lw	s0,56(a2)
    1864:	01a8                	addi	a0,sp,200
    1866:	0000                	unimp
    1868:	01b0                	addi	a2,sp,200
    186a:	0000                	unimp
    186c:	0001                	nop
    186e:	485e                	lw	a6,212(sp)
    1870:	0002                	0x2
    1872:	c400                	sw	s0,8(s0)
    1874:	0002                	0x2
    1876:	0100                	addi	s0,sp,128
    1878:	5d00                	lw	s0,56(a0)
    187a:	02c8                	addi	a0,sp,324
    187c:	0000                	unimp
    187e:	040c                	addi	a1,sp,512
    1880:	0000                	unimp
    1882:	0001                	nop
    1884:	005d                	c.addi	zero,23
    1886:	0000                	unimp
    1888:	0000                	unimp
    188a:	0000                	unimp
    188c:	0c00                	addi	s0,sp,528
    188e:	0000                	unimp
    1890:	6400                	flw	fs0,8(s0)
    1892:	0000                	unimp
    1894:	0100                	addi	s0,sp,128
    1896:	5a00                	lw	s0,48(a2)
    1898:	0064                	addi	s1,sp,12
    189a:	0000                	unimp
    189c:	00a8                	addi	a0,sp,72
    189e:	0000                	unimp
    18a0:	0001                	nop
    18a2:	d45f 0000 dc00      	0xdc000000d45f
    18a8:	0000                	unimp
    18aa:	0100                	addi	s0,sp,128
    18ac:	5f00                	lw	s0,56(a4)
    18ae:	00e0                	addi	s0,sp,76
    18b0:	0000                	unimp
    18b2:	0134                	addi	a3,sp,136
    18b4:	0000                	unimp
    18b6:	0001                	nop
    18b8:	a45a                	fsd	fs6,8(sp)
    18ba:	0001                	nop
    18bc:	a800                	fsd	fs0,16(s0)
    18be:	0001                	nop
    18c0:	0100                	addi	s0,sp,128
    18c2:	5f00                	lw	s0,56(a4)
    18c4:	01a8                	addi	a0,sp,200
    18c6:	0000                	unimp
    18c8:	01d0                	addi	a2,sp,196
    18ca:	0000                	unimp
    18cc:	0001                	nop
    18ce:	485a                	lw	a6,148(sp)
    18d0:	0002                	0x2
    18d2:	9800                	0x9800
    18d4:	0002                	0x2
    18d6:	0100                	addi	s0,sp,128
    18d8:	5a00                	lw	s0,48(a2)
    18da:	029c                	addi	a5,sp,320
    18dc:	0000                	unimp
    18de:	02a8                	addi	a0,sp,328
    18e0:	0000                	unimp
    18e2:	0001                	nop
    18e4:	a85f 0002 f400      	0xf4000002a85f
    18ea:	01000003          	lb	zero,16(zero) # 10 <buf.1775+0x10>
    18ee:	5a00                	lw	s0,48(a2)
    18f0:	03fc                	addi	a5,sp,460
    18f2:	0000                	unimp
    18f4:	0404                	addi	s1,sp,512
    18f6:	0000                	unimp
    18f8:	0001                	nop
    18fa:	005e                	0x5e
    18fc:	0000                	unimp
    18fe:	0000                	unimp
    1900:	0000                	unimp
    1902:	1000                	addi	s0,sp,32
    1904:	0000                	unimp
    1906:	5400                	lw	s0,40(s0)
    1908:	0000                	unimp
    190a:	0100                	addi	s0,sp,128
    190c:	5b00                	lw	s0,48(a4)
    190e:	0054                	addi	a3,sp,4
    1910:	0000                	unimp
    1912:	007c                	addi	a5,sp,12
    1914:	0000                	unimp
    1916:	0001                	nop
    1918:	e060                	fsw	fs0,68(s0)
    191a:	0000                	unimp
    191c:	4c00                	lw	s0,24(s0)
    191e:	0001                	nop
    1920:	0100                	addi	s0,sp,128
    1922:	5b00                	lw	s0,48(a4)
    1924:	01a8                	addi	a0,sp,200
    1926:	0000                	unimp
    1928:	01d8                	addi	a4,sp,196
    192a:	0000                	unimp
    192c:	0001                	nop
    192e:	0001d85b          	0x1d85b
    1932:	dc00                	sw	s0,56(s0)
    1934:	0001                	nop
    1936:	0100                	addi	s0,sp,128
    1938:	6000                	flw	fs0,0(s0)
    193a:	01dc                	addi	a5,sp,196
    193c:	0000                	unimp
    193e:	0218                	addi	a4,sp,256
    1940:	0000                	unimp
    1942:	0001                	nop
    1944:	446c                	lw	a1,76(s0)
    1946:	0002                	0x2
    1948:	9400                	0x9400
    194a:	0002                	0x2
    194c:	0100                	addi	s0,sp,128
    194e:	5b00                	lw	s0,48(a4)
    1950:	0294                	addi	a3,sp,320
    1952:	0000                	unimp
    1954:	02a8                	addi	a0,sp,328
    1956:	0000                	unimp
    1958:	0001                	nop
    195a:	a860                	fsd	fs0,208(s0)
    195c:	0002                	0x2
    195e:	d400                	sw	s0,40(s0)
    1960:	0002                	0x2
    1962:	0100                	addi	s0,sp,128
    1964:	5b00                	lw	s0,48(a4)
    1966:	02d4                	addi	a3,sp,324
    1968:	0000                	unimp
    196a:	02f0                	addi	a2,sp,332
    196c:	0000                	unimp
    196e:	0001                	nop
    1970:	f060                	fsw	fs0,100(s0)
    1972:	0002                	0x2
    1974:	7400                	flw	fs0,40(s0)
    1976:	01000003          	lb	zero,16(zero) # 10 <buf.1775+0x10>
    197a:	5f00                	lw	s0,56(a4)
    197c:	037c                	addi	a5,sp,396
    197e:	0000                	unimp
    1980:	03fc                	addi	a5,sp,460
    1982:	0000                	unimp
    1984:	0001                	nop
    1986:	fc6e                	fsw	fs11,56(sp)
    1988:	0c000003          	lb	zero,192(zero) # c0 <buflen.1776+0x80>
    198c:	0004                	addi	s1,sp,0
    198e:	0100                	addi	s0,sp,128
    1990:	5b00                	lw	s0,48(a4)
	...
    199a:	01c4                	addi	s1,sp,196
    199c:	0000                	unimp
    199e:	01ec                	addi	a1,sp,204
    19a0:	0000                	unimp
    19a2:	0001                	nop
    19a4:	f05e                	fsw	fs7,32(sp)
    19a6:	0002                	0x2
    19a8:	f800                	fsw	fs0,48(s0)
    19aa:	0002                	0x2
    19ac:	0100                	addi	s0,sp,128
    19ae:	5e00                	lw	s0,56(a2)
    19b0:	02f8                	addi	a4,sp,332
    19b2:	0000                	unimp
    19b4:	0304                	addi	s1,sp,384
    19b6:	0000                	unimp
    19b8:	0006                	0x6
    19ba:	0080                	addi	s0,sp,64
    19bc:	008d                	addi	ra,ra,3
    19be:	9f25                	0x9f25
	...
    19c8:	028c                	addi	a1,sp,320
    19ca:	0000                	unimp
    19cc:	029c                	addi	a5,sp,320
    19ce:	0000                	unimp
    19d0:	0002                	0x2
    19d2:	9f31                	0x9f31
	...
    19dc:	029c                	addi	a5,sp,320
    19de:	0000                	unimp
    19e0:	02a8                	addi	a0,sp,328
    19e2:	0000                	unimp
    19e4:	0002                	0x2
    19e6:	9f30                	0x9f30
    19e8:	03ec                	addi	a1,sp,460
    19ea:	0000                	unimp
    19ec:	040c                	addi	a1,sp,512
    19ee:	0000                	unimp
    19f0:	0002                	0x2
    19f2:	9f30                	0x9f30
	...
    19fc:	01bc                	addi	a5,sp,200
    19fe:	0000                	unimp
    1a00:	01cc                	addi	a1,sp,196
    1a02:	0000                	unimp
    1a04:	0001                	nop
    1a06:	bc6c                	fsd	fa1,248(s0)
    1a08:	0002                	0x2
    1a0a:	1000                	addi	s0,sp,32
    1a0c:	0004                	addi	s1,sp,0
    1a0e:	0100                	addi	s0,sp,128
    1a10:	6d00                	flw	fs0,24(a0)
	...
    1a1a:	004c                	addi	a1,sp,4
    1a1c:	0000                	unimp
    1a1e:	00dc                	addi	a5,sp,68
    1a20:	0000                	unimp
    1a22:	0001                	nop
    1a24:	2c56                	fld	fs8,336(sp)
    1a26:	0001                	nop
    1a28:	a800                	fsd	fs0,16(s0)
    1a2a:	0001                	nop
    1a2c:	0100                	addi	s0,sp,128
    1a2e:	5600                	lw	s0,40(a2)
    1a30:	01bc                	addi	a5,sp,200
    1a32:	0000                	unimp
    1a34:	0248                	addi	a0,sp,260
    1a36:	0000                	unimp
    1a38:	0001                	nop
    1a3a:	8056                	0x8056
    1a3c:	0002                	0x2
    1a3e:	a800                	fsd	fs0,16(s0)
    1a40:	0002                	0x2
    1a42:	0100                	addi	s0,sp,128
    1a44:	6c00                	flw	fs0,24(s0)
    1a46:	02bc                	addi	a5,sp,328
    1a48:	0000                	unimp
    1a4a:	040c                	addi	a1,sp,512
    1a4c:	0000                	unimp
    1a4e:	0001                	nop
    1a50:	006c                	addi	a1,sp,12
    1a52:	0000                	unimp
    1a54:	0000                	unimp
    1a56:	0000                	unimp
    1a58:	2000                	fld	fs0,0(s0)
    1a5a:	0000                	unimp
    1a5c:	6800                	flw	fs0,16(s0)
    1a5e:	0000                	unimp
    1a60:	0100                	addi	s0,sp,128
    1a62:	5c00                	lw	s0,56(s0)
    1a64:	00e0                	addi	s0,sp,76
    1a66:	0000                	unimp
    1a68:	00f4                	addi	a3,sp,76
    1a6a:	0000                	unimp
    1a6c:	0001                	nop
    1a6e:	005c                	addi	a5,sp,4
    1a70:	0000                	unimp
    1a72:	0000                	unimp
    1a74:	0000                	unimp
    1a76:	3400                	fld	fs0,40(s0)
    1a78:	0000                	unimp
    1a7a:	6c00                	flw	fs0,24(s0)
    1a7c:	0000                	unimp
    1a7e:	0100                	addi	s0,sp,128
    1a80:	5e00                	lw	s0,56(a2)
	...
    1a8a:	0068                	addi	a0,sp,12
    1a8c:	0000                	unimp
    1a8e:	00d4                	addi	a3,sp,68
    1a90:	0000                	unimp
    1a92:	0001                	nop
    1a94:	005c                	addi	a5,sp,4
    1a96:	0000                	unimp
    1a98:	0000                	unimp
    1a9a:	0000                	unimp
    1a9c:	7400                	flw	fs0,40(s0)
    1a9e:	0000                	unimp
    1aa0:	b800                	fsd	fs0,48(s0)
    1aa2:	0000                	unimp
    1aa4:	0100                	addi	s0,sp,128
    1aa6:	5a00                	lw	s0,48(a2)
    1aa8:	00b8                	addi	a4,sp,72
    1aaa:	0000                	unimp
    1aac:	00d4                	addi	a3,sp,68
    1aae:	0000                	unimp
    1ab0:	00810007          	0x810007
    1ab4:	2440                	fld	fs0,136(s0)
    1ab6:	2540                	fld	fs0,136(a0)
    1ab8:	009f 0000 0000      	0x9f
    1abe:	0000                	unimp
    1ac0:	b000                	fsd	fs0,32(s0)
    1ac2:	0000                	unimp
    1ac4:	b400                	fsd	fs0,40(s0)
    1ac6:	0000                	unimp
    1ac8:	0100                	addi	s0,sp,128
    1aca:	5d00                	lw	s0,56(a0)
	...
    1ad4:	0074                	addi	a3,sp,12
    1ad6:	0000                	unimp
    1ad8:	0080                	addi	s0,sp,64
    1ada:	0000                	unimp
    1adc:	0001                	nop
    1ade:	885e                	mv	a6,s7
    1ae0:	0000                	unimp
    1ae2:	b000                	fsd	fs0,32(s0)
    1ae4:	0000                	unimp
    1ae6:	0100                	addi	s0,sp,128
    1ae8:	5d00                	lw	s0,56(a0)
	...
    1af2:	00a4                	addi	s1,sp,72
    1af4:	0000                	unimp
    1af6:	00bc                	addi	a5,sp,72
    1af8:	0000                	unimp
    1afa:	0001                	nop
    1afc:	bc5e                	fsd	fs7,56(sp)
    1afe:	0000                	unimp
    1b00:	d400                	sw	s0,40(s0)
    1b02:	0000                	unimp
    1b04:	0100                	addi	s0,sp,128
    1b06:	5f00                	lw	s0,56(a4)
	...
    1b10:	0088                	addi	a0,sp,64
    1b12:	0000                	unimp
    1b14:	00b4                	addi	a3,sp,72
    1b16:	0000                	unimp
    1b18:	0001                	nop
    1b1a:	b460                	fsd	fs0,232(s0)
    1b1c:	0000                	unimp
    1b1e:	d400                	sw	s0,40(s0)
    1b20:	0000                	unimp
    1b22:	0100                	addi	s0,sp,128
    1b24:	5d00                	lw	s0,56(a0)
	...
    1b2e:	0100                	addi	s0,sp,128
    1b30:	0000                	unimp
    1b32:	0134                	addi	a3,sp,136
    1b34:	0000                	unimp
    1b36:	0001                	nop
    1b38:	a861                	j	1bd0 <__moddi3+0x3c8>
    1b3a:	0001                	nop
    1b3c:	c000                	sw	s0,0(s0)
    1b3e:	0001                	nop
    1b40:	0100                	addi	s0,sp,128
    1b42:	6100                	flw	fs0,0(a0)
	...
    1b4c:	0114                	addi	a3,sp,128
    1b4e:	0000                	unimp
    1b50:	0134                	addi	a3,sp,136
    1b52:	0000                	unimp
    1b54:	0001                	nop
    1b56:	bc5e                	fsd	fs7,56(sp)
    1b58:	0001                	nop
    1b5a:	c400                	sw	s0,8(s0)
    1b5c:	0001                	nop
    1b5e:	0100                	addi	s0,sp,128
    1b60:	5e00                	lw	s0,56(a2)
	...
    1b6a:	0138                	addi	a4,sp,136
    1b6c:	0000                	unimp
    1b6e:	01a8                	addi	a0,sp,200
    1b70:	0000                	unimp
    1b72:	0001                	nop
    1b74:	005e                	0x5e
    1b76:	0000                	unimp
    1b78:	0000                	unimp
    1b7a:	0000                	unimp
    1b7c:	4000                	lw	s0,0(s0)
    1b7e:	0001                	nop
    1b80:	8800                	0x8800
    1b82:	0001                	nop
    1b84:	0100                	addi	s0,sp,128
    1b86:	5a00                	lw	s0,48(a2)
    1b88:	0188                	addi	a0,sp,192
    1b8a:	0000                	unimp
    1b8c:	01a8                	addi	a0,sp,200
    1b8e:	0000                	unimp
    1b90:	00810007          	0x810007
    1b94:	2440                	fld	fs0,136(s0)
    1b96:	2540                	fld	fs0,136(a0)
    1b98:	009f 0000 0000      	0x9f
    1b9e:	0000                	unimp
    1ba0:	4c00                	lw	s0,24(s0)
    1ba2:	0001                	nop
    1ba4:	5800                	lw	s0,48(s0)
    1ba6:	0001                	nop
    1ba8:	0100                	addi	s0,sp,128
    1baa:	5b00                	lw	s0,48(a4)
	...
    1bb4:	0180                	addi	s0,sp,192
    1bb6:	0000                	unimp
    1bb8:	0184                	addi	s1,sp,192
    1bba:	0000                	unimp
    1bbc:	0001                	nop
    1bbe:	0000005b          	0x5b
    1bc2:	0000                	unimp
    1bc4:	0000                	unimp
    1bc6:	4800                	lw	s0,16(s0)
    1bc8:	0001                	nop
    1bca:	5000                	lw	s0,32(s0)
    1bcc:	0001                	nop
    1bce:	0100                	addi	s0,sp,128
    1bd0:	5d00                	lw	s0,56(a0)
    1bd2:	0158                	addi	a4,sp,132
    1bd4:	0000                	unimp
    1bd6:	0170                	addi	a2,sp,140
    1bd8:	0000                	unimp
    1bda:	0001                	nop
    1bdc:	705d                	0x705d
    1bde:	0001                	nop
    1be0:	8000                	0x8000
    1be2:	0001                	nop
    1be4:	0100                	addi	s0,sp,128
    1be6:	5b00                	lw	s0,48(a4)
	...
    1bf0:	0174                	addi	a3,sp,140
    1bf2:	0000                	unimp
    1bf4:	018c                	addi	a1,sp,192
    1bf6:	0000                	unimp
    1bf8:	0001                	nop
    1bfa:	8c5d                	or	s0,s0,a5
    1bfc:	0001                	nop
    1bfe:	a800                	fsd	fs0,16(s0)
    1c00:	0001                	nop
    1c02:	0100                	addi	s0,sp,128
    1c04:	5f00                	lw	s0,56(a4)
	...
    1c0e:	0158                	addi	a4,sp,132
    1c10:	0000                	unimp
    1c12:	0170                	addi	a2,sp,140
    1c14:	0000                	unimp
    1c16:	0001                	nop
    1c18:	0001845b          	0x1845b
    1c1c:	a800                	fsd	fs0,16(s0)
    1c1e:	0001                	nop
    1c20:	0100                	addi	s0,sp,128
    1c22:	5b00                	lw	s0,48(a4)
	...
    1c2c:	01dc                	addi	a5,sp,196
    1c2e:	0000                	unimp
    1c30:	0248                	addi	a0,sp,260
    1c32:	0000                	unimp
    1c34:	0001                	nop
    1c36:	005a                	0x5a
    1c38:	0000                	unimp
    1c3a:	0000                	unimp
    1c3c:	0000                	unimp
    1c3e:	e400                	fsw	fs0,8(s0)
    1c40:	0001                	nop
    1c42:	2c00                	fld	fs0,24(s0)
    1c44:	0002                	0x2
    1c46:	0100                	addi	s0,sp,128
    1c48:	5b00                	lw	s0,48(a4)
    1c4a:	022c                	addi	a1,sp,264
    1c4c:	0000                	unimp
    1c4e:	0248                	addi	a0,sp,260
    1c50:	0000                	unimp
    1c52:	00810007          	0x810007
    1c56:	2440                	fld	fs0,136(s0)
    1c58:	2540                	fld	fs0,136(a0)
    1c5a:	009f 0000 0000      	0x9f
    1c60:	0000                	unimp
    1c62:	ec00                	fsw	fs0,24(s0)
    1c64:	0001                	nop
    1c66:	f800                	fsw	fs0,48(s0)
    1c68:	0001                	nop
    1c6a:	0100                	addi	s0,sp,128
    1c6c:	5e00                	lw	s0,56(a2)
	...
    1c76:	0220                	addi	s0,sp,264
    1c78:	0000                	unimp
    1c7a:	0228                	addi	a0,sp,264
    1c7c:	0000                	unimp
    1c7e:	0001                	nop
    1c80:	005c                	addi	a5,sp,4
    1c82:	0000                	unimp
    1c84:	0000                	unimp
    1c86:	0000                	unimp
    1c88:	e400                	fsw	fs0,8(s0)
    1c8a:	0001                	nop
    1c8c:	f000                	fsw	fs0,32(s0)
    1c8e:	0001                	nop
    1c90:	0100                	addi	s0,sp,128
    1c92:	5d00                	lw	s0,56(a0)
    1c94:	01f8                	addi	a4,sp,204
    1c96:	0000                	unimp
    1c98:	0210                	addi	a2,sp,256
    1c9a:	0000                	unimp
    1c9c:	0001                	nop
    1c9e:	105d                	c.addi	zero,-9
    1ca0:	0002                	0x2
    1ca2:	2000                	fld	fs0,0(s0)
    1ca4:	0002                	0x2
    1ca6:	0100                	addi	s0,sp,128
    1ca8:	5c00                	lw	s0,56(s0)
	...
    1cb2:	0214                	addi	a3,sp,256
    1cb4:	0000                	unimp
    1cb6:	0224                	addi	s1,sp,264
    1cb8:	0000                	unimp
    1cba:	0001                	nop
    1cbc:	2c5d                	jal	1f72 <__udivdi3+0x30e>
    1cbe:	0002                	0x2
    1cc0:	4800                	lw	s0,16(s0)
    1cc2:	0002                	0x2
    1cc4:	0100                	addi	s0,sp,128
    1cc6:	5b00                	lw	s0,48(a4)
	...
    1cd0:	01f8                	addi	a4,sp,204
    1cd2:	0000                	unimp
    1cd4:	0228                	addi	a0,sp,264
    1cd6:	0000                	unimp
    1cd8:	0001                	nop
    1cda:	285e                	fld	fa6,464(sp)
    1cdc:	0002                	0x2
    1cde:	4800                	lw	s0,16(s0)
    1ce0:	0002                	0x2
    1ce2:	0100                	addi	s0,sp,128
    1ce4:	5c00                	lw	s0,56(s0)
	...
    1cee:	024c                	addi	a1,sp,260
    1cf0:	0000                	unimp
    1cf2:	02c4                	addi	s1,sp,324
    1cf4:	0000                	unimp
    1cf6:	0001                	nop
    1cf8:	005d                	c.addi	zero,23
    1cfa:	0000                	unimp
    1cfc:	0000                	unimp
    1cfe:	0000                	unimp
    1d00:	6000                	flw	fs0,0(s0)
    1d02:	0002                	0x2
    1d04:	a800                	fsd	fs0,16(s0)
    1d06:	0002                	0x2
    1d08:	0100                	addi	s0,sp,128
    1d0a:	5e00                	lw	s0,56(a2)
    1d0c:	02bc                	addi	a5,sp,328
    1d0e:	0000                	unimp
    1d10:	02c0                	addi	s0,sp,324
    1d12:	0000                	unimp
    1d14:	0001                	nop
    1d16:	005e                	0x5e
    1d18:	0000                	unimp
    1d1a:	0000                	unimp
    1d1c:	0000                	unimp
    1d1e:	9000                	0x9000
    1d20:	0002                	0x2
    1d22:	9c00                	0x9c00
    1d24:	0002                	0x2
    1d26:	0100                	addi	s0,sp,128
    1d28:	5f00                	lw	s0,56(a4)
	...
    1d32:	03c8                	addi	a0,sp,452
    1d34:	0000                	unimp
    1d36:	03e4                	addi	s1,sp,460
    1d38:	0000                	unimp
    1d3a:	0001                	nop
    1d3c:	0003e85b          	0x3e85b
    1d40:	f800                	fsw	fs0,48(s0)
    1d42:	01000003          	lb	zero,16(zero) # 10 <buf.1775+0x10>
    1d46:	5b00                	lw	s0,48(a4)
	...
    1d50:	03cc                	addi	a1,sp,452
    1d52:	0000                	unimp
    1d54:	03e0                	addi	s0,sp,460
    1d56:	0000                	unimp
    1d58:	0001                	nop
    1d5a:	e85e                	fsw	fs7,16(sp)
    1d5c:	ec000003          	lb	zero,-320(zero) # fffffec0 <__C_STACK_TOP__+0xfffefec0>
    1d60:	01000003          	lb	zero,16(zero) # 10 <buf.1775+0x10>
    1d64:	5c00                	lw	s0,56(s0)
    1d66:	03ec                	addi	a1,sp,460
    1d68:	0000                	unimp
    1d6a:	03f0                	addi	a2,sp,460
    1d6c:	0000                	unimp
    1d6e:	0001                	nop
    1d70:	005e                	0x5e
    1d72:	0000                	unimp
    1d74:	0000                	unimp
    1d76:	0000                	unimp
    1d78:	f400                	fsw	fs0,40(s0)
    1d7a:	0002                	0x2
    1d7c:	3800                	fld	fs0,48(s0)
    1d7e:	01000003          	lb	zero,16(zero) # 10 <buf.1775+0x10>
    1d82:	5b00                	lw	s0,48(a4)
    1d84:	0338                	addi	a4,sp,392
    1d86:	0000                	unimp
    1d88:	040c                	addi	a1,sp,512
    1d8a:	0000                	unimp
    1d8c:	0005                	c.addi	zero,1
    1d8e:	007d                	c.addi	zero,31
    1d90:	2540                	fld	fs0,136(a0)
    1d92:	009f 0000 0000      	0x9f
    1d98:	0000                	unimp
    1d9a:	f400                	fsw	fs0,40(s0)
    1d9c:	0002                	0x2
    1d9e:	3c00                	fld	fs0,56(s0)
    1da0:	01000003          	lb	zero,16(zero) # 10 <buf.1775+0x10>
    1da4:	6e00                	flw	fs0,24(a2)
    1da6:	033c                	addi	a5,sp,392
    1da8:	0000                	unimp
    1daa:	040c                	addi	a1,sp,512
    1dac:	0000                	unimp
    1dae:	007d0007          	0x7d0007
    1db2:	2440                	fld	fs0,136(s0)
    1db4:	2540                	fld	fs0,136(a0)
    1db6:	009f 0000 0000      	0x9f
    1dbc:	0000                	unimp
    1dbe:	f800                	fsw	fs0,48(s0)
    1dc0:	0002                	0x2
    1dc2:	1400                	addi	s0,sp,544
    1dc4:	01000003          	lb	zero,16(zero) # 10 <buf.1775+0x10>
    1dc8:	5e00                	lw	s0,56(a2)
    1dca:	0314                	addi	a3,sp,384
    1dcc:	0000                	unimp
    1dce:	0368                	addi	a0,sp,396
    1dd0:	0000                	unimp
    1dd2:	0001                	nop
    1dd4:	0056                	0x56
    1dd6:	0000                	unimp
    1dd8:	0000                	unimp
    1dda:	0000                	unimp
    1ddc:	3000                	fld	fs0,32(s0)
    1dde:	54000003          	lb	zero,1344(zero) # 540 <vprintfmt.constprop.2+0x126>
    1de2:	01000003          	lb	zero,16(zero) # 10 <buf.1775+0x10>
    1de6:	6100                	flw	fs0,0(a0)
    1de8:	0354                	addi	a3,sp,388
    1dea:	0000                	unimp
    1dec:	038c                	addi	a1,sp,448
    1dee:	0000                	unimp
    1df0:	0001                	nop
    1df2:	005e                	0x5e
    1df4:	0000                	unimp
    1df6:	0000                	unimp
    1df8:	0000                	unimp
    1dfa:	f400                	fsw	fs0,40(s0)
    1dfc:	0002                	0x2
    1dfe:	fc00                	fsw	fs0,56(s0)
    1e00:	0002                	0x2
    1e02:	0100                	addi	s0,sp,128
    1e04:	5600                	lw	s0,40(a2)
    1e06:	02fc                	addi	a5,sp,332
    1e08:	0000                	unimp
    1e0a:	0304                	addi	s1,sp,384
    1e0c:	0000                	unimp
    1e0e:	0009                	c.addi	zero,2
    1e10:	0080                	addi	s0,sp,64
    1e12:	008d                	addi	ra,ra,3
    1e14:	7b25                	lui	s6,0xfffe9
    1e16:	1d00                	addi	s0,sp,688
    1e18:	049f 0003 1000      	0x10000003049f
    1e1e:	01000003          	lb	zero,16(zero) # 10 <buf.1775+0x10>
    1e22:	6100                	flw	fs0,0(a0)
    1e24:	0314                	addi	a3,sp,384
    1e26:	0000                	unimp
    1e28:	0330                	addi	a2,sp,392
    1e2a:	0000                	unimp
    1e2c:	0001                	nop
    1e2e:	0061                	c.addi	zero,24
    1e30:	0000                	unimp
    1e32:	0000                	unimp
    1e34:	0000                	unimp
    1e36:	2c00                	fld	fs0,24(s0)
    1e38:	34000003          	lb	zero,832(zero) # 340 <printf_putch+0x2c>
    1e3c:	01000003          	lb	zero,16(zero) # 10 <buf.1775+0x10>
    1e40:	6f00                	flw	fs0,24(a4)
    1e42:	0344                	addi	s1,sp,388
    1e44:	0000                	unimp
    1e46:	0350                	addi	a2,sp,388
    1e48:	0000                	unimp
    1e4a:	0001                	nop
    1e4c:	506e                	0x506e
    1e4e:	54000003          	lb	zero,1344(zero) # 540 <vprintfmt.constprop.2+0x126>
    1e52:	0a000003          	lb	zero,160(zero) # a0 <buflen.1776+0x60>
    1e56:	7f00                	flw	fs0,56(a4)
    1e58:	4000                	lw	s0,0(s0)
    1e5a:	4024                	lw	s1,64(s0)
    1e5c:	8f25                	xor	a4,a4,s1
    1e5e:	2100                	fld	fs0,0(a0)
    1e60:	549f 0003 0c00      	0xc000003549f
    1e66:	0004                	addi	s1,sp,0
    1e68:	0100                	addi	s0,sp,128
    1e6a:	6e00                	flw	fs0,24(a2)
	...
    1e74:	0304                	addi	s1,sp,384
    1e76:	0000                	unimp
    1e78:	0338                	addi	a4,sp,392
    1e7a:	0000                	unimp
    1e7c:	0001                	nop
    1e7e:	3860                	fld	fs0,240(s0)
    1e80:	80000003          	lb	zero,-2048(zero) # fffff800 <__C_STACK_TOP__+0xfffef800>
    1e84:	01000003          	lb	zero,16(zero) # 10 <buf.1775+0x10>
    1e88:	5b00                	lw	s0,48(a4)
	...
    1e92:	038c                	addi	a1,sp,448
    1e94:	0000                	unimp
    1e96:	03c4                	addi	s1,sp,452
    1e98:	0000                	unimp
    1e9a:	0001                	nop
    1e9c:	005e                	0x5e
    1e9e:	0000                	unimp
    1ea0:	0000                	unimp
    1ea2:	0000                	unimp
    1ea4:	a400                	fsd	fs0,8(s0)
    1ea6:	bc000003          	lb	zero,-1088(zero) # fffffbc0 <__C_STACK_TOP__+0xfffefbc0>
    1eaa:	01000003          	lb	zero,16(zero) # 10 <buf.1775+0x10>
    1eae:	6000                	flw	fs0,0(s0)
	...
    1eb8:	0390                	addi	a2,sp,448
    1eba:	0000                	unimp
    1ebc:	03b0                	addi	a2,sp,456
    1ebe:	0000                	unimp
    1ec0:	0001                	nop
    1ec2:	005f 0000 0000      	0x5f
    1ec8:	0000                	unimp
    1eca:	9800                	0x9800
    1ecc:	0c000003          	lb	zero,192(zero) # c0 <buflen.1776+0x80>
    1ed0:	0004                	addi	s1,sp,0
    1ed2:	0100                	addi	s0,sp,128
    1ed4:	5600                	lw	s0,40(a2)
	...
    1ede:	0380                	addi	s0,sp,448
    1ee0:	0000                	unimp
    1ee2:	0394                	addi	a3,sp,448
    1ee4:	0000                	unimp
    1ee6:	0001                	nop
    1ee8:	0000005b          	0x5b
    1eec:	0000                	unimp
    1eee:	0000                	unimp
    1ef0:	8800                	0x8800
    1ef2:	90000003          	lb	zero,-1792(zero) # fffff900 <__C_STACK_TOP__+0xfffef900>
    1ef6:	01000003          	lb	zero,16(zero) # 10 <buf.1775+0x10>
    1efa:	5f00                	lw	s0,56(a4)
    1efc:	0390                	addi	a2,sp,448
    1efe:	0000                	unimp
    1f00:	03b4                	addi	a3,sp,456
    1f02:	0000                	unimp
    1f04:	0006                	0x6
    1f06:	7f81                	lui	t6,0xfffe0
    1f08:	007c                	addi	a5,sp,12
    1f0a:	9f1a                	add	t5,t5,t1
    1f0c:	03b4                	addi	a3,sp,456
    1f0e:	0000                	unimp
    1f10:	03dc                	addi	a5,sp,452
    1f12:	0000                	unimp
    1f14:	0006                	0x6
    1f16:	007c                	addi	a5,sp,12
    1f18:	007f                	0x7f
    1f1a:	9f1a                	add	t5,t5,t1
	...
    1f24:	0384                	addi	s1,sp,448
    1f26:	0000                	unimp
    1f28:	0398                	addi	a4,sp,448
    1f2a:	0000                	unimp
    1f2c:	0001                	nop
    1f2e:	0056                	0x56
    1f30:	0000                	unimp
    1f32:	0000                	unimp
    1f34:	0000                	unimp
    1f36:	dc00                	sw	s0,56(s0)
    1f38:	ec000003          	lb	zero,-320(zero) # fffffec0 <__C_STACK_TOP__+0xfffefec0>
    1f3c:	01000003          	lb	zero,16(zero) # 10 <buf.1775+0x10>
    1f40:	5c00                	lw	s0,56(s0)
	...
    1f4a:	03f0                	addi	a2,sp,460
    1f4c:	0000                	unimp
    1f4e:	0404                	addi	s1,sp,512
    1f50:	0000                	unimp
    1f52:	0001                	nop
    1f54:	005e                	0x5e
    1f56:	0000                	unimp
    1f58:	0000                	unimp
    1f5a:	0000                	unimp
	...

Дизассемблирование раздела .debug_aranges:

00000000 <.debug_aranges>:
   0:	001c                	addi	a5,sp,0
   2:	0000                	unimp
   4:	0002                	0x2
   6:	0000                	unimp
   8:	0000                	unimp
   a:	0004                	addi	s1,sp,0
   c:	0000                	unimp
   e:	0000                	unimp
  10:	1808                	addi	a0,sp,48
  12:	0000                	unimp
  14:	0458                	addi	a4,sp,516
	...
  1e:	0000                	unimp
  20:	001c                	addi	a5,sp,0
  22:	0000                	unimp
  24:	0002                	0x2
  26:	11ad                	addi	gp,gp,-21
  28:	0000                	unimp
  2a:	0004                	addi	s1,sp,0
  2c:	0000                	unimp
  2e:	0000                	unimp
  30:	1c64                	addi	s1,sp,572
  32:	0000                	unimp
  34:	0434                	addi	a3,sp,520
	...
  3e:	0000                	unimp
  40:	001c                	addi	a5,sp,0
  42:	0000                	unimp
  44:	0002                	0x2
  46:	000022d7          	0x22d7
  4a:	0004                	addi	s1,sp,0
  4c:	0000                	unimp
  4e:	0000                	unimp
  50:	209c                	fld	fa5,0(s1)
  52:	0000                	unimp
  54:	0410                	addi	a2,sp,512
	...
  5e:	0000                	unimp
  60:	0014                	addi	a3,sp,0
  62:	0000                	unimp
  64:	0002                	0x2
  66:	345e                	fld	fs0,496(sp)
  68:	0000                	unimp
  6a:	0004                	addi	s1,sp,0
	...

Дизассемблирование раздела .debug_ranges:

00000000 <.debug_ranges>:
   0:	0030                	addi	a2,sp,8
   2:	0000                	unimp
   4:	010c                	addi	a1,sp,128
   6:	0000                	unimp
   8:	0128                	addi	a0,sp,136
   a:	0000                	unimp
   c:	0458                	addi	a4,sp,516
	...
  16:	0000                	unimp
  18:	0050                	addi	a2,sp,4
  1a:	0000                	unimp
  1c:	007c                	addi	a5,sp,12
  1e:	0000                	unimp
  20:	0128                	addi	a0,sp,136
  22:	0000                	unimp
  24:	013c                	addi	a5,sp,136
	...
  2e:	0000                	unimp
  30:	0148                	addi	a0,sp,132
  32:	0000                	unimp
  34:	0174                	addi	a3,sp,140
  36:	0000                	unimp
  38:	01f0                	addi	a2,sp,204
  3a:	0000                	unimp
  3c:	0204                	addi	s1,sp,256
	...
  46:	0000                	unimp
  48:	0214                	addi	a3,sp,256
  4a:	0000                	unimp
  4c:	021c                	addi	a5,sp,256
  4e:	0000                	unimp
  50:	0224                	addi	s1,sp,264
  52:	0000                	unimp
  54:	0290                	addi	a2,sp,320
	...
  5e:	0000                	unimp
  60:	0294                	addi	a3,sp,320
  62:	0000                	unimp
  64:	02c8                	addi	a0,sp,324
  66:	0000                	unimp
  68:	02f0                	addi	a2,sp,332
  6a:	0000                	unimp
  6c:	0304                	addi	s1,sp,384
	...
  76:	0000                	unimp
  78:	0320                	addi	s0,sp,392
  7a:	0000                	unimp
  7c:	0334                	addi	a3,sp,392
  7e:	0000                	unimp
  80:	033c                	addi	a5,sp,392
  82:	0000                	unimp
  84:	03b0                	addi	a2,sp,456
  86:	0000                	unimp
  88:	03b4                	addi	a3,sp,456
  8a:	0000                	unimp
  8c:	03b8                	addi	a4,sp,456
  8e:	0000                	unimp
  90:	03c0                	addi	s0,sp,452
  92:	0000                	unimp
  94:	03c4                	addi	s1,sp,452
	...
  9e:	0000                	unimp
  a0:	03b0                	addi	a2,sp,456
  a2:	0000                	unimp
  a4:	03b4                	addi	a3,sp,456
  a6:	0000                	unimp
  a8:	03b8                	addi	a4,sp,456
  aa:	0000                	unimp
  ac:	03c0                	addi	s0,sp,452
  ae:	0000                	unimp
  b0:	03c4                	addi	s1,sp,452
  b2:	0000                	unimp
  b4:	0414                	addi	a3,sp,512
	...
  be:	0000                	unimp
  c0:	0004                	addi	s1,sp,0
  c2:	0000                	unimp
  c4:	01d4                	addi	a3,sp,196
  c6:	0000                	unimp
  c8:	01dc                	addi	a5,sp,196
  ca:	0000                	unimp
  cc:	0434                	addi	a3,sp,520
	...
  d6:	0000                	unimp
  d8:	0020                	addi	s0,sp,8
  da:	0000                	unimp
  dc:	004c                	addi	a1,sp,4
  de:	0000                	unimp
  e0:	00f4                	addi	a3,sp,76
  e2:	0000                	unimp
  e4:	0108                	addi	a0,sp,128
	...
  ee:	0000                	unimp
  f0:	00ec                	addi	a1,sp,76
  f2:	0000                	unimp
  f4:	00f4                	addi	a3,sp,76
  f6:	0000                	unimp
  f8:	0300                	addi	s0,sp,384
  fa:	0000                	unimp
  fc:	0428                	addi	a0,sp,520
	...
 106:	0000                	unimp
 108:	030c                	addi	a1,sp,384
 10a:	0000                	unimp
 10c:	0310                	addi	a2,sp,384
 10e:	0000                	unimp
 110:	0314                	addi	a3,sp,384
 112:	0000                	unimp
 114:	0318                	addi	a4,sp,384
 116:	0000                	unimp
 118:	0324                	addi	s1,sp,392
 11a:	0000                	unimp
 11c:	0330                	addi	a2,sp,392
 11e:	0000                	unimp
 120:	0334                	addi	a3,sp,392
 122:	0000                	unimp
 124:	03ac                	addi	a1,sp,456
 126:	0000                	unimp
 128:	03b0                	addi	a2,sp,456
 12a:	0000                	unimp
 12c:	03b4                	addi	a3,sp,456
	...
 136:	0000                	unimp
 138:	03ac                	addi	a1,sp,456
 13a:	0000                	unimp
 13c:	03b0                	addi	a2,sp,456
 13e:	0000                	unimp
 140:	03b4                	addi	a3,sp,456
 142:	0000                	unimp
 144:	03f4                	addi	a3,sp,460
 146:	0000                	unimp
 148:	03fc                	addi	a5,sp,460
 14a:	0000                	unimp
 14c:	0410                	addi	a2,sp,512
 14e:	0000                	unimp
 150:	0414                	addi	a3,sp,512
 152:	0000                	unimp
 154:	0418                	addi	a4,sp,512
	...
 15e:	0000                	unimp
 160:	0114                	addi	a3,sp,128
 162:	0000                	unimp
 164:	0140                	addi	s0,sp,132
 166:	0000                	unimp
 168:	01dc                	addi	a5,sp,196
 16a:	0000                	unimp
 16c:	01f0                	addi	a2,sp,204
	...
 176:	0000                	unimp
 178:	0200                	addi	s0,sp,256
 17a:	0000                	unimp
 17c:	0204                	addi	s1,sp,256
 17e:	0000                	unimp
 180:	0208                	addi	a0,sp,256
 182:	0000                	unimp
 184:	020c                	addi	a1,sp,256
 186:	0000                	unimp
 188:	0210                	addi	a2,sp,256
 18a:	0000                	unimp
 18c:	029c                	addi	a5,sp,320
	...
 196:	0000                	unimp
 198:	02a0                	addi	s0,sp,328
 19a:	0000                	unimp
 19c:	02d4                	addi	a3,sp,324
 19e:	0000                	unimp
 1a0:	02ec                	addi	a1,sp,332
 1a2:	0000                	unimp
 1a4:	0300                	addi	s0,sp,384
	...
 1b2:	0000                	unimp
 1b4:	00dc                	addi	a5,sp,68
 1b6:	0000                	unimp
 1b8:	00e0                	addi	s0,sp,76
 1ba:	0000                	unimp
 1bc:	040c                	addi	a1,sp,512
	...
 1c6:	0000                	unimp
 1c8:	0020                	addi	s0,sp,8
 1ca:	0000                	unimp
 1cc:	004c                	addi	a1,sp,4
 1ce:	0000                	unimp
 1d0:	00e0                	addi	s0,sp,76
 1d2:	0000                	unimp
 1d4:	00f4                	addi	a3,sp,76
	...
 1de:	0000                	unimp
 1e0:	0100                	addi	s0,sp,128
 1e2:	0000                	unimp
 1e4:	012c                	addi	a1,sp,136
 1e6:	0000                	unimp
 1e8:	01a8                	addi	a0,sp,200
 1ea:	0000                	unimp
 1ec:	01bc                	addi	a5,sp,200
	...
 1f6:	0000                	unimp
 1f8:	01cc                	addi	a1,sp,196
 1fa:	0000                	unimp
 1fc:	01d4                	addi	a3,sp,196
 1fe:	0000                	unimp
 200:	01dc                	addi	a5,sp,196
 202:	0000                	unimp
 204:	0248                	addi	a0,sp,260
	...
 20e:	0000                	unimp
 210:	024c                	addi	a1,sp,260
 212:	0000                	unimp
 214:	0280                	addi	s0,sp,320
 216:	0000                	unimp
 218:	02a8                	addi	a0,sp,328
 21a:	0000                	unimp
 21c:	02bc                	addi	a5,sp,328
	...
 226:	0000                	unimp
 228:	02d8                	addi	a4,sp,324
 22a:	0000                	unimp
 22c:	02ec                	addi	a1,sp,332
 22e:	0000                	unimp
 230:	02f4                	addi	a3,sp,332
 232:	0000                	unimp
 234:	0368                	addi	a0,sp,396
 236:	0000                	unimp
 238:	036c                	addi	a1,sp,396
 23a:	0000                	unimp
 23c:	0370                	addi	a2,sp,396
 23e:	0000                	unimp
 240:	0378                	addi	a4,sp,396
 242:	0000                	unimp
 244:	037c                	addi	a5,sp,396
	...
 24e:	0000                	unimp
 250:	0368                	addi	a0,sp,396
 252:	0000                	unimp
 254:	036c                	addi	a1,sp,396
 256:	0000                	unimp
 258:	0370                	addi	a2,sp,396
 25a:	0000                	unimp
 25c:	0378                	addi	a4,sp,396
 25e:	0000                	unimp
 260:	037c                	addi	a5,sp,396
 262:	0000                	unimp
 264:	03cc                	addi	a1,sp,452
	...

Дизассемблирование раздела .debug_line:

00000000 <.debug_line>:
   0:	042a                	slli	s0,s0,0xa
   2:	0000                	unimp
   4:	0002                	0x2
   6:	0296                	slli	t0,t0,0x5
   8:	0000                	unimp
   a:	0101                	addi	sp,sp,0
   c:	000d0efb          	0xd0efb
  10:	0101                	addi	sp,sp,0
  12:	0101                	addi	sp,sp,0
  14:	0000                	unimp
  16:	0100                	addi	s0,sp,128
  18:	0000                	unimp
  1a:	2f01                	jal	72a <vprintfmt.constprop.2+0x310>
  1c:	6f68                	flw	fa0,92(a4)
  1e:	656d                	lui	a0,0x1b
  20:	7263732f          	0x7263732f
  24:	6f74                	flw	fa3,92(a4)
  26:	2f736c6f          	jal	s8,36b1c <__C_STACK_TOP__+0x26b1c>
  2a:	6b726f77          	0x6b726f77
  2e:	736f682f          	0x736f682f
  32:	5f74                	lw	a3,124(a4)
  34:	6b726f77          	0x6b726f77
  38:	6f6f742f          	0x6f6f742f
  3c:	736c                	flw	fa1,100(a4)
  3e:	7370752f          	0x7370752f
  42:	7274                	flw	fa3,100(a2)
  44:	6165                	addi	sp,sp,112
  46:	2d6d                	jal	700 <vprintfmt.constprop.2+0x2e6>
  48:	2d312e37          	lui	t3,0x2d312
  4c:	7672                	flw	fa2,60(sp)
  4e:	2f653233          	0x2f653233
  52:	6972                	flw	fs2,28(sp)
  54:	2d766373          	csrrsi	t1,0x2d7,12
  58:	2f636367          	0x2f636367
  5c:	696c                	flw	fa1,84(a0)
  5e:	6762                	flw	fa4,24(sp)
  60:	2f006363          	bltu	zero,a6,346 <printf_putch+0x32>
  64:	2f74706f          	j	47b5a <__C_STACK_TOP__+0x37b5a>
  68:	74726373          	csrrsi	t1,0x747,4
  6c:	736c6f6f          	jal	t5,c67a2 <__C_STACK_TOP__+0xb67a2>
  70:	3038312f          	0x3038312f
  74:	3131                	jal	fffffc80 <__C_STACK_TOP__+0xfffefc80>
  76:	2f35                	jal	7b2 <vprintfmt.constprop.2+0x398>
  78:	32356567          	0x32356567
  7c:	36643537          	lui	a0,0x36643
  80:	2f66                	fld	ft10,88(sp)
  82:	6972                	flw	fs2,28(sp)
  84:	36766373          	csrrsi	t1,0x367,12
  88:	2d34                	fld	fa3,88(a0)
  8a:	6e75                	lui	t3,0x1d
  8c:	776f6e6b          	0x776f6e6b
  90:	2d6e                	fld	fs10,216(sp)
  92:	6c65                	lui	s8,0x19
  94:	2f66                	fld	ft10,88(sp)
  96:	6e69                	lui	t3,0x1a
  98:	64756c63          	bltu	a0,t2,6f0 <vprintfmt.constprop.2+0x2d6>
  9c:	2f65                	jal	854 <vprintfmt.constprop.2+0x43a>
  9e:	00737973          	csrrci	s2,0x7,6
  a2:	6d6f682f          	0x6d6f682f
  a6:	2f65                	jal	85e <vprintfmt.constprop.2+0x444>
  a8:	74726373          	csrrsi	t1,0x747,4
  ac:	736c6f6f          	jal	t5,c67e2 <__C_STACK_TOP__+0xb67e2>
  b0:	726f772f          	0x726f772f
  b4:	6f682f6b          	0x6f682f6b
  b8:	775f7473          	csrrci	s0,0x775,30
  bc:	2f6b726f          	jal	tp,b73b2 <__C_STACK_TOP__+0xa73b2>
  c0:	6f74                	flw	fa3,92(a4)
  c2:	2f736c6f          	jal	s8,36bb8 <__C_STACK_TOP__+0x26bb8>
  c6:	7075                	0x7075
  c8:	65727473          	csrrci	s0,0x657,4
  cc:	6d61                	lui	s10,0x18
  ce:	372d                	jal	fffffff8 <__C_STACK_TOP__+0xfffefff8>
  d0:	312e                	fld	ft2,232(sp)
  d2:	722d                	lui	tp,0xfffeb
  d4:	3376                	fld	ft6,376(sp)
  d6:	6532                	flw	fa0,12(sp)
  d8:	6975622f          	0x6975622f
  dc:	646c                	flw	fa1,76(s0)
  de:	672d                	lui	a4,0xb
  e0:	6e2d6363          	bltu	s10,sp,7c6 <vprintfmt.constprop.2+0x3ac>
  e4:	7765                	lui	a4,0xffff9
  e6:	696c                	flw	fa1,84(a0)
  e8:	2d62                	fld	fs10,24(sp)
  ea:	67617473          	csrrci	s0,0x676,2
  ee:	3265                	jal	fffffa96 <__C_STACK_TOP__+0xfffefa96>
  f0:	6363672f          	0x6363672f
  f4:	636e692f          	0x636e692f
  f8:	756c                	flw	fa1,108(a0)
  fa:	6564                	flw	fs1,76(a0)
  fc:	2f00                	fld	fs0,24(a4)
  fe:	2f74706f          	j	47bf4 <__C_STACK_TOP__+0x37bf4>
 102:	74726373          	csrrsi	t1,0x747,4
 106:	736c6f6f          	jal	t5,c683c <__C_STACK_TOP__+0xb683c>
 10a:	3038312f          	0x3038312f
 10e:	3131                	jal	fffffd1a <__C_STACK_TOP__+0xfffefd1a>
 110:	2f35                	jal	84c <vprintfmt.constprop.2+0x432>
 112:	32356567          	0x32356567
 116:	36643537          	lui	a0,0x36643
 11a:	2f66                	fld	ft10,88(sp)
 11c:	6972                	flw	fs2,28(sp)
 11e:	36766373          	csrrsi	t1,0x367,12
 122:	2d34                	fld	fa3,88(a0)
 124:	6e75                	lui	t3,0x1d
 126:	776f6e6b          	0x776f6e6b
 12a:	2d6e                	fld	fs10,216(sp)
 12c:	6c65                	lui	s8,0x19
 12e:	2f66                	fld	ft10,88(sp)
 130:	6e69                	lui	t3,0x1a
 132:	64756c63          	bltu	a0,t2,78a <vprintfmt.constprop.2+0x370>
 136:	0065                	c.addi	zero,25
 138:	6d6f682f          	0x6d6f682f
 13c:	2f65                	jal	8f4 <vprintfmt.constprop.2+0x4da>
 13e:	74726373          	csrrsi	t1,0x747,4
 142:	736c6f6f          	jal	t5,c6878 <__C_STACK_TOP__+0xb6878>
 146:	726f772f          	0x726f772f
 14a:	6f682f6b          	0x6f682f6b
 14e:	775f7473          	csrrci	s0,0x775,30
 152:	2f6b726f          	jal	tp,b7448 <__C_STACK_TOP__+0xa7448>
 156:	6f74                	flw	fa3,92(a4)
 158:	2f736c6f          	jal	s8,36c4e <__C_STACK_TOP__+0x26c4e>
 15c:	7075                	0x7075
 15e:	65727473          	csrrci	s0,0x657,4
 162:	6d61                	lui	s10,0x18
 164:	372d                	jal	8e <buflen.1776+0x4e>
 166:	312e                	fld	ft2,232(sp)
 168:	722d                	lui	tp,0xfffeb
 16a:	3376                	fld	ft6,376(sp)
 16c:	6532                	flw	fa0,12(sp)
 16e:	7369722f          	0x7369722f
 172:	672d7663          	bleu	s2,s10,7de <vprintfmt.constprop.2+0x3c4>
 176:	6c2f6363          	bltu	t5,sp,83c <vprintfmt.constprop.2+0x422>
 17a:	6269                	lui	tp,0x1a
 17c:	2f636367          	0x2f636367
 180:	2e2e                	fld	ft8,200(sp)
 182:	636e692f          	0x636e692f
 186:	756c                	flw	fa1,108(a0)
 188:	6564                	flw	fs1,76(a0)
 18a:	2f00                	fld	fs0,24(a4)
 18c:	6f68                	flw	fa0,92(a4)
 18e:	656d                	lui	a0,0x1b
 190:	7263732f          	0x7263732f
 194:	6f74                	flw	fa3,92(a4)
 196:	2f736c6f          	jal	s8,36c8c <__C_STACK_TOP__+0x26c8c>
 19a:	6b726f77          	0x6b726f77
 19e:	736f682f          	0x736f682f
 1a2:	5f74                	lw	a3,124(a4)
 1a4:	6b726f77          	0x6b726f77
 1a8:	6f6f742f          	0x6f6f742f
 1ac:	736c                	flw	fa1,100(a4)
 1ae:	7370752f          	0x7370752f
 1b2:	7274                	flw	fa3,100(a2)
 1b4:	6165                	addi	sp,sp,112
 1b6:	2d6d                	jal	870 <vprintfmt.constprop.2+0x456>
 1b8:	2d312e37          	lui	t3,0x2d312
 1bc:	7672                	flw	fa2,60(sp)
 1be:	2f653233          	0x2f653233
 1c2:	6972                	flw	fs2,28(sp)
 1c4:	2d766373          	csrrsi	t1,0x2d7,12
 1c8:	2f636367          	0x2f636367
 1cc:	696c                	flw	fa1,84(a0)
 1ce:	6762                	flw	fa4,24(sp)
 1d0:	2e2f6363          	bltu	t5,sp,4b6 <vprintfmt.constprop.2+0x9c>
 1d4:	2f2e                	fld	ft10,200(sp)
 1d6:	2f636367          	0x2f636367
 1da:	666e6f63          	bltu	t3,t1,858 <vprintfmt.constprop.2+0x43e>
 1de:	6769                	lui	a4,0x1a
 1e0:	7369722f          	0x7369722f
 1e4:	2e007663          	bleu	zero,zero,4d0 <vprintfmt.constprop.2+0xb6>
 1e8:	2f2e                	fld	ft10,200(sp)
 1ea:	2e2e                	fld	ft8,200(sp)
 1ec:	2f2e2e2f          	0x2f2e2e2f
 1f0:	2e2e                	fld	ft8,200(sp)
 1f2:	672f2e2f          	amoand.w.aqrl	t3,s2,(t5)
 1f6:	00006363          	bltu	zero,zero,1fc <machine_trap_entry+0x3c>
 1fa:	696c                	flw	fa1,84(a0)
 1fc:	6762                	flw	fa4,24(sp)
 1fe:	2e326363          	bltu	tp,gp,4e4 <vprintfmt.constprop.2+0xca>
 202:	00010063          	beqz	sp,202 <_start+0x2>
 206:	6c00                	flw	fs0,24(s0)
 208:	2e6b636f          	jal	t1,b64ee <__C_STACK_TOP__+0xa64ee>
 20c:	0068                	addi	a0,sp,12
 20e:	0002                	0x2
 210:	5f00                	lw	s0,56(a4)
 212:	7974                	flw	fa3,116(a0)
 214:	6570                	flw	fa2,76(a0)
 216:	00682e73          	csrrs	t3,0x6,a6
 21a:	0002                	0x2
 21c:	7300                	flw	fs0,32(a4)
 21e:	6474                	flw	fa3,76(s0)
 220:	6564                	flw	fs1,76(a0)
 222:	2e66                	fld	ft8,88(sp)
 224:	0068                	addi	a0,sp,12
 226:	72000003          	lb	zero,1824(zero) # 720 <vprintfmt.constprop.2+0x306>
 22a:	6565                	lui	a0,0x19
 22c:	746e                	flw	fs0,248(sp)
 22e:	682e                	flw	fa6,200(sp)
 230:	0200                	addi	s0,sp,256
 232:	0000                	unimp
 234:	7265                	lui	tp,0xffff9
 236:	6e72                	flw	ft8,28(sp)
 238:	00682e6f          	jal	t3,8223e <__C_STACK_TOP__+0x7223e>
 23c:	0002                	0x2
 23e:	7300                	flw	fs0,32(a4)
 240:	6474                	flw	fa3,76(s0)
 242:	696c                	flw	fa1,84(a0)
 244:	2e62                	fld	ft8,24(sp)
 246:	0068                	addi	a0,sp,12
 248:	0004                	addi	s1,sp,0
 24a:	7500                	flw	fs0,40(a0)
 24c:	696e                	flw	fs2,216(sp)
 24e:	2e647473          	csrrci	s0,0x2e6,8
 252:	0068                	addi	a0,sp,12
 254:	0002                	0x2
 256:	7400                	flw	fs0,40(s0)
 258:	6d69                	lui	s10,0x1a
 25a:	2e65                	jal	612 <vprintfmt.constprop.2+0x1f8>
 25c:	0068                	addi	a0,sp,12
 25e:	0004                	addi	s1,sp,0
 260:	6800                	flw	fs0,16(s0)
 262:	7361                	lui	t1,0xffff8
 264:	7468                	flw	fa0,108(s0)
 266:	6261                	lui	tp,0x18
 268:	682e                	flw	fa6,200(sp)
 26a:	0500                	addi	s0,sp,640
 26c:	0000                	unimp
 26e:	6972                	flw	fs2,28(sp)
 270:	2d766373          	csrrsi	t1,0x2d7,12
 274:	7374706f          	j	481aa <__C_STACK_TOP__+0x381aa>
 278:	682e                	flw	fa6,200(sp)
 27a:	0600                	addi	s0,sp,768
 27c:	0000                	unimp
 27e:	6e69                	lui	t3,0x1a
 280:	632d6e73          	csrrsi	t3,0x632,26
 284:	74736e6f          	jal	t3,371ca <__C_STACK_TOP__+0x271ca>
 288:	6e61                	lui	t3,0x18
 28a:	7374                	flw	fa3,100(a4)
 28c:	682e                	flw	fa6,200(sp)
 28e:	0700                	addi	s0,sp,896
 290:	0000                	unimp
 292:	696c                	flw	fa1,84(a0)
 294:	6762                	flw	fa4,24(sp)
 296:	2e326363          	bltu	tp,gp,57c <vprintfmt.constprop.2+0x162>
 29a:	0068                	addi	a0,sp,12
 29c:	0001                	nop
 29e:	0000                	unimp
 2a0:	0500                	addi	s0,sp,640
 2a2:	0802                	slli	a6,a6,0x0
 2a4:	0018                	addi	a4,sp,0
 2a6:	0300                	addi	s0,sp,384
 2a8:	09e6                	slli	s3,s3,0x19
 2aa:	0301                	addi	t1,t1,0
 2ac:	0901                	addi	s2,s2,0
 2ae:	0000                	unimp
 2b0:	0301                	addi	t1,t1,0
 2b2:	0905                	addi	s2,s2,1
 2b4:	0004                	addi	s1,sp,0
 2b6:	0301                	addi	t1,t1,0
 2b8:	0902                	slli	s2,s2,0x0
 2ba:	0004                	addi	s1,sp,0
 2bc:	0301                	addi	t1,t1,0
 2be:	097f                	0x97f
 2c0:	0010                	addi	a2,sp,0
 2c2:	0301                	addi	t1,t1,0
 2c4:	0902                	slli	s2,s2,0x0
 2c6:	0004                	addi	s1,sp,0
 2c8:	0301                	addi	t1,t1,0
 2ca:	0901                	addi	s2,s2,0
 2cc:	0004                	addi	s1,sp,0
 2ce:	0301                	addi	t1,t1,0
 2d0:	7e8e                	flw	ft9,224(sp)
 2d2:	1009                	c.addi	zero,-30
 2d4:	0100                	addi	s0,sp,128
 2d6:	04090103          	lb	sp,64(s2)
 2da:	0100                	addi	s0,sp,128
 2dc:	04090103          	lb	sp,64(s2)
 2e0:	0100                	addi	s0,sp,128
 2e2:	04090103          	lb	sp,64(s2)
 2e6:	0100                	addi	s0,sp,128
 2e8:	04092503          	lw	a0,64(s2)
 2ec:	0100                	addi	s0,sp,128
 2ee:	0c090203          	lb	tp,192(s2)
 2f2:	0100                	addi	s0,sp,128
 2f4:	04090403          	lb	s0,64(s2)
 2f8:	0100                	addi	s0,sp,128
 2fa:	2c090203          	lb	tp,704(s2)
 2fe:	0100                	addi	s0,sp,128
 300:	04090603          	lb	a2,64(s2)
 304:	0100                	addi	s0,sp,128
 306:	08097f03          	0x8097f03
 30a:	0100                	addi	s0,sp,128
 30c:	04090103          	lb	sp,64(s2)
 310:	0100                	addi	s0,sp,128
 312:	04090103          	lb	sp,64(s2)
 316:	0100                	addi	s0,sp,128
 318:	04090303          	lb	t1,64(s2)
 31c:	0100                	addi	s0,sp,128
 31e:	70093103          	0x70093103
 322:	0100                	addi	s0,sp,128
 324:	04090203          	lb	tp,64(s2)
 328:	0100                	addi	s0,sp,128
 32a:	09018803          	lb	a6,144(gp) # 3c50 <__global_pointer$+0x90>
 32e:	0004                	addi	s1,sp,0
 330:	0301                	addi	t1,t1,0
 332:	0901                	addi	s2,s2,0
 334:	0004                	addi	s1,sp,0
 336:	0301                	addi	t1,t1,0
 338:	00140903          	lb	s2,1(s0)
 33c:	0301                	addi	t1,t1,0
 33e:	7eb5                	lui	t4,0xfffed
 340:	0409                	addi	s0,s0,2
 342:	0100                	addi	s0,sp,128
 344:	14091503          	lh	a0,320(s2)
 348:	0100                	addi	s0,sp,128
 34a:	04090103          	lb	sp,64(s2)
 34e:	0100                	addi	s0,sp,128
 350:	08090203          	lb	tp,128(s2)
 354:	0100                	addi	s0,sp,128
 356:	2c090203          	lb	tp,704(s2)
 35a:	0100                	addi	s0,sp,128
 35c:	04090903          	lb	s2,64(s2)
 360:	0100                	addi	s0,sp,128
 362:	04091303          	lh	t1,64(s2)
 366:	0100                	addi	s0,sp,128
 368:	74096203          	0x74096203
 36c:	0100                	addi	s0,sp,128
 36e:	14091403          	lh	s0,320(s2)
 372:	0100                	addi	s0,sp,128
 374:	04090103          	lb	sp,64(s2)
 378:	0100                	addi	s0,sp,128
 37a:	04090203          	lb	tp,64(s2)
 37e:	0100                	addi	s0,sp,128
 380:	04097f03          	0x4097f03
 384:	0100                	addi	s0,sp,128
 386:	04090303          	lb	t1,64(s2)
 38a:	0100                	addi	s0,sp,128
 38c:	08097d03          	0x8097d03
 390:	0100                	addi	s0,sp,128
 392:	08090303          	lb	t1,128(s2)
 396:	0100                	addi	s0,sp,128
 398:	6c091503          	lh	a0,1728(s2)
 39c:	0100                	addi	s0,sp,128
 39e:	04091303          	lh	t1,64(s2)
 3a2:	0100                	addi	s0,sp,128
 3a4:	34090103          	lb	sp,832(s2)
 3a8:	0100                	addi	s0,sp,128
 3aa:	04090a03          	lb	s4,64(s2)
 3ae:	0100                	addi	s0,sp,128
 3b0:	08090303          	lb	t1,128(s2)
 3b4:	0100                	addi	s0,sp,128
 3b6:	10090b03          	lb	s6,256(s2)
 3ba:	0100                	addi	s0,sp,128
 3bc:	0c096703          	0xc096703
 3c0:	0100                	addi	s0,sp,128
 3c2:	14092303          	lw	t1,320(s2)
 3c6:	0100                	addi	s0,sp,128
 3c8:	0c090203          	lb	tp,192(s2)
 3cc:	0100                	addi	s0,sp,128
 3ce:	04090103          	lb	sp,64(s2)
 3d2:	0100                	addi	s0,sp,128
 3d4:	0c090303          	lb	t1,192(s2)
 3d8:	0100                	addi	s0,sp,128
 3da:	14097b03          	0x14097b03
 3de:	0100                	addi	s0,sp,128
 3e0:	04090303          	lb	t1,64(s2)
 3e4:	0100                	addi	s0,sp,128
 3e6:	04090203          	lb	tp,64(s2)
 3ea:	0100                	addi	s0,sp,128
 3ec:	74090103          	lb	sp,1856(s2)
 3f0:	0100                	addi	s0,sp,128
 3f2:	04097f03          	0x4097f03
 3f6:	0100                	addi	s0,sp,128
 3f8:	04090103          	lb	sp,64(s2)
 3fc:	0100                	addi	s0,sp,128
 3fe:	08097f03          	0x8097f03
 402:	0100                	addi	s0,sp,128
 404:	04090103          	lb	sp,64(s2)
 408:	0100                	addi	s0,sp,128
 40a:	50090203          	lb	tp,1280(s2)
 40e:	0100                	addi	s0,sp,128
 410:	0c090303          	lb	t1,192(s2)
 414:	0100                	addi	s0,sp,128
 416:	14090803          	lb	a6,320(s2)
 41a:	0100                	addi	s0,sp,128
 41c:	10090103          	lb	sp,256(s2)
 420:	0100                	addi	s0,sp,128
 422:	08090203          	lb	tp,128(s2)
 426:	0100                	addi	s0,sp,128
 428:	0c09                	addi	s8,s8,2
 42a:	0000                	unimp
 42c:	0101                	addi	sp,sp,0
 42e:	0414                	addi	a3,sp,512
 430:	0000                	unimp
 432:	0002                	0x2
 434:	0296                	slli	t0,t0,0x5
 436:	0000                	unimp
 438:	0101                	addi	sp,sp,0
 43a:	000d0efb          	0xd0efb
 43e:	0101                	addi	sp,sp,0
 440:	0101                	addi	sp,sp,0
 442:	0000                	unimp
 444:	0100                	addi	s0,sp,128
 446:	0000                	unimp
 448:	2f01                	jal	b58 <main+0x94>
 44a:	6f68                	flw	fa0,92(a4)
 44c:	656d                	lui	a0,0x1b
 44e:	7263732f          	0x7263732f
 452:	6f74                	flw	fa3,92(a4)
 454:	2f736c6f          	jal	s8,36f4a <__C_STACK_TOP__+0x26f4a>
 458:	6b726f77          	0x6b726f77
 45c:	736f682f          	0x736f682f
 460:	5f74                	lw	a3,124(a4)
 462:	6b726f77          	0x6b726f77
 466:	6f6f742f          	0x6f6f742f
 46a:	736c                	flw	fa1,100(a4)
 46c:	7370752f          	0x7370752f
 470:	7274                	flw	fa3,100(a2)
 472:	6165                	addi	sp,sp,112
 474:	2d6d                	jal	b2e <main+0x6a>
 476:	2d312e37          	lui	t3,0x2d312
 47a:	7672                	flw	fa2,60(sp)
 47c:	2f653233          	0x2f653233
 480:	6972                	flw	fs2,28(sp)
 482:	2d766373          	csrrsi	t1,0x2d7,12
 486:	2f636367          	0x2f636367
 48a:	696c                	flw	fa1,84(a0)
 48c:	6762                	flw	fa4,24(sp)
 48e:	2f006363          	bltu	zero,a6,774 <vprintfmt.constprop.2+0x35a>
 492:	2f74706f          	j	47f88 <__C_STACK_TOP__+0x37f88>
 496:	74726373          	csrrsi	t1,0x747,4
 49a:	736c6f6f          	jal	t5,c6bd0 <__C_STACK_TOP__+0xb6bd0>
 49e:	3038312f          	0x3038312f
 4a2:	3131                	jal	ae <buflen.1776+0x6e>
 4a4:	2f35                	jal	be0 <main+0x11c>
 4a6:	32356567          	0x32356567
 4aa:	36643537          	lui	a0,0x36643
 4ae:	2f66                	fld	ft10,88(sp)
 4b0:	6972                	flw	fs2,28(sp)
 4b2:	36766373          	csrrsi	t1,0x367,12
 4b6:	2d34                	fld	fa3,88(a0)
 4b8:	6e75                	lui	t3,0x1d
 4ba:	776f6e6b          	0x776f6e6b
 4be:	2d6e                	fld	fs10,216(sp)
 4c0:	6c65                	lui	s8,0x19
 4c2:	2f66                	fld	ft10,88(sp)
 4c4:	6e69                	lui	t3,0x1a
 4c6:	64756c63          	bltu	a0,t2,b1e <main+0x5a>
 4ca:	2f65                	jal	c82 <main+0x1be>
 4cc:	00737973          	csrrci	s2,0x7,6
 4d0:	6d6f682f          	0x6d6f682f
 4d4:	2f65                	jal	c8c <main+0x1c8>
 4d6:	74726373          	csrrsi	t1,0x747,4
 4da:	736c6f6f          	jal	t5,c6c10 <__C_STACK_TOP__+0xb6c10>
 4de:	726f772f          	0x726f772f
 4e2:	6f682f6b          	0x6f682f6b
 4e6:	775f7473          	csrrci	s0,0x775,30
 4ea:	2f6b726f          	jal	tp,b77e0 <__C_STACK_TOP__+0xa77e0>
 4ee:	6f74                	flw	fa3,92(a4)
 4f0:	2f736c6f          	jal	s8,36fe6 <__C_STACK_TOP__+0x26fe6>
 4f4:	7075                	0x7075
 4f6:	65727473          	csrrci	s0,0x657,4
 4fa:	6d61                	lui	s10,0x18
 4fc:	372d                	jal	426 <vprintfmt.constprop.2+0xc>
 4fe:	312e                	fld	ft2,232(sp)
 500:	722d                	lui	tp,0xfffeb
 502:	3376                	fld	ft6,376(sp)
 504:	6532                	flw	fa0,12(sp)
 506:	6975622f          	0x6975622f
 50a:	646c                	flw	fa1,76(s0)
 50c:	672d                	lui	a4,0xb
 50e:	6e2d6363          	bltu	s10,sp,bf4 <main+0x130>
 512:	7765                	lui	a4,0xffff9
 514:	696c                	flw	fa1,84(a0)
 516:	2d62                	fld	fs10,24(sp)
 518:	67617473          	csrrci	s0,0x676,2
 51c:	3265                	jal	fffffec4 <__C_STACK_TOP__+0xfffefec4>
 51e:	6363672f          	0x6363672f
 522:	636e692f          	0x636e692f
 526:	756c                	flw	fa1,108(a0)
 528:	6564                	flw	fs1,76(a0)
 52a:	2f00                	fld	fs0,24(a4)
 52c:	2f74706f          	j	48022 <__C_STACK_TOP__+0x38022>
 530:	74726373          	csrrsi	t1,0x747,4
 534:	736c6f6f          	jal	t5,c6c6a <__C_STACK_TOP__+0xb6c6a>
 538:	3038312f          	0x3038312f
 53c:	3131                	jal	148 <SIM_STOP+0x50>
 53e:	2f35                	jal	c7a <main+0x1b6>
 540:	32356567          	0x32356567
 544:	36643537          	lui	a0,0x36643
 548:	2f66                	fld	ft10,88(sp)
 54a:	6972                	flw	fs2,28(sp)
 54c:	36766373          	csrrsi	t1,0x367,12
 550:	2d34                	fld	fa3,88(a0)
 552:	6e75                	lui	t3,0x1d
 554:	776f6e6b          	0x776f6e6b
 558:	2d6e                	fld	fs10,216(sp)
 55a:	6c65                	lui	s8,0x19
 55c:	2f66                	fld	ft10,88(sp)
 55e:	6e69                	lui	t3,0x1a
 560:	64756c63          	bltu	a0,t2,bb8 <main+0xf4>
 564:	0065                	c.addi	zero,25
 566:	6d6f682f          	0x6d6f682f
 56a:	2f65                	jal	d22 <main+0x25e>
 56c:	74726373          	csrrsi	t1,0x747,4
 570:	736c6f6f          	jal	t5,c6ca6 <__C_STACK_TOP__+0xb6ca6>
 574:	726f772f          	0x726f772f
 578:	6f682f6b          	0x6f682f6b
 57c:	775f7473          	csrrci	s0,0x775,30
 580:	2f6b726f          	jal	tp,b7876 <__C_STACK_TOP__+0xa7876>
 584:	6f74                	flw	fa3,92(a4)
 586:	2f736c6f          	jal	s8,3707c <__C_STACK_TOP__+0x2707c>
 58a:	7075                	0x7075
 58c:	65727473          	csrrci	s0,0x657,4
 590:	6d61                	lui	s10,0x18
 592:	372d                	jal	4bc <vprintfmt.constprop.2+0xa2>
 594:	312e                	fld	ft2,232(sp)
 596:	722d                	lui	tp,0xfffeb
 598:	3376                	fld	ft6,376(sp)
 59a:	6532                	flw	fa0,12(sp)
 59c:	7369722f          	0x7369722f
 5a0:	672d7663          	bleu	s2,s10,c0c <main+0x148>
 5a4:	6c2f6363          	bltu	t5,sp,c6a <main+0x1a6>
 5a8:	6269                	lui	tp,0x1a
 5aa:	2f636367          	0x2f636367
 5ae:	2e2e                	fld	ft8,200(sp)
 5b0:	636e692f          	0x636e692f
 5b4:	756c                	flw	fa1,108(a0)
 5b6:	6564                	flw	fs1,76(a0)
 5b8:	2f00                	fld	fs0,24(a4)
 5ba:	6f68                	flw	fa0,92(a4)
 5bc:	656d                	lui	a0,0x1b
 5be:	7263732f          	0x7263732f
 5c2:	6f74                	flw	fa3,92(a4)
 5c4:	2f736c6f          	jal	s8,370ba <__C_STACK_TOP__+0x270ba>
 5c8:	6b726f77          	0x6b726f77
 5cc:	736f682f          	0x736f682f
 5d0:	5f74                	lw	a3,124(a4)
 5d2:	6b726f77          	0x6b726f77
 5d6:	6f6f742f          	0x6f6f742f
 5da:	736c                	flw	fa1,100(a4)
 5dc:	7370752f          	0x7370752f
 5e0:	7274                	flw	fa3,100(a2)
 5e2:	6165                	addi	sp,sp,112
 5e4:	2d6d                	jal	c9e <main+0x1da>
 5e6:	2d312e37          	lui	t3,0x2d312
 5ea:	7672                	flw	fa2,60(sp)
 5ec:	2f653233          	0x2f653233
 5f0:	6972                	flw	fs2,28(sp)
 5f2:	2d766373          	csrrsi	t1,0x2d7,12
 5f6:	2f636367          	0x2f636367
 5fa:	696c                	flw	fa1,84(a0)
 5fc:	6762                	flw	fa4,24(sp)
 5fe:	2e2f6363          	bltu	t5,sp,8e4 <vprintfmt.constprop.2+0x4ca>
 602:	2f2e                	fld	ft10,200(sp)
 604:	2f636367          	0x2f636367
 608:	666e6f63          	bltu	t3,t1,c86 <main+0x1c2>
 60c:	6769                	lui	a4,0x1a
 60e:	7369722f          	0x7369722f
 612:	2e007663          	bleu	zero,zero,8fe <vprintfmt.constprop.2+0x4e4>
 616:	2f2e                	fld	ft10,200(sp)
 618:	2e2e                	fld	ft8,200(sp)
 61a:	2f2e2e2f          	0x2f2e2e2f
 61e:	2e2e                	fld	ft8,200(sp)
 620:	672f2e2f          	amoand.w.aqrl	t3,s2,(t5)
 624:	00006363          	bltu	zero,zero,62a <vprintfmt.constprop.2+0x210>
 628:	696c                	flw	fa1,84(a0)
 62a:	6762                	flw	fa4,24(sp)
 62c:	2e326363          	bltu	tp,gp,912 <vprintfmt.constprop.2+0x4f8>
 630:	00010063          	beqz	sp,630 <vprintfmt.constprop.2+0x216>
 634:	6c00                	flw	fs0,24(s0)
 636:	2e6b636f          	jal	t1,b691c <__C_STACK_TOP__+0xa691c>
 63a:	0068                	addi	a0,sp,12
 63c:	0002                	0x2
 63e:	5f00                	lw	s0,56(a4)
 640:	7974                	flw	fa3,116(a0)
 642:	6570                	flw	fa2,76(a0)
 644:	00682e73          	csrrs	t3,0x6,a6
 648:	0002                	0x2
 64a:	7300                	flw	fs0,32(a4)
 64c:	6474                	flw	fa3,76(s0)
 64e:	6564                	flw	fs1,76(a0)
 650:	2e66                	fld	ft8,88(sp)
 652:	0068                	addi	a0,sp,12
 654:	72000003          	lb	zero,1824(zero) # 720 <vprintfmt.constprop.2+0x306>
 658:	6565                	lui	a0,0x19
 65a:	746e                	flw	fs0,248(sp)
 65c:	682e                	flw	fa6,200(sp)
 65e:	0200                	addi	s0,sp,256
 660:	0000                	unimp
 662:	7265                	lui	tp,0xffff9
 664:	6e72                	flw	ft8,28(sp)
 666:	00682e6f          	jal	t3,8266c <__C_STACK_TOP__+0x7266c>
 66a:	0002                	0x2
 66c:	7300                	flw	fs0,32(a4)
 66e:	6474                	flw	fa3,76(s0)
 670:	696c                	flw	fa1,84(a0)
 672:	2e62                	fld	ft8,24(sp)
 674:	0068                	addi	a0,sp,12
 676:	0004                	addi	s1,sp,0
 678:	7500                	flw	fs0,40(a0)
 67a:	696e                	flw	fs2,216(sp)
 67c:	2e647473          	csrrci	s0,0x2e6,8
 680:	0068                	addi	a0,sp,12
 682:	0002                	0x2
 684:	7400                	flw	fs0,40(s0)
 686:	6d69                	lui	s10,0x1a
 688:	2e65                	jal	a40 <putchar+0x86>
 68a:	0068                	addi	a0,sp,12
 68c:	0004                	addi	s1,sp,0
 68e:	6800                	flw	fs0,16(s0)
 690:	7361                	lui	t1,0xffff8
 692:	7468                	flw	fa0,108(s0)
 694:	6261                	lui	tp,0x18
 696:	682e                	flw	fa6,200(sp)
 698:	0500                	addi	s0,sp,640
 69a:	0000                	unimp
 69c:	6972                	flw	fs2,28(sp)
 69e:	2d766373          	csrrsi	t1,0x2d7,12
 6a2:	7374706f          	j	485d8 <__C_STACK_TOP__+0x385d8>
 6a6:	682e                	flw	fa6,200(sp)
 6a8:	0600                	addi	s0,sp,768
 6aa:	0000                	unimp
 6ac:	6e69                	lui	t3,0x1a
 6ae:	632d6e73          	csrrsi	t3,0x632,26
 6b2:	74736e6f          	jal	t3,375f8 <__C_STACK_TOP__+0x275f8>
 6b6:	6e61                	lui	t3,0x18
 6b8:	7374                	flw	fa3,100(a4)
 6ba:	682e                	flw	fa6,200(sp)
 6bc:	0700                	addi	s0,sp,896
 6be:	0000                	unimp
 6c0:	696c                	flw	fa1,84(a0)
 6c2:	6762                	flw	fa4,24(sp)
 6c4:	2e326363          	bltu	tp,gp,9aa <sc_printf+0x14>
 6c8:	0068                	addi	a0,sp,12
 6ca:	0001                	nop
 6cc:	0000                	unimp
 6ce:	0500                	addi	s0,sp,640
 6d0:	6402                	flw	fs0,0(sp)
 6d2:	001c                	addi	a5,sp,0
 6d4:	0300                	addi	s0,sp,384
 6d6:	0aa5                	addi	s5,s5,9
 6d8:	0301                	addi	t1,t1,0
 6da:	0900                	addi	s0,sp,144
 6dc:	0000                	unimp
 6de:	0301                	addi	t1,t1,0
 6e0:	7dd9                	lui	s11,0xffff6
 6e2:	0409                	addi	s0,s0,2
 6e4:	0100                	addi	s0,sp,128
 6e6:	04090103          	lb	sp,64(s2)
 6ea:	0100                	addi	s0,sp,128
 6ec:	04090103          	lb	sp,64(s2)
 6f0:	0100                	addi	s0,sp,128
 6f2:	04092603          	lw	a2,64(s2)
 6f6:	0100                	addi	s0,sp,128
 6f8:	0c090203          	lb	tp,192(s2)
 6fc:	0100                	addi	s0,sp,128
 6fe:	04090403          	lb	s0,64(s2)
 702:	0100                	addi	s0,sp,128
 704:	2c090203          	lb	tp,704(s2)
 708:	0100                	addi	s0,sp,128
 70a:	04090603          	lb	a2,64(s2)
 70e:	0100                	addi	s0,sp,128
 710:	08097f03          	0x8097f03
 714:	0100                	addi	s0,sp,128
 716:	04090103          	lb	sp,64(s2)
 71a:	0100                	addi	s0,sp,128
 71c:	04090103          	lb	sp,64(s2)
 720:	0100                	addi	s0,sp,128
 722:	04090303          	lb	t1,64(s2)
 726:	0100                	addi	s0,sp,128
 728:	0900ff03          	0x900ff03
 72c:	0088                	addi	a0,sp,64
 72e:	0301                	addi	t1,t1,0
 730:	7ef5                	lui	t4,0xffffd
 732:	0809                	addi	a6,a6,2
 734:	0100                	addi	s0,sp,128
 736:	14091503          	lh	a0,320(s2)
 73a:	0100                	addi	s0,sp,128
 73c:	04090103          	lb	sp,64(s2)
 740:	0100                	addi	s0,sp,128
 742:	08090203          	lb	tp,128(s2)
 746:	0100                	addi	s0,sp,128
 748:	2c090203          	lb	tp,704(s2)
 74c:	0100                	addi	s0,sp,128
 74e:	04090903          	lb	s2,64(s2)
 752:	0100                	addi	s0,sp,128
 754:	04090103          	lb	sp,64(s2)
 758:	0100                	addi	s0,sp,128
 75a:	04091203          	lh	tp,64(s2)
 75e:	0100                	addi	s0,sp,128
 760:	0901c503          	lbu	a0,144(gp) # 3c50 <__global_pointer$+0x90>
 764:	0088                	addi	a0,sp,64
 766:	0301                	addi	t1,t1,0
 768:	7e9d                	lui	t4,0xfffe7
 76a:	0809                	addi	a6,a6,2
 76c:	0100                	addi	s0,sp,128
 76e:	14091403          	lh	s0,320(s2)
 772:	0100                	addi	s0,sp,128
 774:	04090103          	lb	sp,64(s2)
 778:	0100                	addi	s0,sp,128
 77a:	04090203          	lb	tp,64(s2)
 77e:	0100                	addi	s0,sp,128
 780:	04097f03          	0x4097f03
 784:	0100                	addi	s0,sp,128
 786:	04090303          	lb	t1,64(s2)
 78a:	0100                	addi	s0,sp,128
 78c:	04097d03          	0x4097d03
 790:	0100                	addi	s0,sp,128
 792:	04090303          	lb	t1,64(s2)
 796:	0100                	addi	s0,sp,128
 798:	04097d03          	0x4097d03
 79c:	0100                	addi	s0,sp,128
 79e:	04090303          	lb	t1,64(s2)
 7a2:	0100                	addi	s0,sp,128
 7a4:	8c091503          	lh	a0,-1856(s2)
 7a8:	0100                	addi	s0,sp,128
 7aa:	04091303          	lh	t1,64(s2)
 7ae:	0100                	addi	s0,sp,128
 7b0:	34090103          	lb	sp,832(s2)
 7b4:	0100                	addi	s0,sp,128
 7b6:	04090c03          	lb	s8,64(s2)
 7ba:	0100                	addi	s0,sp,128
 7bc:	04097e03          	0x4097e03
 7c0:	0100                	addi	s0,sp,128
 7c2:	10097503          	0x10097503
 7c6:	0100                	addi	s0,sp,128
 7c8:	14092303          	lw	t1,320(s2)
 7cc:	0100                	addi	s0,sp,128
 7ce:	0c090603          	lb	a2,192(s2)
 7d2:	0100                	addi	s0,sp,128
 7d4:	04097c03          	0x4097c03
 7d8:	0100                	addi	s0,sp,128
 7da:	04090403          	lb	s0,64(s2)
 7de:	0100                	addi	s0,sp,128
 7e0:	04097d03          	0x4097d03
 7e4:	0100                	addi	s0,sp,128
 7e6:	0c090303          	lb	t1,192(s2)
 7ea:	0100                	addi	s0,sp,128
 7ec:	0c097b03          	0xc097b03
 7f0:	0100                	addi	s0,sp,128
 7f2:	04090503          	lb	a0,64(s2)
 7f6:	0100                	addi	s0,sp,128
 7f8:	78090103          	lb	sp,1920(s2)
 7fc:	0100                	addi	s0,sp,128
 7fe:	04097f03          	0x4097f03
 802:	0100                	addi	s0,sp,128
 804:	04090103          	lb	sp,64(s2)
 808:	0100                	addi	s0,sp,128
 80a:	40090203          	lb	tp,1024(s2)
 80e:	0100                	addi	s0,sp,128
 810:	08097e03          	0x8097e03
 814:	0100                	addi	s0,sp,128
 816:	14097d03          	0x14097d03
 81a:	0100                	addi	s0,sp,128
 81c:	04090303          	lb	t1,64(s2)
 820:	0100                	addi	s0,sp,128
 822:	04090803          	lb	a6,64(s2)
 826:	0100                	addi	s0,sp,128
 828:	04097a03          	0x4097a03
 82c:	0100                	addi	s0,sp,128
 82e:	04090203          	lb	tp,64(s2)
 832:	0100                	addi	s0,sp,128
 834:	08094403          	lbu	s0,128(s2)
 838:	0100                	addi	s0,sp,128
 83a:	04097f03          	0x4097f03
 83e:	0100                	addi	s0,sp,128
 840:	0809                	addi	a6,a6,2
 842:	0000                	unimp
 844:	0101                	addi	sp,sp,0
 846:	00000407          	0x407
 84a:	0002                	0x2
 84c:	0296                	slli	t0,t0,0x5
 84e:	0000                	unimp
 850:	0101                	addi	sp,sp,0
 852:	000d0efb          	0xd0efb
 856:	0101                	addi	sp,sp,0
 858:	0101                	addi	sp,sp,0
 85a:	0000                	unimp
 85c:	0100                	addi	s0,sp,128
 85e:	0000                	unimp
 860:	2f01                	jal	f70 <main+0x4ac>
 862:	6f68                	flw	fa0,92(a4)
 864:	656d                	lui	a0,0x1b
 866:	7263732f          	0x7263732f
 86a:	6f74                	flw	fa3,92(a4)
 86c:	2f736c6f          	jal	s8,37362 <__C_STACK_TOP__+0x27362>
 870:	6b726f77          	0x6b726f77
 874:	736f682f          	0x736f682f
 878:	5f74                	lw	a3,124(a4)
 87a:	6b726f77          	0x6b726f77
 87e:	6f6f742f          	0x6f6f742f
 882:	736c                	flw	fa1,100(a4)
 884:	7370752f          	0x7370752f
 888:	7274                	flw	fa3,100(a2)
 88a:	6165                	addi	sp,sp,112
 88c:	2d6d                	jal	f46 <main+0x482>
 88e:	2d312e37          	lui	t3,0x2d312
 892:	7672                	flw	fa2,60(sp)
 894:	2f653233          	0x2f653233
 898:	6972                	flw	fs2,28(sp)
 89a:	2d766373          	csrrsi	t1,0x2d7,12
 89e:	2f636367          	0x2f636367
 8a2:	696c                	flw	fa1,84(a0)
 8a4:	6762                	flw	fa4,24(sp)
 8a6:	2f006363          	bltu	zero,a6,b8c <main+0xc8>
 8aa:	2f74706f          	j	483a0 <__C_STACK_TOP__+0x383a0>
 8ae:	74726373          	csrrsi	t1,0x747,4
 8b2:	736c6f6f          	jal	t5,c6fe8 <__C_STACK_TOP__+0xb6fe8>
 8b6:	3038312f          	0x3038312f
 8ba:	3131                	jal	4c6 <vprintfmt.constprop.2+0xac>
 8bc:	2f35                	jal	ff8 <main+0x534>
 8be:	32356567          	0x32356567
 8c2:	36643537          	lui	a0,0x36643
 8c6:	2f66                	fld	ft10,88(sp)
 8c8:	6972                	flw	fs2,28(sp)
 8ca:	36766373          	csrrsi	t1,0x367,12
 8ce:	2d34                	fld	fa3,88(a0)
 8d0:	6e75                	lui	t3,0x1d
 8d2:	776f6e6b          	0x776f6e6b
 8d6:	2d6e                	fld	fs10,216(sp)
 8d8:	6c65                	lui	s8,0x19
 8da:	2f66                	fld	ft10,88(sp)
 8dc:	6e69                	lui	t3,0x1a
 8de:	64756c63          	bltu	a0,t2,f36 <main+0x472>
 8e2:	2f65                	jal	109a <main+0x5d6>
 8e4:	00737973          	csrrci	s2,0x7,6
 8e8:	6d6f682f          	0x6d6f682f
 8ec:	2f65                	jal	10a4 <main+0x5e0>
 8ee:	74726373          	csrrsi	t1,0x747,4
 8f2:	736c6f6f          	jal	t5,c7028 <__C_STACK_TOP__+0xb7028>
 8f6:	726f772f          	0x726f772f
 8fa:	6f682f6b          	0x6f682f6b
 8fe:	775f7473          	csrrci	s0,0x775,30
 902:	2f6b726f          	jal	tp,b7bf8 <__C_STACK_TOP__+0xa7bf8>
 906:	6f74                	flw	fa3,92(a4)
 908:	2f736c6f          	jal	s8,373fe <__C_STACK_TOP__+0x273fe>
 90c:	7075                	0x7075
 90e:	65727473          	csrrci	s0,0x657,4
 912:	6d61                	lui	s10,0x18
 914:	372d                	jal	83e <vprintfmt.constprop.2+0x424>
 916:	312e                	fld	ft2,232(sp)
 918:	722d                	lui	tp,0xfffeb
 91a:	3376                	fld	ft6,376(sp)
 91c:	6532                	flw	fa0,12(sp)
 91e:	6975622f          	0x6975622f
 922:	646c                	flw	fa1,76(s0)
 924:	672d                	lui	a4,0xb
 926:	6e2d6363          	bltu	s10,sp,100c <main+0x548>
 92a:	7765                	lui	a4,0xffff9
 92c:	696c                	flw	fa1,84(a0)
 92e:	2d62                	fld	fs10,24(sp)
 930:	67617473          	csrrci	s0,0x676,2
 934:	3265                	jal	2dc <trap_entry+0x78>
 936:	6363672f          	0x6363672f
 93a:	636e692f          	0x636e692f
 93e:	756c                	flw	fa1,108(a0)
 940:	6564                	flw	fs1,76(a0)
 942:	2f00                	fld	fs0,24(a4)
 944:	2f74706f          	j	4843a <__C_STACK_TOP__+0x3843a>
 948:	74726373          	csrrsi	t1,0x747,4
 94c:	736c6f6f          	jal	t5,c7082 <__C_STACK_TOP__+0xb7082>
 950:	3038312f          	0x3038312f
 954:	3131                	jal	560 <vprintfmt.constprop.2+0x146>
 956:	2f35                	jal	1092 <main+0x5ce>
 958:	32356567          	0x32356567
 95c:	36643537          	lui	a0,0x36643
 960:	2f66                	fld	ft10,88(sp)
 962:	6972                	flw	fs2,28(sp)
 964:	36766373          	csrrsi	t1,0x367,12
 968:	2d34                	fld	fa3,88(a0)
 96a:	6e75                	lui	t3,0x1d
 96c:	776f6e6b          	0x776f6e6b
 970:	2d6e                	fld	fs10,216(sp)
 972:	6c65                	lui	s8,0x19
 974:	2f66                	fld	ft10,88(sp)
 976:	6e69                	lui	t3,0x1a
 978:	64756c63          	bltu	a0,t2,fd0 <main+0x50c>
 97c:	0065                	c.addi	zero,25
 97e:	6d6f682f          	0x6d6f682f
 982:	2f65                	jal	113a <main+0x676>
 984:	74726373          	csrrsi	t1,0x747,4
 988:	736c6f6f          	jal	t5,c70be <__C_STACK_TOP__+0xb70be>
 98c:	726f772f          	0x726f772f
 990:	6f682f6b          	0x6f682f6b
 994:	775f7473          	csrrci	s0,0x775,30
 998:	2f6b726f          	jal	tp,b7c8e <__C_STACK_TOP__+0xa7c8e>
 99c:	6f74                	flw	fa3,92(a4)
 99e:	2f736c6f          	jal	s8,37494 <__C_STACK_TOP__+0x27494>
 9a2:	7075                	0x7075
 9a4:	65727473          	csrrci	s0,0x657,4
 9a8:	6d61                	lui	s10,0x18
 9aa:	372d                	jal	8d4 <vprintfmt.constprop.2+0x4ba>
 9ac:	312e                	fld	ft2,232(sp)
 9ae:	722d                	lui	tp,0xfffeb
 9b0:	3376                	fld	ft6,376(sp)
 9b2:	6532                	flw	fa0,12(sp)
 9b4:	7369722f          	0x7369722f
 9b8:	672d7663          	bleu	s2,s10,1024 <main+0x560>
 9bc:	6c2f6363          	bltu	t5,sp,1082 <main+0x5be>
 9c0:	6269                	lui	tp,0x1a
 9c2:	2f636367          	0x2f636367
 9c6:	2e2e                	fld	ft8,200(sp)
 9c8:	636e692f          	0x636e692f
 9cc:	756c                	flw	fa1,108(a0)
 9ce:	6564                	flw	fs1,76(a0)
 9d0:	2f00                	fld	fs0,24(a4)
 9d2:	6f68                	flw	fa0,92(a4)
 9d4:	656d                	lui	a0,0x1b
 9d6:	7263732f          	0x7263732f
 9da:	6f74                	flw	fa3,92(a4)
 9dc:	2f736c6f          	jal	s8,374d2 <__C_STACK_TOP__+0x274d2>
 9e0:	6b726f77          	0x6b726f77
 9e4:	736f682f          	0x736f682f
 9e8:	5f74                	lw	a3,124(a4)
 9ea:	6b726f77          	0x6b726f77
 9ee:	6f6f742f          	0x6f6f742f
 9f2:	736c                	flw	fa1,100(a4)
 9f4:	7370752f          	0x7370752f
 9f8:	7274                	flw	fa3,100(a2)
 9fa:	6165                	addi	sp,sp,112
 9fc:	2d6d                	jal	10b6 <main+0x5f2>
 9fe:	2d312e37          	lui	t3,0x2d312
 a02:	7672                	flw	fa2,60(sp)
 a04:	2f653233          	0x2f653233
 a08:	6972                	flw	fs2,28(sp)
 a0a:	2d766373          	csrrsi	t1,0x2d7,12
 a0e:	2f636367          	0x2f636367
 a12:	696c                	flw	fa1,84(a0)
 a14:	6762                	flw	fa4,24(sp)
 a16:	2e2f6363          	bltu	t5,sp,cfc <main+0x238>
 a1a:	2f2e                	fld	ft10,200(sp)
 a1c:	2f636367          	0x2f636367
 a20:	666e6f63          	bltu	t3,t1,109e <main+0x5da>
 a24:	6769                	lui	a4,0x1a
 a26:	7369722f          	0x7369722f
 a2a:	2e007663          	bleu	zero,zero,d16 <main+0x252>
 a2e:	2f2e                	fld	ft10,200(sp)
 a30:	2e2e                	fld	ft8,200(sp)
 a32:	2f2e2e2f          	0x2f2e2e2f
 a36:	2e2e                	fld	ft8,200(sp)
 a38:	672f2e2f          	amoand.w.aqrl	t3,s2,(t5)
 a3c:	00006363          	bltu	zero,zero,a42 <putchar+0x88>
 a40:	696c                	flw	fa1,84(a0)
 a42:	6762                	flw	fa4,24(sp)
 a44:	2e326363          	bltu	tp,gp,d2a <main+0x266>
 a48:	00010063          	beqz	sp,a48 <putchar+0x8e>
 a4c:	6c00                	flw	fs0,24(s0)
 a4e:	2e6b636f          	jal	t1,b6d34 <__C_STACK_TOP__+0xa6d34>
 a52:	0068                	addi	a0,sp,12
 a54:	0002                	0x2
 a56:	5f00                	lw	s0,56(a4)
 a58:	7974                	flw	fa3,116(a0)
 a5a:	6570                	flw	fa2,76(a0)
 a5c:	00682e73          	csrrs	t3,0x6,a6
 a60:	0002                	0x2
 a62:	7300                	flw	fs0,32(a4)
 a64:	6474                	flw	fa3,76(s0)
 a66:	6564                	flw	fs1,76(a0)
 a68:	2e66                	fld	ft8,88(sp)
 a6a:	0068                	addi	a0,sp,12
 a6c:	72000003          	lb	zero,1824(zero) # 720 <vprintfmt.constprop.2+0x306>
 a70:	6565                	lui	a0,0x19
 a72:	746e                	flw	fs0,248(sp)
 a74:	682e                	flw	fa6,200(sp)
 a76:	0200                	addi	s0,sp,256
 a78:	0000                	unimp
 a7a:	7265                	lui	tp,0xffff9
 a7c:	6e72                	flw	ft8,28(sp)
 a7e:	00682e6f          	jal	t3,82a84 <__C_STACK_TOP__+0x72a84>
 a82:	0002                	0x2
 a84:	7300                	flw	fs0,32(a4)
 a86:	6474                	flw	fa3,76(s0)
 a88:	696c                	flw	fa1,84(a0)
 a8a:	2e62                	fld	ft8,24(sp)
 a8c:	0068                	addi	a0,sp,12
 a8e:	0004                	addi	s1,sp,0
 a90:	7500                	flw	fs0,40(a0)
 a92:	696e                	flw	fs2,216(sp)
 a94:	2e647473          	csrrci	s0,0x2e6,8
 a98:	0068                	addi	a0,sp,12
 a9a:	0002                	0x2
 a9c:	7400                	flw	fs0,40(s0)
 a9e:	6d69                	lui	s10,0x1a
 aa0:	2e65                	jal	e58 <main+0x394>
 aa2:	0068                	addi	a0,sp,12
 aa4:	0004                	addi	s1,sp,0
 aa6:	6800                	flw	fs0,16(s0)
 aa8:	7361                	lui	t1,0xffff8
 aaa:	7468                	flw	fa0,108(s0)
 aac:	6261                	lui	tp,0x18
 aae:	682e                	flw	fa6,200(sp)
 ab0:	0500                	addi	s0,sp,640
 ab2:	0000                	unimp
 ab4:	6972                	flw	fs2,28(sp)
 ab6:	2d766373          	csrrsi	t1,0x2d7,12
 aba:	7374706f          	j	489f0 <__C_STACK_TOP__+0x389f0>
 abe:	682e                	flw	fa6,200(sp)
 ac0:	0600                	addi	s0,sp,768
 ac2:	0000                	unimp
 ac4:	6e69                	lui	t3,0x1a
 ac6:	632d6e73          	csrrsi	t3,0x632,26
 aca:	74736e6f          	jal	t3,37a10 <__C_STACK_TOP__+0x27a10>
 ace:	6e61                	lui	t3,0x18
 ad0:	7374                	flw	fa3,100(a4)
 ad2:	682e                	flw	fa6,200(sp)
 ad4:	0700                	addi	s0,sp,896
 ad6:	0000                	unimp
 ad8:	696c                	flw	fa1,84(a0)
 ada:	6762                	flw	fa4,24(sp)
 adc:	2e326363          	bltu	tp,gp,dc2 <main+0x2fe>
 ae0:	0068                	addi	a0,sp,12
 ae2:	0001                	nop
 ae4:	0000                	unimp
 ae6:	0500                	addi	s0,sp,640
 ae8:	9c02                	jalr	s8
 aea:	0020                	addi	s0,sp,8
 aec:	0300                	addi	s0,sp,384
 aee:	0a99                	addi	s5,s5,6
 af0:	0301                	addi	t1,t1,0
 af2:	7de5                	lui	s11,0xffff9
 af4:	0009                	c.addi	zero,2
 af6:	0100                	addi	s0,sp,128
 af8:	04090103          	lb	sp,64(s2)
 afc:	0100                	addi	s0,sp,128
 afe:	04090103          	lb	sp,64(s2)
 b02:	0100                	addi	s0,sp,128
 b04:	04090103          	lb	sp,64(s2)
 b08:	0100                	addi	s0,sp,128
 b0a:	04092503          	lw	a0,64(s2)
 b0e:	0100                	addi	s0,sp,128
 b10:	0c090203          	lb	tp,192(s2)
 b14:	0100                	addi	s0,sp,128
 b16:	04090403          	lb	s0,64(s2)
 b1a:	0100                	addi	s0,sp,128
 b1c:	2c090203          	lb	tp,704(s2)
 b20:	0100                	addi	s0,sp,128
 b22:	04090603          	lb	a2,64(s2)
 b26:	0100                	addi	s0,sp,128
 b28:	08097f03          	0x8097f03
 b2c:	0100                	addi	s0,sp,128
 b2e:	04090103          	lb	sp,64(s2)
 b32:	0100                	addi	s0,sp,128
 b34:	04090103          	lb	sp,64(s2)
 b38:	0100                	addi	s0,sp,128
 b3a:	04090303          	lb	t1,64(s2)
 b3e:	0100                	addi	s0,sp,128
 b40:	70093103          	0x70093103
 b44:	0100                	addi	s0,sp,128
 b46:	04090203          	lb	tp,64(s2)
 b4a:	0100                	addi	s0,sp,128
 b4c:	0901b403          	0x901b403
 b50:	0004                	addi	s1,sp,0
 b52:	0301                	addi	t1,t1,0
 b54:	7e8d                	lui	t4,0xfffe3
 b56:	0409                	addi	s0,s0,2
 b58:	0100                	addi	s0,sp,128
 b5a:	14091503          	lh	a0,320(s2)
 b5e:	0100                	addi	s0,sp,128
 b60:	04090103          	lb	sp,64(s2)
 b64:	0100                	addi	s0,sp,128
 b66:	08090203          	lb	tp,128(s2)
 b6a:	0100                	addi	s0,sp,128
 b6c:	2c090203          	lb	tp,704(s2)
 b70:	0100                	addi	s0,sp,128
 b72:	04090903          	lb	s2,64(s2)
 b76:	0100                	addi	s0,sp,128
 b78:	04091303          	lh	t1,64(s2)
 b7c:	0100                	addi	s0,sp,128
 b7e:	74096203          	0x74096203
 b82:	0100                	addi	s0,sp,128
 b84:	14091403          	lh	s0,320(s2)
 b88:	0100                	addi	s0,sp,128
 b8a:	04090103          	lb	sp,64(s2)
 b8e:	0100                	addi	s0,sp,128
 b90:	04090203          	lb	tp,64(s2)
 b94:	0100                	addi	s0,sp,128
 b96:	04097f03          	0x4097f03
 b9a:	0100                	addi	s0,sp,128
 b9c:	04090303          	lb	t1,64(s2)
 ba0:	0100                	addi	s0,sp,128
 ba2:	08097d03          	0x8097d03
 ba6:	0100                	addi	s0,sp,128
 ba8:	08090303          	lb	t1,128(s2)
 bac:	0100                	addi	s0,sp,128
 bae:	6c091503          	lh	a0,1728(s2)
 bb2:	0100                	addi	s0,sp,128
 bb4:	04091303          	lh	t1,64(s2)
 bb8:	0100                	addi	s0,sp,128
 bba:	34090103          	lb	sp,832(s2)
 bbe:	0100                	addi	s0,sp,128
 bc0:	04090a03          	lb	s4,64(s2)
 bc4:	0100                	addi	s0,sp,128
 bc6:	08090303          	lb	t1,128(s2)
 bca:	0100                	addi	s0,sp,128
 bcc:	10090b03          	lb	s6,256(s2)
 bd0:	0100                	addi	s0,sp,128
 bd2:	0c096703          	0xc096703
 bd6:	0100                	addi	s0,sp,128
 bd8:	14092303          	lw	t1,320(s2)
 bdc:	0100                	addi	s0,sp,128
 bde:	0c090303          	lb	t1,192(s2)
 be2:	0100                	addi	s0,sp,128
 be4:	04097f03          	0x4097f03
 be8:	0100                	addi	s0,sp,128
 bea:	04090103          	lb	sp,64(s2)
 bee:	0100                	addi	s0,sp,128
 bf0:	08090303          	lb	t1,128(s2)
 bf4:	0100                	addi	s0,sp,128
 bf6:	14097b03          	0x14097b03
 bfa:	0100                	addi	s0,sp,128
 bfc:	04090303          	lb	t1,64(s2)
 c00:	0100                	addi	s0,sp,128
 c02:	04090203          	lb	tp,64(s2)
 c06:	0100                	addi	s0,sp,128
 c08:	74090103          	lb	sp,1856(s2)
 c0c:	0100                	addi	s0,sp,128
 c0e:	04097f03          	0x4097f03
 c12:	0100                	addi	s0,sp,128
 c14:	04090103          	lb	sp,64(s2)
 c18:	0100                	addi	s0,sp,128
 c1a:	08097f03          	0x8097f03
 c1e:	0100                	addi	s0,sp,128
 c20:	04090103          	lb	sp,64(s2)
 c24:	0100                	addi	s0,sp,128
 c26:	50090203          	lb	tp,1280(s2)
 c2a:	0100                	addi	s0,sp,128
 c2c:	0c090303          	lb	t1,192(s2)
 c30:	0100                	addi	s0,sp,128
 c32:	14090803          	lb	a6,320(s2)
 c36:	0100                	addi	s0,sp,128
 c38:	10090103          	lb	sp,256(s2)
 c3c:	0100                	addi	s0,sp,128
 c3e:	08090203          	lb	tp,128(s2)
 c42:	0100                	addi	s0,sp,128
 c44:	0900df03          	lhu	t5,144(ra)
 c48:	0008                	addi	a0,sp,0
 c4a:	0901                	addi	s2,s2,0
 c4c:	0004                	addi	s1,sp,0
 c4e:	0100                	addi	s0,sp,128
 c50:	9c01                	0x9c01
 c52:	0002                	0x2
 c54:	0200                	addi	s0,sp,256
 c56:	9600                	0x9600
 c58:	0002                	0x2
 c5a:	0100                	addi	s0,sp,128
 c5c:	fb01                	bnez	a4,b6c <main+0xa8>
 c5e:	0d0e                	slli	s10,s10,0x3
 c60:	0100                	addi	s0,sp,128
 c62:	0101                	addi	sp,sp,0
 c64:	0001                	nop
 c66:	0000                	unimp
 c68:	0001                	nop
 c6a:	0100                	addi	s0,sp,128
 c6c:	74706f2f          	0x74706f2f
 c70:	7263732f          	0x7263732f
 c74:	6f74                	flw	fa3,92(a4)
 c76:	2f736c6f          	jal	s8,3776c <__C_STACK_TOP__+0x2776c>
 c7a:	3831                	jal	496 <vprintfmt.constprop.2+0x7c>
 c7c:	3130                	fld	fa2,96(a0)
 c7e:	3531                	jal	a8a <putchar+0xd0>
 c80:	3565672f          	0x3565672f
 c84:	3732                	fld	fa4,296(sp)
 c86:	6435                	lui	s0,0xd
 c88:	6636                	flw	fa2,76(sp)
 c8a:	7369722f          	0x7369722f
 c8e:	34367663          	bleu	gp,a2,fda <main+0x516>
 c92:	752d                	lui	a0,0xfffeb
 c94:	6b6e                	flw	fs6,216(sp)
 c96:	6f6e                	flw	ft10,216(sp)
 c98:	652d6e77          	0x652d6e77
 c9c:	666c                	flw	fa1,76(a2)
 c9e:	636e692f          	0x636e692f
 ca2:	756c                	flw	fa1,108(a0)
 ca4:	6564                	flw	fs1,76(a0)
 ca6:	7379732f          	0x7379732f
 caa:	2f00                	fld	fs0,24(a4)
 cac:	6f68                	flw	fa0,92(a4)
 cae:	656d                	lui	a0,0x1b
 cb0:	7263732f          	0x7263732f
 cb4:	6f74                	flw	fa3,92(a4)
 cb6:	2f736c6f          	jal	s8,377ac <__C_STACK_TOP__+0x277ac>
 cba:	6b726f77          	0x6b726f77
 cbe:	736f682f          	0x736f682f
 cc2:	5f74                	lw	a3,124(a4)
 cc4:	6b726f77          	0x6b726f77
 cc8:	6f6f742f          	0x6f6f742f
 ccc:	736c                	flw	fa1,100(a4)
 cce:	7370752f          	0x7370752f
 cd2:	7274                	flw	fa3,100(a2)
 cd4:	6165                	addi	sp,sp,112
 cd6:	2d6d                	jal	1390 <_strtol_l.isra.0+0xc8>
 cd8:	2d312e37          	lui	t3,0x2d312
 cdc:	7672                	flw	fa2,60(sp)
 cde:	2f653233          	0x2f653233
 ce2:	7562                	flw	fa0,56(sp)
 ce4:	6c69                	lui	s8,0x1a
 ce6:	2d64                	fld	fs1,216(a0)
 ce8:	2d636367          	0x2d636367
 cec:	656e                	flw	fa0,216(sp)
 cee:	62696c77          	0x62696c77
 cf2:	732d                	lui	t1,0xfffeb
 cf4:	6174                	flw	fa3,68(a0)
 cf6:	2f326567          	0x2f326567
 cfa:	2f636367          	0x2f636367
 cfe:	6e69                	lui	t3,0x1a
 d00:	64756c63          	bltu	a0,t2,1358 <_strtol_l.isra.0+0x90>
 d04:	0065                	c.addi	zero,25
 d06:	74706f2f          	0x74706f2f
 d0a:	7263732f          	0x7263732f
 d0e:	6f74                	flw	fa3,92(a4)
 d10:	2f736c6f          	jal	s8,37806 <__C_STACK_TOP__+0x27806>
 d14:	3831                	jal	530 <vprintfmt.constprop.2+0x116>
 d16:	3130                	fld	fa2,96(a0)
 d18:	3531                	jal	b24 <main+0x60>
 d1a:	3565672f          	0x3565672f
 d1e:	3732                	fld	fa4,296(sp)
 d20:	6435                	lui	s0,0xd
 d22:	6636                	flw	fa2,76(sp)
 d24:	7369722f          	0x7369722f
 d28:	34367663          	bleu	gp,a2,1074 <main+0x5b0>
 d2c:	752d                	lui	a0,0xfffeb
 d2e:	6b6e                	flw	fs6,216(sp)
 d30:	6f6e                	flw	ft10,216(sp)
 d32:	652d6e77          	0x652d6e77
 d36:	666c                	flw	fa1,76(a2)
 d38:	636e692f          	0x636e692f
 d3c:	756c                	flw	fa1,108(a0)
 d3e:	6564                	flw	fs1,76(a0)
 d40:	2f00                	fld	fs0,24(a4)
 d42:	6f68                	flw	fa0,92(a4)
 d44:	656d                	lui	a0,0x1b
 d46:	7263732f          	0x7263732f
 d4a:	6f74                	flw	fa3,92(a4)
 d4c:	2f736c6f          	jal	s8,37842 <__C_STACK_TOP__+0x27842>
 d50:	6b726f77          	0x6b726f77
 d54:	736f682f          	0x736f682f
 d58:	5f74                	lw	a3,124(a4)
 d5a:	6b726f77          	0x6b726f77
 d5e:	6f6f742f          	0x6f6f742f
 d62:	736c                	flw	fa1,100(a4)
 d64:	7370752f          	0x7370752f
 d68:	7274                	flw	fa3,100(a2)
 d6a:	6165                	addi	sp,sp,112
 d6c:	2d6d                	jal	1426 <_strtol_l.isra.0+0x15e>
 d6e:	2d312e37          	lui	t3,0x2d312
 d72:	7672                	flw	fa2,60(sp)
 d74:	2f653233          	0x2f653233
 d78:	6972                	flw	fs2,28(sp)
 d7a:	2d766373          	csrrsi	t1,0x2d7,12
 d7e:	2f636367          	0x2f636367
 d82:	696c                	flw	fa1,84(a0)
 d84:	6762                	flw	fa4,24(sp)
 d86:	2e2f6363          	bltu	t5,sp,106c <main+0x5a8>
 d8a:	2f2e                	fld	ft10,200(sp)
 d8c:	6e69                	lui	t3,0x1a
 d8e:	64756c63          	bltu	a0,t2,13e6 <_strtol_l.isra.0+0x11e>
 d92:	0065                	c.addi	zero,25
 d94:	6d6f682f          	0x6d6f682f
 d98:	2f65                	jal	1550 <_setlocale_r+0x64>
 d9a:	74726373          	csrrsi	t1,0x747,4
 d9e:	736c6f6f          	jal	t5,c74d4 <__C_STACK_TOP__+0xb74d4>
 da2:	726f772f          	0x726f772f
 da6:	6f682f6b          	0x6f682f6b
 daa:	775f7473          	csrrci	s0,0x775,30
 dae:	2f6b726f          	jal	tp,b80a4 <__C_STACK_TOP__+0xa80a4>
 db2:	6f74                	flw	fa3,92(a4)
 db4:	2f736c6f          	jal	s8,378aa <__C_STACK_TOP__+0x278aa>
 db8:	7075                	0x7075
 dba:	65727473          	csrrci	s0,0x657,4
 dbe:	6d61                	lui	s10,0x18
 dc0:	372d                	jal	cea <main+0x226>
 dc2:	312e                	fld	ft2,232(sp)
 dc4:	722d                	lui	tp,0xfffeb
 dc6:	3376                	fld	ft6,376(sp)
 dc8:	6532                	flw	fa0,12(sp)
 dca:	7369722f          	0x7369722f
 dce:	672d7663          	bleu	s2,s10,143a <_strtol_l.isra.0+0x172>
 dd2:	6c2f6363          	bltu	t5,sp,1498 <_strtol_r+0x10>
 dd6:	6269                	lui	tp,0x1a
 dd8:	2f636367          	0x2f636367
 ddc:	2e2e                	fld	ft8,200(sp)
 dde:	6363672f          	0x6363672f
 de2:	6e6f632f          	0x6e6f632f
 de6:	6966                	flw	fs2,88(sp)
 de8:	69722f67          	0x69722f67
 dec:	00766373          	csrrsi	t1,0x7,12
 df0:	2e2e                	fld	ft8,200(sp)
 df2:	2f2e2e2f          	0x2f2e2e2f
 df6:	2e2e                	fld	ft8,200(sp)
 df8:	2f2e2e2f          	0x2f2e2e2f
 dfc:	2f2e                	fld	ft10,200(sp)
 dfe:	00636367          	0x636367
 e02:	6d6f682f          	0x6d6f682f
 e06:	2f65                	jal	15be <setlocale+0x16>
 e08:	74726373          	csrrsi	t1,0x747,4
 e0c:	736c6f6f          	jal	t5,c7542 <__C_STACK_TOP__+0xb7542>
 e10:	726f772f          	0x726f772f
 e14:	6f682f6b          	0x6f682f6b
 e18:	775f7473          	csrrci	s0,0x775,30
 e1c:	2f6b726f          	jal	tp,b8112 <__C_STACK_TOP__+0xa8112>
 e20:	6f74                	flw	fa3,92(a4)
 e22:	2f736c6f          	jal	s8,37918 <__C_STACK_TOP__+0x27918>
 e26:	7075                	0x7075
 e28:	65727473          	csrrci	s0,0x657,4
 e2c:	6d61                	lui	s10,0x18
 e2e:	372d                	jal	d58 <main+0x294>
 e30:	312e                	fld	ft2,232(sp)
 e32:	722d                	lui	tp,0xfffeb
 e34:	3376                	fld	ft6,376(sp)
 e36:	6532                	flw	fa0,12(sp)
 e38:	7369722f          	0x7369722f
 e3c:	672d7663          	bleu	s2,s10,14a8 <strtol_l+0x4>
 e40:	6c2f6363          	bltu	t5,sp,1506 <_setlocale_r+0x1a>
 e44:	6269                	lui	tp,0x1a
 e46:	00636367          	0x636367
 e4a:	6c00                	flw	fs0,24(s0)
 e4c:	2e6b636f          	jal	t1,b7132 <__C_STACK_TOP__+0xa7132>
 e50:	0068                	addi	a0,sp,12
 e52:	0001                	nop
 e54:	5f00                	lw	s0,56(a4)
 e56:	7974                	flw	fa3,116(a0)
 e58:	6570                	flw	fa2,76(a0)
 e5a:	00682e73          	csrrs	t3,0x6,a6
 e5e:	0001                	nop
 e60:	7300                	flw	fs0,32(a4)
 e62:	6474                	flw	fa3,76(s0)
 e64:	6564                	flw	fs1,76(a0)
 e66:	2e66                	fld	ft8,88(sp)
 e68:	0068                	addi	a0,sp,12
 e6a:	0002                	0x2
 e6c:	7200                	flw	fs0,32(a2)
 e6e:	6565                	lui	a0,0x19
 e70:	746e                	flw	fs0,248(sp)
 e72:	682e                	flw	fa6,200(sp)
 e74:	0100                	addi	s0,sp,128
 e76:	0000                	unimp
 e78:	7265                	lui	tp,0xffff9
 e7a:	6e72                	flw	ft8,28(sp)
 e7c:	00682e6f          	jal	t3,82e82 <__C_STACK_TOP__+0x72e82>
 e80:	0001                	nop
 e82:	7300                	flw	fs0,32(a4)
 e84:	6474                	flw	fa3,76(s0)
 e86:	696c                	flw	fa1,84(a0)
 e88:	2e62                	fld	ft8,24(sp)
 e8a:	0068                	addi	a0,sp,12
 e8c:	75000003          	lb	zero,1872(zero) # 750 <vprintfmt.constprop.2+0x336>
 e90:	696e                	flw	fs2,216(sp)
 e92:	2e647473          	csrrci	s0,0x2e6,8
 e96:	0068                	addi	a0,sp,12
 e98:	0001                	nop
 e9a:	7400                	flw	fs0,40(s0)
 e9c:	6d69                	lui	s10,0x1a
 e9e:	2e65                	jal	1256 <main+0x792>
 ea0:	0068                	addi	a0,sp,12
 ea2:	68000003          	lb	zero,1664(zero) # 680 <vprintfmt.constprop.2+0x266>
 ea6:	7361                	lui	t1,0xffff8
 ea8:	7468                	flw	fa0,108(s0)
 eaa:	6261                	lui	tp,0x18
 eac:	682e                	flw	fa6,200(sp)
 eae:	0400                	addi	s0,sp,512
 eb0:	0000                	unimp
 eb2:	6972                	flw	fs2,28(sp)
 eb4:	2d766373          	csrrsi	t1,0x2d7,12
 eb8:	7374706f          	j	48dee <__C_STACK_TOP__+0x38dee>
 ebc:	682e                	flw	fa6,200(sp)
 ebe:	0500                	addi	s0,sp,640
 ec0:	0000                	unimp
 ec2:	6e69                	lui	t3,0x1a
 ec4:	632d6e73          	csrrsi	t3,0x632,26
 ec8:	74736e6f          	jal	t3,37e0e <__C_STACK_TOP__+0x27e0e>
 ecc:	6e61                	lui	t3,0x18
 ece:	7374                	flw	fa3,100(a4)
 ed0:	682e                	flw	fa6,200(sp)
 ed2:	0600                	addi	s0,sp,768
 ed4:	0000                	unimp
 ed6:	696c                	flw	fa1,84(a0)
 ed8:	6762                	flw	fa4,24(sp)
 eda:	2e326363          	bltu	tp,gp,11c0 <main+0x6fc>
 ede:	0068                	addi	a0,sp,12
 ee0:	6c000007          	0x6c000007
 ee4:	6269                	lui	tp,0x1a
 ee6:	32636367          	0x32636367
 eea:	632e                	flw	ft6,200(sp)
 eec:	0700                	addi	s0,sp,896
 eee:	0000                	unimp
	...

Дизассемблирование раздела .debug_str:

00000000 <.debug_str>:
   0:	726f6873          	csrrsi	a6,0x726,30
   4:	2074                	fld	fa3,192(s0)
   6:	6e69                	lui	t3,0x1a
   8:	0074                	addi	a3,sp,12
   a:	7468                	flw	fa0,108(s0)
   c:	6261                	lui	tp,0x18
   e:	685f 7361 5f68      	0x5f687361685f
  14:	6f70                	flw	fa2,92(a4)
  16:	6e69                	lui	t3,0x1a
  18:	6574                	flw	fa3,76(a0)
  1a:	0072                	0x72
  1c:	725f 6e61 3464      	0x34646e61725f
  22:	0038                	addi	a4,sp,8
  24:	655f 656d 6772      	0x6772656d655f
  2a:	6e65                	lui	t3,0x19
  2c:	5f007963          	bleu	a6,zero,61e <vprintfmt.constprop.2+0x204>
  30:	6164                	flw	fs1,68(a0)
  32:	6c79                	lui	s8,0x1e
  34:	6769                	lui	a4,0x1a
  36:	7468                	flw	fa0,108(s0)
  38:	6300                	flw	fs0,0(a4)
  3a:	6c706d6f          	jal	s10,6f00 <__BSS_END__+0x1280>
  3e:	7865                	lui	a6,0xffff9
  40:	6420                	flw	fs0,72(s0)
  42:	6c62756f          	jal	a0,27708 <__C_STACK_TOP__+0x17708>
  46:	0065                	c.addi	zero,25
  48:	675f 7465 6164      	0x61647465675f
  4e:	6574                	flw	fa3,76(a0)
  50:	655f 7272 5f00      	0x5f007272655f
  56:	6164                	flw	fs1,68(a0)
  58:	6174                	flw	fa3,68(a0)
  5a:	5f00                	lw	s0,56(a4)
  5c:	74726377          	0x74726377
  60:	5f626d6f          	jal	s10,26656 <__C_STACK_TOP__+0x16656>
  64:	74617473          	csrrci	s0,0x746,2
  68:	0065                	c.addi	zero,25
  6a:	20554e47          	fmsub.s	ft8,fa0,ft5,ft4,rmm
  6e:	20313143          	fmadd.s	ft2,ft2,ft3,ft4,rup
  72:	2e312e37          	lui	t3,0x2e312
  76:	2031                	jal	82 <buflen.1776+0x42>
  78:	3032                	fld	ft0,296(sp)
  7a:	3731                	jal	ffffff86 <__C_STACK_TOP__+0xfffeff86>
  7c:	3530                	fld	fa2,104(a0)
  7e:	3930                	fld	fa2,112(a0)
  80:	2d20                	fld	fs0,88(a0)
  82:	636d                	lui	t1,0x1b
  84:	6f6d                	lui	t5,0x1b
  86:	6564                	flw	fs1,76(a0)
  88:	3d6c                	fld	fa1,248(a0)
  8a:	656d                	lui	a0,0x1b
  8c:	6c64                	flw	fs1,92(s0)
  8e:	2d20776f          	jal	a4,7360 <__BSS_END__+0x16e0>
  92:	616d                	addi	sp,sp,240
  94:	6372                	flw	ft6,28(sp)
  96:	3d68                	fld	fa0,248(a0)
  98:	7672                	flw	fa2,60(sp)
  9a:	6d693233          	0x6d693233
  9e:	2d20                	fld	fs0,88(a0)
  a0:	616d                	addi	sp,sp,240
  a2:	6962                	flw	fs2,24(sp)
  a4:	693d                	lui	s2,0xf
  a6:	706c                	flw	fa1,100(s0)
  a8:	2d203233          	0x2d203233
  ac:	636d                	lui	t1,0x1b
  ae:	6f6d                	lui	t5,0x1b
  b0:	6564                	flw	fs1,76(a0)
  b2:	3d6c                	fld	fa1,248(a0)
  b4:	656d                	lui	a0,0x1b
  b6:	6c64                	flw	fs1,92(s0)
  b8:	2d20776f          	jal	a4,738a <__BSS_END__+0x170a>
  bc:	4f2d2067          	0x4f2d2067
  c0:	4f2d2073          	csrs	0x4f2,s10
  c4:	2032                	fld	ft0,264(sp)
  c6:	4f2d                	li	t5,11
  c8:	662d2073          	csrs	0x662,s10
  cc:	7562                	flw	fa0,56(sp)
  ce:	6c69                	lui	s8,0x1a
  d0:	6964                	flw	fs1,84(a0)
  d2:	676e                	flw	fa4,216(sp)
  d4:	6c2d                	lui	s8,0xb
  d6:	6269                	lui	tp,0x1a
  d8:	20636367          	0x20636367
  dc:	662d                	lui	a2,0xb
  de:	6f6e                	flw	ft10,216(sp)
  e0:	732d                	lui	t1,0xfffeb
  e2:	6174                	flw	fa3,68(a0)
  e4:	702d6b63          	bltu	s10,sp,7fa <vprintfmt.constprop.2+0x3e0>
  e8:	6f72                	flw	ft10,28(sp)
  ea:	6574                	flw	fa3,76(a0)
  ec:	726f7463          	bleu	t1,t5,814 <vprintfmt.constprop.2+0x3fa>
  f0:	2d20                	fld	fs0,88(a0)
  f2:	6566                	flw	fa0,88(sp)
  f4:	6378                	flw	fa4,68(a4)
  f6:	7065                	0x7065
  f8:	6974                	flw	fa3,84(a0)
  fa:	20736e6f          	jal	t3,36b00 <__C_STACK_TOP__+0x26b00>
  fe:	662d                	lui	a2,0xb
 100:	6f6e                	flw	ft10,216(sp)
 102:	2d6e                	fld	fs10,216(sp)
 104:	6c6c6163          	bltu	s8,t1,7c6 <vprintfmt.constprop.2+0x3ac>
 108:	652d                	lui	a0,0xb
 10a:	6378                	flw	fa4,68(a4)
 10c:	7065                	0x7065
 10e:	6974                	flw	fa3,84(a0)
 110:	20736e6f          	jal	t3,36b16 <__C_STACK_TOP__+0x26b16>
 114:	662d                	lui	a2,0xb
 116:	6976                	flw	fs2,92(sp)
 118:	69626973          	csrrsi	s2,0x696,4
 11c:	696c                	flw	fa1,84(a0)
 11e:	7974                	flw	fa3,116(a0)
 120:	683d                	lui	a6,0xf
 122:	6469                	lui	s0,0x1a
 124:	6564                	flw	fs1,76(a0)
 126:	006e                	0x6e
 128:	775f 7363 7472      	0x74727363775f
 12e:	73626d6f          	jal	s10,26864 <__C_STACK_TOP__+0x16864>
 132:	735f 6174 6574      	0x65746174735f
 138:	5f00                	lw	s0,56(a4)
 13a:	645f 0030 5f5f      	0x5f5f0030645f
 140:	3164                	fld	fs1,224(a0)
 142:	5f00                	lw	s0,56(a4)
 144:	626c                	flw	fa1,68(a2)
 146:	7366                	flw	ft6,120(sp)
 148:	7a69                	lui	s4,0xffffa
 14a:	0065                	c.addi	zero,25
 14c:	6974706f          	j	47fe2 <__C_STACK_TOP__+0x37fe2>
 150:	646e                	flw	fs0,216(sp)
 152:	6300                	flw	fs0,0(a4)
 154:	6c706d6f          	jal	s10,701a <__BSS_END__+0x139a>
 158:	7865                	lui	a6,0xffff9
 15a:	6c20                	flw	fs0,88(s0)
 15c:	20676e6f          	jal	t3,76362 <__C_STACK_TOP__+0x66362>
 160:	6f64                	flw	fs1,92(a4)
 162:	6275                	lui	tp,0x1d
 164:	656c                	flw	fa1,76(a0)
 166:	7200                	flw	fs0,32(a2)
 168:	7369                	lui	t1,0xffffa
 16a:	615f7663          	bleu	s5,t5,776 <vprintfmt.constprop.2+0x35c>
 16e:	6962                	flw	fs2,24(sp)
 170:	5f00                	lw	s0,56(a4)
 172:	6c5f 636f 6c61      	0x6c61636f6c5f
 178:	5f65                	li	t5,-7
 17a:	0074                	addi	a3,sp,12
 17c:	6d5f 7262 6f74      	0x6f7472626d5f
 182:	735f6377          	0x735f6377
 186:	6174                	flw	fa3,68(a0)
 188:	6574                	flw	fa3,76(a0)
 18a:	5f00                	lw	s0,56(a4)
 18c:	7a74                	flw	fa3,116(a2)
 18e:	616e                	flw	ft2,216(sp)
 190:	656d                	lui	a0,0x1b
 192:	5f00                	lw	s0,56(a4)
 194:	745f 5f6d 6573      	0x65735f6d745f
 19a:	635f0063          	beq	t5,s5,7ba <vprintfmt.constprop.2+0x3a0>
 19e:	6f6c                	flw	fa1,92(a4)
 1a0:	2f006573          	csrrsi	a0,0x2f0,0
 1a4:	6f68                	flw	fa0,92(a4)
 1a6:	656d                	lui	a0,0x1b
 1a8:	7263732f          	0x7263732f
 1ac:	6f74                	flw	fa3,92(a4)
 1ae:	2f736c6f          	jal	s8,36ca4 <__C_STACK_TOP__+0x26ca4>
 1b2:	6b726f77          	0x6b726f77
 1b6:	736f682f          	0x736f682f
 1ba:	5f74                	lw	a3,124(a4)
 1bc:	6b726f77          	0x6b726f77
 1c0:	6f6f742f          	0x6f6f742f
 1c4:	736c                	flw	fa1,100(a4)
 1c6:	7370752f          	0x7370752f
 1ca:	7274                	flw	fa3,100(a2)
 1cc:	6165                	addi	sp,sp,112
 1ce:	2d6d                	jal	888 <vprintfmt.constprop.2+0x46e>
 1d0:	2d312e37          	lui	t3,0x2d312
 1d4:	7672                	flw	fa2,60(sp)
 1d6:	2f653233          	0x2f653233
 1da:	6972                	flw	fs2,28(sp)
 1dc:	2d766373          	csrrsi	t1,0x2d7,12
 1e0:	2f636367          	0x2f636367
 1e4:	696c                	flw	fa1,84(a0)
 1e6:	6762                	flw	fa4,24(sp)
 1e8:	6c2f6363          	bltu	t5,sp,8ae <vprintfmt.constprop.2+0x494>
 1ec:	6269                	lui	tp,0x1a
 1ee:	32636367          	0x32636367
 1f2:	632e                	flw	ft6,200(sp)
 1f4:	5f00                	lw	s0,56(a4)
 1f6:	6275                	lui	tp,0x1d
 1f8:	6675                	lui	a2,0x1d
 1fa:	5f00                	lw	s0,56(a4)
 1fc:	6162                	flw	ft2,24(sp)
 1fe:	5f006573          	csrrsi	a0,0x5f0,0
 202:	745f 5f6d 6f68      	0x6f685f6d745f
 208:	7275                	lui	tp,0xffffd
 20a:	5f00                	lw	s0,56(a4)
 20c:	6f746377          	0x6f746377
 210:	626d                	lui	tp,0x1b
 212:	735f 6174 6574      	0x65746174735f
 218:	5f00                	lw	s0,56(a4)
 21a:	735f 0066 6f5f      	0x6f5f0066735f
 220:	5f6e                	lw	t5,248(sp)
 222:	7865                	lui	a6,0xffff9
 224:	7469                	lui	s0,0xffffa
 226:	615f 6772 0073      	0x736772615f
 22c:	6d6f682f          	0x6d6f682f
 230:	2f65                	jal	9e8 <putchar+0x2e>
 232:	74726373          	csrrsi	t1,0x747,4
 236:	736c6f6f          	jal	t5,c696c <__C_STACK_TOP__+0xb696c>
 23a:	726f772f          	0x726f772f
 23e:	6f682f6b          	0x6f682f6b
 242:	775f7473          	csrrci	s0,0x775,30
 246:	2f6b726f          	jal	tp,b753c <__C_STACK_TOP__+0xa753c>
 24a:	6f74                	flw	fa3,92(a4)
 24c:	2f736c6f          	jal	s8,36d42 <__C_STACK_TOP__+0x26d42>
 250:	7075                	0x7075
 252:	65727473          	csrrci	s0,0x657,4
 256:	6d61                	lui	s10,0x18
 258:	372d                	jal	182 <SIM_STOP+0x8a>
 25a:	312e                	fld	ft2,232(sp)
 25c:	722d                	lui	tp,0xfffeb
 25e:	3376                	fld	ft6,376(sp)
 260:	6532                	flw	fa0,12(sp)
 262:	6975622f          	0x6975622f
 266:	646c                	flw	fa1,76(s0)
 268:	672d                	lui	a4,0xb
 26a:	6e2d6363          	bltu	s10,sp,950 <vprintfmt.constprop.2+0x536>
 26e:	7765                	lui	a4,0xffff9
 270:	696c                	flw	fa1,84(a0)
 272:	2d62                	fld	fs10,24(sp)
 274:	67617473          	csrrci	s0,0x676,2
 278:	3265                	jal	fffffc20 <__C_STACK_TOP__+0xfffefc20>
 27a:	7369722f          	0x7369722f
 27e:	34367663          	bleu	gp,a2,5ca <vprintfmt.constprop.2+0x1b0>
 282:	752d                	lui	a0,0xfffeb
 284:	6b6e                	flw	fs6,216(sp)
 286:	6f6e                	flw	ft10,216(sp)
 288:	652d6e77          	0x652d6e77
 28c:	666c                	flw	fa1,76(a2)
 28e:	3376722f          	0x3376722f
 292:	6932                	flw	fs2,12(sp)
 294:	2f6d                	jal	a4e <putchar+0x94>
 296:	6c69                	lui	s8,0x1a
 298:	3370                	fld	fa2,224(a4)
 29a:	2f32                	fld	ft10,264(sp)
 29c:	696c                	flw	fa1,84(a0)
 29e:	6762                	flw	fa4,24(sp)
 2a0:	5f006363          	bltu	zero,a6,886 <vprintfmt.constprop.2+0x46c>
 2a4:	6b6f6f63          	bltu	t5,s6,962 <vprintfmt.constprop.2+0x548>
 2a8:	6569                	lui	a0,0x1a
 2aa:	5f00                	lw	s0,56(a4)
 2ac:	735f 6c67 6575      	0x65756c67735f
 2b2:	5f00                	lw	s0,56(a4)
 2b4:	6c66                	flw	fs8,88(sp)
 2b6:	6761                	lui	a4,0x18
 2b8:	695f0073          	0x695f0073
 2bc:	78635f73          	csrrwi	t5,0x786,6
 2c0:	0061                	c.addi	zero,24
 2c2:	775f 7364 5f00      	0x5f007364775f
 2c8:	465f 4c49 0045      	0x454c49465f
 2ce:	725f 7365 6c75      	0x6c757365725f
 2d4:	5f74                	lw	a3,124(a4)
 2d6:	5355006b          	0x5355006b
 2da:	7449                	lui	s0,0xffff2
 2dc:	7079                	0x7079
 2de:	0065                	c.addi	zero,25
 2e0:	6f6c                	flw	fa1,92(a4)
 2e2:	676e                	flw	fa4,216(sp)
 2e4:	6c20                	flw	fs0,88(s0)
 2e6:	20676e6f          	jal	t3,764ec <__C_STACK_TOP__+0x664ec>
 2ea:	6e69                	lui	t3,0x1a
 2ec:	0074                	addi	a3,sp,12
 2ee:	735f 7379 655f      	0x655f7379735f
 2f4:	7272                	flw	ft4,60(sp)
 2f6:	696c                	flw	fa1,84(a0)
 2f8:	5f007473          	csrrci	s0,0x5f0,0
 2fc:	62747663          	bleu	t2,s0,928 <vprintfmt.constprop.2+0x50e>
 300:	6675                	lui	a2,0x1d
 302:	5f00                	lw	s0,56(a4)
 304:	626d                	lui	tp,0x1b
 306:	6f747273          	csrrci	tp,0x6f7,8
 30a:	5f736377          	0x5f736377
 30e:	74617473          	csrrci	s0,0x746,2
 312:	0065                	c.addi	zero,25
 314:	6d5f 7262 656c      	0x656c72626d5f
 31a:	5f6e                	lw	t5,248(sp)
 31c:	74617473          	csrrci	s0,0x746,2
 320:	0065                	c.addi	zero,25
 322:	6972                	flw	fs2,28(sp)
 324:	5f766373          	csrrsi	t1,0x5f7,12
 328:	646f6d63          	bltu	t5,t1,982 <vprintfmt.constprop.2+0x568>
 32c:	6c65                	lui	s8,0x19
 32e:	5f00                	lw	s0,56(a4)
 330:	6e66                	flw	ft8,88(sp)
 332:	7261                	lui	tp,0xffff8
 334:	5f007367          	0x5f007367
 338:	6e66                	flw	ft8,88(sp)
 33a:	735f0073          	0x735f0073
 33e:	6769                	lui	a4,0x1a
 340:	006e                	0x6e
 342:	735f 6474 7265      	0x72656474735f
 348:	0072                	0x72
 34a:	675f 6d61 616d      	0x616d6d61675f
 350:	735f 6769 676e      	0x676e6769735f
 356:	6d61                	lui	s10,0x18
 358:	5f00                	lw	s0,56(a4)
 35a:	6d6e                	flw	fs10,216(sp)
 35c:	6c61                	lui	s8,0x18
 35e:	6f6c                	flw	fa1,92(a4)
 360:	755f0063          	beq	t5,s5,aa0 <putchar+0xe6>
 364:	736e                	flw	ft6,248(sp)
 366:	6570                	flw	fa2,76(a0)
 368:	69666963          	bltu	a2,s6,9fa <putchar+0x40>
 36c:	6465                	lui	s0,0x19
 36e:	6c5f 636f 6c61      	0x6c61636f6c5f
 374:	5f65                	li	t5,-7
 376:	6e69                	lui	t3,0x1a
 378:	6f66                	flw	ft10,88(sp)
 37a:	5f00                	lw	s0,56(a4)
 37c:	745f 006d 6972      	0x6972006d745f
 382:	5f766373          	csrrsi	t1,0x5f7,12
 386:	6261                	lui	tp,0x18
 388:	5f69                	li	t5,-6
 38a:	7974                	flw	fa3,116(a0)
 38c:	6570                	flw	fa2,76(a0)
 38e:	5f00                	lw	s0,56(a4)
 390:	626d                	lui	tp,0x1b
 392:	74617473          	csrrci	s0,0x746,2
 396:	0065                	c.addi	zero,25
 398:	5f5f 6377 6268      	0x626863775f5f
 39e:	5f00                	lw	s0,56(a4)
 3a0:	6c747663          	bleu	t2,s0,a6c <putchar+0xb2>
 3a4:	6e65                	lui	t3,0x19
 3a6:	5f00                	lw	s0,56(a4)
 3a8:	6966                	flw	fs2,88(sp)
 3aa:	656c                	flw	fa1,76(a0)
 3ac:	6800                	flw	fs0,16(s0)
 3ae:	7361                	lui	t1,0xffff8
 3b0:	7668                	flw	fa0,108(a2)
 3b2:	6c61                	lui	s8,0x18
 3b4:	745f 4400 7557      	0x75574400745f
 3ba:	696e                	flw	fs2,216(sp)
 3bc:	5f006e6f          	jal	t3,69ac <__BSS_END__+0xd2c>
 3c0:	696e                	flw	fs2,216(sp)
 3c2:	0073626f          	jal	tp,36bc8 <__C_STACK_TOP__+0x26bc8>
 3c6:	6f6c                	flw	fa1,92(a4)
 3c8:	676e                	flw	fa4,216(sp)
 3ca:	6c20                	flw	fs0,88(s0)
 3cc:	20676e6f          	jal	t3,765d2 <__C_STACK_TOP__+0x665d2>
 3d0:	6e75                	lui	t3,0x1d
 3d2:	6e676973          	csrrsi	s2,0x6e6,14
 3d6:	6465                	lui	s0,0x19
 3d8:	6920                	flw	fs0,80(a0)
 3da:	746e                	flw	fs0,248(sp)
 3dc:	4400                	lw	s0,8(s0)
 3de:	72747357          	0x72747357
 3e2:	6375                	lui	t1,0x1d
 3e4:	0074                	addi	a3,sp,12
 3e6:	726f6873          	csrrsi	a6,0x726,30
 3ea:	2074                	fld	fa3,192(s0)
 3ec:	6e75                	lui	t3,0x1d
 3ee:	6e676973          	csrrsi	s2,0x6e6,14
 3f2:	6465                	lui	s0,0x19
 3f4:	6920                	flw	fs0,80(a0)
 3f6:	746e                	flw	fs0,248(sp)
 3f8:	5f00                	lw	s0,56(a4)
 3fa:	635f 7a6c 745f      	0x745f7a6c635f
 400:	6261                	lui	tp,0x18
 402:	5f00                	lw	s0,56(a4)
 404:	7461                	lui	s0,0xffff8
 406:	7865                	lui	a6,0xffff9
 408:	7469                	lui	s0,0xffffa
 40a:	0030                	addi	a2,sp,8
 40c:	735f 6769 616e      	0x616e6769735f
 412:	5f6c                	lw	a1,124(a4)
 414:	7562                	flw	fa0,56(sp)
 416:	0066                	0x66
 418:	615f 6373 6974      	0x69746373615f
 41e:	656d                	lui	a0,0x1b
 420:	625f 6675 5f00      	0x5f006675625f
 426:	6572                	flw	fa0,28(sp)
 428:	746c7573          	csrrci	a0,0x746,24
 42c:	5f00                	lw	s0,56(a4)
 42e:	775f 6863 5f00      	0x5f006863775f
 434:	656e                	flw	fa0,216(sp)
 436:	7478                	flw	fa4,108(s0)
 438:	0066                	0x66
 43a:	6e65                	lui	t3,0x19
 43c:	6976                	flw	fs2,92(sp)
 43e:	6f72                	flw	ft10,28(sp)
 440:	006e                	0x6e
 442:	746e6977          	0x746e6977
 446:	745f 5f00 6f6c      	0x6f6c5f00745f
 44c:	5f006b63          	bltu	zero,a6,a42 <putchar+0x88>
 450:	755f 0068 6d5f      	0x6d5f0068755f
 456:	6c75                	lui	s8,0x1d
 458:	0074                	addi	a3,sp,12
 45a:	5f5f 6c75 7500      	0x75006c755f5f
 460:	736e                	flw	ft6,248(sp)
 462:	6570                	flw	fa2,76(a0)
 464:	74735f63          	ble	t2,t1,bc2 <main+0xfe>
 468:	6972                	flw	fs2,28(sp)
 46a:	676e                	flw	fa4,216(sp)
 46c:	706f0073          	0x706f0073
 470:	7274                	flw	fa3,100(a2)
 472:	7365                	lui	t1,0xffff9
 474:	7465                	lui	s0,0xffff9
 476:	5f00                	lw	s0,56(a4)
 478:	74697277          	0x74697277
 47c:	0065                	c.addi	zero,25
 47e:	5f5f 6d74 795f      	0x795f6d745f5f
 484:	6165                	addi	sp,sp,112
 486:	0072                	0x72
 488:	5f5f 6f63 6e75      	0x6e756f635f5f
 48e:	0074                	addi	a3,sp,12
 490:	755f 756e 6573      	0x6573756e755f
 496:	5f64                	lw	s1,124(a4)
 498:	6172                	flw	ft2,28(sp)
 49a:	646e                	flw	fs0,216(sp)
 49c:	4100                	lw	s0,0(a0)
 49e:	4942                	lw	s2,16(sp)
 4a0:	495f 504c 3233      	0x3233504c495f
 4a6:	0044                	addi	s1,sp,4
 4a8:	6972                	flw	fs2,28(sp)
 4aa:	5f766373          	csrrsi	t1,0x5f7,12
 4ae:	65646f63          	bltu	s0,s6,b0c <main+0x48>
 4b2:	6d5f 646f 6c65      	0x6c65646f6d5f
 4b8:	5f00                	lw	s0,56(a4)
 4ba:	7366666f          	jal	a2,66bf0 <__C_STACK_TOP__+0x56bf0>
 4be:	7465                	lui	s0,0xffff9
 4c0:	5f00                	lw	s0,56(a4)
 4c2:	6942                	flw	fs2,16(sp)
 4c4:	746e6967          	0x746e6967
 4c8:	5f00                	lw	s0,56(a4)
 4ca:	6d5f 646f 6964      	0x6964646f6d5f
 4d0:	42410033          	0x42410033
 4d4:	5f49                	li	t5,-14
 4d6:	4c49                	li	s8,18
 4d8:	3350                	fld	fa2,160(a4)
 4da:	4632                	lw	a2,12(sp)
 4dc:	6300                	flw	fs0,0(a4)
 4de:	6c706d6f          	jal	s10,73a4 <__BSS_END__+0x1724>
 4e2:	7865                	lui	a6,0xffff9
 4e4:	6620                	flw	fs0,72(a2)
 4e6:	6f6c                	flw	fa1,92(a4)
 4e8:	7461                	lui	s0,0xffff8
 4ea:	5f00                	lw	s0,56(a4)
 4ec:	745f 5f6d 6f6d      	0x6f6d5f6d745f
 4f2:	006e                	0x6e
 4f4:	615f 6574 6978      	0x69786574615f
 4fa:	0074                	addi	a3,sp,12
 4fc:	6f627573          	csrrci	a0,0x6f6,4
 500:	7470                	flw	fa2,108(s0)
 502:	7261                	lui	tp,0xffff8
 504:	5f5f0067          	jr	1525(t5) # 1b5f5 <__C_STACK_TOP__+0xb5f5>
 508:	64696473          	csrrsi	s0,0x646,18
 50c:	6e69                	lui	t3,0x1a
 50e:	7469                	lui	s0,0xffffa
 510:	5f00                	lw	s0,56(a4)
 512:	5f66666f          	jal	a2,66b08 <__C_STACK_TOP__+0x56b08>
 516:	0074                	addi	a3,sp,12
 518:	5f5f 6876 5f00      	0x5f0068765f5f
 51e:	765f 006c 665f      	0x665f006c765f
 524:	6572                	flw	fa0,28(sp)
 526:	6c65                	lui	s8,0x19
 528:	7369                	lui	t1,0xffffa
 52a:	0074                	addi	a3,sp,12
 52c:	745f 6d69 7a65      	0x7a656d69745f
 532:	00656e6f          	jal	t3,56538 <__C_STACK_TOP__+0x46538>
 536:	6d5f 7362 6174      	0x617473626d5f
 53c:	6574                	flw	fa3,76(a0)
 53e:	745f 5f00 4f4c      	0x4f4c5f00745f
 544:	525f4b43          	fmadd.d	fs6,ft10,ft5,fa0,rmm
 548:	4345                	li	t1,17
 54a:	5255                	li	tp,-11
 54c:	45564953          	0x45564953
 550:	545f 5f00 6572      	0x65725f00545f
 556:	6461                	lui	s0,0x18
 558:	4100                	lw	s0,0(a0)
 55a:	4942                	lw	s2,16(sp)
 55c:	4c5f 3650 0034      	0x3436504c5f
 562:	4241                	li	tp,16
 564:	5f49                	li	t5,-14
 566:	4c49                	li	s8,18
 568:	3350                	fld	fa2,160(a4)
 56a:	0032                	0x32
 56c:	645f 6f73 685f      	0x685f6f73645f
 572:	6e61                	lui	t3,0x18
 574:	6c64                	flw	fs1,92(s0)
 576:	0065                	c.addi	zero,25
 578:	4d5f4d43          	0x4d5f4d43
 57c:	4445                	li	s0,17
 57e:	4e41                	li	t3,16
 580:	0059                	c.addi	zero,22
 582:	6e5f 7765 5f00      	0x5f0077656e5f
 588:	5f68                	lw	a0,124(a4)
 58a:	7265                	lui	tp,0xffff9
 58c:	6e72                	flw	ft8,28(sp)
 58e:	665f006f          	j	f13f2 <__C_STACK_TOP__+0xe13f2>
 592:	6f6c                	flw	fa1,92(a4)
 594:	745f6b63          	bltu	t5,t0,cea <main+0x226>
 598:	5f00                	lw	s0,56(a4)
 59a:	6c66                	flw	fs8,88(sp)
 59c:	6761                	lui	a4,0x18
 59e:	5f003273          	csrrc	tp,0x5f0,zero
 5a2:	6f69                	lui	t5,0x1a
 5a4:	7362                	flw	ft6,56(sp)
 5a6:	4300                	lw	s0,0(a4)
 5a8:	5f4d                	li	t5,-13
 5aa:	454d                	li	a0,19
 5ac:	4c44                	lw	s1,28(s0)
 5ae:	6800574f          	fnmadd.s	fa4,ft0,ft0,fa3,unknown
 5b2:	6174                	flw	fa3,68(a0)
 5b4:	5f62                	lw	t5,56(sp)
 5b6:	6168                	flw	fa0,68(a0)
 5b8:	5f006873          	csrrsi	a6,0x5f0,0
 5bc:	735f 4946 454c      	0x454c4946735f
 5c2:	5f00                	lw	s0,56(a4)
 5c4:	5f737973          	csrrci	s2,0x5f7,6
 5c8:	656e                	flw	fa0,216(sp)
 5ca:	7272                	flw	ft4,60(sp)
 5cc:	5f00                	lw	s0,56(a4)
 5ce:	626d                	lui	tp,0x1b
 5d0:	656c                	flw	fa1,76(a0)
 5d2:	5f6e                	lw	t5,248(sp)
 5d4:	74617473          	csrrci	s0,0x746,2
 5d8:	0065                	c.addi	zero,25
 5da:	695f 636e 5f00      	0x5f00636e695f
 5e0:	6e69                	lui	t3,0x1a
 5e2:	0064                	addi	s1,sp,12
 5e4:	6c5f 636f 6c61      	0x6c61636f6c5f
 5ea:	0065                	c.addi	zero,25
 5ec:	5f5f 6c63 6165      	0x61656c635f5f
 5f2:	756e                	flw	fa0,248(sp)
 5f4:	0070                	addi	a2,sp,12
 5f6:	6d5f 7861 6477      	0x647778616d5f
 5fc:	725f0073          	0x725f0073
 600:	6565                	lui	a0,0x19
 602:	746e                	flw	fs0,248(sp)
 604:	5f00                	lw	s0,56(a4)
 606:	785f 0030 5f5f      	0x5f5f0030785f
 60c:	3178                	fld	fa4,224(a0)
 60e:	5f00                	lw	s0,56(a4)
 610:	785f 0032 5f5f      	0x5f5f0032785f
 616:	3378                	fld	fa4,224(a4)
 618:	5f00                	lw	s0,56(a4)
 61a:	765f 6c61 6575      	0x65756c61765f
 620:	5f00                	lw	s0,56(a4)
 622:	6b656573          	csrrsi	a0,0x6b6,10
 626:	5f00                	lw	s0,56(a4)
 628:	7066                	flw	ft0,120(sp)
 62a:	745f736f          	jal	t1,f856e <__C_STACK_TOP__+0xe856e>
 62e:	5f00                	lw	s0,56(a4)
 630:	6c62                	flw	fs8,24(sp)
 632:	7a69736b          	0x7a69736b
 636:	0065                	c.addi	zero,25
 638:	735f 7a69 0065      	0x657a69735f
 63e:	5f5f 6475 7669      	0x766964755f5f
 644:	6f6d                	lui	t5,0x1b
 646:	6464                	flw	fs1,76(s0)
 648:	3469                	jal	d2 <buflen.1776+0x92>
 64a:	7500                	flw	fs0,40(a0)
 64c:	736e                	flw	ft6,248(sp)
 64e:	6570                	flw	fa2,76(a0)
 650:	735f7663          	bleu	s5,t5,d7c <main+0x2b8>
 654:	7274                	flw	fa3,100(a2)
 656:	6e69                	lui	t3,0x1a
 658:	5f007367          	0x5f007367
 65c:	64656573          	csrrsi	a0,0x646,10
 660:	6f00                	flw	fs0,24(a4)
 662:	7470                	flw	fa2,108(s0)
 664:	7265                	lui	tp,0xffff9
 666:	0072                	0x72
 668:	6968                	flw	fa0,84(a0)
 66a:	5f006867          	0x5f006867
 66e:	715f 0030 5f5f      	0x5f5f0030715f
 674:	3171                	jal	300 <Func_1.constprop.1>
 676:	5f00                	lw	s0,56(a4)
 678:	74727473          	csrrci	s0,0x747,4
 67c:	6c5f6b6f          	jal	s6,f7540 <__C_STACK_TOP__+0xe7540>
 680:	7361                	lui	t1,0xffff8
 682:	0074                	addi	a3,sp,12
 684:	505f4d43          	fmadd.s	fs10,ft10,ft5,fa0,rmm
 688:	4349                	li	t1,18
 68a:	5f00                	lw	s0,56(a4)
 68c:	6e66                	flw	ft8,88(sp)
 68e:	7974                	flw	fa3,116(a0)
 690:	6570                	flw	fa2,76(a0)
 692:	6e750073          	0x6e750073
 696:	6e676973          	csrrsi	s2,0x6e6,14
 69a:	6465                	lui	s0,0x19
 69c:	6320                	flw	fs0,64(a4)
 69e:	6168                	flw	fa0,68(a0)
 6a0:	0072                	0x72
 6a2:	615f 6464 5f00      	0x5f006464615f
 6a8:	555f 6f4c 676e      	0x676e6f4c555f
 6ae:	6800                	flw	fs0,16(s0)
 6b0:	6174                	flw	fa3,68(a0)
 6b2:	5f62                	lw	t5,56(sp)
 6b4:	7165                	addi	sp,sp,-400
 6b6:	705f 696f 746e      	0x746e696f705f
 6bc:	7265                	lui	tp,0xffff9
 6be:	5f00                	lw	s0,56(a4)
 6c0:	785f 0072 675f      	0x675f0072785f
 6c6:	6f6c                	flw	fa1,92(a4)
 6c8:	6162                	flw	ft2,24(sp)
 6ca:	5f6c                	lw	a1,124(a4)
 6cc:	6d69                	lui	s10,0x1a
 6ce:	7570                	flw	fa2,108(a0)
 6d0:	6572                	flw	fa0,28(sp)
 6d2:	705f 7274 5500      	0x55007274705f
 6d8:	4944                	lw	s1,20(a0)
 6da:	7974                	flw	fa3,116(a0)
 6dc:	6570                	flw	fa2,76(a0)
 6de:	5f00                	lw	s0,56(a4)
 6e0:	6f647473          	csrrci	s0,0x6f6,8
 6e4:	7475                	lui	s0,0xffffd
 6e6:	5f00                	lw	s0,56(a4)
 6e8:	745f 5f6d 6477      	0x64775f6d745f
 6ee:	7961                	lui	s2,0xffff8
 6f0:	5f00                	lw	s0,56(a4)
 6f2:	65756c67          	0x65756c67
 6f6:	5f00                	lw	s0,56(a4)
 6f8:	69647473          	csrrci	s0,0x696,8
 6fc:	006e                	0x6e
 6fe:	735f 6973 657a      	0x657a6973735f
 704:	745f 5f00 366c      	0x366c5f00745f
 70a:	6134                	flw	fa3,64(a0)
 70c:	625f 6675 5f00      	0x5f006675625f
 712:	5f676973          	csrrsi	s2,0x5f6,14
 716:	7566                	flw	fa0,120(sp)
 718:	636e                	flw	ft6,216(sp)
 71a:	5f00                	lw	s0,56(a4)
 71c:	705f 706f 6f63      	0x6f63706f705f
 722:	6e75                	lui	t3,0x1d
 724:	5f74                	lw	a3,124(a4)
 726:	6174                	flw	fa3,68(a0)
 728:	0062                	0x62
 72a:	6e5f 7562 0066      	0x6675626e5f
 730:	755f 756e 6573      	0x6573756e755f
 736:	0064                	addi	s1,sp,12
 738:	5f5f 3072 5f00      	0x5f0030725f5f
 73e:	725f 0031 5f5f      	0x5f5f0031725f
 744:	6d74                	flw	fa3,92(a0)
 746:	695f 6473 7473      	0x74736473695f
 74c:	5f00                	lw	s0,56(a4)
 74e:	6f6c                	flw	fa1,92(a4)
 750:	746c6163          	bltu	s8,t1,e92 <main+0x3ce>
 754:	6d69                	lui	s10,0x1a
 756:	5f65                	li	t5,-7
 758:	7562                	flw	fa0,56(sp)
 75a:	0066                	0x66
 75c:	5f5f 6d74 6d5f      	0x6d5f6d745f5f
 762:	6e69                	lui	t3,0x1a
 764:	5f00                	lw	s0,56(a4)
 766:	3472                	fld	fs0,312(sp)
 768:	0038                	addi	a4,sp,8
 76a:	4241                	li	tp,16
 76c:	5f49                	li	t5,-14
 76e:	504c                	lw	a1,36(s0)
 770:	3436                	fld	fs0,360(sp)
 772:	0044                	addi	s1,sp,4
 774:	6f74706f          	j	4866a <__C_STACK_TOP__+0x3866a>
 778:	7470                	flw	fa2,108(s0)
 77a:	4100                	lw	s0,0(a0)
 77c:	4942                	lw	s2,16(sp)
 77e:	4c5f 3650 4634      	0x463436504c5f
 784:	5f00                	lw	s0,56(a4)
 786:	626d                	lui	tp,0x1b
 788:	6f74                	flw	fa3,92(a4)
 78a:	735f6377          	0x735f6377
 78e:	6174                	flw	fa3,68(a0)
 790:	6574                	flw	fa3,76(a0)
 792:	5f00                	lw	s0,56(a4)
 794:	3570                	fld	fa2,232(a0)
 796:	5f5f0073          	0x5f5f0073
 79a:	6d74                	flw	fa3,92(a0)
 79c:	795f 6164 0079      	0x796164795f
 7a2:	5155                	li	sp,-11
 7a4:	7449                	lui	s0,0xffff2
 7a6:	7079                	0x7079
 7a8:	0065                	c.addi	zero,25
 7aa:	5f5f 6273 6675      	0x667562735f5f
 7b0:	5f00                	lw	s0,56(a4)
 7b2:	745f 5f6d 646d      	0x646d5f6d745f
 7b8:	7961                	lui	s2,0xffff8
 7ba:	5f00                	lw	s0,56(a4)
 7bc:	6172                	flw	ft2,28(sp)
 7be:	646e                	flw	fs0,216(sp)
 7c0:	6e5f 7865 0074      	0x7478656e5f
 7c6:	7468                	flw	fa0,108(s0)
 7c8:	6261                	lui	tp,0x18
 7ca:	655f 0071 5f5f      	0x5f5f0071655f
 7d0:	6475                	lui	s0,0x1d
 7d2:	7669                	lui	a2,0xffffa
 7d4:	6964                	flw	fs1,84(a0)
 7d6:	5f5f0033          	0x5f5f0033
 7da:	6d75                	lui	s10,0x1d
 7dc:	6964646f          	jal	s0,46e72 <__C_STACK_TOP__+0x36e72>
 7e0:	4e470033          	0x4e470033
 7e4:	2055                	jal	888 <vprintfmt.constprop.2+0x46e>
 7e6:	20313143          	fmadd.s	ft2,ft2,ft3,ft4,rup
 7ea:	2e312e37          	lui	t3,0x2e312
 7ee:	2031                	jal	7fa <vprintfmt.constprop.2+0x3e0>
 7f0:	3032                	fld	ft0,296(sp)
 7f2:	3731                	jal	6fe <vprintfmt.constprop.2+0x2e4>
 7f4:	3530                	fld	fa2,104(a0)
 7f6:	3930                	fld	fa2,112(a0)
 7f8:	2d20                	fld	fs0,88(a0)
 7fa:	636d                	lui	t1,0x1b
 7fc:	6f6d                	lui	t5,0x1b
 7fe:	6564                	flw	fs1,76(a0)
 800:	3d6c                	fld	fa1,248(a0)
 802:	656d                	lui	a0,0x1b
 804:	6c64                	flw	fs1,92(s0)
 806:	2d20776f          	jal	a4,7ad8 <__BSS_END__+0x1e58>
 80a:	616d                	addi	sp,sp,240
 80c:	6372                	flw	ft6,28(sp)
 80e:	3d68                	fld	fa0,248(a0)
 810:	7672                	flw	fa2,60(sp)
 812:	6d693233          	0x6d693233
 816:	2d20                	fld	fs0,88(a0)
 818:	616d                	addi	sp,sp,240
 81a:	6962                	flw	fs2,24(sp)
 81c:	693d                	lui	s2,0xf
 81e:	706c                	flw	fa1,100(s0)
 820:	2d203233          	0x2d203233
 824:	636d                	lui	t1,0x1b
 826:	6f6d                	lui	t5,0x1b
 828:	6564                	flw	fs1,76(a0)
 82a:	3d6c                	fld	fa1,248(a0)
 82c:	656d                	lui	a0,0x1b
 82e:	6c64                	flw	fs1,92(s0)
 830:	2d20776f          	jal	a4,7b02 <__BSS_END__+0x1e82>
 834:	4f2d2067          	0x4f2d2067
 838:	4f2d2073          	csrs	0x4f2,s10
 83c:	2032                	fld	ft0,264(sp)
 83e:	4f2d                	li	t5,11
 840:	662d2073          	csrs	0x662,s10
 844:	7562                	flw	fa0,56(sp)
 846:	6c69                	lui	s8,0x1a
 848:	6964                	flw	fs1,84(a0)
 84a:	676e                	flw	fa4,216(sp)
 84c:	6c2d                	lui	s8,0xb
 84e:	6269                	lui	tp,0x1a
 850:	20636367          	0x20636367
 854:	662d                	lui	a2,0xb
 856:	6f6e                	flw	ft10,216(sp)
 858:	732d                	lui	t1,0xfffeb
 85a:	6174                	flw	fa3,68(a0)
 85c:	702d6b63          	bltu	s10,sp,f72 <main+0x4ae>
 860:	6f72                	flw	ft10,28(sp)
 862:	6574                	flw	fa3,76(a0)
 864:	726f7463          	bleu	t1,t5,f8c <main+0x4c8>
 868:	2d20                	fld	fs0,88(a0)
 86a:	7666                	flw	fa2,120(sp)
 86c:	7369                	lui	t1,0xffffa
 86e:	6269                	lui	tp,0x1a
 870:	6c69                	lui	s8,0x1a
 872:	7469                	lui	s0,0xffffa
 874:	3d79                	jal	712 <vprintfmt.constprop.2+0x2f8>
 876:	6968                	flw	fa0,84(a0)
 878:	6464                	flw	fs1,76(s0)
 87a:	6e65                	lui	t3,0x19
	...
