
/home/oleg/scr1/build/verilator_wf_AHB_IMC/fence_i.elf:     формат файла elf32-littleriscv


Дизассемблирование раздела .text.init:

00000000 <SIM_EXIT-0xf4>:
	...

000000f4 <SIM_EXIT>:
  f4:	00000013          	nop

000000f8 <SIM_STOP>:
  f8:	0000006f          	j	f8 <SIM_STOP>
  fc:	ffff                	0xffff
  fe:	ffff                	0xffff
	...

000001c0 <trap_vector>:
 1c0:	34202773          	csrr	a4,mcause
 1c4:	47a1                	li	a5,8
 1c6:	02f70463          	beq	a4,a5,1ee <_report>
 1ca:	47a5                	li	a5,9
 1cc:	02f70163          	beq	a4,a5,1ee <_report>
 1d0:	47ad                	li	a5,11
 1d2:	00f70e63          	beq	a4,a5,1ee <_report>
 1d6:	00000717          	auipc	a4,0x0
 1da:	e2a70713          	addi	a4,a4,-470 # 0 <CL_SIZE-0x20>
 1de:	c311                	beqz	a4,1e2 <trap_vector+0x22>
 1e0:	8702                	jr	a4
 1e2:	34202773          	csrr	a4,mcause
 1e6:	00075363          	bgez	a4,1ec <handle_exception>
 1ea:	a009                	j	1ec <handle_exception>

000001ec <handle_exception>:
 1ec:	4505                	li	a0,1

000001ee <_report>:
 1ee:	1920006f          	j	380 <sc_exit>
 1f2:	00000013          	nop
 1f6:	00000013          	nop
 1fa:	00000013          	nop
 1fe:	0001                	nop

00000200 <_start>:
 200:	f1402573          	csrr	a0,mhartid
 204:	e101                	bnez	a0,204 <_start+0x4>
 206:	4e01                	li	t3,0
 208:	00000297          	auipc	t0,0x0
 20c:	fb828293          	addi	t0,t0,-72 # 1c0 <trap_vector>
 210:	30529073          	csrw	mtvec,t0
 214:	4505                	li	a0,1
 216:	057e                	slli	a0,a0,0x1f
 218:	00054863          	bltz	a0,228 <_start+0x28>
 21c:	0ff0000f          	fence
 220:	85f2                	mv	a1,t3
 222:	4501                	li	a0,0
 224:	00000073          	ecall
 228:	00000297          	auipc	t0,0x0
 22c:	dd828293          	addi	t0,t0,-552 # 0 <CL_SIZE-0x20>
 230:	00028e63          	beqz	t0,24c <_start+0x4c>
 234:	10529073          	csrw	stvec,t0
 238:	0000b2b7          	lui	t0,0xb
 23c:	10928293          	addi	t0,t0,265 # b109 <__global_pointer$+0xa4c1>
 240:	30229073          	csrw	medeleg,t0
 244:	30202373          	csrr	t1,medeleg
 248:	fa6292e3          	bne	t0,t1,1ec <handle_exception>
 24c:	30005073          	csrwi	mstatus,0
 250:	00000297          	auipc	t0,0x0
 254:	07028293          	addi	t0,t0,112 # 2c0 <_run_test>
 258:	34129073          	csrw	mepc,t0
 25c:	f1402573          	csrr	a0,mhartid
 260:	30200073          	mret
	...

Дизассемблирование раздела .text:

000002c0 <_run_test>:
 2c0:	06f00693          	li	a3,111
 2c4:	00000517          	auipc	a0,0x0
 2c8:	11c51503          	lh	a0,284(a0) # 3e0 <begin_signature>
 2cc:	00000597          	auipc	a1,0x0
 2d0:	11659583          	lh	a1,278(a1) # 3e2 <begin_signature+0x2>
 2d4:	00000013          	nop
 2d8:	00000013          	nop
 2dc:	00000013          	nop
 2e0:	00000013          	nop
 2e4:	00000013          	nop
 2e8:	00000013          	nop
 2ec:	00000013          	nop
 2f0:	00000013          	nop
 2f4:	00000013          	nop
 2f8:	00000013          	nop
 2fc:	00000013          	nop
 300:	00000297          	auipc	t0,0x0
 304:	00a29a23          	sh	a0,20(t0) # 314 <_run_test+0x54>
 308:	00000297          	auipc	t0,0x0
 30c:	00b29723          	sh	a1,14(t0) # 316 <_run_test+0x56>
 310:	0000100f          	fence.i
 314:	0de68693          	addi	a3,a3,222

00000318 <test_2>:
 318:	0001                	nop
 31a:	1bc00e93          	li	t4,444
 31e:	4e09                	li	t3,2
 320:	03d69a63          	bne	a3,t4,354 <fail>
 324:	06400713          	li	a4,100
 328:	177d                	addi	a4,a4,-1
 32a:	ff7d                	bnez	a4,328 <test_2+0x10>
 32c:	00000297          	auipc	t0,0x0
 330:	00a29a23          	sh	a0,20(t0) # 340 <test_2+0x28>
 334:	00000297          	auipc	t0,0x0
 338:	00b29723          	sh	a1,14(t0) # 342 <test_2+0x2a>
 33c:	0000100f          	fence.i
 340:	22b68693          	addi	a3,a3,555

00000344 <test_3>:
 344:	0001                	nop
 346:	30900e93          	li	t4,777
 34a:	4e0d                	li	t3,3
 34c:	01d69463          	bne	a3,t4,354 <fail>
 350:	01c01863          	bne	zero,t3,360 <pass>

00000354 <fail>:
 354:	0ff0000f          	fence
 358:	85f2                	mv	a1,t3
 35a:	4505                	li	a0,1
 35c:	00000073          	ecall

00000360 <pass>:
 360:	0ff0000f          	fence
 364:	85f2                	mv	a1,t3
 366:	4501                	li	a0,0
 368:	00000073          	ecall

0000036c <ecall>:
 36c:	00000073          	ecall
	...

00000380 <sc_exit>:
 380:	d75ff06f          	j	f4 <SIM_EXIT>
 384:	00000013          	nop
 388:	00000013          	nop
 38c:	00000013          	nop
 390:	00000013          	nop
 394:	00000013          	nop
 398:	00000013          	nop
 39c:	00000013          	nop
	...

Дизассемблирование раздела .data:

000003c0 <begin_regstate>:
	...

000003e0 <begin_signature>:
 3e0:	14d68693          	addi	a3,a3,333
	...

000003f0 <end_signature>:
	...

Дизассемблирование раздела .tohost:

00000400 <tohost>:
	...

00000440 <fromhost>:
	...

Дизассемблирование раздела .sdata:

00000448 <__global_pointer$-0x800>:
	...

Дизассемблирование раздела .stack:

0000fc00 <.stack>:
	...
